ARM GAS  C:\Users\matil\AppData\Local\Temp\ccjdhBtu.s 			page 1


   1              		.cpu cortex-m0plus
   2              		.eabi_attribute 20, 1
   3              		.eabi_attribute 21, 1
   4              		.eabi_attribute 23, 3
   5              		.eabi_attribute 24, 1
   6              		.eabi_attribute 25, 1
   7              		.eabi_attribute 26, 1
   8              		.eabi_attribute 30, 1
   9              		.eabi_attribute 34, 0
  10              		.eabi_attribute 18, 4
  11              		.file	"cmd.c"
  12              		.text
  13              	.Ltext0:
  14              		.cfi_sections	.debug_frame
  15              		.section	.rodata.cmd.str1.4,"aMS",%progbits,1
  16              		.align	2
  17              	.LC3:
  18 0000 30782530 		.ascii	"0x%06x\012\000"
  18      36780A00 
  19              		.align	2
  20              	.LC6:
  21 0008 41444320 		.ascii	"ADC DEBUG:\012\012\000"
  21      44454255 
  21      473A0A0A 
  21      00
  22 0015 000000   		.align	2
  23              	.LC8:
  24 0018 09414443 		.ascii	"\011ADC_STATUS_REG:\011\0110x%02x\012\000"
  24      5F535441 
  24      5455535F 
  24      5245473A 
  24      09093078 
  25 0032 0000     		.align	2
  26              	.LC10:
  27 0034 09414443 		.ascii	"\011ADC_MODE_REG:\011\0110x%04x\012\000"
  27      5F4D4F44 
  27      455F5245 
  27      473A0909 
  27      30782530 
  28              		.align	2
  29              	.LC12:
  30 004c 09414443 		.ascii	"\011ADC_INTERFACE_REG:\0110x%04x\012\000"
  30      5F494E54 
  30      45524641 
  30      43455F52 
  30      45473A09 
  31              		.align	2
  32              	.LC14:
  33 0068 09414443 		.ascii	"\011ADC_CHECK_REG:\011\0110x%06x\012\000"
  33      5F434845 
  33      434B5F52 
  33      45473A09 
  33      09307825 
  34 0081 000000   		.align	2
  35              	.LC16:
  36 0084 09414443 		.ascii	"\011ADC_DATA_REG:\011\0110x%06x\012\000"
  36      5F444154 
ARM GAS  C:\Users\matil\AppData\Local\Temp\ccjdhBtu.s 			page 2


  36      415F5245 
  36      473A0909 
  36      30782530 
  37              		.align	2
  38              	.LC18:
  39 009c 09414443 		.ascii	"\011ADC_GPIO_REG:\011\0110x%04x\012\000"
  39      5F475049 
  39      4F5F5245 
  39      473A0909 
  39      30782530 
  40              		.align	2
  41              	.LC20:
  42 00b4 09414443 		.ascii	"\011ADC_ID_REG:\011\0110x%04x\012\000"
  42      5F49445F 
  42      5245473A 
  42      09093078 
  42      25303478 
  43 00ca 0000     		.align	2
  44              	.LC22:
  45 00cc 09414443 		.ascii	"\011ADC_CH%i_REG:\011\0110x%04x\012\000"
  45      5F434825 
  45      695F5245 
  45      473A0909 
  45      30782530 
  46              		.align	2
  47              	.LC24:
  48 00e4 09414443 		.ascii	"\011ADC_SETUPCON%i_REG:\0110x%04x\012\000"
  48      5F534554 
  48      5550434F 
  48      4E25695F 
  48      5245473A 
  49 0101 000000   		.align	2
  50              	.LC26:
  51 0104 09414443 		.ascii	"\011ADC_FILTCON%i_REG:\0110x%04x\012\000"
  51      5F46494C 
  51      54434F4E 
  51      25695F52 
  51      45473A09 
  52              		.align	2
  53              	.LC28:
  54 0120 09414443 		.ascii	"\011ADC_OFFSET%i_REG:\0110x%04x\012\000"
  54      5F4F4646 
  54      53455425 
  54      695F5245 
  54      473A0930 
  55 013b 00       		.align	2
  56              	.LC30:
  57 013c 09414443 		.ascii	"\011ADC_GAIN%i_REG:\011\0110x%04x\012\000"
  57      5F474149 
  57      4E25695F 
  57      5245473A 
  57      09093078 
  58              		.global	__aeabi_lmul
  59              		.global	__aeabi_uldivmod
  60 0156 0000     		.align	2
  61              	.LC32:
  62 0158 5B25695D 		.ascii	"[%i]\011\000"
ARM GAS  C:\Users\matil\AppData\Local\Temp\ccjdhBtu.s 			page 3


  62      0900
  63 015e 0000     		.align	2
  64              	.LC34:
  65 0160 25313069 		.ascii	"%10i uV\011\011\000"
  65      20755609 
  65      0900
  66              		.global	__aeabi_ldivmod
  67 016a 0000     		.align	2
  68              	.LC36:
  69 016c 25692E00 		.ascii	"%i.\000"
  70              		.align	2
  71              	.LC38:
  72 0170 25303375 		.ascii	"%03u *C\012\000"
  72      202A430A 
  72      00
  73 0179 000000   		.align	2
  74              	.LC40:
  75 017c 0A0A0A0A 		.ascii	"\012\012\012\012\012\000"
  75      0A00
  76 0182 0000     		.align	2
  77              	.LC42:
  78 0184 50443020 		.ascii	"PD0 Phase:\011\011\000"
  78      50686173 
  78      653A0909 
  78      00
  79 0191 000000   		.align	2
  80              	.LC44:
  81 0194 2533692E 		.ascii	"%3i.\000"
  81      00
  82 0199 000000   		.align	2
  83              	.LC46:
  84 019c 2530336C 		.ascii	"%03lu deg\011\011\012\000"
  84      75206465 
  84      6709090A 
  84      00
  85 01a9 000000   		.align	2
  86              	.LC48:
  87 01ac 50443120 		.ascii	"PD1 Phase:\011\011\000"
  87      50686173 
  87      653A0909 
  87      00
  88 01b9 000000   		.align	2
  89              	.LC50:
  90 01bc 50443220 		.ascii	"PD2 Phase:\011\011\000"
  90      50686173 
  90      653A0909 
  90      00
  91 01c9 000000   		.align	2
  92              	.LC52:
  93 01cc 50443320 		.ascii	"PD3 Phase:\011\011\000"
  93      50686173 
  93      653A0909 
  93      00
  94 01d9 000000   		.align	2
  95              	.LC54:
  96 01dc 50443420 		.ascii	"PD4 Phase:\011\011\000"
  96      50686173 
ARM GAS  C:\Users\matil\AppData\Local\Temp\ccjdhBtu.s 			page 4


  96      653A0909 
  96      00
  97 01e9 000000   		.align	2
  98              	.LC56:
  99 01ec 50443020 		.ascii	"PD0 Rel Power:\011\011\000"
  99      52656C20 
  99      506F7765 
  99      723A0909 
  99      00
 100 01fd 000000   		.align	2
 101              	.LC58:
 102 0200 25336C69 		.ascii	"%3li.\000"
 102      2E00
 103              		.global	__aeabi_idivmod
 104 0206 0000     		.align	2
 105              	.LC60:
 106 0208 25303375 		.ascii	"%03u dB\011\011\012\000"
 106      20644209 
 106      090A00
 107 0213 00       		.align	2
 108              	.LC62:
 109 0214 50443120 		.ascii	"PD1 Rel Power:\011\011\000"
 109      52656C20 
 109      506F7765 
 109      723A0909 
 109      00
 110 0225 000000   		.align	2
 111              	.LC64:
 112 0228 50443220 		.ascii	"PD2 Rel Power:\011\011\000"
 112      52656C20 
 112      506F7765 
 112      723A0909 
 112      00
 113 0239 000000   		.align	2
 114              	.LC66:
 115 023c 50443320 		.ascii	"PD3 Rel Power:\011\011\000"
 115      52656C20 
 115      506F7765 
 115      723A0909 
 115      00
 116 024d 000000   		.align	2
 117              	.LC68:
 118 0250 50443420 		.ascii	"PD4 Rel Power:\011\011\000"
 118      52656C20 
 118      506F7765 
 118      723A0909 
 118      00
 119 0261 000000   		.align	2
 120              	.LC70:
 121 0264 50574430 		.ascii	"PWD0 Power:\011\011\000"
 121      20506F77 
 121      65723A09 
 121      0900
 122 0272 0000     		.align	2
 123              	.LC72:
 124 0274 25303375 		.ascii	"%03u dBm\011\011\012\000"
 124      2064426D 
ARM GAS  C:\Users\matil\AppData\Local\Temp\ccjdhBtu.s 			page 5


 124      09090A00 
 125              		.align	2
 126              	.LC74:
 127 0280 50574431 		.ascii	"PWD1 Power:\011\011\000"
 127      20506F77 
 127      65723A09 
 127      0900
 128 028e 0000     		.align	2
 129              	.LC76:
 130 0290 50574432 		.ascii	"PWD2 Power:\011\011\000"
 130      20506F77 
 130      65723A09 
 130      0900
 131 029e 0000     		.align	2
 132              	.LC78:
 133 02a0 50574433 		.ascii	"PWD3 Power:\011\011\000"
 133      20506F77 
 133      65723A09 
 133      0900
 134 02ae 0000     		.align	2
 135              	.LC80:
 136 02b0 656E6162 		.ascii	"enabled\012\000"
 136      6C65640A 
 136      00
 137 02b9 000000   		.align	2
 138              	.LC82:
 139 02bc 64697361 		.ascii	"disabled\012\000"
 139      626C6564 
 139      0A00
 140 02c6 0000     		.align	2
 141              	.LC84:
 142 02c8 5044312B 		.ascii	"PD1+PD2 SETPOINT: %li\012\000"
 142      50443220 
 142      53455450 
 142      4F494E54 
 142      3A20256C 
 143 02df 00       		.align	2
 144              	.LC86:
 145 02e0 50494420 		.ascii	"PID 704 Output: %li\012\000"
 145      37303420 
 145      4F757470 
 145      75743A20 
 145      256C690A 
 146 02f5 000000   		.align	2
 147              	.LC88:
 148 02f8 5049445F 		.ascii	"PID_704_P_error %i\012\000"
 148      3730345F 
 148      505F6572 
 148      726F7220 
 148      25690A00 
 149              		.align	2
 150              	.LC90:
 151 030c 2530366C 		.ascii	"%06li deg\011\011\012\000"
 151      69206465 
 151      6709090A 
 151      00
 152 0319 000000   		.align	2
ARM GAS  C:\Users\matil\AppData\Local\Temp\ccjdhBtu.s 			page 6


 153              	.LC92:
 154 031c 2530336C 		.ascii	"%03li deg\011\011\012\012\000"
 154      69206465 
 154      6709090A 
 154      0A00
 155 032a 0000     		.align	2
 156              	.LC94:
 157 032c 5044332B 		.ascii	"PD3+PD4 SETPOINT: %li\012\000"
 157      50443420 
 157      53455450 
 157      4F494E54 
 157      3A20256C 
 158 0343 00       		.align	2
 159              	.LC96:
 160 0344 50494420 		.ascii	"PID 352 Output: %li\012\000"
 160      33353220 
 160      4F757470 
 160      75743A20 
 160      256C690A 
 161 0359 000000   		.align	2
 162              	.LC98:
 163 035c 5049445F 		.ascii	"PID_352_P_error %i\012\000"
 163      3335325F 
 163      505F6572 
 163      726F7220 
 163      25690A00 
 164              		.align	2
 165              	.LC100:
 166 0370 2530366C 		.ascii	"%06li deg\011\011\012\012\000"
 166      69206465 
 166      6709090A 
 166      0A00
 167 037e 0000     		.align	2
 168              	.LC102:
 169 0380 504F5745 		.ascii	"POWER 352 SETPOINT: 0x%06x\012\000"
 169      52203335 
 169      32205345 
 169      54504F49 
 169      4E543A20 
 170              		.align	2
 171              	.LC104:
 172 039c 504F5745 		.ascii	"POWER 352 Output: 0x%04x\012\000"
 172      52203335 
 172      32204F75 
 172      74707574 
 172      3A203078 
 173 03b6 0000     		.align	2
 174              	.LC106:
 175 03b8 504F5745 		.ascii	"POWER 352 error: %i\012\000"
 175      52203335 
 175      32206572 
 175      726F723A 
 175      2025690A 
 176 03cd 000000   		.align	2
 177              	.LC108:
 178 03d0 504F5745 		.ascii	"POWER 352: 0x%06x\012\012\000"
 178      52203335 
ARM GAS  C:\Users\matil\AppData\Local\Temp\ccjdhBtu.s 			page 7


 178      323A2030 
 178      78253036 
 178      780A0A00 
 179              		.align	2
 180              	.LC110:
 181 03e4 504F5745 		.ascii	"POWER 704 SETPOINT: 0x%06x\012\000"
 181      52203730 
 181      34205345 
 181      54504F49 
 181      4E543A20 
 182              		.align	2
 183              	.LC112:
 184 0400 504F5745 		.ascii	"POWER 704 Output: 0x%04x\012\000"
 184      52203730 
 184      34204F75 
 184      74707574 
 184      3A203078 
 185 041a 0000     		.align	2
 186              	.LC114:
 187 041c 504F5745 		.ascii	"POWER 704 error: %i\012\000"
 187      52203730 
 187      34206572 
 187      726F723A 
 187      2025690A 
 188 0431 000000   		.align	2
 189              	.LC116:
 190 0434 504F5745 		.ascii	"POWER 704: 0x%06x\012\000"
 190      52203730 
 190      343A2030 
 190      78253036 
 190      780A00
 191 0447 00       		.align	2
 192              	.LC118:
 193 0448 756E6465 		.ascii	"undefined\012\000"
 193      66696E65 
 193      640A00
 194 0453 00       		.align	2
 195              	.LC120:
 196 0454 626F6F74 		.ascii	"bootloader available in 3s!\012\000"
 196      6C6F6164 
 196      65722061 
 196      7661696C 
 196      61626C65 
 197 0471 000000   		.align	2
 198              	.LC122:
 199 0474 626F6F74 		.ascii	"bootloader available in 2s!\012\000"
 199      6C6F6164 
 199      65722061 
 199      7661696C 
 199      61626C65 
 200 0491 000000   		.align	2
 201              	.LC124:
 202 0494 626F6F74 		.ascii	"bootloader available in 1s!\012\000"
 202      6C6F6164 
 202      65722061 
 202      7661696C 
 202      61626C65 
ARM GAS  C:\Users\matil\AppData\Local\Temp\ccjdhBtu.s 			page 8


 203 04b1 000000   		.align	2
 204              	.LC126:
 205 04b4 626F6F74 		.ascii	"bootloader available until reset\012\000"
 205      6C6F6164 
 205      65722061 
 205      7661696C 
 205      61626C65 
 206 04d6 0000     		.align	2
 207              	.LC128:
 208 04d8 4469723A 		.ascii	"Dir: \011\000"
 208      200900
 209 04df 00       		.align	2
 210              	.LC130:
 211 04e0 25640A00 		.ascii	"%d\012\000"
 212              		.align	2
 213              	.LC132:
 214 04e4 50574D3A 		.ascii	"PWM: \011\000"
 214      200900
 215 04eb 00       		.align	2
 216              	.LC134:
 217 04ec 54656D70 		.ascii	"Temp: \011\000"
 217      3A200900 
 218              		.align	2
 219              	.LC136:
 220 04f4 25642E00 		.ascii	"%d.\000"
 221              		.align	2
 222              	.LC138:
 223 04f8 53657470 		.ascii	"Setpoint: \011\000"
 223      6F696E74 
 223      3A200900 
 224              		.global	__aeabi_idiv
 225              		.align	2
 226              	.LC140:
 227 0504 6572726F 		.ascii	"error P: \011\000"
 227      7220503A 
 227      200900
 228 050f 00       		.align	2
 229              	.LC142:
 230 0510 6572726F 		.ascii	"error I: \011\000"
 230      7220493A 
 230      200900
 231              		.section	.text.cmd,"ax",%progbits
 232              		.align	1
 233              		.global	cmd
 234              		.arch armv6s-m
 235              		.syntax unified
 236              		.code	16
 237              		.thumb_func
 238              		.fpu softvfp
 240              	cmd:
 241              	.LFB284:
 242              		.file 1 "Src/cmd.c"
   1:Src/cmd.c     **** #include "usart.h"
   2:Src/cmd.c     **** #include <stdio.h>
   3:Src/cmd.c     **** #include "state.h"
   4:Src/cmd.c     **** #include "usart_utils.h"
   5:Src/cmd.c     **** #include "ADC.h"
ARM GAS  C:\Users\matil\AppData\Local\Temp\ccjdhBtu.s 			page 9


   6:Src/cmd.c     **** #include "spi.h"
   7:Src/cmd.c     **** #include "DAC.h"
   8:Src/cmd.c     **** #include "PID.h"
   9:Src/cmd.c     **** #include <stdlib.h>
  10:Src/cmd.c     **** extern state State;
  11:Src/cmd.c     **** 
  12:Src/cmd.c     **** void cmd()
  13:Src/cmd.c     **** {
 243              		.loc 1 13 1 view -0
 244              		.cfi_startproc
 245              		@ args = 0, pretend = 0, frame = 104
 246              		@ frame_needed = 0, uses_anonymous_args = 0
 247 0000 F0B5     		push	{r4, r5, r6, r7, lr}
 248              	.LCFI0:
 249              		.cfi_def_cfa_offset 20
 250              		.cfi_offset 4, -20
 251              		.cfi_offset 5, -16
 252              		.cfi_offset 6, -12
 253              		.cfi_offset 7, -8
 254              		.cfi_offset 14, -4
 255 0002 DE46     		mov	lr, fp
 256 0004 5746     		mov	r7, r10
 257 0006 4E46     		mov	r6, r9
 258 0008 4546     		mov	r5, r8
 259 000a E0B5     		push	{r5, r6, r7, lr}
 260              	.LCFI1:
 261              		.cfi_def_cfa_offset 36
 262              		.cfi_offset 8, -36
 263              		.cfi_offset 9, -32
 264              		.cfi_offset 10, -28
 265              		.cfi_offset 11, -24
 266 000c 9BB0     		sub	sp, sp, #108
 267              	.LCFI2:
 268              		.cfi_def_cfa_offset 144
  14:Src/cmd.c     ****     HAL_GPIO_TogglePin(LED_PHASE_GPIO_Port, LED_PHASE_Pin);
 269              		.loc 1 14 5 view .LVU1
 270 000e A020     		movs	r0, #160
 271 0010 0121     		movs	r1, #1
 272 0012 C005     		lsls	r0, r0, #23
 273 0014 FFF7FEFF 		bl	HAL_GPIO_TogglePin
 274              	.LVL0:
  15:Src/cmd.c     ****     switch (State.cmd)
 275              		.loc 1 15 5 view .LVU2
 276              		.loc 1 15 18 is_stmt 0 view .LVU3
 277 0018 DC4B     		ldr	r3, .L44
 278 001a 9B7A     		ldrb	r3, [r3, #10]
 279              		.loc 1 15 5 view .LVU4
 280 001c 0D2B     		cmp	r3, #13
 281 001e 09D8     		bhi	.L2
 282 0020 002B     		cmp	r3, #0
 283 0022 00D1     		bne	.LCB38
 284 0024 05E2     		b	.L1	@long jump
 285              	.LCB38:
 286 0026 0D2B     		cmp	r3, #13
 287 0028 00D9     		bls	.LCB40
 288 002a 02E2     		b	.L1	@long jump
 289              	.LCB40:
ARM GAS  C:\Users\matil\AppData\Local\Temp\ccjdhBtu.s 			page 10


 290 002c 9B00     		lsls	r3, r3, #2
 291 002e D84A     		ldr	r2, .L44+4
 292 0030 D358     		ldr	r3, [r2, r3]
 293 0032 9F46     		mov	pc, r3
 294              		.section	.rodata.cmd,"a",%progbits
 295              		.align	2
 296              	.L5:
 297 0000 32040000 		.word	.L1
 298 0004 6C000000 		.word	.L15
 299 0008 B2000000 		.word	.L14
 300 000c 32040000 		.word	.L1
 301 0010 EE000000 		.word	.L13
 302 0014 32040000 		.word	.L1
 303 0018 44040000 		.word	.L38
 304 001c FC040000 		.word	.L11
 305 0020 7E050000 		.word	.L10
 306 0024 E8050000 		.word	.L9
 307 0028 E00E0000 		.word	.L8
 308 002c 660E0000 		.word	.L7
 309 0030 16140000 		.word	.L6
 310 0034 24150000 		.word	.L4
 311              		.section	.text.cmd
 312              	.L2:
 313 0034 FF2B     		cmp	r3, #255
 314 0036 00D0     		beq	.LCB53
 315 0038 FBE1     		b	.L1	@long jump
 316              	.LCB53:
  16:Src/cmd.c     ****     {
  17:Src/cmd.c     ****     case cmd_blink:
  18:Src/cmd.c     ****     {
  19:Src/cmd.c     ****         if (!State.cmdLoop)
  20:Src/cmd.c     ****         {
  21:Src/cmd.c     ****             State.cmd = 0;
  22:Src/cmd.c     ****         }
  23:Src/cmd.c     ****         SERIAL_WRITE("ok\n");
  24:Src/cmd.c     ****         for (int i = 0; i < 10; i++)
  25:Src/cmd.c     ****         {
  26:Src/cmd.c     ****             HAL_GPIO_TogglePin(LED_PHASE_GPIO_Port, LED_PHASE_Pin);
  27:Src/cmd.c     ****             HAL_Delay(100);
  28:Src/cmd.c     ****         }
  29:Src/cmd.c     ****         break;
  30:Src/cmd.c     ****     }
  31:Src/cmd.c     ****     case cmd_adc_id:
  32:Src/cmd.c     ****     {
  33:Src/cmd.c     ****         SERIAL_WRITE("0x%06x\n", ADC_ID());
  34:Src/cmd.c     ****         if (!State.cmdLoop)
  35:Src/cmd.c     ****         {
  36:Src/cmd.c     ****             State.cmd = 0;
  37:Src/cmd.c     ****         }
  38:Src/cmd.c     ****         break;
  39:Src/cmd.c     ****     }
  40:Src/cmd.c     ****     // case cmd_adc_data:
  41:Src/cmd.c     ****     // {
  42:Src/cmd.c     ****     //     ADC_CMD(ADC_READ, ADC_DATA_REG);
  43:Src/cmd.c     ****     //     SERIAL_WRITE("0x%06x\n", ADC_SPI_READ_24());
  44:Src/cmd.c     ****     //    if(!State.cmdLoop){ State.cmd = 0;}
  45:Src/cmd.c     ****     //     break;
ARM GAS  C:\Users\matil\AppData\Local\Temp\ccjdhBtu.s 			page 11


  46:Src/cmd.c     ****     // }
  47:Src/cmd.c     ****     // case cmd_adc_reset:
  48:Src/cmd.c     ****     // {
  49:Src/cmd.c     ****     //     SERIAL_WRITE("ADC RESET\n");
  50:Src/cmd.c     ****     //     ADC_reset();
  51:Src/cmd.c     ****     //    if(!State.cmdLoop){ State.cmd = 0;}
  52:Src/cmd.c     ****     //     break;
  53:Src/cmd.c     ****     // }
  54:Src/cmd.c     ****     case cmd_adc_debug:
  55:Src/cmd.c     ****     {
  56:Src/cmd.c     ****         ADC_DATA_READY_EXTI_deInit();
  57:Src/cmd.c     ****         HAL_SPI_MspInit(&hspi2);
  58:Src/cmd.c     ****         SERIAL_WRITE("ADC DEBUG:\n\n");
  59:Src/cmd.c     ****         ADC_CMD(ADC_READ, ADC_STATUS_REG);
  60:Src/cmd.c     ****         SERIAL_WRITE("\tADC_STATUS_REG:\t\t0x%02x\n", ADC_SPI_READ_8());
  61:Src/cmd.c     ****         ADC_CMD(ADC_READ, ADC_MODE_REG);
  62:Src/cmd.c     ****         SERIAL_WRITE("\tADC_MODE_REG:\t\t0x%04x\n", ADC_SPI_READ_16());
  63:Src/cmd.c     ****         ADC_CMD(ADC_READ, ADC_INTERFACE_REG);
  64:Src/cmd.c     ****         SERIAL_WRITE("\tADC_INTERFACE_REG:\t0x%04x\n", ADC_SPI_READ_16());
  65:Src/cmd.c     ****         ADC_CMD(ADC_READ, ADC_CHECK_REG);
  66:Src/cmd.c     ****         SERIAL_WRITE("\tADC_CHECK_REG:\t\t0x%06x\n", ADC_SPI_READ_24());
  67:Src/cmd.c     ****         ADC_CMD(ADC_READ, ADC_DATA_REG);
  68:Src/cmd.c     ****         SERIAL_WRITE("\tADC_DATA_REG:\t\t0x%06x\n", ADC_SPI_READ_24());
  69:Src/cmd.c     ****         ADC_CMD(ADC_READ, ADC_GPIO_REG);
  70:Src/cmd.c     ****         SERIAL_WRITE("\tADC_GPIO_REG:\t\t0x%04x\n", ADC_SPI_READ_16());
  71:Src/cmd.c     ****         ADC_CMD(ADC_READ, ADC_ID_REG);
  72:Src/cmd.c     ****         SERIAL_WRITE("\tADC_ID_REG:\t\t0x%04x\n", ADC_SPI_READ_16());
  73:Src/cmd.c     ****         for (int i = 0; i < 15; i++)
  74:Src/cmd.c     ****         {
  75:Src/cmd.c     ****             ADC_CMD(ADC_READ, ADC_CHx_REG(i));
  76:Src/cmd.c     ****             SERIAL_WRITE("\tADC_CH%i_REG:\t\t0x%04x\n", i, ADC_SPI_READ_16());
  77:Src/cmd.c     ****         }
  78:Src/cmd.c     ****         for (int i = 0; i < 7; i++)
  79:Src/cmd.c     ****         {
  80:Src/cmd.c     ****             ADC_CMD(ADC_READ, ADC_SETUPCONx_REG(i));
  81:Src/cmd.c     ****             SERIAL_WRITE("\tADC_SETUPCON%i_REG:\t0x%04x\n", i, ADC_SPI_READ_16());
  82:Src/cmd.c     ****         }
  83:Src/cmd.c     ****         for (int i = 0; i < 7; i++)
  84:Src/cmd.c     ****         {
  85:Src/cmd.c     ****             ADC_CMD(ADC_READ, ADC_FILTCONx_REG(i));
  86:Src/cmd.c     ****             SERIAL_WRITE("\tADC_FILTCON%i_REG:\t0x%04x\n", i, ADC_SPI_READ_16());
  87:Src/cmd.c     ****         }
  88:Src/cmd.c     ****         for (int i = 0; i < 7; i++)
  89:Src/cmd.c     ****         {
  90:Src/cmd.c     ****             ADC_CMD(ADC_READ, ADC_OFFSETx_REG(i));
  91:Src/cmd.c     ****             SERIAL_WRITE("\tADC_OFFSET%i_REG:\t0x%04x\n", i, ADC_SPI_READ_24());
  92:Src/cmd.c     ****         }
  93:Src/cmd.c     ****         for (int i = 0; i < 7; i++)
  94:Src/cmd.c     ****         {
  95:Src/cmd.c     ****             ADC_CMD(ADC_READ, ADC_GAINx_REG(i));
  96:Src/cmd.c     ****             SERIAL_WRITE("\tADC_GAIN%i_REG:\t\t0x%04x\n", i, ADC_SPI_READ_24());
  97:Src/cmd.c     ****         }
  98:Src/cmd.c     ****         if (!State.cmdLoop)
  99:Src/cmd.c     ****         {
 100:Src/cmd.c     ****             State.cmd = 0;
 101:Src/cmd.c     ****         }
 102:Src/cmd.c     ****         HAL_SPI_MspDeInit(&hspi2);
ARM GAS  C:\Users\matil\AppData\Local\Temp\ccjdhBtu.s 			page 12


 103:Src/cmd.c     ****         ADC_DATA_READY_EXTI_Init();
 104:Src/cmd.c     ****         break;
 105:Src/cmd.c     ****     }
 106:Src/cmd.c     ****     case cmd_adc_values:
 107:Src/cmd.c     ****     {
 108:Src/cmd.c     ****         for (int i = 0; i < 16; i++)
 109:Src/cmd.c     ****         {
 110:Src/cmd.c     ****             uint64_t voltage_uV = (((uint64_t)State.ADC_Values[i] * 1800000) / 0xffffff);
 111:Src/cmd.c     ****             SERIAL_WRITE("[%i]\t", i);
 112:Src/cmd.c     ****             SERIAL_WRITE("%10i uV\t\t", voltage_uV);
 113:Src/cmd.c     ****             SERIAL_WRITE("0x%06x\n", State.ADC_Values[i]);
 114:Src/cmd.c     ****         }
 115:Src/cmd.c     ****         if (!State.cmdLoop)
 116:Src/cmd.c     ****         {
 117:Src/cmd.c     ****             State.cmd = 0;
 118:Src/cmd.c     ****         }
 119:Src/cmd.c     ****         break;
 120:Src/cmd.c     ****     }
 121:Src/cmd.c     ****     case cmd_temperature:
 122:Src/cmd.c     ****     {
 123:Src/cmd.c     ****         SERIAL_WRITE("%i.", Temperature() / 1000000);             //-66.875 to +52.443 C
 124:Src/cmd.c     ****         SERIAL_WRITE("%03u *C\n", (Temperature() / 1000) % 1000); //-66.875 to +52.443 C
 125:Src/cmd.c     ****         if (!State.cmdLoop)
 126:Src/cmd.c     ****         {
 127:Src/cmd.c     ****             State.cmd = 0;
 128:Src/cmd.c     ****         }
 129:Src/cmd.c     ****         break;
 130:Src/cmd.c     ****     }
 131:Src/cmd.c     ****     case cmd_dac_test:
 132:Src/cmd.c     ****     {
 133:Src/cmd.c     ****         SERIAL_WRITE("\n");
 134:Src/cmd.c     ****         DAC_test();
 135:Src/cmd.c     ****         if (!State.cmdLoop)
 136:Src/cmd.c     ****         {
 137:Src/cmd.c     ****             State.cmd = 0;
 138:Src/cmd.c     ****         }
 139:Src/cmd.c     ****         break;
 140:Src/cmd.c     ****     }
 141:Src/cmd.c     ****     case cmd_rf_state:
 142:Src/cmd.c     ****     {
 143:Src/cmd.c     ****         SERIAL_WRITE("\n\n\n\n\n")
 144:Src/cmd.c     ****         SERIAL_WRITE("PD0 Phase:\t\t");
 145:Src/cmd.c     ****         SERIAL_WRITE("%3i.", Phase(ADC_PD0_Phase_CH) / 1000);
 146:Src/cmd.c     ****         SERIAL_WRITE("%03lu deg\t\t\n", Phase(ADC_PD0_Phase_CH) % 1000);
 147:Src/cmd.c     **** 
 148:Src/cmd.c     ****         SERIAL_WRITE("PD1 Phase:\t\t");
 149:Src/cmd.c     ****         SERIAL_WRITE("%3i.", Phase(ADC_PD1_Phase_CH) / 1000);
 150:Src/cmd.c     ****         SERIAL_WRITE("%03lu deg\t\t\n", Phase(ADC_PD1_Phase_CH) % 1000);
 151:Src/cmd.c     **** 
 152:Src/cmd.c     ****         SERIAL_WRITE("PD2 Phase:\t\t");
 153:Src/cmd.c     ****         SERIAL_WRITE("%3i.", Phase(ADC_PD2_Phase_CH) / 1000);
 154:Src/cmd.c     ****         SERIAL_WRITE("%03lu deg\t\t\n", Phase(ADC_PD2_Phase_CH) % 1000);
 155:Src/cmd.c     **** 
 156:Src/cmd.c     ****         SERIAL_WRITE("PD3 Phase:\t\t");
 157:Src/cmd.c     ****         SERIAL_WRITE("%3i.", Phase(ADC_PD3_Phase_CH) / 1000);
 158:Src/cmd.c     ****         SERIAL_WRITE("%03lu deg\t\t\n", Phase(ADC_PD3_Phase_CH) % 1000);
 159:Src/cmd.c     **** 
ARM GAS  C:\Users\matil\AppData\Local\Temp\ccjdhBtu.s 			page 13


 160:Src/cmd.c     ****         SERIAL_WRITE("PD4 Phase:\t\t");
 161:Src/cmd.c     ****         SERIAL_WRITE("%3i.", Phase(ADC_PD4_Phase_CH) / 1000);
 162:Src/cmd.c     ****         SERIAL_WRITE("%03lu deg\t\t\n", Phase(ADC_PD4_Phase_CH) % 1000);
 163:Src/cmd.c     **** 
 164:Src/cmd.c     ****         SERIAL_WRITE("PD0 Rel Power:\t\t");
 165:Src/cmd.c     ****         SERIAL_WRITE("%3li.", Relative_Power(ADC_PD0_Power_CH) / 1000);
 166:Src/cmd.c     ****         SERIAL_WRITE("%03u dB\t\t\n", abs(Relative_Power(ADC_PD0_Power_CH)) % 1000);
 167:Src/cmd.c     **** 
 168:Src/cmd.c     ****         SERIAL_WRITE("PD1 Rel Power:\t\t");
 169:Src/cmd.c     ****         SERIAL_WRITE("%3li.", Relative_Power(ADC_PD1_Power_CH) / 1000);
 170:Src/cmd.c     ****         SERIAL_WRITE("%03u dB\t\t\n", abs(Relative_Power(ADC_PD1_Power_CH)) % 1000);
 171:Src/cmd.c     **** 
 172:Src/cmd.c     ****         SERIAL_WRITE("PD2 Rel Power:\t\t");
 173:Src/cmd.c     ****         SERIAL_WRITE("%3li.", Relative_Power(ADC_PD2_Power_CH) / 1000);
 174:Src/cmd.c     ****         SERIAL_WRITE("%03u dB\t\t\n", abs(Relative_Power(ADC_PD2_Power_CH)) % 1000);
 175:Src/cmd.c     **** 
 176:Src/cmd.c     ****         SERIAL_WRITE("PD3 Rel Power:\t\t");
 177:Src/cmd.c     ****         SERIAL_WRITE("%3li.", Relative_Power(ADC_PD3_Power_CH) / 1000);
 178:Src/cmd.c     ****         SERIAL_WRITE("%03u dB\t\t\n", abs(Relative_Power(ADC_PD3_Power_CH)) % 1000);
 179:Src/cmd.c     **** 
 180:Src/cmd.c     ****         SERIAL_WRITE("PD4 Rel Power:\t\t");
 181:Src/cmd.c     ****         SERIAL_WRITE("%3li.", Relative_Power(ADC_PD4_Power_CH) / 1000);
 182:Src/cmd.c     ****         SERIAL_WRITE("%03u dB\t\t\n", abs(Relative_Power(ADC_PD4_Power_CH)) % 1000);
 183:Src/cmd.c     **** 
 184:Src/cmd.c     ****         SERIAL_WRITE("PWD0 Power:\t\t");
 185:Src/cmd.c     ****         SERIAL_WRITE("%3li.", RMS_Power(ADC_PWD0_Power_CH) / 1000);
 186:Src/cmd.c     ****         SERIAL_WRITE("%03u dBm\t\t\n", abs(RMS_Power(ADC_PWD0_Power_CH)) % 1000);
 187:Src/cmd.c     **** 
 188:Src/cmd.c     ****         SERIAL_WRITE("PWD1 Power:\t\t");
 189:Src/cmd.c     ****         SERIAL_WRITE("%3li.", RMS_Power(ADC_PWD1_Power_CH) / 1000);
 190:Src/cmd.c     ****         SERIAL_WRITE("%03u dBm\t\t\n", abs(RMS_Power(ADC_PWD1_Power_CH)) % 1000);
 191:Src/cmd.c     **** 
 192:Src/cmd.c     ****         SERIAL_WRITE("PWD2 Power:\t\t");
 193:Src/cmd.c     ****         SERIAL_WRITE("%3li.", RMS_Power(ADC_PWD2_Power_CH) / 1000);
 194:Src/cmd.c     ****         SERIAL_WRITE("%03u dBm\t\t\n", abs(RMS_Power(ADC_PWD2_Power_CH)) % 1000);
 195:Src/cmd.c     **** 
 196:Src/cmd.c     ****         SERIAL_WRITE("PWD3 Power:\t\t");
 197:Src/cmd.c     ****         SERIAL_WRITE("%3li.", RMS_Power(ADC_PWD3_Power_CH) / 1000);
 198:Src/cmd.c     ****         SERIAL_WRITE("%03u dBm\t\t\n", abs(RMS_Power(ADC_PWD3_Power_CH)) % 1000);
 199:Src/cmd.c     ****         if (!State.cmdLoop)
 200:Src/cmd.c     ****         {
 201:Src/cmd.c     ****             State.cmd = 0;
 202:Src/cmd.c     ****         }
 203:Src/cmd.c     **** 
 204:Src/cmd.c     ****         break;
 205:Src/cmd.c     ****     }
 206:Src/cmd.c     ****     case cmd_loop:
 207:Src/cmd.c     ****     {
 208:Src/cmd.c     ****         State.cmd = 0;
 209:Src/cmd.c     ****         State.cmdLoop = !State.cmdLoop;
 210:Src/cmd.c     ****         if (State.cmdLoop)
 211:Src/cmd.c     ****         {
 212:Src/cmd.c     ****             SERIAL_WRITE("enabled\n")
 213:Src/cmd.c     ****         }
 214:Src/cmd.c     ****         else
 215:Src/cmd.c     ****         {
 216:Src/cmd.c     ****             SERIAL_WRITE("disabled\n")
ARM GAS  C:\Users\matil\AppData\Local\Temp\ccjdhBtu.s 			page 14


 217:Src/cmd.c     ****         }
 218:Src/cmd.c     ****         break;
 219:Src/cmd.c     ****     }
 220:Src/cmd.c     ****     case cmd_rf_pid:
 221:Src/cmd.c     ****     {
 222:Src/cmd.c     ****         if (!State.cmdLoop)
 223:Src/cmd.c     ****         {
 224:Src/cmd.c     ****             State.cmd = 0;
 225:Src/cmd.c     ****         }
 226:Src/cmd.c     ****         SERIAL_WRITE("\n")
 227:Src/cmd.c     **** 
 228:Src/cmd.c     ****         SERIAL_WRITE("PD1+PD2 SETPOINT: %li\n", State.PD1_PD2_SetPoint * 1000);
 229:Src/cmd.c     ****         SERIAL_WRITE("PID 704 Output: %li\n", State.PID_704_Output);
 230:Src/cmd.c     ****         SERIAL_WRITE("PID_704_P_error %i\n", State.PID_704_P_error);
 231:Src/cmd.c     **** 
 232:Src/cmd.c     ****         SERIAL_WRITE("PD1 Phase:\t\t");
 233:Src/cmd.c     ****         SERIAL_WRITE("%3i.", Phase_u(ADC_PD1_Phase_CH) / 1000000);
 234:Src/cmd.c     ****         SERIAL_WRITE("%06li deg\t\t\n", Phase_u(ADC_PD1_Phase_CH) % 1000000);
 235:Src/cmd.c     **** 
 236:Src/cmd.c     ****         SERIAL_WRITE("PD2 Phase:\t\t");
 237:Src/cmd.c     ****         SERIAL_WRITE("%3i.", Phase_u(ADC_PD2_Phase_CH) / 1000000);
 238:Src/cmd.c     ****         SERIAL_WRITE("%03li deg\t\t\n\n", Phase_u(ADC_PD2_Phase_CH) % 1000000);
 239:Src/cmd.c     **** 
 240:Src/cmd.c     ****         SERIAL_WRITE("PD3+PD4 SETPOINT: %li\n", State.PD3_PD4_SetPoint * 1000);
 241:Src/cmd.c     ****         SERIAL_WRITE("PID 352 Output: %li\n", State.PID_352_Output);
 242:Src/cmd.c     ****         SERIAL_WRITE("PID_352_P_error %i\n", State.PID_352_P_error);
 243:Src/cmd.c     **** 
 244:Src/cmd.c     ****         SERIAL_WRITE("PD3 Phase:\t\t");
 245:Src/cmd.c     ****         SERIAL_WRITE("%3i.", Phase_u(ADC_PD3_Phase_CH) / 1000000);
 246:Src/cmd.c     ****         SERIAL_WRITE("%06li deg\t\t\n", Phase_u(ADC_PD3_Phase_CH) % 1000000);
 247:Src/cmd.c     **** 
 248:Src/cmd.c     ****         SERIAL_WRITE("PD4 Phase:\t\t");
 249:Src/cmd.c     ****         SERIAL_WRITE("%3i.", Phase_u(ADC_PD4_Phase_CH) / 1000000);
 250:Src/cmd.c     ****         SERIAL_WRITE("%06li deg\t\t\n\n", Phase_u(ADC_PD4_Phase_CH) % 1000000);
 251:Src/cmd.c     **** 
 252:Src/cmd.c     ****         SERIAL_WRITE("POWER 352 SETPOINT: 0x%06x\n", State.POWER_PID_352_SetPoint);
 253:Src/cmd.c     ****         SERIAL_WRITE("POWER 352 Output: 0x%04x\n", State.POWER_PID_352_Output);
 254:Src/cmd.c     ****         SERIAL_WRITE("POWER 352 error: %i\n", State.ADC_ValuesFiltered[RF_POWER_AMP352] - State.POW
 255:Src/cmd.c     ****         SERIAL_WRITE("POWER 352: 0x%06x\n\n", State.ADC_ValuesFiltered[RF_POWER_AMP352]);
 256:Src/cmd.c     **** 
 257:Src/cmd.c     ****         SERIAL_WRITE("POWER 704 SETPOINT: 0x%06x\n", State.POWER_PID_704_SetPoint);
 258:Src/cmd.c     ****         SERIAL_WRITE("POWER 704 Output: 0x%04x\n", State.POWER_PID_704_Output);
 259:Src/cmd.c     ****         SERIAL_WRITE("POWER 704 error: %i\n", State.ADC_ValuesFiltered[RF_POWER_AMP704] - State.POW
 260:Src/cmd.c     ****         SERIAL_WRITE("POWER 704: 0x%06x\n", State.ADC_ValuesFiltered[RF_POWER_AMP704]);
 261:Src/cmd.c     **** 
 262:Src/cmd.c     ****         SERIAL_WRITE("\n")
 263:Src/cmd.c     **** 
 264:Src/cmd.c     ****         break;
 265:Src/cmd.c     ****     }
 266:Src/cmd.c     ****     case cmd_undefined:
 267:Src/cmd.c     ****     {
 268:Src/cmd.c     ****         State.cmd = 0;
 317              		.loc 1 268 9 is_stmt 1 view .LVU5
 318              		.loc 1 268 19 is_stmt 0 view .LVU6
 319 003a D44B     		ldr	r3, .L44
 320 003c 0022     		movs	r2, #0
 321 003e 9A72     		strb	r2, [r3, #10]
ARM GAS  C:\Users\matil\AppData\Local\Temp\ccjdhBtu.s 			page 15


 322              	.LBB2:
 269:Src/cmd.c     ****         SERIAL_WRITE("undefined\n");
 323              		.loc 1 269 9 is_stmt 1 view .LVU7
 324 0040 01AC     		add	r4, sp, #4
 325 0042 6032     		adds	r2, r2, #96
 326 0044 0021     		movs	r1, #0
 327 0046 02A8     		add	r0, sp, #8
 328 0048 FFF7FEFF 		bl	memset
 329              	.LVL1:
 330              		.loc 1 269 9 view .LVU8
 331 004c D14B     		ldr	r3, .L44+8
 332 004e 2200     		movs	r2, r4
 333 0050 03CB     		ldmia	r3!, {r0, r1}
 334 0052 03C2     		stmia	r2!, {r0, r1}
 335 0054 1988     		ldrh	r1, [r3]
 336 0056 1180     		strh	r1, [r2]
 337 0058 9B78     		ldrb	r3, [r3, #2]
 338 005a 9370     		strb	r3, [r2, #2]
 339              	.LVL2:
 340              		.loc 1 269 9 view .LVU9
 341 005c FA23     		movs	r3, #250
 342 005e 9B00     		lsls	r3, r3, #2
 343 0060 0A22     		movs	r2, #10
 344 0062 2100     		movs	r1, r4
 345 0064 CC48     		ldr	r0, .L44+12
 346 0066 FFF7FEFF 		bl	HAL_UART_Transmit
 347              	.LVL3:
 348              	.LBE2:
 349              		.loc 1 269 36 view .LVU10
 270:Src/cmd.c     ****         break;
 350              		.loc 1 270 9 view .LVU11
 351 006a E2E1     		b	.L1
 352              	.LVL4:
 353              	.L15:
  19:Src/cmd.c     ****         {
 354              		.loc 1 19 9 view .LVU12
  19:Src/cmd.c     ****         {
 355              		.loc 1 19 19 is_stmt 0 view .LVU13
 356 006c C74B     		ldr	r3, .L44
 357 006e DB7A     		ldrb	r3, [r3, #11]
  19:Src/cmd.c     ****         {
 358              		.loc 1 19 12 view .LVU14
 359 0070 002B     		cmp	r3, #0
 360 0072 02D1     		bne	.L17
  21:Src/cmd.c     ****         }
 361              		.loc 1 21 13 is_stmt 1 view .LVU15
  21:Src/cmd.c     ****         }
 362              		.loc 1 21 23 is_stmt 0 view .LVU16
 363 0074 C54B     		ldr	r3, .L44
 364 0076 0022     		movs	r2, #0
 365 0078 9A72     		strb	r2, [r3, #10]
 366              	.L17:
 367              	.LBB3:
  23:Src/cmd.c     ****         for (int i = 0; i < 10; i++)
 368              		.loc 1 23 9 is_stmt 1 view .LVU17
 369 007a 6022     		movs	r2, #96
 370 007c 0021     		movs	r1, #0
ARM GAS  C:\Users\matil\AppData\Local\Temp\ccjdhBtu.s 			page 16


 371 007e 02A8     		add	r0, sp, #8
 372 0080 FFF7FEFF 		bl	memset
 373              	.LVL5:
  23:Src/cmd.c     ****         for (int i = 0; i < 10; i++)
 374              		.loc 1 23 9 view .LVU18
 375 0084 C54B     		ldr	r3, .L44+16
 376 0086 0193     		str	r3, [sp, #4]
 377              	.LVL6:
  23:Src/cmd.c     ****         for (int i = 0; i < 10; i++)
 378              		.loc 1 23 9 view .LVU19
 379 0088 FA23     		movs	r3, #250
 380 008a 9B00     		lsls	r3, r3, #2
 381 008c 0322     		movs	r2, #3
 382 008e 01A9     		add	r1, sp, #4
 383 0090 C148     		ldr	r0, .L44+12
 384 0092 FFF7FEFF 		bl	HAL_UART_Transmit
 385              	.LVL7:
 386              	.LBE3:
  23:Src/cmd.c     ****         for (int i = 0; i < 10; i++)
 387              		.loc 1 23 29 view .LVU20
  24:Src/cmd.c     ****         {
 388              		.loc 1 24 9 view .LVU21
 389              	.LBB4:
  24:Src/cmd.c     ****         {
 390              		.loc 1 24 14 view .LVU22
  24:Src/cmd.c     ****         {
 391              		.loc 1 24 18 is_stmt 0 view .LVU23
 392 0096 0024     		movs	r4, #0
 393              	.LVL8:
 394              	.L18:
  24:Src/cmd.c     ****         {
 395              		.loc 1 24 25 is_stmt 1 discriminator 1 view .LVU24
  24:Src/cmd.c     ****         {
 396              		.loc 1 24 9 is_stmt 0 discriminator 1 view .LVU25
 397 0098 092C     		cmp	r4, #9
 398 009a 00DD     		ble	.LCB130
 399 009c C9E1     		b	.L1	@long jump
 400              	.LCB130:
  26:Src/cmd.c     ****             HAL_Delay(100);
 401              		.loc 1 26 13 is_stmt 1 discriminator 3 view .LVU26
 402 009e A020     		movs	r0, #160
 403 00a0 0121     		movs	r1, #1
 404 00a2 C005     		lsls	r0, r0, #23
 405 00a4 FFF7FEFF 		bl	HAL_GPIO_TogglePin
 406              	.LVL9:
  27:Src/cmd.c     ****         }
 407              		.loc 1 27 13 discriminator 3 view .LVU27
 408 00a8 6420     		movs	r0, #100
 409 00aa FFF7FEFF 		bl	HAL_Delay
 410              	.LVL10:
  24:Src/cmd.c     ****         {
 411              		.loc 1 24 33 discriminator 3 view .LVU28
  24:Src/cmd.c     ****         {
 412              		.loc 1 24 34 is_stmt 0 discriminator 3 view .LVU29
 413 00ae 0134     		adds	r4, r4, #1
 414              	.LVL11:
  24:Src/cmd.c     ****         {
ARM GAS  C:\Users\matil\AppData\Local\Temp\ccjdhBtu.s 			page 17


 415              		.loc 1 24 34 discriminator 3 view .LVU30
 416 00b0 F2E7     		b	.L18
 417              	.LVL12:
 418              	.L14:
  24:Src/cmd.c     ****         {
 419              		.loc 1 24 34 discriminator 3 view .LVU31
 420              	.LBE4:
 421              	.LBB5:
  33:Src/cmd.c     ****         if (!State.cmdLoop)
 422              		.loc 1 33 9 is_stmt 1 view .LVU32
 423 00b2 0023     		movs	r3, #0
 424 00b4 0193     		str	r3, [sp, #4]
 425 00b6 6022     		movs	r2, #96
 426 00b8 0021     		movs	r1, #0
 427 00ba 02A8     		add	r0, sp, #8
 428 00bc FFF7FEFF 		bl	memset
 429              	.LVL13:
  33:Src/cmd.c     ****         if (!State.cmdLoop)
 430              		.loc 1 33 9 view .LVU33
 431 00c0 FFF7FEFF 		bl	ADC_ID
 432              	.LVL14:
 433 00c4 0200     		movs	r2, r0
 434 00c6 B649     		ldr	r1, .L44+20
 435 00c8 01A8     		add	r0, sp, #4
 436 00ca FFF7FEFF 		bl	sprintf
 437              	.LVL15:
  33:Src/cmd.c     ****         if (!State.cmdLoop)
 438              		.loc 1 33 9 view .LVU34
 439 00ce FA23     		movs	r3, #250
 440 00d0 9B00     		lsls	r3, r3, #2
 441 00d2 0922     		movs	r2, #9
 442 00d4 01A9     		add	r1, sp, #4
 443 00d6 B048     		ldr	r0, .L44+12
 444 00d8 FFF7FEFF 		bl	HAL_UART_Transmit
 445              	.LVL16:
 446              	.LBE5:
  33:Src/cmd.c     ****         if (!State.cmdLoop)
 447              		.loc 1 33 43 view .LVU35
  34:Src/cmd.c     ****         {
 448              		.loc 1 34 9 view .LVU36
  34:Src/cmd.c     ****         {
 449              		.loc 1 34 19 is_stmt 0 view .LVU37
 450 00dc AB4B     		ldr	r3, .L44
 451 00de DB7A     		ldrb	r3, [r3, #11]
  34:Src/cmd.c     ****         {
 452              		.loc 1 34 12 view .LVU38
 453 00e0 002B     		cmp	r3, #0
 454 00e2 00D0     		beq	.LCB179
 455 00e4 A5E1     		b	.L1	@long jump
 456              	.LCB179:
  36:Src/cmd.c     ****         }
 457              		.loc 1 36 13 is_stmt 1 view .LVU39
  36:Src/cmd.c     ****         }
 458              		.loc 1 36 23 is_stmt 0 view .LVU40
 459 00e6 A94B     		ldr	r3, .L44
 460 00e8 0022     		movs	r2, #0
 461 00ea 9A72     		strb	r2, [r3, #10]
ARM GAS  C:\Users\matil\AppData\Local\Temp\ccjdhBtu.s 			page 18


 462 00ec A1E1     		b	.L1
 463              	.LVL17:
 464              	.L13:
  56:Src/cmd.c     ****         HAL_SPI_MspInit(&hspi2);
 465              		.loc 1 56 9 is_stmt 1 view .LVU41
 466 00ee FFF7FEFF 		bl	ADC_DATA_READY_EXTI_deInit
 467              	.LVL18:
  57:Src/cmd.c     ****         SERIAL_WRITE("ADC DEBUG:\n\n");
 468              		.loc 1 57 9 view .LVU42
 469 00f2 AC48     		ldr	r0, .L44+24
 470 00f4 FFF7FEFF 		bl	HAL_SPI_MspInit
 471              	.LVL19:
 472              	.LBB6:
  58:Src/cmd.c     ****         ADC_CMD(ADC_READ, ADC_STATUS_REG);
 473              		.loc 1 58 9 view .LVU43
 474 00f8 01AC     		add	r4, sp, #4
 475 00fa 0027     		movs	r7, #0
 476 00fc 6022     		movs	r2, #96
 477 00fe 0021     		movs	r1, #0
 478 0100 02A8     		add	r0, sp, #8
 479 0102 FFF7FEFF 		bl	memset
 480              	.LVL20:
  58:Src/cmd.c     ****         ADC_CMD(ADC_READ, ADC_STATUS_REG);
 481              		.loc 1 58 9 view .LVU44
 482 0106 A84B     		ldr	r3, .L44+28
 483 0108 2200     		movs	r2, r4
 484 010a 23CB     		ldmia	r3!, {r0, r1, r5}
 485 010c 23C2     		stmia	r2!, {r0, r1, r5}
 486 010e 1B78     		ldrb	r3, [r3]
 487 0110 1370     		strb	r3, [r2]
 488              	.LVL21:
  58:Src/cmd.c     ****         ADC_CMD(ADC_READ, ADC_STATUS_REG);
 489              		.loc 1 58 9 view .LVU45
 490 0112 FA26     		movs	r6, #250
 491 0114 B600     		lsls	r6, r6, #2
 492 0116 A04D     		ldr	r5, .L44+12
 493 0118 3300     		movs	r3, r6
 494 011a 0C22     		movs	r2, #12
 495 011c 2100     		movs	r1, r4
 496 011e 2800     		movs	r0, r5
 497 0120 FFF7FEFF 		bl	HAL_UART_Transmit
 498              	.LVL22:
 499              	.LBE6:
  58:Src/cmd.c     ****         ADC_CMD(ADC_READ, ADC_STATUS_REG);
 500              		.loc 1 58 39 view .LVU46
  59:Src/cmd.c     ****         SERIAL_WRITE("\tADC_STATUS_REG:\t\t0x%02x\n", ADC_SPI_READ_8());
 501              		.loc 1 59 9 view .LVU47
 502 0124 0021     		movs	r1, #0
 503 0126 4020     		movs	r0, #64
 504 0128 FFF7FEFF 		bl	ADC_CMD
 505              	.LVL23:
 506              	.LBB7:
  60:Src/cmd.c     ****         ADC_CMD(ADC_READ, ADC_MODE_REG);
 507              		.loc 1 60 9 view .LVU48
 508 012c 0197     		str	r7, [sp, #4]
 509 012e 6022     		movs	r2, #96
 510 0130 0021     		movs	r1, #0
ARM GAS  C:\Users\matil\AppData\Local\Temp\ccjdhBtu.s 			page 19


 511 0132 02A8     		add	r0, sp, #8
 512 0134 FFF7FEFF 		bl	memset
 513              	.LVL24:
  60:Src/cmd.c     ****         ADC_CMD(ADC_READ, ADC_MODE_REG);
 514              		.loc 1 60 9 view .LVU49
 515 0138 FFF7FEFF 		bl	ADC_SPI_READ_8
 516              	.LVL25:
 517 013c 0200     		movs	r2, r0
 518 013e 9B49     		ldr	r1, .L44+32
 519 0140 2000     		movs	r0, r4
 520 0142 FFF7FEFF 		bl	sprintf
 521              	.LVL26:
  60:Src/cmd.c     ****         ADC_CMD(ADC_READ, ADC_MODE_REG);
 522              		.loc 1 60 9 view .LVU50
 523 0146 3300     		movs	r3, r6
 524 0148 1722     		movs	r2, #23
 525 014a 2100     		movs	r1, r4
 526 014c 2800     		movs	r0, r5
 527 014e FFF7FEFF 		bl	HAL_UART_Transmit
 528              	.LVL27:
 529              	.LBE7:
  60:Src/cmd.c     ****         ADC_CMD(ADC_READ, ADC_MODE_REG);
 530              		.loc 1 60 72 view .LVU51
  61:Src/cmd.c     ****         SERIAL_WRITE("\tADC_MODE_REG:\t\t0x%04x\n", ADC_SPI_READ_16());
 531              		.loc 1 61 9 view .LVU52
 532 0152 0121     		movs	r1, #1
 533 0154 4020     		movs	r0, #64
 534 0156 FFF7FEFF 		bl	ADC_CMD
 535              	.LVL28:
 536              	.LBB8:
  62:Src/cmd.c     ****         ADC_CMD(ADC_READ, ADC_INTERFACE_REG);
 537              		.loc 1 62 9 view .LVU53
 538 015a 0197     		str	r7, [sp, #4]
 539 015c 6022     		movs	r2, #96
 540 015e 0021     		movs	r1, #0
 541 0160 02A8     		add	r0, sp, #8
 542 0162 FFF7FEFF 		bl	memset
 543              	.LVL29:
  62:Src/cmd.c     ****         ADC_CMD(ADC_READ, ADC_INTERFACE_REG);
 544              		.loc 1 62 9 view .LVU54
 545 0166 FFF7FEFF 		bl	ADC_SPI_READ_16
 546              	.LVL30:
 547 016a 0200     		movs	r2, r0
 548 016c 9049     		ldr	r1, .L44+36
 549 016e 2000     		movs	r0, r4
 550 0170 FFF7FEFF 		bl	sprintf
 551              	.LVL31:
  62:Src/cmd.c     ****         ADC_CMD(ADC_READ, ADC_INTERFACE_REG);
 552              		.loc 1 62 9 view .LVU55
 553 0174 3300     		movs	r3, r6
 554 0176 1722     		movs	r2, #23
 555 0178 2100     		movs	r1, r4
 556 017a 2800     		movs	r0, r5
 557 017c FFF7FEFF 		bl	HAL_UART_Transmit
 558              	.LVL32:
 559              	.LBE8:
  62:Src/cmd.c     ****         ADC_CMD(ADC_READ, ADC_INTERFACE_REG);
ARM GAS  C:\Users\matil\AppData\Local\Temp\ccjdhBtu.s 			page 20


 560              		.loc 1 62 71 view .LVU56
  63:Src/cmd.c     ****         SERIAL_WRITE("\tADC_INTERFACE_REG:\t0x%04x\n", ADC_SPI_READ_16());
 561              		.loc 1 63 9 view .LVU57
 562 0180 0221     		movs	r1, #2
 563 0182 4020     		movs	r0, #64
 564 0184 FFF7FEFF 		bl	ADC_CMD
 565              	.LVL33:
 566              	.LBB9:
  64:Src/cmd.c     ****         ADC_CMD(ADC_READ, ADC_CHECK_REG);
 567              		.loc 1 64 9 view .LVU58
 568 0188 0197     		str	r7, [sp, #4]
 569 018a 6022     		movs	r2, #96
 570 018c 0021     		movs	r1, #0
 571 018e 02A8     		add	r0, sp, #8
 572 0190 FFF7FEFF 		bl	memset
 573              	.LVL34:
  64:Src/cmd.c     ****         ADC_CMD(ADC_READ, ADC_CHECK_REG);
 574              		.loc 1 64 9 view .LVU59
 575 0194 FFF7FEFF 		bl	ADC_SPI_READ_16
 576              	.LVL35:
 577 0198 0200     		movs	r2, r0
 578 019a 8649     		ldr	r1, .L44+40
 579 019c 2000     		movs	r0, r4
 580 019e FFF7FEFF 		bl	sprintf
 581              	.LVL36:
  64:Src/cmd.c     ****         ADC_CMD(ADC_READ, ADC_CHECK_REG);
 582              		.loc 1 64 9 view .LVU60
 583 01a2 3300     		movs	r3, r6
 584 01a4 1B22     		movs	r2, #27
 585 01a6 2100     		movs	r1, r4
 586 01a8 2800     		movs	r0, r5
 587 01aa FFF7FEFF 		bl	HAL_UART_Transmit
 588              	.LVL37:
 589              	.LBE9:
  64:Src/cmd.c     ****         ADC_CMD(ADC_READ, ADC_CHECK_REG);
 590              		.loc 1 64 74 view .LVU61
  65:Src/cmd.c     ****         SERIAL_WRITE("\tADC_CHECK_REG:\t\t0x%06x\n", ADC_SPI_READ_24());
 591              		.loc 1 65 9 view .LVU62
 592 01ae 0321     		movs	r1, #3
 593 01b0 4020     		movs	r0, #64
 594 01b2 FFF7FEFF 		bl	ADC_CMD
 595              	.LVL38:
 596              	.LBB10:
  66:Src/cmd.c     ****         ADC_CMD(ADC_READ, ADC_DATA_REG);
 597              		.loc 1 66 9 view .LVU63
 598 01b6 0197     		str	r7, [sp, #4]
 599 01b8 6022     		movs	r2, #96
 600 01ba 0021     		movs	r1, #0
 601 01bc 02A8     		add	r0, sp, #8
 602 01be FFF7FEFF 		bl	memset
 603              	.LVL39:
  66:Src/cmd.c     ****         ADC_CMD(ADC_READ, ADC_DATA_REG);
 604              		.loc 1 66 9 view .LVU64
 605 01c2 FFF7FEFF 		bl	ADC_SPI_READ_24
 606              	.LVL40:
 607 01c6 0200     		movs	r2, r0
 608 01c8 7B49     		ldr	r1, .L44+44
ARM GAS  C:\Users\matil\AppData\Local\Temp\ccjdhBtu.s 			page 21


 609 01ca 2000     		movs	r0, r4
 610 01cc FFF7FEFF 		bl	sprintf
 611              	.LVL41:
  66:Src/cmd.c     ****         ADC_CMD(ADC_READ, ADC_DATA_REG);
 612              		.loc 1 66 9 view .LVU65
 613 01d0 82B2     		uxth	r2, r0
 614 01d2 3300     		movs	r3, r6
 615 01d4 2100     		movs	r1, r4
 616 01d6 2800     		movs	r0, r5
 617              	.LVL42:
  66:Src/cmd.c     ****         ADC_CMD(ADC_READ, ADC_DATA_REG);
 618              		.loc 1 66 9 is_stmt 0 view .LVU66
 619 01d8 FFF7FEFF 		bl	HAL_UART_Transmit
 620              	.LVL43:
 621              	.LBE10:
  66:Src/cmd.c     ****         ADC_CMD(ADC_READ, ADC_DATA_REG);
 622              		.loc 1 66 72 is_stmt 1 view .LVU67
  67:Src/cmd.c     ****         SERIAL_WRITE("\tADC_DATA_REG:\t\t0x%06x\n", ADC_SPI_READ_24());
 623              		.loc 1 67 9 view .LVU68
 624 01dc 0421     		movs	r1, #4
 625 01de 4020     		movs	r0, #64
 626 01e0 FFF7FEFF 		bl	ADC_CMD
 627              	.LVL44:
 628              	.LBB11:
  68:Src/cmd.c     ****         ADC_CMD(ADC_READ, ADC_GPIO_REG);
 629              		.loc 1 68 9 view .LVU69
 630 01e4 0197     		str	r7, [sp, #4]
 631 01e6 6022     		movs	r2, #96
 632 01e8 0021     		movs	r1, #0
 633 01ea 02A8     		add	r0, sp, #8
 634 01ec FFF7FEFF 		bl	memset
 635              	.LVL45:
  68:Src/cmd.c     ****         ADC_CMD(ADC_READ, ADC_GPIO_REG);
 636              		.loc 1 68 9 view .LVU70
 637 01f0 FFF7FEFF 		bl	ADC_SPI_READ_24
 638              	.LVL46:
 639 01f4 0200     		movs	r2, r0
 640 01f6 7149     		ldr	r1, .L44+48
 641 01f8 2000     		movs	r0, r4
 642 01fa FFF7FEFF 		bl	sprintf
 643              	.LVL47:
  68:Src/cmd.c     ****         ADC_CMD(ADC_READ, ADC_GPIO_REG);
 644              		.loc 1 68 9 view .LVU71
 645 01fe 82B2     		uxth	r2, r0
 646 0200 3300     		movs	r3, r6
 647 0202 2100     		movs	r1, r4
 648 0204 2800     		movs	r0, r5
 649              	.LVL48:
  68:Src/cmd.c     ****         ADC_CMD(ADC_READ, ADC_GPIO_REG);
 650              		.loc 1 68 9 is_stmt 0 view .LVU72
 651 0206 FFF7FEFF 		bl	HAL_UART_Transmit
 652              	.LVL49:
 653              	.LBE11:
  68:Src/cmd.c     ****         ADC_CMD(ADC_READ, ADC_GPIO_REG);
 654              		.loc 1 68 71 is_stmt 1 view .LVU73
  69:Src/cmd.c     ****         SERIAL_WRITE("\tADC_GPIO_REG:\t\t0x%04x\n", ADC_SPI_READ_16());
 655              		.loc 1 69 9 view .LVU74
ARM GAS  C:\Users\matil\AppData\Local\Temp\ccjdhBtu.s 			page 22


 656 020a 0621     		movs	r1, #6
 657 020c 4020     		movs	r0, #64
 658 020e FFF7FEFF 		bl	ADC_CMD
 659              	.LVL50:
 660              	.LBB12:
  70:Src/cmd.c     ****         ADC_CMD(ADC_READ, ADC_ID_REG);
 661              		.loc 1 70 9 view .LVU75
 662 0212 0197     		str	r7, [sp, #4]
 663 0214 6022     		movs	r2, #96
 664 0216 0021     		movs	r1, #0
 665 0218 02A8     		add	r0, sp, #8
 666 021a FFF7FEFF 		bl	memset
 667              	.LVL51:
  70:Src/cmd.c     ****         ADC_CMD(ADC_READ, ADC_ID_REG);
 668              		.loc 1 70 9 view .LVU76
 669 021e FFF7FEFF 		bl	ADC_SPI_READ_16
 670              	.LVL52:
 671 0222 0200     		movs	r2, r0
 672 0224 6649     		ldr	r1, .L44+52
 673 0226 2000     		movs	r0, r4
 674 0228 FFF7FEFF 		bl	sprintf
 675              	.LVL53:
  70:Src/cmd.c     ****         ADC_CMD(ADC_READ, ADC_ID_REG);
 676              		.loc 1 70 9 view .LVU77
 677 022c 3300     		movs	r3, r6
 678 022e 1722     		movs	r2, #23
 679 0230 2100     		movs	r1, r4
 680 0232 2800     		movs	r0, r5
 681 0234 FFF7FEFF 		bl	HAL_UART_Transmit
 682              	.LVL54:
 683              	.LBE12:
  70:Src/cmd.c     ****         ADC_CMD(ADC_READ, ADC_ID_REG);
 684              		.loc 1 70 71 view .LVU78
  71:Src/cmd.c     ****         SERIAL_WRITE("\tADC_ID_REG:\t\t0x%04x\n", ADC_SPI_READ_16());
 685              		.loc 1 71 9 view .LVU79
 686 0238 0721     		movs	r1, #7
 687 023a 4020     		movs	r0, #64
 688 023c FFF7FEFF 		bl	ADC_CMD
 689              	.LVL55:
 690              	.LBB13:
  72:Src/cmd.c     ****         for (int i = 0; i < 15; i++)
 691              		.loc 1 72 9 view .LVU80
 692 0240 0197     		str	r7, [sp, #4]
 693 0242 6022     		movs	r2, #96
 694 0244 0021     		movs	r1, #0
 695 0246 02A8     		add	r0, sp, #8
 696 0248 FFF7FEFF 		bl	memset
 697              	.LVL56:
  72:Src/cmd.c     ****         for (int i = 0; i < 15; i++)
 698              		.loc 1 72 9 view .LVU81
 699 024c FFF7FEFF 		bl	ADC_SPI_READ_16
 700              	.LVL57:
 701 0250 0200     		movs	r2, r0
 702 0252 5C49     		ldr	r1, .L44+56
 703 0254 2000     		movs	r0, r4
 704 0256 FFF7FEFF 		bl	sprintf
 705              	.LVL58:
ARM GAS  C:\Users\matil\AppData\Local\Temp\ccjdhBtu.s 			page 23


  72:Src/cmd.c     ****         for (int i = 0; i < 15; i++)
 706              		.loc 1 72 9 view .LVU82
 707 025a 3300     		movs	r3, r6
 708 025c 1522     		movs	r2, #21
 709 025e 2100     		movs	r1, r4
 710 0260 2800     		movs	r0, r5
 711 0262 FFF7FEFF 		bl	HAL_UART_Transmit
 712              	.LVL59:
 713              	.LBE13:
  72:Src/cmd.c     ****         for (int i = 0; i < 15; i++)
 714              		.loc 1 72 69 view .LVU83
  73:Src/cmd.c     ****         {
 715              		.loc 1 73 9 view .LVU84
 716              	.LBB14:
  73:Src/cmd.c     ****         {
 717              		.loc 1 73 14 view .LVU85
  73:Src/cmd.c     ****         {
 718              		.loc 1 73 18 is_stmt 0 view .LVU86
 719 0266 0024     		movs	r4, #0
  73:Src/cmd.c     ****         {
 720              		.loc 1 73 9 view .LVU87
 721 0268 1CE0     		b	.L20
 722              	.LVL60:
 723              	.L21:
  75:Src/cmd.c     ****             SERIAL_WRITE("\tADC_CH%i_REG:\t\t0x%04x\n", i, ADC_SPI_READ_16());
 724              		.loc 1 75 13 is_stmt 1 discriminator 3 view .LVU88
  75:Src/cmd.c     ****             SERIAL_WRITE("\tADC_CH%i_REG:\t\t0x%04x\n", i, ADC_SPI_READ_16());
 725              		.loc 1 75 31 is_stmt 0 discriminator 3 view .LVU89
 726 026a 2100     		movs	r1, r4
 727 026c 1031     		adds	r1, r1, #16
  75:Src/cmd.c     ****             SERIAL_WRITE("\tADC_CH%i_REG:\t\t0x%04x\n", i, ADC_SPI_READ_16());
 728              		.loc 1 75 13 discriminator 3 view .LVU90
 729 026e C9B2     		uxtb	r1, r1
 730 0270 4020     		movs	r0, #64
 731 0272 FFF7FEFF 		bl	ADC_CMD
 732              	.LVL61:
 733              	.LBB15:
  76:Src/cmd.c     ****         }
 734              		.loc 1 76 13 is_stmt 1 discriminator 3 view .LVU91
 735 0276 0023     		movs	r3, #0
 736 0278 0193     		str	r3, [sp, #4]
 737 027a 6022     		movs	r2, #96
 738 027c 0021     		movs	r1, #0
 739 027e 02A8     		add	r0, sp, #8
 740 0280 FFF7FEFF 		bl	memset
 741              	.LVL62:
  76:Src/cmd.c     ****         }
 742              		.loc 1 76 13 discriminator 3 view .LVU92
 743 0284 FFF7FEFF 		bl	ADC_SPI_READ_16
 744              	.LVL63:
 745 0288 0300     		movs	r3, r0
 746 028a 2200     		movs	r2, r4
 747 028c 4E49     		ldr	r1, .L44+60
 748 028e 01A8     		add	r0, sp, #4
 749 0290 FFF7FEFF 		bl	sprintf
 750              	.LVL64:
  76:Src/cmd.c     ****         }
ARM GAS  C:\Users\matil\AppData\Local\Temp\ccjdhBtu.s 			page 24


 751              		.loc 1 76 13 discriminator 3 view .LVU93
 752 0294 FA23     		movs	r3, #250
 753 0296 82B2     		uxth	r2, r0
 754 0298 9B00     		lsls	r3, r3, #2
 755 029a 01A9     		add	r1, sp, #4
 756 029c 3E48     		ldr	r0, .L44+12
 757              	.LVL65:
  76:Src/cmd.c     ****         }
 758              		.loc 1 76 13 is_stmt 0 discriminator 3 view .LVU94
 759 029e FFF7FEFF 		bl	HAL_UART_Transmit
 760              	.LVL66:
 761              	.LBE15:
  76:Src/cmd.c     ****         }
 762              		.loc 1 76 78 is_stmt 1 discriminator 3 view .LVU95
  73:Src/cmd.c     ****         {
 763              		.loc 1 73 33 discriminator 3 view .LVU96
  73:Src/cmd.c     ****         {
 764              		.loc 1 73 34 is_stmt 0 discriminator 3 view .LVU97
 765 02a2 0134     		adds	r4, r4, #1
 766              	.LVL67:
 767              	.L20:
  73:Src/cmd.c     ****         {
 768              		.loc 1 73 25 is_stmt 1 discriminator 1 view .LVU98
  73:Src/cmd.c     ****         {
 769              		.loc 1 73 9 is_stmt 0 discriminator 1 view .LVU99
 770 02a4 0E2C     		cmp	r4, #14
 771 02a6 E0DD     		ble	.L21
 772              	.LBE14:
 773              	.LBB16:
  78:Src/cmd.c     ****         {
 774              		.loc 1 78 18 view .LVU100
 775 02a8 0024     		movs	r4, #0
 776              	.LVL68:
  78:Src/cmd.c     ****         {
 777              		.loc 1 78 18 view .LVU101
 778 02aa 1EE0     		b	.L22
 779              	.LVL69:
 780              	.L24:
  80:Src/cmd.c     ****             SERIAL_WRITE("\tADC_SETUPCON%i_REG:\t0x%04x\n", i, ADC_SPI_READ_16());
 781              		.loc 1 80 13 is_stmt 1 view .LVU102
 782 02ac 072C     		cmp	r4, #7
 783 02ae 20D8     		bhi	.L39
  80:Src/cmd.c     ****             SERIAL_WRITE("\tADC_SETUPCON%i_REG:\t0x%04x\n", i, ADC_SPI_READ_16());
 784              		.loc 1 80 31 is_stmt 0 discriminator 1 view .LVU103
 785 02b0 2100     		movs	r1, r4
 786 02b2 2031     		adds	r1, r1, #32
  80:Src/cmd.c     ****             SERIAL_WRITE("\tADC_SETUPCON%i_REG:\t0x%04x\n", i, ADC_SPI_READ_16());
 787              		.loc 1 80 13 discriminator 1 view .LVU104
 788 02b4 C9B2     		uxtb	r1, r1
 789              	.L23:
  80:Src/cmd.c     ****             SERIAL_WRITE("\tADC_SETUPCON%i_REG:\t0x%04x\n", i, ADC_SPI_READ_16());
 790              		.loc 1 80 13 discriminator 4 view .LVU105
 791 02b6 4020     		movs	r0, #64
 792 02b8 FFF7FEFF 		bl	ADC_CMD
 793              	.LVL70:
 794              	.LBB17:
  81:Src/cmd.c     ****         }
ARM GAS  C:\Users\matil\AppData\Local\Temp\ccjdhBtu.s 			page 25


 795              		.loc 1 81 13 is_stmt 1 discriminator 4 view .LVU106
 796 02bc 0023     		movs	r3, #0
 797 02be 0193     		str	r3, [sp, #4]
 798 02c0 6022     		movs	r2, #96
 799 02c2 0021     		movs	r1, #0
 800 02c4 02A8     		add	r0, sp, #8
 801 02c6 FFF7FEFF 		bl	memset
 802              	.LVL71:
  81:Src/cmd.c     ****         }
 803              		.loc 1 81 13 discriminator 4 view .LVU107
 804 02ca FFF7FEFF 		bl	ADC_SPI_READ_16
 805              	.LVL72:
 806 02ce 0300     		movs	r3, r0
 807 02d0 2200     		movs	r2, r4
 808 02d2 3E49     		ldr	r1, .L44+64
 809 02d4 01A8     		add	r0, sp, #4
 810 02d6 FFF7FEFF 		bl	sprintf
 811              	.LVL73:
  81:Src/cmd.c     ****         }
 812              		.loc 1 81 13 discriminator 4 view .LVU108
 813 02da FA23     		movs	r3, #250
 814 02dc 9B00     		lsls	r3, r3, #2
 815 02de 1B22     		movs	r2, #27
 816 02e0 01A9     		add	r1, sp, #4
 817 02e2 2D48     		ldr	r0, .L44+12
 818 02e4 FFF7FEFF 		bl	HAL_UART_Transmit
 819              	.LVL74:
 820              	.LBE17:
  81:Src/cmd.c     ****         }
 821              		.loc 1 81 82 discriminator 4 view .LVU109
  78:Src/cmd.c     ****         {
 822              		.loc 1 78 32 discriminator 4 view .LVU110
  78:Src/cmd.c     ****         {
 823              		.loc 1 78 33 is_stmt 0 discriminator 4 view .LVU111
 824 02e8 0134     		adds	r4, r4, #1
 825              	.LVL75:
 826              	.L22:
  78:Src/cmd.c     ****         {
 827              		.loc 1 78 25 is_stmt 1 discriminator 2 view .LVU112
  78:Src/cmd.c     ****         {
 828              		.loc 1 78 9 is_stmt 0 discriminator 2 view .LVU113
 829 02ea 062C     		cmp	r4, #6
 830 02ec DEDD     		ble	.L24
 831              	.LBE16:
 832              	.LBB18:
  83:Src/cmd.c     ****         {
 833              		.loc 1 83 18 view .LVU114
 834 02ee 0024     		movs	r4, #0
 835              	.LVL76:
  83:Src/cmd.c     ****         {
 836              		.loc 1 83 18 view .LVU115
 837 02f0 20E0     		b	.L25
 838              	.LVL77:
 839              	.L39:
  83:Src/cmd.c     ****         {
 840              		.loc 1 83 18 view .LVU116
 841              	.LBE18:
ARM GAS  C:\Users\matil\AppData\Local\Temp\ccjdhBtu.s 			page 26


 842              	.LBB20:
  80:Src/cmd.c     ****             SERIAL_WRITE("\tADC_SETUPCON%i_REG:\t0x%04x\n", i, ADC_SPI_READ_16());
 843              		.loc 1 80 13 view .LVU117
 844 02f2 0021     		movs	r1, #0
 845 02f4 DFE7     		b	.L23
 846              	.LVL78:
 847              	.L27:
  80:Src/cmd.c     ****             SERIAL_WRITE("\tADC_SETUPCON%i_REG:\t0x%04x\n", i, ADC_SPI_READ_16());
 848              		.loc 1 80 13 view .LVU118
 849              	.LBE20:
 850              	.LBB21:
  85:Src/cmd.c     ****             SERIAL_WRITE("\tADC_FILTCON%i_REG:\t0x%04x\n", i, ADC_SPI_READ_16());
 851              		.loc 1 85 13 is_stmt 1 view .LVU119
 852 02f6 072C     		cmp	r4, #7
 853 02f8 20D8     		bhi	.L40
  85:Src/cmd.c     ****             SERIAL_WRITE("\tADC_FILTCON%i_REG:\t0x%04x\n", i, ADC_SPI_READ_16());
 854              		.loc 1 85 31 is_stmt 0 discriminator 1 view .LVU120
 855 02fa 2100     		movs	r1, r4
 856 02fc 2831     		adds	r1, r1, #40
  85:Src/cmd.c     ****             SERIAL_WRITE("\tADC_FILTCON%i_REG:\t0x%04x\n", i, ADC_SPI_READ_16());
 857              		.loc 1 85 13 discriminator 1 view .LVU121
 858 02fe C9B2     		uxtb	r1, r1
 859              	.L26:
  85:Src/cmd.c     ****             SERIAL_WRITE("\tADC_FILTCON%i_REG:\t0x%04x\n", i, ADC_SPI_READ_16());
 860              		.loc 1 85 13 discriminator 4 view .LVU122
 861 0300 4020     		movs	r0, #64
 862 0302 FFF7FEFF 		bl	ADC_CMD
 863              	.LVL79:
 864              	.LBB19:
  86:Src/cmd.c     ****         }
 865              		.loc 1 86 13 is_stmt 1 discriminator 4 view .LVU123
 866 0306 0023     		movs	r3, #0
 867 0308 0193     		str	r3, [sp, #4]
 868 030a 6022     		movs	r2, #96
 869 030c 0021     		movs	r1, #0
 870 030e 02A8     		add	r0, sp, #8
 871 0310 FFF7FEFF 		bl	memset
 872              	.LVL80:
  86:Src/cmd.c     ****         }
 873              		.loc 1 86 13 discriminator 4 view .LVU124
 874 0314 FFF7FEFF 		bl	ADC_SPI_READ_16
 875              	.LVL81:
 876 0318 0300     		movs	r3, r0
 877 031a 2200     		movs	r2, r4
 878 031c 2C49     		ldr	r1, .L44+68
 879 031e 01A8     		add	r0, sp, #4
 880 0320 FFF7FEFF 		bl	sprintf
 881              	.LVL82:
  86:Src/cmd.c     ****         }
 882              		.loc 1 86 13 discriminator 4 view .LVU125
 883 0324 FA23     		movs	r3, #250
 884 0326 9B00     		lsls	r3, r3, #2
 885 0328 1A22     		movs	r2, #26
 886 032a 01A9     		add	r1, sp, #4
 887 032c 1A48     		ldr	r0, .L44+12
 888 032e FFF7FEFF 		bl	HAL_UART_Transmit
 889              	.LVL83:
ARM GAS  C:\Users\matil\AppData\Local\Temp\ccjdhBtu.s 			page 27


 890              	.LBE19:
  86:Src/cmd.c     ****         }
 891              		.loc 1 86 81 discriminator 4 view .LVU126
  83:Src/cmd.c     ****         {
 892              		.loc 1 83 32 discriminator 4 view .LVU127
  83:Src/cmd.c     ****         {
 893              		.loc 1 83 33 is_stmt 0 discriminator 4 view .LVU128
 894 0332 0134     		adds	r4, r4, #1
 895              	.LVL84:
 896              	.L25:
  83:Src/cmd.c     ****         {
 897              		.loc 1 83 25 is_stmt 1 discriminator 2 view .LVU129
  83:Src/cmd.c     ****         {
 898              		.loc 1 83 9 is_stmt 0 discriminator 2 view .LVU130
 899 0334 062C     		cmp	r4, #6
 900 0336 DEDD     		ble	.L27
 901              	.LBE21:
 902              	.LBB22:
  88:Src/cmd.c     ****         {
 903              		.loc 1 88 18 view .LVU131
 904 0338 0024     		movs	r4, #0
 905              	.LVL85:
  88:Src/cmd.c     ****         {
 906              		.loc 1 88 18 view .LVU132
 907 033a 20E0     		b	.L28
 908              	.LVL86:
 909              	.L40:
  88:Src/cmd.c     ****         {
 910              		.loc 1 88 18 view .LVU133
 911              	.LBE22:
 912              	.LBB24:
  85:Src/cmd.c     ****             SERIAL_WRITE("\tADC_FILTCON%i_REG:\t0x%04x\n", i, ADC_SPI_READ_16());
 913              		.loc 1 85 13 view .LVU134
 914 033c 0021     		movs	r1, #0
 915 033e DFE7     		b	.L26
 916              	.LVL87:
 917              	.L30:
  85:Src/cmd.c     ****             SERIAL_WRITE("\tADC_FILTCON%i_REG:\t0x%04x\n", i, ADC_SPI_READ_16());
 918              		.loc 1 85 13 view .LVU135
 919              	.LBE24:
 920              	.LBB25:
  90:Src/cmd.c     ****             SERIAL_WRITE("\tADC_OFFSET%i_REG:\t0x%04x\n", i, ADC_SPI_READ_24());
 921              		.loc 1 90 13 is_stmt 1 view .LVU136
 922 0340 072C     		cmp	r4, #7
 923 0342 20D8     		bhi	.L41
  90:Src/cmd.c     ****             SERIAL_WRITE("\tADC_OFFSET%i_REG:\t0x%04x\n", i, ADC_SPI_READ_24());
 924              		.loc 1 90 31 is_stmt 0 discriminator 1 view .LVU137
 925 0344 2100     		movs	r1, r4
 926 0346 3031     		adds	r1, r1, #48
  90:Src/cmd.c     ****             SERIAL_WRITE("\tADC_OFFSET%i_REG:\t0x%04x\n", i, ADC_SPI_READ_24());
 927              		.loc 1 90 13 discriminator 1 view .LVU138
 928 0348 C9B2     		uxtb	r1, r1
 929              	.L29:
  90:Src/cmd.c     ****             SERIAL_WRITE("\tADC_OFFSET%i_REG:\t0x%04x\n", i, ADC_SPI_READ_24());
 930              		.loc 1 90 13 discriminator 4 view .LVU139
 931 034a 4020     		movs	r0, #64
 932 034c FFF7FEFF 		bl	ADC_CMD
ARM GAS  C:\Users\matil\AppData\Local\Temp\ccjdhBtu.s 			page 28


 933              	.LVL88:
 934              	.LBB23:
  91:Src/cmd.c     ****         }
 935              		.loc 1 91 13 is_stmt 1 discriminator 4 view .LVU140
 936 0350 0023     		movs	r3, #0
 937 0352 0193     		str	r3, [sp, #4]
 938 0354 6022     		movs	r2, #96
 939 0356 0021     		movs	r1, #0
 940 0358 02A8     		add	r0, sp, #8
 941 035a FFF7FEFF 		bl	memset
 942              	.LVL89:
  91:Src/cmd.c     ****         }
 943              		.loc 1 91 13 discriminator 4 view .LVU141
 944 035e FFF7FEFF 		bl	ADC_SPI_READ_24
 945              	.LVL90:
 946 0362 0300     		movs	r3, r0
 947 0364 2200     		movs	r2, r4
 948 0366 1B49     		ldr	r1, .L44+72
 949 0368 01A8     		add	r0, sp, #4
 950 036a FFF7FEFF 		bl	sprintf
 951              	.LVL91:
  91:Src/cmd.c     ****         }
 952              		.loc 1 91 13 discriminator 4 view .LVU142
 953 036e FA23     		movs	r3, #250
 954 0370 82B2     		uxth	r2, r0
 955 0372 9B00     		lsls	r3, r3, #2
 956 0374 01A9     		add	r1, sp, #4
 957 0376 0848     		ldr	r0, .L44+12
 958              	.LVL92:
  91:Src/cmd.c     ****         }
 959              		.loc 1 91 13 is_stmt 0 discriminator 4 view .LVU143
 960 0378 FFF7FEFF 		bl	HAL_UART_Transmit
 961              	.LVL93:
 962              	.LBE23:
  91:Src/cmd.c     ****         }
 963              		.loc 1 91 80 is_stmt 1 discriminator 4 view .LVU144
  88:Src/cmd.c     ****         {
 964              		.loc 1 88 32 discriminator 4 view .LVU145
  88:Src/cmd.c     ****         {
 965              		.loc 1 88 33 is_stmt 0 discriminator 4 view .LVU146
 966 037c 0134     		adds	r4, r4, #1
 967              	.LVL94:
 968              	.L28:
  88:Src/cmd.c     ****         {
 969              		.loc 1 88 25 is_stmt 1 discriminator 2 view .LVU147
  88:Src/cmd.c     ****         {
 970              		.loc 1 88 9 is_stmt 0 discriminator 2 view .LVU148
 971 037e 062C     		cmp	r4, #6
 972 0380 DEDD     		ble	.L30
 973              	.LBE25:
 974              	.LBB26:
  93:Src/cmd.c     ****         {
 975              		.loc 1 93 18 view .LVU149
 976 0382 0024     		movs	r4, #0
 977              	.LVL95:
  93:Src/cmd.c     ****         {
 978              		.loc 1 93 18 view .LVU150
ARM GAS  C:\Users\matil\AppData\Local\Temp\ccjdhBtu.s 			page 29


 979 0384 47E0     		b	.L31
 980              	.LVL96:
 981              	.L41:
  93:Src/cmd.c     ****         {
 982              		.loc 1 93 18 view .LVU151
 983              	.LBE26:
 984              	.LBB28:
  90:Src/cmd.c     ****             SERIAL_WRITE("\tADC_OFFSET%i_REG:\t0x%04x\n", i, ADC_SPI_READ_24());
 985              		.loc 1 90 13 view .LVU152
 986 0386 0021     		movs	r1, #0
 987 0388 DFE7     		b	.L29
 988              	.L45:
 989 038a C046     		.align	2
 990              	.L44:
 991 038c 00000000 		.word	State
 992 0390 00000000 		.word	.L5
 993 0394 48040000 		.word	.LC118
 994 0398 00000000 		.word	huart2
 995 039c 6F6B0A00 		.word	682863
 996 03a0 00000000 		.word	.LC3
 997 03a4 00000000 		.word	hspi2
 998 03a8 08000000 		.word	.LC6
 999 03ac 18000000 		.word	.LC8
 1000 03b0 34000000 		.word	.LC10
 1001 03b4 4C000000 		.word	.LC12
 1002 03b8 68000000 		.word	.LC14
 1003 03bc 84000000 		.word	.LC16
 1004 03c0 9C000000 		.word	.LC18
 1005 03c4 B4000000 		.word	.LC20
 1006 03c8 CC000000 		.word	.LC22
 1007 03cc E4000000 		.word	.LC24
 1008 03d0 04010000 		.word	.LC26
 1009 03d4 20010000 		.word	.LC28
 1010              	.LVL97:
 1011              	.L33:
  90:Src/cmd.c     ****             SERIAL_WRITE("\tADC_OFFSET%i_REG:\t0x%04x\n", i, ADC_SPI_READ_24());
 1012              		.loc 1 90 13 view .LVU153
 1013              	.LBE28:
 1014              	.LBB29:
  95:Src/cmd.c     ****             SERIAL_WRITE("\tADC_GAIN%i_REG:\t\t0x%04x\n", i, ADC_SPI_READ_24());
 1015              		.loc 1 95 13 is_stmt 1 view .LVU154
 1016 03d8 072C     		cmp	r4, #7
 1017 03da 31D8     		bhi	.L42
  95:Src/cmd.c     ****             SERIAL_WRITE("\tADC_GAIN%i_REG:\t\t0x%04x\n", i, ADC_SPI_READ_24());
 1018              		.loc 1 95 31 is_stmt 0 discriminator 1 view .LVU155
 1019 03dc 2100     		movs	r1, r4
 1020 03de 3831     		adds	r1, r1, #56
  95:Src/cmd.c     ****             SERIAL_WRITE("\tADC_GAIN%i_REG:\t\t0x%04x\n", i, ADC_SPI_READ_24());
 1021              		.loc 1 95 13 discriminator 1 view .LVU156
 1022 03e0 C9B2     		uxtb	r1, r1
 1023              	.L32:
  95:Src/cmd.c     ****             SERIAL_WRITE("\tADC_GAIN%i_REG:\t\t0x%04x\n", i, ADC_SPI_READ_24());
 1024              		.loc 1 95 13 discriminator 4 view .LVU157
 1025 03e2 4020     		movs	r0, #64
 1026 03e4 FFF7FEFF 		bl	ADC_CMD
 1027              	.LVL98:
 1028              	.LBB27:
ARM GAS  C:\Users\matil\AppData\Local\Temp\ccjdhBtu.s 			page 30


  96:Src/cmd.c     ****         }
 1029              		.loc 1 96 13 is_stmt 1 discriminator 4 view .LVU158
 1030 03e8 0023     		movs	r3, #0
 1031 03ea 0193     		str	r3, [sp, #4]
 1032 03ec 6022     		movs	r2, #96
 1033 03ee 0021     		movs	r1, #0
 1034 03f0 02A8     		add	r0, sp, #8
 1035 03f2 FFF7FEFF 		bl	memset
 1036              	.LVL99:
  96:Src/cmd.c     ****         }
 1037              		.loc 1 96 13 discriminator 4 view .LVU159
 1038 03f6 FFF7FEFF 		bl	ADC_SPI_READ_24
 1039              	.LVL100:
 1040 03fa 0300     		movs	r3, r0
 1041 03fc 2200     		movs	r2, r4
 1042 03fe 6E49     		ldr	r1, .L46
 1043 0400 01A8     		add	r0, sp, #4
 1044 0402 FFF7FEFF 		bl	sprintf
 1045              	.LVL101:
  96:Src/cmd.c     ****         }
 1046              		.loc 1 96 13 discriminator 4 view .LVU160
 1047 0406 FA23     		movs	r3, #250
 1048 0408 82B2     		uxth	r2, r0
 1049 040a 9B00     		lsls	r3, r3, #2
 1050 040c 01A9     		add	r1, sp, #4
 1051 040e 6B48     		ldr	r0, .L46+4
 1052              	.LVL102:
  96:Src/cmd.c     ****         }
 1053              		.loc 1 96 13 is_stmt 0 discriminator 4 view .LVU161
 1054 0410 FFF7FEFF 		bl	HAL_UART_Transmit
 1055              	.LVL103:
 1056              	.LBE27:
  96:Src/cmd.c     ****         }
 1057              		.loc 1 96 80 is_stmt 1 discriminator 4 view .LVU162
  93:Src/cmd.c     ****         {
 1058              		.loc 1 93 32 discriminator 4 view .LVU163
  93:Src/cmd.c     ****         {
 1059              		.loc 1 93 33 is_stmt 0 discriminator 4 view .LVU164
 1060 0414 0134     		adds	r4, r4, #1
 1061              	.LVL104:
 1062              	.L31:
  93:Src/cmd.c     ****         {
 1063              		.loc 1 93 25 is_stmt 1 discriminator 2 view .LVU165
  93:Src/cmd.c     ****         {
 1064              		.loc 1 93 9 is_stmt 0 discriminator 2 view .LVU166
 1065 0416 062C     		cmp	r4, #6
 1066 0418 DEDD     		ble	.L33
 1067              	.LBE29:
  98:Src/cmd.c     ****         {
 1068              		.loc 1 98 9 is_stmt 1 view .LVU167
  98:Src/cmd.c     ****         {
 1069              		.loc 1 98 19 is_stmt 0 view .LVU168
 1070 041a 694B     		ldr	r3, .L46+8
 1071 041c DB7A     		ldrb	r3, [r3, #11]
  98:Src/cmd.c     ****         {
 1072              		.loc 1 98 12 view .LVU169
 1073 041e 002B     		cmp	r3, #0
ARM GAS  C:\Users\matil\AppData\Local\Temp\ccjdhBtu.s 			page 31


 1074 0420 02D1     		bne	.L34
 100:Src/cmd.c     ****         }
 1075              		.loc 1 100 13 is_stmt 1 view .LVU170
 100:Src/cmd.c     ****         }
 1076              		.loc 1 100 23 is_stmt 0 view .LVU171
 1077 0422 674B     		ldr	r3, .L46+8
 1078 0424 0022     		movs	r2, #0
 1079 0426 9A72     		strb	r2, [r3, #10]
 1080              	.L34:
 102:Src/cmd.c     ****         ADC_DATA_READY_EXTI_Init();
 1081              		.loc 1 102 9 is_stmt 1 view .LVU172
 1082 0428 6648     		ldr	r0, .L46+12
 1083 042a FFF7FEFF 		bl	HAL_SPI_MspDeInit
 1084              	.LVL105:
 103:Src/cmd.c     ****         break;
 1085              		.loc 1 103 9 view .LVU173
 1086 042e FFF7FEFF 		bl	ADC_DATA_READY_EXTI_Init
 1087              	.LVL106:
 104:Src/cmd.c     ****     }
 1088              		.loc 1 104 9 view .LVU174
 1089              	.L1:
 271:Src/cmd.c     ****     }
 272:Src/cmd.c     ****     case cmd_bootloader_enable:
 273:Src/cmd.c     ****     {
 274:Src/cmd.c     ****         State.cmd = 0;
 275:Src/cmd.c     ****         HAL_GPIO_WritePin(BOOTLOADER_GPIO_Port, BOOTLOADER_Pin, 1);
 276:Src/cmd.c     ****         SERIAL_WRITE("bootloader available in 3s!\n");
 277:Src/cmd.c     ****         HAL_Delay(1000);
 278:Src/cmd.c     ****         SERIAL_WRITE("bootloader available in 2s!\n");
 279:Src/cmd.c     ****         HAL_Delay(1000);
 280:Src/cmd.c     ****         SERIAL_WRITE("bootloader available in 1s!\n");
 281:Src/cmd.c     ****         HAL_Delay(1000);
 282:Src/cmd.c     ****         SERIAL_WRITE("bootloader available until reset\n");
 283:Src/cmd.c     ****         HAL_NVIC_SystemReset();
 284:Src/cmd.c     **** 
 285:Src/cmd.c     ****         break;
 286:Src/cmd.c     ****     }
 287:Src/cmd.c     ****     case cmd_temp_pid:
 288:Src/cmd.c     ****     {
 289:Src/cmd.c     ****         SERIAL_WRITE("Dir: \t");
 290:Src/cmd.c     ****         SERIAL_WRITE("%d\n", State.TEMP_PID_DIR);
 291:Src/cmd.c     ****         SERIAL_WRITE("PWM: \t");
 292:Src/cmd.c     ****         SERIAL_WRITE("%d\n", State.TEMP_PID_PWM);
 293:Src/cmd.c     ****         SERIAL_WRITE("Temp: \t");
 294:Src/cmd.c     ****         SERIAL_WRITE("%d.", Temperature() / 1000000);
 295:Src/cmd.c     ****         SERIAL_WRITE("%03u *C\n", abs(Temperature() / 1000) % 1000);
 296:Src/cmd.c     ****         SERIAL_WRITE("Setpoint: \t");
 297:Src/cmd.c     ****         SERIAL_WRITE("%d.", State.TEMP_PID_SetPoint / 1000000);
 298:Src/cmd.c     ****         SERIAL_WRITE("%03u *C\n", abs(State.TEMP_PID_SetPoint / 1000) % 1000);
 299:Src/cmd.c     ****         SERIAL_WRITE("error P: \t");
 300:Src/cmd.c     ****         SERIAL_WRITE("%d\n", State.TEMP_PID_P_Error);
 301:Src/cmd.c     ****         SERIAL_WRITE("error I: \t");
 302:Src/cmd.c     ****         SERIAL_WRITE("%d\n", State.TEMP_PID_I_Error);
 303:Src/cmd.c     ****         if (!State.cmdLoop)
 304:Src/cmd.c     ****         {
 305:Src/cmd.c     ****             State.cmd = 0;
 306:Src/cmd.c     ****         }
ARM GAS  C:\Users\matil\AppData\Local\Temp\ccjdhBtu.s 			page 32


 307:Src/cmd.c     ****         break;
 308:Src/cmd.c     ****     }
 309:Src/cmd.c     ****     default:
 310:Src/cmd.c     ****     {
 311:Src/cmd.c     ****         break;
 312:Src/cmd.c     ****     }
 313:Src/cmd.c     ****     }
 314:Src/cmd.c     **** }
 1090              		.loc 1 314 1 is_stmt 0 view .LVU175
 1091 0432 1BB0     		add	sp, sp, #108
 1092              		@ sp needed
 1093 0434 3CBC     		pop	{r2, r3, r4, r5}
 1094 0436 9046     		mov	r8, r2
 1095 0438 9946     		mov	r9, r3
 1096 043a A246     		mov	r10, r4
 1097 043c AB46     		mov	fp, r5
 1098 043e F0BD     		pop	{r4, r5, r6, r7, pc}
 1099              	.LVL107:
 1100              	.L42:
 1101              	.LBB30:
  95:Src/cmd.c     ****             SERIAL_WRITE("\tADC_GAIN%i_REG:\t\t0x%04x\n", i, ADC_SPI_READ_24());
 1102              		.loc 1 95 13 view .LVU176
 1103 0440 0021     		movs	r1, #0
 1104 0442 CEE7     		b	.L32
 1105              	.LVL108:
 1106              	.L38:
  95:Src/cmd.c     ****             SERIAL_WRITE("\tADC_GAIN%i_REG:\t\t0x%04x\n", i, ADC_SPI_READ_24());
 1107              		.loc 1 95 13 view .LVU177
 1108              	.LBE30:
  15:Src/cmd.c     ****     {
 1109              		.loc 1 15 5 view .LVU178
 1110 0444 0024     		movs	r4, #0
 1111              	.L12:
 1112              	.LVL109:
 1113              	.LBB31:
 108:Src/cmd.c     ****         {
 1114              		.loc 1 108 25 is_stmt 1 discriminator 1 view .LVU179
 108:Src/cmd.c     ****         {
 1115              		.loc 1 108 9 is_stmt 0 discriminator 1 view .LVU180
 1116 0446 0F2C     		cmp	r4, #15
 1117 0448 50DC     		bgt	.L43
 1118              	.LBB32:
 110:Src/cmd.c     ****             SERIAL_WRITE("[%i]\t", i);
 1119              		.loc 1 110 13 is_stmt 1 discriminator 3 view .LVU181
 110:Src/cmd.c     ****             SERIAL_WRITE("[%i]\t", i);
 1120              		.loc 1 110 63 is_stmt 0 discriminator 3 view .LVU182
 1121 044a 5D4B     		ldr	r3, .L46+8
 1122 044c 9B46     		mov	fp, r3
 1123 044e 2500     		movs	r5, r4
 1124 0450 1435     		adds	r5, r5, #20
 1125 0452 AD00     		lsls	r5, r5, #2
 110:Src/cmd.c     ****             SERIAL_WRITE("[%i]\t", i);
 1126              		.loc 1 110 37 discriminator 3 view .LVU183
 1127 0454 0023     		movs	r3, #0
 1128 0456 9846     		mov	r8, r3
 110:Src/cmd.c     ****             SERIAL_WRITE("[%i]\t", i);
 1129              		.loc 1 110 67 discriminator 3 view .LVU184
ARM GAS  C:\Users\matil\AppData\Local\Temp\ccjdhBtu.s 			page 33


 1130 0458 5B4A     		ldr	r2, .L46+16
 1131 045a 0023     		movs	r3, #0
 1132 045c 5946     		mov	r1, fp
 1133 045e 6858     		ldr	r0, [r5, r1]
 1134 0460 0021     		movs	r1, #0
 1135 0462 FFF7FEFF 		bl	__aeabi_lmul
 1136              	.LVL110:
 110:Src/cmd.c     ****             SERIAL_WRITE("[%i]\t", i);
 1137              		.loc 1 110 22 discriminator 3 view .LVU185
 1138 0466 594A     		ldr	r2, .L46+20
 1139 0468 0023     		movs	r3, #0
 1140 046a FFF7FEFF 		bl	__aeabi_uldivmod
 1141              	.LVL111:
 1142 046e 8246     		mov	r10, r0
 1143 0470 8946     		mov	r9, r1
 1144              	.LVL112:
 1145              	.LBB33:
 111:Src/cmd.c     ****             SERIAL_WRITE("%10i uV\t\t", voltage_uV);
 1146              		.loc 1 111 13 is_stmt 1 discriminator 3 view .LVU186
 1147 0472 4346     		mov	r3, r8
 1148 0474 0193     		str	r3, [sp, #4]
 1149 0476 6022     		movs	r2, #96
 1150 0478 0021     		movs	r1, #0
 1151              	.LVL113:
 111:Src/cmd.c     ****             SERIAL_WRITE("%10i uV\t\t", voltage_uV);
 1152              		.loc 1 111 13 is_stmt 0 discriminator 3 view .LVU187
 1153 047a 02A8     		add	r0, sp, #8
 1154              	.LVL114:
 111:Src/cmd.c     ****             SERIAL_WRITE("%10i uV\t\t", voltage_uV);
 1155              		.loc 1 111 13 discriminator 3 view .LVU188
 1156 047c FFF7FEFF 		bl	memset
 1157              	.LVL115:
 111:Src/cmd.c     ****             SERIAL_WRITE("%10i uV\t\t", voltage_uV);
 1158              		.loc 1 111 13 is_stmt 1 discriminator 3 view .LVU189
 1159 0480 2200     		movs	r2, r4
 1160 0482 5349     		ldr	r1, .L46+24
 1161 0484 01A8     		add	r0, sp, #4
 1162 0486 FFF7FEFF 		bl	sprintf
 1163              	.LVL116:
 111:Src/cmd.c     ****             SERIAL_WRITE("%10i uV\t\t", voltage_uV);
 1164              		.loc 1 111 13 discriminator 3 view .LVU190
 1165 048a FA27     		movs	r7, #250
 1166 048c BF00     		lsls	r7, r7, #2
 1167 048e 82B2     		uxth	r2, r0
 1168 0490 4A4E     		ldr	r6, .L46+4
 1169 0492 3B00     		movs	r3, r7
 1170 0494 01A9     		add	r1, sp, #4
 1171 0496 3000     		movs	r0, r6
 1172              	.LVL117:
 111:Src/cmd.c     ****             SERIAL_WRITE("%10i uV\t\t", voltage_uV);
 1173              		.loc 1 111 13 is_stmt 0 discriminator 3 view .LVU191
 1174 0498 FFF7FEFF 		bl	HAL_UART_Transmit
 1175              	.LVL118:
 1176              	.LBE33:
 111:Src/cmd.c     ****             SERIAL_WRITE("%10i uV\t\t", voltage_uV);
 1177              		.loc 1 111 38 is_stmt 1 discriminator 3 view .LVU192
 1178              	.LBB34:
ARM GAS  C:\Users\matil\AppData\Local\Temp\ccjdhBtu.s 			page 34


 112:Src/cmd.c     ****             SERIAL_WRITE("0x%06x\n", State.ADC_Values[i]);
 1179              		.loc 1 112 13 discriminator 3 view .LVU193
 1180 049c 4346     		mov	r3, r8
 1181 049e 0193     		str	r3, [sp, #4]
 1182 04a0 6022     		movs	r2, #96
 1183 04a2 0021     		movs	r1, #0
 1184 04a4 02A8     		add	r0, sp, #8
 1185 04a6 FFF7FEFF 		bl	memset
 1186              	.LVL119:
 112:Src/cmd.c     ****             SERIAL_WRITE("0x%06x\n", State.ADC_Values[i]);
 1187              		.loc 1 112 13 discriminator 3 view .LVU194
 1188 04aa 5246     		mov	r2, r10
 1189 04ac 4B46     		mov	r3, r9
 1190 04ae 4949     		ldr	r1, .L46+28
 1191 04b0 01A8     		add	r0, sp, #4
 1192 04b2 FFF7FEFF 		bl	sprintf
 1193              	.LVL120:
 112:Src/cmd.c     ****             SERIAL_WRITE("0x%06x\n", State.ADC_Values[i]);
 1194              		.loc 1 112 13 discriminator 3 view .LVU195
 1195 04b6 3B00     		movs	r3, r7
 1196 04b8 0F22     		movs	r2, #15
 1197 04ba 01A9     		add	r1, sp, #4
 1198 04bc 3000     		movs	r0, r6
 1199 04be FFF7FEFF 		bl	HAL_UART_Transmit
 1200              	.LVL121:
 1201              	.LBE34:
 112:Src/cmd.c     ****             SERIAL_WRITE("0x%06x\n", State.ADC_Values[i]);
 1202              		.loc 1 112 52 discriminator 3 view .LVU196
 1203              	.LBB35:
 113:Src/cmd.c     ****         }
 1204              		.loc 1 113 13 discriminator 3 view .LVU197
 1205 04c2 4346     		mov	r3, r8
 1206 04c4 0193     		str	r3, [sp, #4]
 1207 04c6 6022     		movs	r2, #96
 1208 04c8 0021     		movs	r1, #0
 1209 04ca 02A8     		add	r0, sp, #8
 1210 04cc FFF7FEFF 		bl	memset
 1211              	.LVL122:
 113:Src/cmd.c     ****         }
 1212              		.loc 1 113 13 discriminator 3 view .LVU198
 1213 04d0 5B46     		mov	r3, fp
 1214 04d2 EA58     		ldr	r2, [r5, r3]
 1215 04d4 4049     		ldr	r1, .L46+32
 1216 04d6 01A8     		add	r0, sp, #4
 1217 04d8 FFF7FEFF 		bl	sprintf
 1218              	.LVL123:
 113:Src/cmd.c     ****         }
 1219              		.loc 1 113 13 discriminator 3 view .LVU199
 1220 04dc 82B2     		uxth	r2, r0
 1221 04de 3B00     		movs	r3, r7
 1222 04e0 01A9     		add	r1, sp, #4
 1223 04e2 3000     		movs	r0, r6
 1224              	.LVL124:
 113:Src/cmd.c     ****         }
 1225              		.loc 1 113 13 is_stmt 0 discriminator 3 view .LVU200
 1226 04e4 FFF7FEFF 		bl	HAL_UART_Transmit
 1227              	.LVL125:
ARM GAS  C:\Users\matil\AppData\Local\Temp\ccjdhBtu.s 			page 35


 1228              	.LBE35:
 113:Src/cmd.c     ****         }
 1229              		.loc 1 113 58 is_stmt 1 discriminator 3 view .LVU201
 1230              	.LBE32:
 108:Src/cmd.c     ****         {
 1231              		.loc 1 108 33 discriminator 3 view .LVU202
 108:Src/cmd.c     ****         {
 1232              		.loc 1 108 34 is_stmt 0 discriminator 3 view .LVU203
 1233 04e8 0134     		adds	r4, r4, #1
 1234              	.LVL126:
 108:Src/cmd.c     ****         {
 1235              		.loc 1 108 34 discriminator 3 view .LVU204
 1236 04ea ACE7     		b	.L12
 1237              	.LVL127:
 1238              	.L43:
 108:Src/cmd.c     ****         {
 1239              		.loc 1 108 34 discriminator 3 view .LVU205
 1240              	.LBE31:
 115:Src/cmd.c     ****         {
 1241              		.loc 1 115 9 is_stmt 1 view .LVU206
 115:Src/cmd.c     ****         {
 1242              		.loc 1 115 19 is_stmt 0 view .LVU207
 1243 04ec 344B     		ldr	r3, .L46+8
 1244 04ee DB7A     		ldrb	r3, [r3, #11]
 115:Src/cmd.c     ****         {
 1245              		.loc 1 115 12 view .LVU208
 1246 04f0 002B     		cmp	r3, #0
 1247 04f2 9ED1     		bne	.L1
 117:Src/cmd.c     ****         }
 1248              		.loc 1 117 13 is_stmt 1 view .LVU209
 117:Src/cmd.c     ****         }
 1249              		.loc 1 117 23 is_stmt 0 view .LVU210
 1250 04f4 324B     		ldr	r3, .L46+8
 1251 04f6 0022     		movs	r2, #0
 1252 04f8 9A72     		strb	r2, [r3, #10]
 1253 04fa 9AE7     		b	.L1
 1254              	.LVL128:
 1255              	.L11:
 1256              	.LBB36:
 123:Src/cmd.c     ****         SERIAL_WRITE("%03u *C\n", (Temperature() / 1000) % 1000); //-66.875 to +52.443 C
 1257              		.loc 1 123 9 is_stmt 1 view .LVU211
 1258 04fc 0026     		movs	r6, #0
 1259 04fe 0196     		str	r6, [sp, #4]
 1260 0500 6022     		movs	r2, #96
 1261 0502 0021     		movs	r1, #0
 1262 0504 02A8     		add	r0, sp, #8
 1263 0506 FFF7FEFF 		bl	memset
 1264              	.LVL129:
 123:Src/cmd.c     ****         SERIAL_WRITE("%03u *C\n", (Temperature() / 1000) % 1000); //-66.875 to +52.443 C
 1265              		.loc 1 123 9 view .LVU212
 1266 050a FFF7FEFF 		bl	Temperature
 1267              	.LVL130:
 1268 050e 334A     		ldr	r2, .L46+36
 1269 0510 0023     		movs	r3, #0
 1270 0512 FFF7FEFF 		bl	__aeabi_ldivmod
 1271              	.LVL131:
 1272 0516 0200     		movs	r2, r0
ARM GAS  C:\Users\matil\AppData\Local\Temp\ccjdhBtu.s 			page 36


 1273 0518 0B00     		movs	r3, r1
 1274 051a 3149     		ldr	r1, .L46+40
 1275 051c 01A8     		add	r0, sp, #4
 1276 051e FFF7FEFF 		bl	sprintf
 1277              	.LVL132:
 123:Src/cmd.c     ****         SERIAL_WRITE("%03u *C\n", (Temperature() / 1000) % 1000); //-66.875 to +52.443 C
 1278              		.loc 1 123 9 view .LVU213
 1279 0522 FA25     		movs	r5, #250
 1280 0524 AD00     		lsls	r5, r5, #2
 1281 0526 82B2     		uxth	r2, r0
 1282 0528 244C     		ldr	r4, .L46+4
 1283 052a 2B00     		movs	r3, r5
 1284 052c 01A9     		add	r1, sp, #4
 1285 052e 2000     		movs	r0, r4
 1286              	.LVL133:
 123:Src/cmd.c     ****         SERIAL_WRITE("%03u *C\n", (Temperature() / 1000) % 1000); //-66.875 to +52.443 C
 1287              		.loc 1 123 9 is_stmt 0 view .LVU214
 1288 0530 FFF7FEFF 		bl	HAL_UART_Transmit
 1289              	.LVL134:
 1290              	.LBE36:
 123:Src/cmd.c     ****         SERIAL_WRITE("%03u *C\n", (Temperature() / 1000) % 1000); //-66.875 to +52.443 C
 1291              		.loc 1 123 53 is_stmt 1 view .LVU215
 1292              	.LBB37:
 124:Src/cmd.c     ****         if (!State.cmdLoop)
 1293              		.loc 1 124 9 view .LVU216
 1294 0534 0196     		str	r6, [sp, #4]
 1295 0536 6022     		movs	r2, #96
 1296 0538 0021     		movs	r1, #0
 1297 053a 02A8     		add	r0, sp, #8
 1298 053c FFF7FEFF 		bl	memset
 1299              	.LVL135:
 124:Src/cmd.c     ****         if (!State.cmdLoop)
 1300              		.loc 1 124 9 view .LVU217
 1301 0540 FFF7FEFF 		bl	Temperature
 1302              	.LVL136:
 1303 0544 FA22     		movs	r2, #250
 1304 0546 9200     		lsls	r2, r2, #2
 1305 0548 0023     		movs	r3, #0
 1306 054a FFF7FEFF 		bl	__aeabi_ldivmod
 1307              	.LVL137:
 1308 054e FA22     		movs	r2, #250
 1309 0550 9200     		lsls	r2, r2, #2
 1310 0552 0023     		movs	r3, #0
 1311 0554 FFF7FEFF 		bl	__aeabi_ldivmod
 1312              	.LVL138:
 1313 0558 2249     		ldr	r1, .L46+44
 1314 055a 01A8     		add	r0, sp, #4
 1315 055c FFF7FEFF 		bl	sprintf
 1316              	.LVL139:
 124:Src/cmd.c     ****         if (!State.cmdLoop)
 1317              		.loc 1 124 9 view .LVU218
 1318 0560 82B2     		uxth	r2, r0
 1319 0562 2B00     		movs	r3, r5
 1320 0564 01A9     		add	r1, sp, #4
 1321 0566 2000     		movs	r0, r4
 1322              	.LVL140:
 124:Src/cmd.c     ****         if (!State.cmdLoop)
ARM GAS  C:\Users\matil\AppData\Local\Temp\ccjdhBtu.s 			page 37


 1323              		.loc 1 124 9 is_stmt 0 view .LVU219
 1324 0568 FFF7FEFF 		bl	HAL_UART_Transmit
 1325              	.LVL141:
 1326              	.LBE37:
 124:Src/cmd.c     ****         if (!State.cmdLoop)
 1327              		.loc 1 124 65 is_stmt 1 view .LVU220
 125:Src/cmd.c     ****         {
 1328              		.loc 1 125 9 view .LVU221
 125:Src/cmd.c     ****         {
 1329              		.loc 1 125 19 is_stmt 0 view .LVU222
 1330 056c 144B     		ldr	r3, .L46+8
 1331 056e DB7A     		ldrb	r3, [r3, #11]
 125:Src/cmd.c     ****         {
 1332              		.loc 1 125 12 view .LVU223
 1333 0570 002B     		cmp	r3, #0
 1334 0572 00D0     		beq	.LCB1045
 1335 0574 5DE7     		b	.L1	@long jump
 1336              	.LCB1045:
 127:Src/cmd.c     ****         }
 1337              		.loc 1 127 13 is_stmt 1 view .LVU224
 127:Src/cmd.c     ****         }
 1338              		.loc 1 127 23 is_stmt 0 view .LVU225
 1339 0576 124B     		ldr	r3, .L46+8
 1340 0578 0022     		movs	r2, #0
 1341 057a 9A72     		strb	r2, [r3, #10]
 1342 057c 59E7     		b	.L1
 1343              	.L10:
 1344              	.LBB38:
 133:Src/cmd.c     ****         DAC_test();
 1345              		.loc 1 133 9 is_stmt 1 view .LVU226
 1346 057e 01AC     		add	r4, sp, #4
 1347 0580 0023     		movs	r3, #0
 1348 0582 0193     		str	r3, [sp, #4]
 1349 0584 6022     		movs	r2, #96
 1350 0586 0021     		movs	r1, #0
 1351 0588 02A8     		add	r0, sp, #8
 1352 058a FFF7FEFF 		bl	memset
 1353              	.LVL142:
 133:Src/cmd.c     ****         DAC_test();
 1354              		.loc 1 133 9 view .LVU227
 1355 058e 0A23     		movs	r3, #10
 1356 0590 2380     		strh	r3, [r4]
 1357              	.LVL143:
 133:Src/cmd.c     ****         DAC_test();
 1358              		.loc 1 133 9 view .LVU228
 1359 0592 F033     		adds	r3, r3, #240
 1360 0594 9B00     		lsls	r3, r3, #2
 1361 0596 0122     		movs	r2, #1
 1362 0598 2100     		movs	r1, r4
 1363 059a 0848     		ldr	r0, .L46+4
 1364 059c FFF7FEFF 		bl	HAL_UART_Transmit
 1365              	.LVL144:
 1366              	.LBE38:
 133:Src/cmd.c     ****         DAC_test();
 1367              		.loc 1 133 27 view .LVU229
 134:Src/cmd.c     ****         if (!State.cmdLoop)
 1368              		.loc 1 134 9 view .LVU230
ARM GAS  C:\Users\matil\AppData\Local\Temp\ccjdhBtu.s 			page 38


 1369 05a0 FFF7FEFF 		bl	DAC_test
 1370              	.LVL145:
 135:Src/cmd.c     ****         {
 1371              		.loc 1 135 9 view .LVU231
 135:Src/cmd.c     ****         {
 1372              		.loc 1 135 19 is_stmt 0 view .LVU232
 1373 05a4 064B     		ldr	r3, .L46+8
 1374 05a6 DB7A     		ldrb	r3, [r3, #11]
 135:Src/cmd.c     ****         {
 1375              		.loc 1 135 12 view .LVU233
 1376 05a8 002B     		cmp	r3, #0
 1377 05aa 00D0     		beq	.LCB1084
 1378 05ac 41E7     		b	.L1	@long jump
 1379              	.LCB1084:
 137:Src/cmd.c     ****         }
 1380              		.loc 1 137 13 is_stmt 1 view .LVU234
 137:Src/cmd.c     ****         }
 1381              		.loc 1 137 23 is_stmt 0 view .LVU235
 1382 05ae 044B     		ldr	r3, .L46+8
 1383 05b0 0022     		movs	r2, #0
 1384 05b2 9A72     		strb	r2, [r3, #10]
 1385 05b4 3DE7     		b	.L1
 1386              	.L47:
 1387 05b6 C046     		.align	2
 1388              	.L46:
 1389 05b8 3C010000 		.word	.LC30
 1390 05bc 00000000 		.word	huart2
 1391 05c0 00000000 		.word	State
 1392 05c4 00000000 		.word	hspi2
 1393 05c8 40771B00 		.word	1800000
 1394 05cc FFFFFF00 		.word	16777215
 1395 05d0 58010000 		.word	.LC32
 1396 05d4 60010000 		.word	.LC34
 1397 05d8 00000000 		.word	.LC3
 1398 05dc 40420F00 		.word	1000000
 1399 05e0 6C010000 		.word	.LC36
 1400 05e4 70010000 		.word	.LC38
 1401              	.LVL146:
 1402              	.L9:
 1403              	.LBB39:
 143:Src/cmd.c     ****         SERIAL_WRITE("PD0 Phase:\t\t");
 1404              		.loc 1 143 9 is_stmt 1 view .LVU236
 1405 05e8 01AC     		add	r4, sp, #4
 1406 05ea 0023     		movs	r3, #0
 1407 05ec 9B46     		mov	fp, r3
 1408 05ee 6022     		movs	r2, #96
 1409 05f0 0021     		movs	r1, #0
 1410 05f2 02A8     		add	r0, sp, #8
 1411 05f4 FFF7FEFF 		bl	memset
 1412              	.LVL147:
 143:Src/cmd.c     ****         SERIAL_WRITE("PD0 Phase:\t\t");
 1413              		.loc 1 143 9 view .LVU237
 1414 05f8 FD4B     		ldr	r3, .L48
 1415 05fa 1A68     		ldr	r2, [r3]
 1416 05fc 0192     		str	r2, [sp, #4]
 1417 05fe 9B88     		ldrh	r3, [r3, #4]
 1418 0600 A380     		strh	r3, [r4, #4]
ARM GAS  C:\Users\matil\AppData\Local\Temp\ccjdhBtu.s 			page 39


 1419              	.LVL148:
 143:Src/cmd.c     ****         SERIAL_WRITE("PD0 Phase:\t\t");
 1420              		.loc 1 143 9 view .LVU238
 1421 0602 FA25     		movs	r5, #250
 1422 0604 AD00     		lsls	r5, r5, #2
 1423 0606 FB4E     		ldr	r6, .L48+4
 1424 0608 2B00     		movs	r3, r5
 1425 060a 0522     		movs	r2, #5
 1426 060c 2100     		movs	r1, r4
 1427 060e 3000     		movs	r0, r6
 1428 0610 FFF7FEFF 		bl	HAL_UART_Transmit
 1429              	.LVL149:
 1430              	.LBE39:
 1431              	.LBB40:
 144:Src/cmd.c     ****         SERIAL_WRITE("%3i.", Phase(ADC_PD0_Phase_CH) / 1000);
 1432              		.loc 1 144 9 view .LVU239
 1433 0614 6022     		movs	r2, #96
 1434 0616 0021     		movs	r1, #0
 1435 0618 02A8     		add	r0, sp, #8
 1436 061a FFF7FEFF 		bl	memset
 1437              	.LVL150:
 144:Src/cmd.c     ****         SERIAL_WRITE("%3i.", Phase(ADC_PD0_Phase_CH) / 1000);
 1438              		.loc 1 144 9 view .LVU240
 1439 061e F64B     		ldr	r3, .L48+8
 1440 0620 2200     		movs	r2, r4
 1441 0622 83CB     		ldmia	r3!, {r0, r1, r7}
 1442 0624 83C2     		stmia	r2!, {r0, r1, r7}
 1443 0626 1B78     		ldrb	r3, [r3]
 1444 0628 1370     		strb	r3, [r2]
 1445              	.LVL151:
 144:Src/cmd.c     ****         SERIAL_WRITE("%3i.", Phase(ADC_PD0_Phase_CH) / 1000);
 1446              		.loc 1 144 9 view .LVU241
 1447 062a 2B00     		movs	r3, r5
 1448 062c 0C22     		movs	r2, #12
 1449 062e 2100     		movs	r1, r4
 1450 0630 3000     		movs	r0, r6
 1451 0632 FFF7FEFF 		bl	HAL_UART_Transmit
 1452              	.LVL152:
 1453              	.LBE40:
 144:Src/cmd.c     ****         SERIAL_WRITE("%3i.", Phase(ADC_PD0_Phase_CH) / 1000);
 1454              		.loc 1 144 39 view .LVU242
 1455              	.LBB41:
 145:Src/cmd.c     ****         SERIAL_WRITE("%03lu deg\t\t\n", Phase(ADC_PD0_Phase_CH) % 1000);
 1456              		.loc 1 145 9 view .LVU243
 1457 0636 5B46     		mov	r3, fp
 1458 0638 0193     		str	r3, [sp, #4]
 1459 063a 6022     		movs	r2, #96
 1460 063c 0021     		movs	r1, #0
 1461 063e 02A8     		add	r0, sp, #8
 1462 0640 FFF7FEFF 		bl	memset
 1463              	.LVL153:
 145:Src/cmd.c     ****         SERIAL_WRITE("%03lu deg\t\t\n", Phase(ADC_PD0_Phase_CH) % 1000);
 1464              		.loc 1 145 9 view .LVU244
 1465 0644 0B20     		movs	r0, #11
 1466 0646 FFF7FEFF 		bl	Phase
 1467              	.LVL154:
 1468 064a FA22     		movs	r2, #250
ARM GAS  C:\Users\matil\AppData\Local\Temp\ccjdhBtu.s 			page 40


 1469 064c 9200     		lsls	r2, r2, #2
 1470 064e 0023     		movs	r3, #0
 1471 0650 FFF7FEFF 		bl	__aeabi_uldivmod
 1472              	.LVL155:
 1473 0654 0200     		movs	r2, r0
 1474 0656 0B00     		movs	r3, r1
 1475 0658 E849     		ldr	r1, .L48+12
 1476 065a 8A46     		mov	r10, r1
 1477 065c 2000     		movs	r0, r4
 1478 065e FFF7FEFF 		bl	sprintf
 1479              	.LVL156:
 145:Src/cmd.c     ****         SERIAL_WRITE("%03lu deg\t\t\n", Phase(ADC_PD0_Phase_CH) % 1000);
 1480              		.loc 1 145 9 view .LVU245
 1481 0662 82B2     		uxth	r2, r0
 1482 0664 2B00     		movs	r3, r5
 1483 0666 2100     		movs	r1, r4
 1484 0668 3000     		movs	r0, r6
 1485              	.LVL157:
 145:Src/cmd.c     ****         SERIAL_WRITE("%03lu deg\t\t\n", Phase(ADC_PD0_Phase_CH) % 1000);
 1486              		.loc 1 145 9 is_stmt 0 view .LVU246
 1487 066a FFF7FEFF 		bl	HAL_UART_Transmit
 1488              	.LVL158:
 1489              	.LBE41:
 145:Src/cmd.c     ****         SERIAL_WRITE("%03lu deg\t\t\n", Phase(ADC_PD0_Phase_CH) % 1000);
 1490              		.loc 1 145 61 is_stmt 1 view .LVU247
 1491              	.LBB42:
 146:Src/cmd.c     **** 
 1492              		.loc 1 146 9 view .LVU248
 1493 066e 5B46     		mov	r3, fp
 1494 0670 0193     		str	r3, [sp, #4]
 1495 0672 6022     		movs	r2, #96
 1496 0674 0021     		movs	r1, #0
 1497 0676 02A8     		add	r0, sp, #8
 1498 0678 FFF7FEFF 		bl	memset
 1499              	.LVL159:
 146:Src/cmd.c     **** 
 1500              		.loc 1 146 9 view .LVU249
 1501 067c 0B20     		movs	r0, #11
 1502 067e FFF7FEFF 		bl	Phase
 1503              	.LVL160:
 1504 0682 FA22     		movs	r2, #250
 1505 0684 9200     		lsls	r2, r2, #2
 1506 0686 0023     		movs	r3, #0
 1507 0688 FFF7FEFF 		bl	__aeabi_uldivmod
 1508              	.LVL161:
 1509 068c DC49     		ldr	r1, .L48+16
 1510 068e 8946     		mov	r9, r1
 1511 0690 2000     		movs	r0, r4
 1512 0692 FFF7FEFF 		bl	sprintf
 1513              	.LVL162:
 146:Src/cmd.c     **** 
 1514              		.loc 1 146 9 view .LVU250
 1515 0696 2B00     		movs	r3, r5
 1516 0698 0A22     		movs	r2, #10
 1517 069a 2100     		movs	r1, r4
 1518 069c 3000     		movs	r0, r6
 1519 069e FFF7FEFF 		bl	HAL_UART_Transmit
ARM GAS  C:\Users\matil\AppData\Local\Temp\ccjdhBtu.s 			page 41


 1520              	.LVL163:
 1521              	.LBE42:
 146:Src/cmd.c     **** 
 1522              		.loc 1 146 72 view .LVU251
 1523              	.LBB43:
 148:Src/cmd.c     ****         SERIAL_WRITE("%3i.", Phase(ADC_PD1_Phase_CH) / 1000);
 1524              		.loc 1 148 9 view .LVU252
 1525 06a2 6022     		movs	r2, #96
 1526 06a4 0021     		movs	r1, #0
 1527 06a6 02A8     		add	r0, sp, #8
 1528 06a8 FFF7FEFF 		bl	memset
 1529              	.LVL164:
 148:Src/cmd.c     ****         SERIAL_WRITE("%3i.", Phase(ADC_PD1_Phase_CH) / 1000);
 1530              		.loc 1 148 9 view .LVU253
 1531 06ac D54B     		ldr	r3, .L48+20
 1532 06ae 2200     		movs	r2, r4
 1533 06b0 83CB     		ldmia	r3!, {r0, r1, r7}
 1534 06b2 83C2     		stmia	r2!, {r0, r1, r7}
 1535 06b4 1B78     		ldrb	r3, [r3]
 1536 06b6 1370     		strb	r3, [r2]
 1537              	.LVL165:
 148:Src/cmd.c     ****         SERIAL_WRITE("%3i.", Phase(ADC_PD1_Phase_CH) / 1000);
 1538              		.loc 1 148 9 view .LVU254
 1539 06b8 2B00     		movs	r3, r5
 1540 06ba 0C22     		movs	r2, #12
 1541 06bc 2100     		movs	r1, r4
 1542 06be 3000     		movs	r0, r6
 1543 06c0 FFF7FEFF 		bl	HAL_UART_Transmit
 1544              	.LVL166:
 1545              	.LBE43:
 148:Src/cmd.c     ****         SERIAL_WRITE("%3i.", Phase(ADC_PD1_Phase_CH) / 1000);
 1546              		.loc 1 148 39 view .LVU255
 1547              	.LBB44:
 149:Src/cmd.c     ****         SERIAL_WRITE("%03lu deg\t\t\n", Phase(ADC_PD1_Phase_CH) % 1000);
 1548              		.loc 1 149 9 view .LVU256
 1549 06c4 5B46     		mov	r3, fp
 1550 06c6 0193     		str	r3, [sp, #4]
 1551 06c8 6022     		movs	r2, #96
 1552 06ca 0021     		movs	r1, #0
 1553 06cc 02A8     		add	r0, sp, #8
 1554 06ce FFF7FEFF 		bl	memset
 1555              	.LVL167:
 149:Src/cmd.c     ****         SERIAL_WRITE("%03lu deg\t\t\n", Phase(ADC_PD1_Phase_CH) % 1000);
 1556              		.loc 1 149 9 view .LVU257
 1557 06d2 0620     		movs	r0, #6
 1558 06d4 FFF7FEFF 		bl	Phase
 1559              	.LVL168:
 1560 06d8 FA22     		movs	r2, #250
 1561 06da 9200     		lsls	r2, r2, #2
 1562 06dc 0023     		movs	r3, #0
 1563 06de FFF7FEFF 		bl	__aeabi_uldivmod
 1564              	.LVL169:
 1565 06e2 0200     		movs	r2, r0
 1566 06e4 0B00     		movs	r3, r1
 1567 06e6 5146     		mov	r1, r10
 1568 06e8 2000     		movs	r0, r4
 1569 06ea FFF7FEFF 		bl	sprintf
ARM GAS  C:\Users\matil\AppData\Local\Temp\ccjdhBtu.s 			page 42


 1570              	.LVL170:
 149:Src/cmd.c     ****         SERIAL_WRITE("%03lu deg\t\t\n", Phase(ADC_PD1_Phase_CH) % 1000);
 1571              		.loc 1 149 9 view .LVU258
 1572 06ee 82B2     		uxth	r2, r0
 1573 06f0 2B00     		movs	r3, r5
 1574 06f2 2100     		movs	r1, r4
 1575 06f4 3000     		movs	r0, r6
 1576              	.LVL171:
 149:Src/cmd.c     ****         SERIAL_WRITE("%03lu deg\t\t\n", Phase(ADC_PD1_Phase_CH) % 1000);
 1577              		.loc 1 149 9 is_stmt 0 view .LVU259
 1578 06f6 FFF7FEFF 		bl	HAL_UART_Transmit
 1579              	.LVL172:
 1580              	.LBE44:
 149:Src/cmd.c     ****         SERIAL_WRITE("%03lu deg\t\t\n", Phase(ADC_PD1_Phase_CH) % 1000);
 1581              		.loc 1 149 61 is_stmt 1 view .LVU260
 1582              	.LBB45:
 150:Src/cmd.c     **** 
 1583              		.loc 1 150 9 view .LVU261
 1584 06fa 5B46     		mov	r3, fp
 1585 06fc 0193     		str	r3, [sp, #4]
 1586 06fe 6022     		movs	r2, #96
 1587 0700 0021     		movs	r1, #0
 1588 0702 02A8     		add	r0, sp, #8
 1589 0704 FFF7FEFF 		bl	memset
 1590              	.LVL173:
 150:Src/cmd.c     **** 
 1591              		.loc 1 150 9 view .LVU262
 1592 0708 0620     		movs	r0, #6
 1593 070a FFF7FEFF 		bl	Phase
 1594              	.LVL174:
 1595 070e FA22     		movs	r2, #250
 1596 0710 9200     		lsls	r2, r2, #2
 1597 0712 0023     		movs	r3, #0
 1598 0714 FFF7FEFF 		bl	__aeabi_uldivmod
 1599              	.LVL175:
 1600 0718 4946     		mov	r1, r9
 1601 071a 2000     		movs	r0, r4
 1602 071c FFF7FEFF 		bl	sprintf
 1603              	.LVL176:
 150:Src/cmd.c     **** 
 1604              		.loc 1 150 9 view .LVU263
 1605 0720 2B00     		movs	r3, r5
 1606 0722 0A22     		movs	r2, #10
 1607 0724 2100     		movs	r1, r4
 1608 0726 3000     		movs	r0, r6
 1609 0728 FFF7FEFF 		bl	HAL_UART_Transmit
 1610              	.LVL177:
 1611              	.LBE45:
 150:Src/cmd.c     **** 
 1612              		.loc 1 150 72 view .LVU264
 1613              	.LBB46:
 152:Src/cmd.c     ****         SERIAL_WRITE("%3i.", Phase(ADC_PD2_Phase_CH) / 1000);
 1614              		.loc 1 152 9 view .LVU265
 1615 072c 6022     		movs	r2, #96
 1616 072e 0021     		movs	r1, #0
 1617 0730 02A8     		add	r0, sp, #8
 1618 0732 FFF7FEFF 		bl	memset
ARM GAS  C:\Users\matil\AppData\Local\Temp\ccjdhBtu.s 			page 43


 1619              	.LVL178:
 152:Src/cmd.c     ****         SERIAL_WRITE("%3i.", Phase(ADC_PD2_Phase_CH) / 1000);
 1620              		.loc 1 152 9 view .LVU266
 1621 0736 B44B     		ldr	r3, .L48+24
 1622 0738 2200     		movs	r2, r4
 1623 073a 83CB     		ldmia	r3!, {r0, r1, r7}
 1624 073c 83C2     		stmia	r2!, {r0, r1, r7}
 1625 073e 1B78     		ldrb	r3, [r3]
 1626 0740 1370     		strb	r3, [r2]
 1627              	.LVL179:
 152:Src/cmd.c     ****         SERIAL_WRITE("%3i.", Phase(ADC_PD2_Phase_CH) / 1000);
 1628              		.loc 1 152 9 view .LVU267
 1629 0742 2B00     		movs	r3, r5
 1630 0744 0C22     		movs	r2, #12
 1631 0746 2100     		movs	r1, r4
 1632 0748 3000     		movs	r0, r6
 1633 074a FFF7FEFF 		bl	HAL_UART_Transmit
 1634              	.LVL180:
 1635              	.LBE46:
 152:Src/cmd.c     ****         SERIAL_WRITE("%3i.", Phase(ADC_PD2_Phase_CH) / 1000);
 1636              		.loc 1 152 39 view .LVU268
 1637              	.LBB47:
 153:Src/cmd.c     ****         SERIAL_WRITE("%03lu deg\t\t\n", Phase(ADC_PD2_Phase_CH) % 1000);
 1638              		.loc 1 153 9 view .LVU269
 1639 074e 5B46     		mov	r3, fp
 1640 0750 0193     		str	r3, [sp, #4]
 1641 0752 6022     		movs	r2, #96
 1642 0754 0021     		movs	r1, #0
 1643 0756 02A8     		add	r0, sp, #8
 1644 0758 FFF7FEFF 		bl	memset
 1645              	.LVL181:
 153:Src/cmd.c     ****         SERIAL_WRITE("%03lu deg\t\t\n", Phase(ADC_PD2_Phase_CH) % 1000);
 1646              		.loc 1 153 9 view .LVU270
 1647 075c 0020     		movs	r0, #0
 1648 075e FFF7FEFF 		bl	Phase
 1649              	.LVL182:
 1650 0762 FA22     		movs	r2, #250
 1651 0764 9200     		lsls	r2, r2, #2
 1652 0766 0023     		movs	r3, #0
 1653 0768 FFF7FEFF 		bl	__aeabi_uldivmod
 1654              	.LVL183:
 1655 076c 0200     		movs	r2, r0
 1656 076e 0B00     		movs	r3, r1
 1657 0770 5146     		mov	r1, r10
 1658 0772 2000     		movs	r0, r4
 1659 0774 FFF7FEFF 		bl	sprintf
 1660              	.LVL184:
 153:Src/cmd.c     ****         SERIAL_WRITE("%03lu deg\t\t\n", Phase(ADC_PD2_Phase_CH) % 1000);
 1661              		.loc 1 153 9 view .LVU271
 1662 0778 82B2     		uxth	r2, r0
 1663 077a 2B00     		movs	r3, r5
 1664 077c 2100     		movs	r1, r4
 1665 077e 3000     		movs	r0, r6
 1666              	.LVL185:
 153:Src/cmd.c     ****         SERIAL_WRITE("%03lu deg\t\t\n", Phase(ADC_PD2_Phase_CH) % 1000);
 1667              		.loc 1 153 9 is_stmt 0 view .LVU272
 1668 0780 FFF7FEFF 		bl	HAL_UART_Transmit
ARM GAS  C:\Users\matil\AppData\Local\Temp\ccjdhBtu.s 			page 44


 1669              	.LVL186:
 1670              	.LBE47:
 153:Src/cmd.c     ****         SERIAL_WRITE("%03lu deg\t\t\n", Phase(ADC_PD2_Phase_CH) % 1000);
 1671              		.loc 1 153 61 is_stmt 1 view .LVU273
 1672              	.LBB48:
 154:Src/cmd.c     **** 
 1673              		.loc 1 154 9 view .LVU274
 1674 0784 5B46     		mov	r3, fp
 1675 0786 0193     		str	r3, [sp, #4]
 1676 0788 6022     		movs	r2, #96
 1677 078a 0021     		movs	r1, #0
 1678 078c 02A8     		add	r0, sp, #8
 1679 078e FFF7FEFF 		bl	memset
 1680              	.LVL187:
 154:Src/cmd.c     **** 
 1681              		.loc 1 154 9 view .LVU275
 1682 0792 0020     		movs	r0, #0
 1683 0794 FFF7FEFF 		bl	Phase
 1684              	.LVL188:
 1685 0798 FA22     		movs	r2, #250
 1686 079a 9200     		lsls	r2, r2, #2
 1687 079c 0023     		movs	r3, #0
 1688 079e FFF7FEFF 		bl	__aeabi_uldivmod
 1689              	.LVL189:
 1690 07a2 4946     		mov	r1, r9
 1691 07a4 2000     		movs	r0, r4
 1692 07a6 FFF7FEFF 		bl	sprintf
 1693              	.LVL190:
 154:Src/cmd.c     **** 
 1694              		.loc 1 154 9 view .LVU276
 1695 07aa 2B00     		movs	r3, r5
 1696 07ac 0A22     		movs	r2, #10
 1697 07ae 2100     		movs	r1, r4
 1698 07b0 3000     		movs	r0, r6
 1699 07b2 FFF7FEFF 		bl	HAL_UART_Transmit
 1700              	.LVL191:
 1701              	.LBE48:
 154:Src/cmd.c     **** 
 1702              		.loc 1 154 72 view .LVU277
 1703              	.LBB49:
 156:Src/cmd.c     ****         SERIAL_WRITE("%3i.", Phase(ADC_PD3_Phase_CH) / 1000);
 1704              		.loc 1 156 9 view .LVU278
 1705 07b6 6022     		movs	r2, #96
 1706 07b8 0021     		movs	r1, #0
 1707 07ba 02A8     		add	r0, sp, #8
 1708 07bc FFF7FEFF 		bl	memset
 1709              	.LVL192:
 156:Src/cmd.c     ****         SERIAL_WRITE("%3i.", Phase(ADC_PD3_Phase_CH) / 1000);
 1710              		.loc 1 156 9 view .LVU279
 1711 07c0 924B     		ldr	r3, .L48+28
 1712 07c2 2200     		movs	r2, r4
 1713 07c4 83CB     		ldmia	r3!, {r0, r1, r7}
 1714 07c6 83C2     		stmia	r2!, {r0, r1, r7}
 1715 07c8 1B78     		ldrb	r3, [r3]
 1716 07ca 1370     		strb	r3, [r2]
 1717              	.LVL193:
 156:Src/cmd.c     ****         SERIAL_WRITE("%3i.", Phase(ADC_PD3_Phase_CH) / 1000);
ARM GAS  C:\Users\matil\AppData\Local\Temp\ccjdhBtu.s 			page 45


 1718              		.loc 1 156 9 view .LVU280
 1719 07cc 2B00     		movs	r3, r5
 1720 07ce 0C22     		movs	r2, #12
 1721 07d0 2100     		movs	r1, r4
 1722 07d2 3000     		movs	r0, r6
 1723 07d4 FFF7FEFF 		bl	HAL_UART_Transmit
 1724              	.LVL194:
 1725              	.LBE49:
 156:Src/cmd.c     ****         SERIAL_WRITE("%3i.", Phase(ADC_PD3_Phase_CH) / 1000);
 1726              		.loc 1 156 39 view .LVU281
 1727              	.LBB50:
 157:Src/cmd.c     ****         SERIAL_WRITE("%03lu deg\t\t\n", Phase(ADC_PD3_Phase_CH) % 1000);
 1728              		.loc 1 157 9 view .LVU282
 1729 07d8 5B46     		mov	r3, fp
 1730 07da 0193     		str	r3, [sp, #4]
 1731 07dc 6022     		movs	r2, #96
 1732 07de 0021     		movs	r1, #0
 1733 07e0 02A8     		add	r0, sp, #8
 1734 07e2 FFF7FEFF 		bl	memset
 1735              	.LVL195:
 157:Src/cmd.c     ****         SERIAL_WRITE("%03lu deg\t\t\n", Phase(ADC_PD3_Phase_CH) % 1000);
 1736              		.loc 1 157 9 view .LVU283
 1737 07e6 0E20     		movs	r0, #14
 1738 07e8 FFF7FEFF 		bl	Phase
 1739              	.LVL196:
 1740 07ec FA22     		movs	r2, #250
 1741 07ee 9200     		lsls	r2, r2, #2
 1742 07f0 0023     		movs	r3, #0
 1743 07f2 FFF7FEFF 		bl	__aeabi_uldivmod
 1744              	.LVL197:
 1745 07f6 0200     		movs	r2, r0
 1746 07f8 0B00     		movs	r3, r1
 1747 07fa 5146     		mov	r1, r10
 1748 07fc 2000     		movs	r0, r4
 1749 07fe FFF7FEFF 		bl	sprintf
 1750              	.LVL198:
 157:Src/cmd.c     ****         SERIAL_WRITE("%03lu deg\t\t\n", Phase(ADC_PD3_Phase_CH) % 1000);
 1751              		.loc 1 157 9 view .LVU284
 1752 0802 82B2     		uxth	r2, r0
 1753 0804 2B00     		movs	r3, r5
 1754 0806 2100     		movs	r1, r4
 1755 0808 3000     		movs	r0, r6
 1756              	.LVL199:
 157:Src/cmd.c     ****         SERIAL_WRITE("%03lu deg\t\t\n", Phase(ADC_PD3_Phase_CH) % 1000);
 1757              		.loc 1 157 9 is_stmt 0 view .LVU285
 1758 080a FFF7FEFF 		bl	HAL_UART_Transmit
 1759              	.LVL200:
 1760              	.LBE50:
 157:Src/cmd.c     ****         SERIAL_WRITE("%03lu deg\t\t\n", Phase(ADC_PD3_Phase_CH) % 1000);
 1761              		.loc 1 157 61 is_stmt 1 view .LVU286
 1762              	.LBB51:
 158:Src/cmd.c     **** 
 1763              		.loc 1 158 9 view .LVU287
 1764 080e 5B46     		mov	r3, fp
 1765 0810 0193     		str	r3, [sp, #4]
 1766 0812 6022     		movs	r2, #96
 1767 0814 0021     		movs	r1, #0
ARM GAS  C:\Users\matil\AppData\Local\Temp\ccjdhBtu.s 			page 46


 1768 0816 02A8     		add	r0, sp, #8
 1769 0818 FFF7FEFF 		bl	memset
 1770              	.LVL201:
 158:Src/cmd.c     **** 
 1771              		.loc 1 158 9 view .LVU288
 1772 081c 0E20     		movs	r0, #14
 1773 081e FFF7FEFF 		bl	Phase
 1774              	.LVL202:
 1775 0822 FA22     		movs	r2, #250
 1776 0824 9200     		lsls	r2, r2, #2
 1777 0826 0023     		movs	r3, #0
 1778 0828 FFF7FEFF 		bl	__aeabi_uldivmod
 1779              	.LVL203:
 1780 082c 4946     		mov	r1, r9
 1781 082e 2000     		movs	r0, r4
 1782 0830 FFF7FEFF 		bl	sprintf
 1783              	.LVL204:
 158:Src/cmd.c     **** 
 1784              		.loc 1 158 9 view .LVU289
 1785 0834 2B00     		movs	r3, r5
 1786 0836 0A22     		movs	r2, #10
 1787 0838 2100     		movs	r1, r4
 1788 083a 3000     		movs	r0, r6
 1789 083c FFF7FEFF 		bl	HAL_UART_Transmit
 1790              	.LVL205:
 1791              	.LBE51:
 158:Src/cmd.c     **** 
 1792              		.loc 1 158 72 view .LVU290
 1793              	.LBB52:
 160:Src/cmd.c     ****         SERIAL_WRITE("%3i.", Phase(ADC_PD4_Phase_CH) / 1000);
 1794              		.loc 1 160 9 view .LVU291
 1795 0840 6022     		movs	r2, #96
 1796 0842 0021     		movs	r1, #0
 1797 0844 02A8     		add	r0, sp, #8
 1798 0846 FFF7FEFF 		bl	memset
 1799              	.LVL206:
 160:Src/cmd.c     ****         SERIAL_WRITE("%3i.", Phase(ADC_PD4_Phase_CH) / 1000);
 1800              		.loc 1 160 9 view .LVU292
 1801 084a 714B     		ldr	r3, .L48+32
 1802 084c 2200     		movs	r2, r4
 1803 084e 83CB     		ldmia	r3!, {r0, r1, r7}
 1804 0850 83C2     		stmia	r2!, {r0, r1, r7}
 1805 0852 1B78     		ldrb	r3, [r3]
 1806 0854 1370     		strb	r3, [r2]
 1807              	.LVL207:
 160:Src/cmd.c     ****         SERIAL_WRITE("%3i.", Phase(ADC_PD4_Phase_CH) / 1000);
 1808              		.loc 1 160 9 view .LVU293
 1809 0856 2B00     		movs	r3, r5
 1810 0858 0C22     		movs	r2, #12
 1811 085a 2100     		movs	r1, r4
 1812 085c 3000     		movs	r0, r6
 1813 085e FFF7FEFF 		bl	HAL_UART_Transmit
 1814              	.LVL208:
 1815              	.LBE52:
 160:Src/cmd.c     ****         SERIAL_WRITE("%3i.", Phase(ADC_PD4_Phase_CH) / 1000);
 1816              		.loc 1 160 39 view .LVU294
 1817              	.LBB53:
ARM GAS  C:\Users\matil\AppData\Local\Temp\ccjdhBtu.s 			page 47


 161:Src/cmd.c     ****         SERIAL_WRITE("%03lu deg\t\t\n", Phase(ADC_PD4_Phase_CH) % 1000);
 1818              		.loc 1 161 9 view .LVU295
 1819 0862 5B46     		mov	r3, fp
 1820 0864 0193     		str	r3, [sp, #4]
 1821 0866 6022     		movs	r2, #96
 1822 0868 0021     		movs	r1, #0
 1823 086a 02A8     		add	r0, sp, #8
 1824 086c FFF7FEFF 		bl	memset
 1825              	.LVL209:
 161:Src/cmd.c     ****         SERIAL_WRITE("%03lu deg\t\t\n", Phase(ADC_PD4_Phase_CH) % 1000);
 1826              		.loc 1 161 9 view .LVU296
 1827 0870 0220     		movs	r0, #2
 1828 0872 FFF7FEFF 		bl	Phase
 1829              	.LVL210:
 1830 0876 FA22     		movs	r2, #250
 1831 0878 9200     		lsls	r2, r2, #2
 1832 087a 0023     		movs	r3, #0
 1833 087c FFF7FEFF 		bl	__aeabi_uldivmod
 1834              	.LVL211:
 1835 0880 0200     		movs	r2, r0
 1836 0882 0B00     		movs	r3, r1
 1837 0884 5146     		mov	r1, r10
 1838 0886 2000     		movs	r0, r4
 1839 0888 FFF7FEFF 		bl	sprintf
 1840              	.LVL212:
 161:Src/cmd.c     ****         SERIAL_WRITE("%03lu deg\t\t\n", Phase(ADC_PD4_Phase_CH) % 1000);
 1841              		.loc 1 161 9 view .LVU297
 1842 088c 82B2     		uxth	r2, r0
 1843 088e 2B00     		movs	r3, r5
 1844 0890 2100     		movs	r1, r4
 1845 0892 3000     		movs	r0, r6
 1846              	.LVL213:
 161:Src/cmd.c     ****         SERIAL_WRITE("%03lu deg\t\t\n", Phase(ADC_PD4_Phase_CH) % 1000);
 1847              		.loc 1 161 9 is_stmt 0 view .LVU298
 1848 0894 FFF7FEFF 		bl	HAL_UART_Transmit
 1849              	.LVL214:
 1850              	.LBE53:
 161:Src/cmd.c     ****         SERIAL_WRITE("%03lu deg\t\t\n", Phase(ADC_PD4_Phase_CH) % 1000);
 1851              		.loc 1 161 61 is_stmt 1 view .LVU299
 1852              	.LBB54:
 162:Src/cmd.c     **** 
 1853              		.loc 1 162 9 view .LVU300
 1854 0898 5B46     		mov	r3, fp
 1855 089a 0193     		str	r3, [sp, #4]
 1856 089c 6022     		movs	r2, #96
 1857 089e 0021     		movs	r1, #0
 1858 08a0 02A8     		add	r0, sp, #8
 1859 08a2 FFF7FEFF 		bl	memset
 1860              	.LVL215:
 162:Src/cmd.c     **** 
 1861              		.loc 1 162 9 view .LVU301
 1862 08a6 0220     		movs	r0, #2
 1863 08a8 FFF7FEFF 		bl	Phase
 1864              	.LVL216:
 1865 08ac FA22     		movs	r2, #250
 1866 08ae 9200     		lsls	r2, r2, #2
 1867 08b0 0023     		movs	r3, #0
ARM GAS  C:\Users\matil\AppData\Local\Temp\ccjdhBtu.s 			page 48


 1868 08b2 FFF7FEFF 		bl	__aeabi_uldivmod
 1869              	.LVL217:
 1870 08b6 4946     		mov	r1, r9
 1871 08b8 2000     		movs	r0, r4
 1872 08ba FFF7FEFF 		bl	sprintf
 1873              	.LVL218:
 162:Src/cmd.c     **** 
 1874              		.loc 1 162 9 view .LVU302
 1875 08be 2B00     		movs	r3, r5
 1876 08c0 0A22     		movs	r2, #10
 1877 08c2 2100     		movs	r1, r4
 1878 08c4 3000     		movs	r0, r6
 1879 08c6 FFF7FEFF 		bl	HAL_UART_Transmit
 1880              	.LVL219:
 1881              	.LBE54:
 162:Src/cmd.c     **** 
 1882              		.loc 1 162 72 view .LVU303
 1883              	.LBB55:
 164:Src/cmd.c     ****         SERIAL_WRITE("%3li.", Relative_Power(ADC_PD0_Power_CH) / 1000);
 1884              		.loc 1 164 9 view .LVU304
 1885 08ca 6022     		movs	r2, #96
 1886 08cc 0021     		movs	r1, #0
 1887 08ce 02A8     		add	r0, sp, #8
 1888 08d0 FFF7FEFF 		bl	memset
 1889              	.LVL220:
 164:Src/cmd.c     ****         SERIAL_WRITE("%3li.", Relative_Power(ADC_PD0_Power_CH) / 1000);
 1890              		.loc 1 164 9 view .LVU305
 1891 08d4 4F4B     		ldr	r3, .L48+36
 1892 08d6 2200     		movs	r2, r4
 1893 08d8 83CB     		ldmia	r3!, {r0, r1, r7}
 1894 08da 83C2     		stmia	r2!, {r0, r1, r7}
 1895 08dc 1968     		ldr	r1, [r3]
 1896 08de 1160     		str	r1, [r2]
 1897 08e0 1B79     		ldrb	r3, [r3, #4]
 1898 08e2 1371     		strb	r3, [r2, #4]
 1899              	.LVL221:
 164:Src/cmd.c     ****         SERIAL_WRITE("%3li.", Relative_Power(ADC_PD0_Power_CH) / 1000);
 1900              		.loc 1 164 9 view .LVU306
 1901 08e4 2B00     		movs	r3, r5
 1902 08e6 1022     		movs	r2, #16
 1903 08e8 2100     		movs	r1, r4
 1904 08ea 3000     		movs	r0, r6
 1905 08ec FFF7FEFF 		bl	HAL_UART_Transmit
 1906              	.LVL222:
 1907              	.LBE55:
 164:Src/cmd.c     ****         SERIAL_WRITE("%3li.", Relative_Power(ADC_PD0_Power_CH) / 1000);
 1908              		.loc 1 164 43 view .LVU307
 1909              	.LBB56:
 165:Src/cmd.c     ****         SERIAL_WRITE("%03u dB\t\t\n", abs(Relative_Power(ADC_PD0_Power_CH)) % 1000);
 1910              		.loc 1 165 9 view .LVU308
 1911 08f0 5B46     		mov	r3, fp
 1912 08f2 0193     		str	r3, [sp, #4]
 1913 08f4 6022     		movs	r2, #96
 1914 08f6 0021     		movs	r1, #0
 1915 08f8 02A8     		add	r0, sp, #8
 1916 08fa FFF7FEFF 		bl	memset
 1917              	.LVL223:
ARM GAS  C:\Users\matil\AppData\Local\Temp\ccjdhBtu.s 			page 49


 165:Src/cmd.c     ****         SERIAL_WRITE("%03u dB\t\t\n", abs(Relative_Power(ADC_PD0_Power_CH)) % 1000);
 1918              		.loc 1 165 9 view .LVU309
 1919 08fe 0C20     		movs	r0, #12
 1920 0900 FFF7FEFF 		bl	Relative_Power
 1921              	.LVL224:
 1922 0904 FA22     		movs	r2, #250
 1923 0906 9200     		lsls	r2, r2, #2
 1924 0908 0023     		movs	r3, #0
 1925 090a FFF7FEFF 		bl	__aeabi_ldivmod
 1926              	.LVL225:
 1927 090e 0200     		movs	r2, r0
 1928 0910 0B00     		movs	r3, r1
 1929 0912 4149     		ldr	r1, .L48+40
 1930 0914 8946     		mov	r9, r1
 1931 0916 2000     		movs	r0, r4
 1932 0918 FFF7FEFF 		bl	sprintf
 1933              	.LVL226:
 165:Src/cmd.c     ****         SERIAL_WRITE("%03u dB\t\t\n", abs(Relative_Power(ADC_PD0_Power_CH)) % 1000);
 1934              		.loc 1 165 9 view .LVU310
 1935 091c 82B2     		uxth	r2, r0
 1936 091e 2B00     		movs	r3, r5
 1937 0920 2100     		movs	r1, r4
 1938 0922 3000     		movs	r0, r6
 1939              	.LVL227:
 165:Src/cmd.c     ****         SERIAL_WRITE("%03u dB\t\t\n", abs(Relative_Power(ADC_PD0_Power_CH)) % 1000);
 1940              		.loc 1 165 9 is_stmt 0 view .LVU311
 1941 0924 FFF7FEFF 		bl	HAL_UART_Transmit
 1942              	.LVL228:
 1943              	.LBE56:
 165:Src/cmd.c     ****         SERIAL_WRITE("%03u dB\t\t\n", abs(Relative_Power(ADC_PD0_Power_CH)) % 1000);
 1944              		.loc 1 165 71 is_stmt 1 view .LVU312
 1945              	.LBB57:
 166:Src/cmd.c     **** 
 1946              		.loc 1 166 9 view .LVU313
 1947 0928 5B46     		mov	r3, fp
 1948 092a 0193     		str	r3, [sp, #4]
 1949 092c 6022     		movs	r2, #96
 1950 092e 0021     		movs	r1, #0
 1951 0930 02A8     		add	r0, sp, #8
 1952 0932 FFF7FEFF 		bl	memset
 1953              	.LVL229:
 166:Src/cmd.c     **** 
 1954              		.loc 1 166 9 view .LVU314
 1955 0936 0C20     		movs	r0, #12
 1956 0938 FFF7FEFF 		bl	Relative_Power
 1957              	.LVL230:
 1958 093c C317     		asrs	r3, r0, #31
 1959 093e C018     		adds	r0, r0, r3
 1960 0940 5840     		eors	r0, r3
 1961 0942 2900     		movs	r1, r5
 1962 0944 FFF7FEFF 		bl	__aeabi_idivmod
 1963              	.LVL231:
 1964 0948 0A00     		movs	r2, r1
 1965 094a 344B     		ldr	r3, .L48+44
 1966 094c 9A46     		mov	r10, r3
 1967 094e 1900     		movs	r1, r3
 1968 0950 2000     		movs	r0, r4
ARM GAS  C:\Users\matil\AppData\Local\Temp\ccjdhBtu.s 			page 50


 1969 0952 FFF7FEFF 		bl	sprintf
 1970              	.LVL232:
 166:Src/cmd.c     **** 
 1971              		.loc 1 166 9 view .LVU315
 1972 0956 2B00     		movs	r3, r5
 1973 0958 0922     		movs	r2, #9
 1974 095a 2100     		movs	r1, r4
 1975 095c 3000     		movs	r0, r6
 1976 095e FFF7FEFF 		bl	HAL_UART_Transmit
 1977              	.LVL233:
 1978              	.LBE57:
 166:Src/cmd.c     **** 
 1979              		.loc 1 166 84 view .LVU316
 1980              	.LBB58:
 168:Src/cmd.c     ****         SERIAL_WRITE("%3li.", Relative_Power(ADC_PD1_Power_CH) / 1000);
 1981              		.loc 1 168 9 view .LVU317
 1982 0962 6022     		movs	r2, #96
 1983 0964 0021     		movs	r1, #0
 1984 0966 02A8     		add	r0, sp, #8
 1985 0968 FFF7FEFF 		bl	memset
 1986              	.LVL234:
 168:Src/cmd.c     ****         SERIAL_WRITE("%3li.", Relative_Power(ADC_PD1_Power_CH) / 1000);
 1987              		.loc 1 168 9 view .LVU318
 1988 096c 2C4B     		ldr	r3, .L48+48
 1989 096e 2200     		movs	r2, r4
 1990 0970 83CB     		ldmia	r3!, {r0, r1, r7}
 1991 0972 83C2     		stmia	r2!, {r0, r1, r7}
 1992 0974 1968     		ldr	r1, [r3]
 1993 0976 1160     		str	r1, [r2]
 1994 0978 1B79     		ldrb	r3, [r3, #4]
 1995 097a 1371     		strb	r3, [r2, #4]
 1996              	.LVL235:
 168:Src/cmd.c     ****         SERIAL_WRITE("%3li.", Relative_Power(ADC_PD1_Power_CH) / 1000);
 1997              		.loc 1 168 9 view .LVU319
 1998 097c 2B00     		movs	r3, r5
 1999 097e 1022     		movs	r2, #16
 2000 0980 2100     		movs	r1, r4
 2001 0982 3000     		movs	r0, r6
 2002 0984 FFF7FEFF 		bl	HAL_UART_Transmit
 2003              	.LVL236:
 2004              	.LBE58:
 168:Src/cmd.c     ****         SERIAL_WRITE("%3li.", Relative_Power(ADC_PD1_Power_CH) / 1000);
 2005              		.loc 1 168 43 view .LVU320
 2006              	.LBB59:
 169:Src/cmd.c     ****         SERIAL_WRITE("%03u dB\t\t\n", abs(Relative_Power(ADC_PD1_Power_CH)) % 1000);
 2007              		.loc 1 169 9 view .LVU321
 2008 0988 5B46     		mov	r3, fp
 2009 098a 0193     		str	r3, [sp, #4]
 2010 098c 6022     		movs	r2, #96
 2011 098e 0021     		movs	r1, #0
 2012 0990 02A8     		add	r0, sp, #8
 2013 0992 FFF7FEFF 		bl	memset
 2014              	.LVL237:
 169:Src/cmd.c     ****         SERIAL_WRITE("%03u dB\t\t\n", abs(Relative_Power(ADC_PD1_Power_CH)) % 1000);
 2015              		.loc 1 169 9 view .LVU322
 2016 0996 0520     		movs	r0, #5
 2017 0998 FFF7FEFF 		bl	Relative_Power
ARM GAS  C:\Users\matil\AppData\Local\Temp\ccjdhBtu.s 			page 51


 2018              	.LVL238:
 2019 099c FA22     		movs	r2, #250
 2020 099e 9200     		lsls	r2, r2, #2
 2021 09a0 0023     		movs	r3, #0
 2022 09a2 FFF7FEFF 		bl	__aeabi_ldivmod
 2023              	.LVL239:
 2024 09a6 0200     		movs	r2, r0
 2025 09a8 0B00     		movs	r3, r1
 2026 09aa 4946     		mov	r1, r9
 2027 09ac 2000     		movs	r0, r4
 2028 09ae FFF7FEFF 		bl	sprintf
 2029              	.LVL240:
 169:Src/cmd.c     ****         SERIAL_WRITE("%03u dB\t\t\n", abs(Relative_Power(ADC_PD1_Power_CH)) % 1000);
 2030              		.loc 1 169 9 view .LVU323
 2031 09b2 82B2     		uxth	r2, r0
 2032 09b4 2B00     		movs	r3, r5
 2033 09b6 2100     		movs	r1, r4
 2034 09b8 3000     		movs	r0, r6
 2035              	.LVL241:
 169:Src/cmd.c     ****         SERIAL_WRITE("%03u dB\t\t\n", abs(Relative_Power(ADC_PD1_Power_CH)) % 1000);
 2036              		.loc 1 169 9 is_stmt 0 view .LVU324
 2037 09ba FFF7FEFF 		bl	HAL_UART_Transmit
 2038              	.LVL242:
 2039              	.LBE59:
 169:Src/cmd.c     ****         SERIAL_WRITE("%03u dB\t\t\n", abs(Relative_Power(ADC_PD1_Power_CH)) % 1000);
 2040              		.loc 1 169 71 is_stmt 1 view .LVU325
 2041              	.LBB60:
 170:Src/cmd.c     **** 
 2042              		.loc 1 170 9 view .LVU326
 2043 09be 5B46     		mov	r3, fp
 2044 09c0 0193     		str	r3, [sp, #4]
 2045 09c2 6022     		movs	r2, #96
 2046 09c4 0021     		movs	r1, #0
 2047 09c6 02A8     		add	r0, sp, #8
 2048 09c8 FFF7FEFF 		bl	memset
 2049              	.LVL243:
 170:Src/cmd.c     **** 
 2050              		.loc 1 170 9 view .LVU327
 2051 09cc 0520     		movs	r0, #5
 2052 09ce FFF7FEFF 		bl	Relative_Power
 2053              	.LVL244:
 2054 09d2 C317     		asrs	r3, r0, #31
 2055 09d4 C018     		adds	r0, r0, r3
 2056 09d6 5840     		eors	r0, r3
 2057 09d8 2900     		movs	r1, r5
 2058 09da FFF7FEFF 		bl	__aeabi_idivmod
 2059              	.LVL245:
 2060 09de 0A00     		movs	r2, r1
 2061 09e0 5146     		mov	r1, r10
 2062 09e2 2000     		movs	r0, r4
 2063 09e4 FFF7FEFF 		bl	sprintf
 2064              	.LVL246:
 170:Src/cmd.c     **** 
 2065              		.loc 1 170 9 view .LVU328
 2066 09e8 2B00     		movs	r3, r5
 2067 09ea 0922     		movs	r2, #9
 2068 09ec 2100     		movs	r1, r4
ARM GAS  C:\Users\matil\AppData\Local\Temp\ccjdhBtu.s 			page 52


 2069 09ee 19E0     		b	.L49
 2070              	.L50:
 2071              		.align	2
 2072              	.L48:
 2073 09f0 7C010000 		.word	.LC40
 2074 09f4 00000000 		.word	huart2
 2075 09f8 84010000 		.word	.LC42
 2076 09fc 94010000 		.word	.LC44
 2077 0a00 9C010000 		.word	.LC46
 2078 0a04 AC010000 		.word	.LC48
 2079 0a08 BC010000 		.word	.LC50
 2080 0a0c CC010000 		.word	.LC52
 2081 0a10 DC010000 		.word	.LC54
 2082 0a14 EC010000 		.word	.LC56
 2083 0a18 00020000 		.word	.LC58
 2084 0a1c 08020000 		.word	.LC60
 2085 0a20 14020000 		.word	.LC62
 2086              	.L49:
 2087 0a24 3000     		movs	r0, r6
 2088 0a26 FFF7FEFF 		bl	HAL_UART_Transmit
 2089              	.LVL247:
 2090              	.LBE60:
 170:Src/cmd.c     **** 
 2091              		.loc 1 170 84 view .LVU329
 2092              	.LBB61:
 172:Src/cmd.c     ****         SERIAL_WRITE("%3li.", Relative_Power(ADC_PD2_Power_CH) / 1000);
 2093              		.loc 1 172 9 view .LVU330
 2094 0a2a 6022     		movs	r2, #96
 2095 0a2c 0021     		movs	r1, #0
 2096 0a2e 02A8     		add	r0, sp, #8
 2097 0a30 FFF7FEFF 		bl	memset
 2098              	.LVL248:
 172:Src/cmd.c     ****         SERIAL_WRITE("%3li.", Relative_Power(ADC_PD2_Power_CH) / 1000);
 2099              		.loc 1 172 9 view .LVU331
 2100 0a34 FB4B     		ldr	r3, .L51
 2101 0a36 2200     		movs	r2, r4
 2102 0a38 83CB     		ldmia	r3!, {r0, r1, r7}
 2103 0a3a 83C2     		stmia	r2!, {r0, r1, r7}
 2104 0a3c 1968     		ldr	r1, [r3]
 2105 0a3e 1160     		str	r1, [r2]
 2106 0a40 1B79     		ldrb	r3, [r3, #4]
 2107 0a42 1371     		strb	r3, [r2, #4]
 2108              	.LVL249:
 172:Src/cmd.c     ****         SERIAL_WRITE("%3li.", Relative_Power(ADC_PD2_Power_CH) / 1000);
 2109              		.loc 1 172 9 view .LVU332
 2110 0a44 2B00     		movs	r3, r5
 2111 0a46 1022     		movs	r2, #16
 2112 0a48 2100     		movs	r1, r4
 2113 0a4a 3000     		movs	r0, r6
 2114 0a4c FFF7FEFF 		bl	HAL_UART_Transmit
 2115              	.LVL250:
 2116              	.LBE61:
 172:Src/cmd.c     ****         SERIAL_WRITE("%3li.", Relative_Power(ADC_PD2_Power_CH) / 1000);
 2117              		.loc 1 172 43 view .LVU333
 2118              	.LBB62:
 173:Src/cmd.c     ****         SERIAL_WRITE("%03u dB\t\t\n", abs(Relative_Power(ADC_PD2_Power_CH)) % 1000);
 2119              		.loc 1 173 9 view .LVU334
ARM GAS  C:\Users\matil\AppData\Local\Temp\ccjdhBtu.s 			page 53


 2120 0a50 5B46     		mov	r3, fp
 2121 0a52 0193     		str	r3, [sp, #4]
 2122 0a54 6022     		movs	r2, #96
 2123 0a56 0021     		movs	r1, #0
 2124 0a58 02A8     		add	r0, sp, #8
 2125 0a5a FFF7FEFF 		bl	memset
 2126              	.LVL251:
 173:Src/cmd.c     ****         SERIAL_WRITE("%03u dB\t\t\n", abs(Relative_Power(ADC_PD2_Power_CH)) % 1000);
 2127              		.loc 1 173 9 view .LVU335
 2128 0a5e 0120     		movs	r0, #1
 2129 0a60 FFF7FEFF 		bl	Relative_Power
 2130              	.LVL252:
 2131 0a64 FA22     		movs	r2, #250
 2132 0a66 9200     		lsls	r2, r2, #2
 2133 0a68 0023     		movs	r3, #0
 2134 0a6a FFF7FEFF 		bl	__aeabi_ldivmod
 2135              	.LVL253:
 2136 0a6e 0200     		movs	r2, r0
 2137 0a70 0B00     		movs	r3, r1
 2138 0a72 4946     		mov	r1, r9
 2139 0a74 2000     		movs	r0, r4
 2140 0a76 FFF7FEFF 		bl	sprintf
 2141              	.LVL254:
 173:Src/cmd.c     ****         SERIAL_WRITE("%03u dB\t\t\n", abs(Relative_Power(ADC_PD2_Power_CH)) % 1000);
 2142              		.loc 1 173 9 view .LVU336
 2143 0a7a 82B2     		uxth	r2, r0
 2144 0a7c 2B00     		movs	r3, r5
 2145 0a7e 2100     		movs	r1, r4
 2146 0a80 3000     		movs	r0, r6
 2147              	.LVL255:
 173:Src/cmd.c     ****         SERIAL_WRITE("%03u dB\t\t\n", abs(Relative_Power(ADC_PD2_Power_CH)) % 1000);
 2148              		.loc 1 173 9 is_stmt 0 view .LVU337
 2149 0a82 FFF7FEFF 		bl	HAL_UART_Transmit
 2150              	.LVL256:
 2151              	.LBE62:
 173:Src/cmd.c     ****         SERIAL_WRITE("%03u dB\t\t\n", abs(Relative_Power(ADC_PD2_Power_CH)) % 1000);
 2152              		.loc 1 173 71 is_stmt 1 view .LVU338
 2153              	.LBB63:
 174:Src/cmd.c     **** 
 2154              		.loc 1 174 9 view .LVU339
 2155 0a86 5B46     		mov	r3, fp
 2156 0a88 0193     		str	r3, [sp, #4]
 2157 0a8a 6022     		movs	r2, #96
 2158 0a8c 0021     		movs	r1, #0
 2159 0a8e 02A8     		add	r0, sp, #8
 2160 0a90 FFF7FEFF 		bl	memset
 2161              	.LVL257:
 174:Src/cmd.c     **** 
 2162              		.loc 1 174 9 view .LVU340
 2163 0a94 0120     		movs	r0, #1
 2164 0a96 FFF7FEFF 		bl	Relative_Power
 2165              	.LVL258:
 2166 0a9a C317     		asrs	r3, r0, #31
 2167 0a9c C018     		adds	r0, r0, r3
 2168 0a9e 5840     		eors	r0, r3
 2169 0aa0 2900     		movs	r1, r5
 2170 0aa2 FFF7FEFF 		bl	__aeabi_idivmod
ARM GAS  C:\Users\matil\AppData\Local\Temp\ccjdhBtu.s 			page 54


 2171              	.LVL259:
 2172 0aa6 0A00     		movs	r2, r1
 2173 0aa8 5146     		mov	r1, r10
 2174 0aaa 2000     		movs	r0, r4
 2175 0aac FFF7FEFF 		bl	sprintf
 2176              	.LVL260:
 174:Src/cmd.c     **** 
 2177              		.loc 1 174 9 view .LVU341
 2178 0ab0 2B00     		movs	r3, r5
 2179 0ab2 0922     		movs	r2, #9
 2180 0ab4 2100     		movs	r1, r4
 2181 0ab6 3000     		movs	r0, r6
 2182 0ab8 FFF7FEFF 		bl	HAL_UART_Transmit
 2183              	.LVL261:
 2184              	.LBE63:
 174:Src/cmd.c     **** 
 2185              		.loc 1 174 84 view .LVU342
 2186              	.LBB64:
 176:Src/cmd.c     ****         SERIAL_WRITE("%3li.", Relative_Power(ADC_PD3_Power_CH) / 1000);
 2187              		.loc 1 176 9 view .LVU343
 2188 0abc 6022     		movs	r2, #96
 2189 0abe 0021     		movs	r1, #0
 2190 0ac0 02A8     		add	r0, sp, #8
 2191 0ac2 FFF7FEFF 		bl	memset
 2192              	.LVL262:
 176:Src/cmd.c     ****         SERIAL_WRITE("%3li.", Relative_Power(ADC_PD3_Power_CH) / 1000);
 2193              		.loc 1 176 9 view .LVU344
 2194 0ac6 D84B     		ldr	r3, .L51+4
 2195 0ac8 2200     		movs	r2, r4
 2196 0aca 83CB     		ldmia	r3!, {r0, r1, r7}
 2197 0acc 83C2     		stmia	r2!, {r0, r1, r7}
 2198 0ace 1968     		ldr	r1, [r3]
 2199 0ad0 1160     		str	r1, [r2]
 2200 0ad2 1B79     		ldrb	r3, [r3, #4]
 2201 0ad4 1371     		strb	r3, [r2, #4]
 2202              	.LVL263:
 176:Src/cmd.c     ****         SERIAL_WRITE("%3li.", Relative_Power(ADC_PD3_Power_CH) / 1000);
 2203              		.loc 1 176 9 view .LVU345
 2204 0ad6 2B00     		movs	r3, r5
 2205 0ad8 1022     		movs	r2, #16
 2206 0ada 2100     		movs	r1, r4
 2207 0adc 3000     		movs	r0, r6
 2208 0ade FFF7FEFF 		bl	HAL_UART_Transmit
 2209              	.LVL264:
 2210              	.LBE64:
 176:Src/cmd.c     ****         SERIAL_WRITE("%3li.", Relative_Power(ADC_PD3_Power_CH) / 1000);
 2211              		.loc 1 176 43 view .LVU346
 2212              	.LBB65:
 177:Src/cmd.c     ****         SERIAL_WRITE("%03u dB\t\t\n", abs(Relative_Power(ADC_PD3_Power_CH)) % 1000);
 2213              		.loc 1 177 9 view .LVU347
 2214 0ae2 5B46     		mov	r3, fp
 2215 0ae4 0193     		str	r3, [sp, #4]
 2216 0ae6 6022     		movs	r2, #96
 2217 0ae8 0021     		movs	r1, #0
 2218 0aea 02A8     		add	r0, sp, #8
 2219 0aec FFF7FEFF 		bl	memset
 2220              	.LVL265:
ARM GAS  C:\Users\matil\AppData\Local\Temp\ccjdhBtu.s 			page 55


 177:Src/cmd.c     ****         SERIAL_WRITE("%03u dB\t\t\n", abs(Relative_Power(ADC_PD3_Power_CH)) % 1000);
 2221              		.loc 1 177 9 view .LVU348
 2222 0af0 0D20     		movs	r0, #13
 2223 0af2 FFF7FEFF 		bl	Relative_Power
 2224              	.LVL266:
 2225 0af6 FA22     		movs	r2, #250
 2226 0af8 9200     		lsls	r2, r2, #2
 2227 0afa 0023     		movs	r3, #0
 2228 0afc FFF7FEFF 		bl	__aeabi_ldivmod
 2229              	.LVL267:
 2230 0b00 0200     		movs	r2, r0
 2231 0b02 0B00     		movs	r3, r1
 2232 0b04 4946     		mov	r1, r9
 2233 0b06 2000     		movs	r0, r4
 2234 0b08 FFF7FEFF 		bl	sprintf
 2235              	.LVL268:
 177:Src/cmd.c     ****         SERIAL_WRITE("%03u dB\t\t\n", abs(Relative_Power(ADC_PD3_Power_CH)) % 1000);
 2236              		.loc 1 177 9 view .LVU349
 2237 0b0c 82B2     		uxth	r2, r0
 2238 0b0e 2B00     		movs	r3, r5
 2239 0b10 2100     		movs	r1, r4
 2240 0b12 3000     		movs	r0, r6
 2241              	.LVL269:
 177:Src/cmd.c     ****         SERIAL_WRITE("%03u dB\t\t\n", abs(Relative_Power(ADC_PD3_Power_CH)) % 1000);
 2242              		.loc 1 177 9 is_stmt 0 view .LVU350
 2243 0b14 FFF7FEFF 		bl	HAL_UART_Transmit
 2244              	.LVL270:
 2245              	.LBE65:
 177:Src/cmd.c     ****         SERIAL_WRITE("%03u dB\t\t\n", abs(Relative_Power(ADC_PD3_Power_CH)) % 1000);
 2246              		.loc 1 177 71 is_stmt 1 view .LVU351
 2247              	.LBB66:
 178:Src/cmd.c     **** 
 2248              		.loc 1 178 9 view .LVU352
 2249 0b18 5B46     		mov	r3, fp
 2250 0b1a 0193     		str	r3, [sp, #4]
 2251 0b1c 6022     		movs	r2, #96
 2252 0b1e 0021     		movs	r1, #0
 2253 0b20 02A8     		add	r0, sp, #8
 2254 0b22 FFF7FEFF 		bl	memset
 2255              	.LVL271:
 178:Src/cmd.c     **** 
 2256              		.loc 1 178 9 view .LVU353
 2257 0b26 0D20     		movs	r0, #13
 2258 0b28 FFF7FEFF 		bl	Relative_Power
 2259              	.LVL272:
 2260 0b2c C317     		asrs	r3, r0, #31
 2261 0b2e C018     		adds	r0, r0, r3
 2262 0b30 5840     		eors	r0, r3
 2263 0b32 2900     		movs	r1, r5
 2264 0b34 FFF7FEFF 		bl	__aeabi_idivmod
 2265              	.LVL273:
 2266 0b38 0A00     		movs	r2, r1
 2267 0b3a 5146     		mov	r1, r10
 2268 0b3c 2000     		movs	r0, r4
 2269 0b3e FFF7FEFF 		bl	sprintf
 2270              	.LVL274:
 178:Src/cmd.c     **** 
ARM GAS  C:\Users\matil\AppData\Local\Temp\ccjdhBtu.s 			page 56


 2271              		.loc 1 178 9 view .LVU354
 2272 0b42 2B00     		movs	r3, r5
 2273 0b44 0922     		movs	r2, #9
 2274 0b46 2100     		movs	r1, r4
 2275 0b48 3000     		movs	r0, r6
 2276 0b4a FFF7FEFF 		bl	HAL_UART_Transmit
 2277              	.LVL275:
 2278              	.LBE66:
 178:Src/cmd.c     **** 
 2279              		.loc 1 178 84 view .LVU355
 2280              	.LBB67:
 180:Src/cmd.c     ****         SERIAL_WRITE("%3li.", Relative_Power(ADC_PD4_Power_CH) / 1000);
 2281              		.loc 1 180 9 view .LVU356
 2282 0b4e 6022     		movs	r2, #96
 2283 0b50 0021     		movs	r1, #0
 2284 0b52 02A8     		add	r0, sp, #8
 2285 0b54 FFF7FEFF 		bl	memset
 2286              	.LVL276:
 180:Src/cmd.c     ****         SERIAL_WRITE("%3li.", Relative_Power(ADC_PD4_Power_CH) / 1000);
 2287              		.loc 1 180 9 view .LVU357
 2288 0b58 B44B     		ldr	r3, .L51+8
 2289 0b5a 2200     		movs	r2, r4
 2290 0b5c 83CB     		ldmia	r3!, {r0, r1, r7}
 2291 0b5e 83C2     		stmia	r2!, {r0, r1, r7}
 2292 0b60 1968     		ldr	r1, [r3]
 2293 0b62 1160     		str	r1, [r2]
 2294 0b64 1B79     		ldrb	r3, [r3, #4]
 2295 0b66 1371     		strb	r3, [r2, #4]
 2296              	.LVL277:
 180:Src/cmd.c     ****         SERIAL_WRITE("%3li.", Relative_Power(ADC_PD4_Power_CH) / 1000);
 2297              		.loc 1 180 9 view .LVU358
 2298 0b68 2B00     		movs	r3, r5
 2299 0b6a 1022     		movs	r2, #16
 2300 0b6c 2100     		movs	r1, r4
 2301 0b6e 3000     		movs	r0, r6
 2302 0b70 FFF7FEFF 		bl	HAL_UART_Transmit
 2303              	.LVL278:
 2304              	.LBE67:
 180:Src/cmd.c     ****         SERIAL_WRITE("%3li.", Relative_Power(ADC_PD4_Power_CH) / 1000);
 2305              		.loc 1 180 43 view .LVU359
 2306              	.LBB68:
 181:Src/cmd.c     ****         SERIAL_WRITE("%03u dB\t\t\n", abs(Relative_Power(ADC_PD4_Power_CH)) % 1000);
 2307              		.loc 1 181 9 view .LVU360
 2308 0b74 5B46     		mov	r3, fp
 2309 0b76 0193     		str	r3, [sp, #4]
 2310 0b78 6022     		movs	r2, #96
 2311 0b7a 0021     		movs	r1, #0
 2312 0b7c 02A8     		add	r0, sp, #8
 2313 0b7e FFF7FEFF 		bl	memset
 2314              	.LVL279:
 181:Src/cmd.c     ****         SERIAL_WRITE("%03u dB\t\t\n", abs(Relative_Power(ADC_PD4_Power_CH)) % 1000);
 2315              		.loc 1 181 9 view .LVU361
 2316 0b82 0320     		movs	r0, #3
 2317 0b84 FFF7FEFF 		bl	Relative_Power
 2318              	.LVL280:
 2319 0b88 FA22     		movs	r2, #250
 2320 0b8a 9200     		lsls	r2, r2, #2
ARM GAS  C:\Users\matil\AppData\Local\Temp\ccjdhBtu.s 			page 57


 2321 0b8c 0023     		movs	r3, #0
 2322 0b8e FFF7FEFF 		bl	__aeabi_ldivmod
 2323              	.LVL281:
 2324 0b92 0200     		movs	r2, r0
 2325 0b94 0B00     		movs	r3, r1
 2326 0b96 4946     		mov	r1, r9
 2327 0b98 2000     		movs	r0, r4
 2328 0b9a FFF7FEFF 		bl	sprintf
 2329              	.LVL282:
 181:Src/cmd.c     ****         SERIAL_WRITE("%03u dB\t\t\n", abs(Relative_Power(ADC_PD4_Power_CH)) % 1000);
 2330              		.loc 1 181 9 view .LVU362
 2331 0b9e 82B2     		uxth	r2, r0
 2332 0ba0 2B00     		movs	r3, r5
 2333 0ba2 2100     		movs	r1, r4
 2334 0ba4 3000     		movs	r0, r6
 2335              	.LVL283:
 181:Src/cmd.c     ****         SERIAL_WRITE("%03u dB\t\t\n", abs(Relative_Power(ADC_PD4_Power_CH)) % 1000);
 2336              		.loc 1 181 9 is_stmt 0 view .LVU363
 2337 0ba6 FFF7FEFF 		bl	HAL_UART_Transmit
 2338              	.LVL284:
 2339              	.LBE68:
 181:Src/cmd.c     ****         SERIAL_WRITE("%03u dB\t\t\n", abs(Relative_Power(ADC_PD4_Power_CH)) % 1000);
 2340              		.loc 1 181 71 is_stmt 1 view .LVU364
 2341              	.LBB69:
 182:Src/cmd.c     **** 
 2342              		.loc 1 182 9 view .LVU365
 2343 0baa 5B46     		mov	r3, fp
 2344 0bac 0193     		str	r3, [sp, #4]
 2345 0bae 6022     		movs	r2, #96
 2346 0bb0 0021     		movs	r1, #0
 2347 0bb2 02A8     		add	r0, sp, #8
 2348 0bb4 FFF7FEFF 		bl	memset
 2349              	.LVL285:
 182:Src/cmd.c     **** 
 2350              		.loc 1 182 9 view .LVU366
 2351 0bb8 0320     		movs	r0, #3
 2352 0bba FFF7FEFF 		bl	Relative_Power
 2353              	.LVL286:
 2354 0bbe C317     		asrs	r3, r0, #31
 2355 0bc0 C018     		adds	r0, r0, r3
 2356 0bc2 5840     		eors	r0, r3
 2357 0bc4 2900     		movs	r1, r5
 2358 0bc6 FFF7FEFF 		bl	__aeabi_idivmod
 2359              	.LVL287:
 2360 0bca 0A00     		movs	r2, r1
 2361 0bcc 5146     		mov	r1, r10
 2362 0bce 2000     		movs	r0, r4
 2363 0bd0 FFF7FEFF 		bl	sprintf
 2364              	.LVL288:
 182:Src/cmd.c     **** 
 2365              		.loc 1 182 9 view .LVU367
 2366 0bd4 2B00     		movs	r3, r5
 2367 0bd6 0922     		movs	r2, #9
 2368 0bd8 2100     		movs	r1, r4
 2369 0bda 3000     		movs	r0, r6
 2370 0bdc FFF7FEFF 		bl	HAL_UART_Transmit
 2371              	.LVL289:
ARM GAS  C:\Users\matil\AppData\Local\Temp\ccjdhBtu.s 			page 58


 2372              	.LBE69:
 182:Src/cmd.c     **** 
 2373              		.loc 1 182 84 view .LVU368
 2374              	.LBB70:
 184:Src/cmd.c     ****         SERIAL_WRITE("%3li.", RMS_Power(ADC_PWD0_Power_CH) / 1000);
 2375              		.loc 1 184 9 view .LVU369
 2376 0be0 6022     		movs	r2, #96
 2377 0be2 0021     		movs	r1, #0
 2378 0be4 02A8     		add	r0, sp, #8
 2379 0be6 FFF7FEFF 		bl	memset
 2380              	.LVL290:
 184:Src/cmd.c     ****         SERIAL_WRITE("%3li.", RMS_Power(ADC_PWD0_Power_CH) / 1000);
 2381              		.loc 1 184 9 view .LVU370
 2382 0bea 914B     		ldr	r3, .L51+12
 2383 0bec 2200     		movs	r2, r4
 2384 0bee 83CB     		ldmia	r3!, {r0, r1, r7}
 2385 0bf0 83C2     		stmia	r2!, {r0, r1, r7}
 2386 0bf2 1B88     		ldrh	r3, [r3]
 2387 0bf4 1380     		strh	r3, [r2]
 2388              	.LVL291:
 184:Src/cmd.c     ****         SERIAL_WRITE("%3li.", RMS_Power(ADC_PWD0_Power_CH) / 1000);
 2389              		.loc 1 184 9 view .LVU371
 2390 0bf6 2B00     		movs	r3, r5
 2391 0bf8 0D22     		movs	r2, #13
 2392 0bfa 2100     		movs	r1, r4
 2393 0bfc 3000     		movs	r0, r6
 2394 0bfe FFF7FEFF 		bl	HAL_UART_Transmit
 2395              	.LVL292:
 2396              	.LBE70:
 184:Src/cmd.c     ****         SERIAL_WRITE("%3li.", RMS_Power(ADC_PWD0_Power_CH) / 1000);
 2397              		.loc 1 184 40 view .LVU372
 2398              	.LBB71:
 185:Src/cmd.c     ****         SERIAL_WRITE("%03u dBm\t\t\n", abs(RMS_Power(ADC_PWD0_Power_CH)) % 1000);
 2399              		.loc 1 185 9 view .LVU373
 2400 0c02 5B46     		mov	r3, fp
 2401 0c04 0193     		str	r3, [sp, #4]
 2402 0c06 6022     		movs	r2, #96
 2403 0c08 0021     		movs	r1, #0
 2404 0c0a 02A8     		add	r0, sp, #8
 2405 0c0c FFF7FEFF 		bl	memset
 2406              	.LVL293:
 185:Src/cmd.c     ****         SERIAL_WRITE("%03u dBm\t\t\n", abs(RMS_Power(ADC_PWD0_Power_CH)) % 1000);
 2407              		.loc 1 185 9 view .LVU374
 2408 0c10 0420     		movs	r0, #4
 2409 0c12 FFF7FEFF 		bl	RMS_Power
 2410              	.LVL294:
 2411 0c16 FA22     		movs	r2, #250
 2412 0c18 9200     		lsls	r2, r2, #2
 2413 0c1a 0023     		movs	r3, #0
 2414 0c1c FFF7FEFF 		bl	__aeabi_ldivmod
 2415              	.LVL295:
 2416 0c20 0200     		movs	r2, r0
 2417 0c22 0B00     		movs	r3, r1
 2418 0c24 4946     		mov	r1, r9
 2419 0c26 2000     		movs	r0, r4
 2420 0c28 FFF7FEFF 		bl	sprintf
 2421              	.LVL296:
ARM GAS  C:\Users\matil\AppData\Local\Temp\ccjdhBtu.s 			page 59


 185:Src/cmd.c     ****         SERIAL_WRITE("%03u dBm\t\t\n", abs(RMS_Power(ADC_PWD0_Power_CH)) % 1000);
 2422              		.loc 1 185 9 view .LVU375
 2423 0c2c 82B2     		uxth	r2, r0
 2424 0c2e 2B00     		movs	r3, r5
 2425 0c30 2100     		movs	r1, r4
 2426 0c32 3000     		movs	r0, r6
 2427              	.LVL297:
 185:Src/cmd.c     ****         SERIAL_WRITE("%03u dBm\t\t\n", abs(RMS_Power(ADC_PWD0_Power_CH)) % 1000);
 2428              		.loc 1 185 9 is_stmt 0 view .LVU376
 2429 0c34 FFF7FEFF 		bl	HAL_UART_Transmit
 2430              	.LVL298:
 2431              	.LBE71:
 185:Src/cmd.c     ****         SERIAL_WRITE("%03u dBm\t\t\n", abs(RMS_Power(ADC_PWD0_Power_CH)) % 1000);
 2432              		.loc 1 185 67 is_stmt 1 view .LVU377
 2433              	.LBB72:
 186:Src/cmd.c     **** 
 2434              		.loc 1 186 9 view .LVU378
 2435 0c38 5B46     		mov	r3, fp
 2436 0c3a 0193     		str	r3, [sp, #4]
 2437 0c3c 6022     		movs	r2, #96
 2438 0c3e 0021     		movs	r1, #0
 2439 0c40 02A8     		add	r0, sp, #8
 2440 0c42 FFF7FEFF 		bl	memset
 2441              	.LVL299:
 186:Src/cmd.c     **** 
 2442              		.loc 1 186 9 view .LVU379
 2443 0c46 0420     		movs	r0, #4
 2444 0c48 FFF7FEFF 		bl	RMS_Power
 2445              	.LVL300:
 2446 0c4c C317     		asrs	r3, r0, #31
 2447 0c4e C018     		adds	r0, r0, r3
 2448 0c50 5840     		eors	r0, r3
 2449 0c52 2900     		movs	r1, r5
 2450 0c54 FFF7FEFF 		bl	__aeabi_idivmod
 2451              	.LVL301:
 2452 0c58 0A00     		movs	r2, r1
 2453 0c5a 7649     		ldr	r1, .L51+16
 2454 0c5c 2000     		movs	r0, r4
 2455 0c5e FFF7FEFF 		bl	sprintf
 2456              	.LVL302:
 186:Src/cmd.c     **** 
 2457              		.loc 1 186 9 view .LVU380
 2458 0c62 2B00     		movs	r3, r5
 2459 0c64 0A22     		movs	r2, #10
 2460 0c66 2100     		movs	r1, r4
 2461 0c68 3000     		movs	r0, r6
 2462 0c6a FFF7FEFF 		bl	HAL_UART_Transmit
 2463              	.LVL303:
 2464              	.LBE72:
 186:Src/cmd.c     **** 
 2465              		.loc 1 186 81 view .LVU381
 2466              	.LBB73:
 188:Src/cmd.c     ****         SERIAL_WRITE("%3li.", RMS_Power(ADC_PWD1_Power_CH) / 1000);
 2467              		.loc 1 188 9 view .LVU382
 2468 0c6e 201D     		adds	r0, r4, #4
 2469 0c70 6022     		movs	r2, #96
 2470 0c72 0021     		movs	r1, #0
ARM GAS  C:\Users\matil\AppData\Local\Temp\ccjdhBtu.s 			page 60


 2471 0c74 FFF7FEFF 		bl	memset
 2472              	.LVL304:
 188:Src/cmd.c     ****         SERIAL_WRITE("%3li.", RMS_Power(ADC_PWD1_Power_CH) / 1000);
 2473              		.loc 1 188 9 view .LVU383
 2474 0c78 01AC     		add	r4, sp, #4
 2475 0c7a 6F4B     		ldr	r3, .L51+20
 2476 0c7c 2200     		movs	r2, r4
 2477 0c7e 23CB     		ldmia	r3!, {r0, r1, r5}
 2478 0c80 23C2     		stmia	r2!, {r0, r1, r5}
 2479 0c82 1B88     		ldrh	r3, [r3]
 2480 0c84 1380     		strh	r3, [r2]
 2481              	.LVL305:
 188:Src/cmd.c     ****         SERIAL_WRITE("%3li.", RMS_Power(ADC_PWD1_Power_CH) / 1000);
 2482              		.loc 1 188 9 view .LVU384
 2483 0c86 FA25     		movs	r5, #250
 2484 0c88 AD00     		lsls	r5, r5, #2
 2485 0c8a 6C4E     		ldr	r6, .L51+24
 2486 0c8c 2B00     		movs	r3, r5
 2487 0c8e 0D22     		movs	r2, #13
 2488 0c90 2100     		movs	r1, r4
 2489 0c92 3000     		movs	r0, r6
 2490 0c94 FFF7FEFF 		bl	HAL_UART_Transmit
 2491              	.LVL306:
 2492              	.LBE73:
 188:Src/cmd.c     ****         SERIAL_WRITE("%3li.", RMS_Power(ADC_PWD1_Power_CH) / 1000);
 2493              		.loc 1 188 40 view .LVU385
 2494              	.LBB74:
 189:Src/cmd.c     ****         SERIAL_WRITE("%03u dBm\t\t\n", abs(RMS_Power(ADC_PWD1_Power_CH)) % 1000);
 2495              		.loc 1 189 9 view .LVU386
 2496 0c98 0023     		movs	r3, #0
 2497 0c9a 0193     		str	r3, [sp, #4]
 2498 0c9c 6022     		movs	r2, #96
 2499 0c9e 0021     		movs	r1, #0
 2500 0ca0 02A8     		add	r0, sp, #8
 2501 0ca2 FFF7FEFF 		bl	memset
 2502              	.LVL307:
 189:Src/cmd.c     ****         SERIAL_WRITE("%03u dBm\t\t\n", abs(RMS_Power(ADC_PWD1_Power_CH)) % 1000);
 2503              		.loc 1 189 9 view .LVU387
 2504 0ca6 0A20     		movs	r0, #10
 2505 0ca8 FFF7FEFF 		bl	RMS_Power
 2506              	.LVL308:
 2507 0cac FA22     		movs	r2, #250
 2508 0cae 9200     		lsls	r2, r2, #2
 2509 0cb0 0023     		movs	r3, #0
 2510 0cb2 FFF7FEFF 		bl	__aeabi_ldivmod
 2511              	.LVL309:
 2512 0cb6 0200     		movs	r2, r0
 2513 0cb8 0B00     		movs	r3, r1
 2514 0cba 6149     		ldr	r1, .L51+28
 2515 0cbc 8946     		mov	r9, r1
 2516 0cbe 2000     		movs	r0, r4
 2517 0cc0 FFF7FEFF 		bl	sprintf
 2518              	.LVL310:
 189:Src/cmd.c     ****         SERIAL_WRITE("%03u dBm\t\t\n", abs(RMS_Power(ADC_PWD1_Power_CH)) % 1000);
 2519              		.loc 1 189 9 view .LVU388
 2520 0cc4 82B2     		uxth	r2, r0
 2521 0cc6 2B00     		movs	r3, r5
ARM GAS  C:\Users\matil\AppData\Local\Temp\ccjdhBtu.s 			page 61


 2522 0cc8 2100     		movs	r1, r4
 2523 0cca 3000     		movs	r0, r6
 2524              	.LVL311:
 189:Src/cmd.c     ****         SERIAL_WRITE("%03u dBm\t\t\n", abs(RMS_Power(ADC_PWD1_Power_CH)) % 1000);
 2525              		.loc 1 189 9 is_stmt 0 view .LVU389
 2526 0ccc FFF7FEFF 		bl	HAL_UART_Transmit
 2527              	.LVL312:
 2528              	.LBE74:
 189:Src/cmd.c     ****         SERIAL_WRITE("%03u dBm\t\t\n", abs(RMS_Power(ADC_PWD1_Power_CH)) % 1000);
 2529              		.loc 1 189 67 is_stmt 1 view .LVU390
 2530              	.LBB75:
 190:Src/cmd.c     **** 
 2531              		.loc 1 190 9 view .LVU391
 2532 0cd0 5B46     		mov	r3, fp
 2533 0cd2 0193     		str	r3, [sp, #4]
 2534 0cd4 6022     		movs	r2, #96
 2535 0cd6 0021     		movs	r1, #0
 2536 0cd8 02A8     		add	r0, sp, #8
 2537 0cda FFF7FEFF 		bl	memset
 2538              	.LVL313:
 190:Src/cmd.c     **** 
 2539              		.loc 1 190 9 view .LVU392
 2540 0cde 0A20     		movs	r0, #10
 2541 0ce0 FFF7FEFF 		bl	RMS_Power
 2542              	.LVL314:
 2543 0ce4 C317     		asrs	r3, r0, #31
 2544 0ce6 C018     		adds	r0, r0, r3
 2545 0ce8 5840     		eors	r0, r3
 2546 0cea 2900     		movs	r1, r5
 2547 0cec FFF7FEFF 		bl	__aeabi_idivmod
 2548              	.LVL315:
 2549 0cf0 0A00     		movs	r2, r1
 2550 0cf2 504B     		ldr	r3, .L51+16
 2551 0cf4 9846     		mov	r8, r3
 2552 0cf6 1900     		movs	r1, r3
 2553 0cf8 2000     		movs	r0, r4
 2554 0cfa FFF7FEFF 		bl	sprintf
 2555              	.LVL316:
 190:Src/cmd.c     **** 
 2556              		.loc 1 190 9 view .LVU393
 2557 0cfe 2B00     		movs	r3, r5
 2558 0d00 0A22     		movs	r2, #10
 2559 0d02 2100     		movs	r1, r4
 2560 0d04 3000     		movs	r0, r6
 2561 0d06 FFF7FEFF 		bl	HAL_UART_Transmit
 2562              	.LVL317:
 2563              	.LBE75:
 190:Src/cmd.c     **** 
 2564              		.loc 1 190 81 view .LVU394
 2565              	.LBB76:
 192:Src/cmd.c     ****         SERIAL_WRITE("%3li.", RMS_Power(ADC_PWD2_Power_CH) / 1000);
 2566              		.loc 1 192 9 view .LVU395
 2567 0d0a 6022     		movs	r2, #96
 2568 0d0c 0021     		movs	r1, #0
 2569 0d0e 02A8     		add	r0, sp, #8
 2570 0d10 FFF7FEFF 		bl	memset
 2571              	.LVL318:
ARM GAS  C:\Users\matil\AppData\Local\Temp\ccjdhBtu.s 			page 62


 192:Src/cmd.c     ****         SERIAL_WRITE("%3li.", RMS_Power(ADC_PWD2_Power_CH) / 1000);
 2572              		.loc 1 192 9 view .LVU396
 2573 0d14 4B4B     		ldr	r3, .L51+32
 2574 0d16 2200     		movs	r2, r4
 2575 0d18 83CB     		ldmia	r3!, {r0, r1, r7}
 2576 0d1a 83C2     		stmia	r2!, {r0, r1, r7}
 2577 0d1c 1B88     		ldrh	r3, [r3]
 2578 0d1e 1380     		strh	r3, [r2]
 2579              	.LVL319:
 192:Src/cmd.c     ****         SERIAL_WRITE("%3li.", RMS_Power(ADC_PWD2_Power_CH) / 1000);
 2580              		.loc 1 192 9 view .LVU397
 2581 0d20 2B00     		movs	r3, r5
 2582 0d22 0D22     		movs	r2, #13
 2583 0d24 2100     		movs	r1, r4
 2584 0d26 3000     		movs	r0, r6
 2585 0d28 FFF7FEFF 		bl	HAL_UART_Transmit
 2586              	.LVL320:
 2587              	.LBE76:
 192:Src/cmd.c     ****         SERIAL_WRITE("%3li.", RMS_Power(ADC_PWD2_Power_CH) / 1000);
 2588              		.loc 1 192 40 view .LVU398
 2589              	.LBB77:
 193:Src/cmd.c     ****         SERIAL_WRITE("%03u dBm\t\t\n", abs(RMS_Power(ADC_PWD2_Power_CH)) % 1000);
 2590              		.loc 1 193 9 view .LVU399
 2591 0d2c 5B46     		mov	r3, fp
 2592 0d2e 0193     		str	r3, [sp, #4]
 2593 0d30 6022     		movs	r2, #96
 2594 0d32 0021     		movs	r1, #0
 2595 0d34 02A8     		add	r0, sp, #8
 2596 0d36 FFF7FEFF 		bl	memset
 2597              	.LVL321:
 193:Src/cmd.c     ****         SERIAL_WRITE("%03u dBm\t\t\n", abs(RMS_Power(ADC_PWD2_Power_CH)) % 1000);
 2598              		.loc 1 193 9 view .LVU400
 2599 0d3a 0920     		movs	r0, #9
 2600 0d3c FFF7FEFF 		bl	RMS_Power
 2601              	.LVL322:
 2602 0d40 FA22     		movs	r2, #250
 2603 0d42 9200     		lsls	r2, r2, #2
 2604 0d44 0023     		movs	r3, #0
 2605 0d46 FFF7FEFF 		bl	__aeabi_ldivmod
 2606              	.LVL323:
 2607 0d4a 0200     		movs	r2, r0
 2608 0d4c 0B00     		movs	r3, r1
 2609 0d4e 4946     		mov	r1, r9
 2610 0d50 2000     		movs	r0, r4
 2611 0d52 FFF7FEFF 		bl	sprintf
 2612              	.LVL324:
 193:Src/cmd.c     ****         SERIAL_WRITE("%03u dBm\t\t\n", abs(RMS_Power(ADC_PWD2_Power_CH)) % 1000);
 2613              		.loc 1 193 9 view .LVU401
 2614 0d56 82B2     		uxth	r2, r0
 2615 0d58 2B00     		movs	r3, r5
 2616 0d5a 2100     		movs	r1, r4
 2617 0d5c 3000     		movs	r0, r6
 2618              	.LVL325:
 193:Src/cmd.c     ****         SERIAL_WRITE("%03u dBm\t\t\n", abs(RMS_Power(ADC_PWD2_Power_CH)) % 1000);
 2619              		.loc 1 193 9 is_stmt 0 view .LVU402
 2620 0d5e FFF7FEFF 		bl	HAL_UART_Transmit
 2621              	.LVL326:
ARM GAS  C:\Users\matil\AppData\Local\Temp\ccjdhBtu.s 			page 63


 2622              	.LBE77:
 193:Src/cmd.c     ****         SERIAL_WRITE("%03u dBm\t\t\n", abs(RMS_Power(ADC_PWD2_Power_CH)) % 1000);
 2623              		.loc 1 193 67 is_stmt 1 view .LVU403
 2624              	.LBB78:
 194:Src/cmd.c     **** 
 2625              		.loc 1 194 9 view .LVU404
 2626 0d62 5B46     		mov	r3, fp
 2627 0d64 0193     		str	r3, [sp, #4]
 2628 0d66 6022     		movs	r2, #96
 2629 0d68 0021     		movs	r1, #0
 2630 0d6a 02A8     		add	r0, sp, #8
 2631 0d6c FFF7FEFF 		bl	memset
 2632              	.LVL327:
 194:Src/cmd.c     **** 
 2633              		.loc 1 194 9 view .LVU405
 2634 0d70 0920     		movs	r0, #9
 2635 0d72 FFF7FEFF 		bl	RMS_Power
 2636              	.LVL328:
 2637 0d76 C317     		asrs	r3, r0, #31
 2638 0d78 C018     		adds	r0, r0, r3
 2639 0d7a 5840     		eors	r0, r3
 2640 0d7c 2900     		movs	r1, r5
 2641 0d7e FFF7FEFF 		bl	__aeabi_idivmod
 2642              	.LVL329:
 2643 0d82 0A00     		movs	r2, r1
 2644 0d84 4146     		mov	r1, r8
 2645 0d86 2000     		movs	r0, r4
 2646 0d88 FFF7FEFF 		bl	sprintf
 2647              	.LVL330:
 194:Src/cmd.c     **** 
 2648              		.loc 1 194 9 view .LVU406
 2649 0d8c 2B00     		movs	r3, r5
 2650 0d8e 0A22     		movs	r2, #10
 2651 0d90 2100     		movs	r1, r4
 2652 0d92 3000     		movs	r0, r6
 2653 0d94 FFF7FEFF 		bl	HAL_UART_Transmit
 2654              	.LVL331:
 2655              	.LBE78:
 194:Src/cmd.c     **** 
 2656              		.loc 1 194 81 view .LVU407
 2657              	.LBB79:
 196:Src/cmd.c     ****         SERIAL_WRITE("%3li.", RMS_Power(ADC_PWD3_Power_CH) / 1000);
 2658              		.loc 1 196 9 view .LVU408
 2659 0d98 6022     		movs	r2, #96
 2660 0d9a 0021     		movs	r1, #0
 2661 0d9c 02A8     		add	r0, sp, #8
 2662 0d9e FFF7FEFF 		bl	memset
 2663              	.LVL332:
 196:Src/cmd.c     ****         SERIAL_WRITE("%3li.", RMS_Power(ADC_PWD3_Power_CH) / 1000);
 2664              		.loc 1 196 9 view .LVU409
 2665 0da2 294B     		ldr	r3, .L51+36
 2666 0da4 2200     		movs	r2, r4
 2667 0da6 83CB     		ldmia	r3!, {r0, r1, r7}
 2668 0da8 83C2     		stmia	r2!, {r0, r1, r7}
 2669 0daa 1B88     		ldrh	r3, [r3]
 2670 0dac 1380     		strh	r3, [r2]
 2671              	.LVL333:
ARM GAS  C:\Users\matil\AppData\Local\Temp\ccjdhBtu.s 			page 64


 196:Src/cmd.c     ****         SERIAL_WRITE("%3li.", RMS_Power(ADC_PWD3_Power_CH) / 1000);
 2672              		.loc 1 196 9 view .LVU410
 2673 0dae 2B00     		movs	r3, r5
 2674 0db0 0D22     		movs	r2, #13
 2675 0db2 2100     		movs	r1, r4
 2676 0db4 3000     		movs	r0, r6
 2677 0db6 FFF7FEFF 		bl	HAL_UART_Transmit
 2678              	.LVL334:
 2679              	.LBE79:
 196:Src/cmd.c     ****         SERIAL_WRITE("%3li.", RMS_Power(ADC_PWD3_Power_CH) / 1000);
 2680              		.loc 1 196 40 view .LVU411
 2681              	.LBB80:
 197:Src/cmd.c     ****         SERIAL_WRITE("%03u dBm\t\t\n", abs(RMS_Power(ADC_PWD3_Power_CH)) % 1000);
 2682              		.loc 1 197 9 view .LVU412
 2683 0dba 5B46     		mov	r3, fp
 2684 0dbc 0193     		str	r3, [sp, #4]
 2685 0dbe 6022     		movs	r2, #96
 2686 0dc0 0021     		movs	r1, #0
 2687 0dc2 02A8     		add	r0, sp, #8
 2688 0dc4 FFF7FEFF 		bl	memset
 2689              	.LVL335:
 197:Src/cmd.c     ****         SERIAL_WRITE("%03u dBm\t\t\n", abs(RMS_Power(ADC_PWD3_Power_CH)) % 1000);
 2690              		.loc 1 197 9 view .LVU413
 2691 0dc8 0F20     		movs	r0, #15
 2692 0dca FFF7FEFF 		bl	RMS_Power
 2693              	.LVL336:
 2694 0dce FA22     		movs	r2, #250
 2695 0dd0 9200     		lsls	r2, r2, #2
 2696 0dd2 0023     		movs	r3, #0
 2697 0dd4 FFF7FEFF 		bl	__aeabi_ldivmod
 2698              	.LVL337:
 2699 0dd8 0200     		movs	r2, r0
 2700 0dda 0B00     		movs	r3, r1
 2701 0ddc 4946     		mov	r1, r9
 2702 0dde 2000     		movs	r0, r4
 2703 0de0 FFF7FEFF 		bl	sprintf
 2704              	.LVL338:
 197:Src/cmd.c     ****         SERIAL_WRITE("%03u dBm\t\t\n", abs(RMS_Power(ADC_PWD3_Power_CH)) % 1000);
 2705              		.loc 1 197 9 view .LVU414
 2706 0de4 82B2     		uxth	r2, r0
 2707 0de6 2B00     		movs	r3, r5
 2708 0de8 2100     		movs	r1, r4
 2709 0dea 3000     		movs	r0, r6
 2710              	.LVL339:
 197:Src/cmd.c     ****         SERIAL_WRITE("%03u dBm\t\t\n", abs(RMS_Power(ADC_PWD3_Power_CH)) % 1000);
 2711              		.loc 1 197 9 is_stmt 0 view .LVU415
 2712 0dec FFF7FEFF 		bl	HAL_UART_Transmit
 2713              	.LVL340:
 2714              	.LBE80:
 197:Src/cmd.c     ****         SERIAL_WRITE("%03u dBm\t\t\n", abs(RMS_Power(ADC_PWD3_Power_CH)) % 1000);
 2715              		.loc 1 197 67 is_stmt 1 view .LVU416
 2716              	.LBB81:
 198:Src/cmd.c     ****         if (!State.cmdLoop)
 2717              		.loc 1 198 9 view .LVU417
 2718 0df0 5B46     		mov	r3, fp
 2719 0df2 0193     		str	r3, [sp, #4]
 2720 0df4 6022     		movs	r2, #96
ARM GAS  C:\Users\matil\AppData\Local\Temp\ccjdhBtu.s 			page 65


 2721 0df6 0021     		movs	r1, #0
 2722 0df8 02A8     		add	r0, sp, #8
 2723 0dfa FFF7FEFF 		bl	memset
 2724              	.LVL341:
 198:Src/cmd.c     ****         if (!State.cmdLoop)
 2725              		.loc 1 198 9 view .LVU418
 2726 0dfe 0F20     		movs	r0, #15
 2727 0e00 FFF7FEFF 		bl	RMS_Power
 2728              	.LVL342:
 2729 0e04 C317     		asrs	r3, r0, #31
 2730 0e06 C018     		adds	r0, r0, r3
 2731 0e08 5840     		eors	r0, r3
 2732 0e0a 2900     		movs	r1, r5
 2733 0e0c FFF7FEFF 		bl	__aeabi_idivmod
 2734              	.LVL343:
 2735 0e10 0A00     		movs	r2, r1
 2736 0e12 4146     		mov	r1, r8
 2737 0e14 2000     		movs	r0, r4
 2738 0e16 FFF7FEFF 		bl	sprintf
 2739              	.LVL344:
 198:Src/cmd.c     ****         if (!State.cmdLoop)
 2740              		.loc 1 198 9 view .LVU419
 2741 0e1a 2B00     		movs	r3, r5
 2742 0e1c 0A22     		movs	r2, #10
 2743 0e1e 2100     		movs	r1, r4
 2744 0e20 3000     		movs	r0, r6
 2745 0e22 13E0     		b	.L52
 2746              	.L53:
 2747              		.align	2
 2748              	.L51:
 2749 0e24 28020000 		.word	.LC64
 2750 0e28 3C020000 		.word	.LC66
 2751 0e2c 50020000 		.word	.LC68
 2752 0e30 64020000 		.word	.LC70
 2753 0e34 74020000 		.word	.LC72
 2754 0e38 80020000 		.word	.LC74
 2755 0e3c 00000000 		.word	huart2
 2756 0e40 00020000 		.word	.LC58
 2757 0e44 90020000 		.word	.LC76
 2758 0e48 A0020000 		.word	.LC78
 2759              	.L52:
 2760 0e4c FFF7FEFF 		bl	HAL_UART_Transmit
 2761              	.LVL345:
 2762              	.LBE81:
 198:Src/cmd.c     ****         if (!State.cmdLoop)
 2763              		.loc 1 198 81 view .LVU420
 199:Src/cmd.c     ****         {
 2764              		.loc 1 199 9 view .LVU421
 199:Src/cmd.c     ****         {
 2765              		.loc 1 199 19 is_stmt 0 view .LVU422
 2766 0e50 1F4B     		ldr	r3, .L54
 2767 0e52 DB7A     		ldrb	r3, [r3, #11]
 199:Src/cmd.c     ****         {
 2768              		.loc 1 199 12 view .LVU423
 2769 0e54 002B     		cmp	r3, #0
 2770 0e56 01D0     		beq	.LCB2343
 2771 0e58 FFF7EBFA 		bl	.L1	@far jump
ARM GAS  C:\Users\matil\AppData\Local\Temp\ccjdhBtu.s 			page 66


 2772              	.LCB2343:
 201:Src/cmd.c     ****         }
 2773              		.loc 1 201 13 is_stmt 1 view .LVU424
 201:Src/cmd.c     ****         }
 2774              		.loc 1 201 23 is_stmt 0 view .LVU425
 2775 0e5c 1C4B     		ldr	r3, .L54
 2776 0e5e 0022     		movs	r2, #0
 2777 0e60 9A72     		strb	r2, [r3, #10]
 2778 0e62 FFF7E6FA 		bl	.L1	@ far jump
 2779              	.LVL346:
 2780              	.L7:
 208:Src/cmd.c     ****         State.cmdLoop = !State.cmdLoop;
 2781              		.loc 1 208 9 is_stmt 1 view .LVU426
 208:Src/cmd.c     ****         State.cmdLoop = !State.cmdLoop;
 2782              		.loc 1 208 19 is_stmt 0 view .LVU427
 2783 0e66 1A4A     		ldr	r2, .L54
 2784 0e68 0023     		movs	r3, #0
 2785 0e6a 9372     		strb	r3, [r2, #10]
 209:Src/cmd.c     ****         if (State.cmdLoop)
 2786              		.loc 1 209 9 is_stmt 1 view .LVU428
 209:Src/cmd.c     ****         if (State.cmdLoop)
 2787              		.loc 1 209 31 is_stmt 0 view .LVU429
 2788 0e6c D37A     		ldrb	r3, [r2, #11]
 209:Src/cmd.c     ****         if (State.cmdLoop)
 2789              		.loc 1 209 25 view .LVU430
 2790 0e6e 5942     		rsbs	r1, r3, #0
 2791 0e70 4B41     		adcs	r3, r3, r1
 2792 0e72 DBB2     		uxtb	r3, r3
 209:Src/cmd.c     ****         if (State.cmdLoop)
 2793              		.loc 1 209 23 view .LVU431
 2794 0e74 D372     		strb	r3, [r2, #11]
 210:Src/cmd.c     ****         {
 2795              		.loc 1 210 9 is_stmt 1 view .LVU432
 210:Src/cmd.c     ****         {
 2796              		.loc 1 210 12 is_stmt 0 view .LVU433
 2797 0e76 002B     		cmp	r3, #0
 2798 0e78 14D0     		beq	.L36
 2799              	.LBB82:
 212:Src/cmd.c     ****         }
 2800              		.loc 1 212 13 is_stmt 1 view .LVU434
 2801 0e7a 01AC     		add	r4, sp, #4
 2802 0e7c 6022     		movs	r2, #96
 2803 0e7e 0021     		movs	r1, #0
 2804 0e80 02A8     		add	r0, sp, #8
 2805 0e82 FFF7FEFF 		bl	memset
 2806              	.LVL347:
 212:Src/cmd.c     ****         }
 2807              		.loc 1 212 13 view .LVU435
 2808 0e86 134B     		ldr	r3, .L54+4
 2809 0e88 2200     		movs	r2, r4
 2810 0e8a 03CB     		ldmia	r3!, {r0, r1}
 2811 0e8c 03C2     		stmia	r2!, {r0, r1}
 2812 0e8e 1B78     		ldrb	r3, [r3]
 2813 0e90 1370     		strb	r3, [r2]
 2814              	.LVL348:
 212:Src/cmd.c     ****         }
 2815              		.loc 1 212 13 view .LVU436
ARM GAS  C:\Users\matil\AppData\Local\Temp\ccjdhBtu.s 			page 67


 2816 0e92 FA23     		movs	r3, #250
 2817 0e94 9B00     		lsls	r3, r3, #2
 2818 0e96 0822     		movs	r2, #8
 2819 0e98 2100     		movs	r1, r4
 2820 0e9a 0F48     		ldr	r0, .L54+8
 2821 0e9c FFF7FEFF 		bl	HAL_UART_Transmit
 2822              	.LVL349:
 2823              	.LBE82:
 2824 0ea0 FFF7C7FA 		bl	.L1	@ far jump
 2825              	.LVL350:
 2826              	.L36:
 2827              	.LBB83:
 216:Src/cmd.c     ****         }
 2828              		.loc 1 216 13 discriminator 2 view .LVU437
 2829 0ea4 01AC     		add	r4, sp, #4
 2830 0ea6 6022     		movs	r2, #96
 2831 0ea8 0021     		movs	r1, #0
 2832 0eaa 02A8     		add	r0, sp, #8
 2833 0eac FFF7FEFF 		bl	memset
 2834              	.LVL351:
 216:Src/cmd.c     ****         }
 2835              		.loc 1 216 13 discriminator 2 view .LVU438
 2836 0eb0 0A4B     		ldr	r3, .L54+12
 2837 0eb2 2200     		movs	r2, r4
 2838 0eb4 03CB     		ldmia	r3!, {r0, r1}
 2839 0eb6 03C2     		stmia	r2!, {r0, r1}
 2840 0eb8 1B88     		ldrh	r3, [r3]
 2841 0eba 1380     		strh	r3, [r2]
 2842              	.LVL352:
 216:Src/cmd.c     ****         }
 2843              		.loc 1 216 13 discriminator 2 view .LVU439
 2844 0ebc FA23     		movs	r3, #250
 2845 0ebe 9B00     		lsls	r3, r3, #2
 2846 0ec0 0922     		movs	r2, #9
 2847 0ec2 2100     		movs	r1, r4
 2848 0ec4 0448     		ldr	r0, .L54+8
 2849 0ec6 FFF7FEFF 		bl	HAL_UART_Transmit
 2850              	.LVL353:
 2851 0eca FFF7B2FA 		bl	.L1	@ far jump
 2852              	.L55:
 2853 0ece C046     		.align	2
 2854              	.L54:
 2855 0ed0 00000000 		.word	State
 2856 0ed4 B0020000 		.word	.LC80
 2857 0ed8 00000000 		.word	huart2
 2858 0edc BC020000 		.word	.LC82
 2859              	.LVL354:
 2860              	.L8:
 216:Src/cmd.c     ****         }
 2861              		.loc 1 216 13 is_stmt 0 discriminator 2 view .LVU440
 2862              	.LBE83:
 222:Src/cmd.c     ****         {
 2863              		.loc 1 222 9 is_stmt 1 view .LVU441
 222:Src/cmd.c     ****         {
 2864              		.loc 1 222 19 is_stmt 0 view .LVU442
 2865 0ee0 FB4B     		ldr	r3, .L56
 2866 0ee2 DB7A     		ldrb	r3, [r3, #11]
ARM GAS  C:\Users\matil\AppData\Local\Temp\ccjdhBtu.s 			page 68


 222:Src/cmd.c     ****         {
 2867              		.loc 1 222 12 view .LVU443
 2868 0ee4 002B     		cmp	r3, #0
 2869 0ee6 02D1     		bne	.L37
 224:Src/cmd.c     ****         }
 2870              		.loc 1 224 13 is_stmt 1 view .LVU444
 224:Src/cmd.c     ****         }
 2871              		.loc 1 224 23 is_stmt 0 view .LVU445
 2872 0ee8 F94B     		ldr	r3, .L56
 2873 0eea 0022     		movs	r2, #0
 2874 0eec 9A72     		strb	r2, [r3, #10]
 2875              	.L37:
 2876              	.LBB84:
 226:Src/cmd.c     **** 
 2877              		.loc 1 226 9 is_stmt 1 view .LVU446
 2878 0eee 01AC     		add	r4, sp, #4
 2879 0ef0 0027     		movs	r7, #0
 2880 0ef2 0197     		str	r7, [sp, #4]
 2881 0ef4 6022     		movs	r2, #96
 2882 0ef6 0021     		movs	r1, #0
 2883 0ef8 02A8     		add	r0, sp, #8
 2884 0efa FFF7FEFF 		bl	memset
 2885              	.LVL355:
 226:Src/cmd.c     **** 
 2886              		.loc 1 226 9 view .LVU447
 2887 0efe 0A23     		movs	r3, #10
 2888 0f00 2380     		strh	r3, [r4]
 2889              	.LVL356:
 226:Src/cmd.c     **** 
 2890              		.loc 1 226 9 view .LVU448
 2891 0f02 FA26     		movs	r6, #250
 2892 0f04 B600     		lsls	r6, r6, #2
 2893 0f06 F34D     		ldr	r5, .L56+4
 2894 0f08 3300     		movs	r3, r6
 2895 0f0a 0122     		movs	r2, #1
 2896 0f0c 2100     		movs	r1, r4
 2897 0f0e 2800     		movs	r0, r5
 2898 0f10 FFF7FEFF 		bl	HAL_UART_Transmit
 2899              	.LVL357:
 2900              	.LBE84:
 2901              	.LBB85:
 228:Src/cmd.c     ****         SERIAL_WRITE("PID 704 Output: %li\n", State.PID_704_Output);
 2902              		.loc 1 228 9 view .LVU449
 2903 0f14 0197     		str	r7, [sp, #4]
 2904 0f16 6022     		movs	r2, #96
 2905 0f18 0021     		movs	r1, #0
 2906 0f1a 02A8     		add	r0, sp, #8
 2907 0f1c FFF7FEFF 		bl	memset
 2908              	.LVL358:
 228:Src/cmd.c     ****         SERIAL_WRITE("PID 704 Output: %li\n", State.PID_704_Output);
 2909              		.loc 1 228 9 view .LVU450
 2910 0f20 EB4A     		ldr	r2, .L56
 2911 0f22 9046     		mov	r8, r2
 2912 0f24 9B22     		movs	r2, #155
 2913 0f26 D200     		lsls	r2, r2, #3
 2914 0f28 4244     		add	r2, r2, r8
 2915 0f2a 1068     		ldr	r0, [r2]
ARM GAS  C:\Users\matil\AppData\Local\Temp\ccjdhBtu.s 			page 69


 2916 0f2c 5168     		ldr	r1, [r2, #4]
 2917 0f2e FA22     		movs	r2, #250
 2918 0f30 9200     		lsls	r2, r2, #2
 2919 0f32 0023     		movs	r3, #0
 2920 0f34 FFF7FEFF 		bl	__aeabi_lmul
 2921              	.LVL359:
 2922 0f38 0200     		movs	r2, r0
 2923 0f3a 0B00     		movs	r3, r1
 2924 0f3c E649     		ldr	r1, .L56+8
 2925 0f3e 2000     		movs	r0, r4
 2926 0f40 FFF7FEFF 		bl	sprintf
 2927              	.LVL360:
 228:Src/cmd.c     ****         SERIAL_WRITE("PID 704 Output: %li\n", State.PID_704_Output);
 2928              		.loc 1 228 9 view .LVU451
 2929 0f44 82B2     		uxth	r2, r0
 2930 0f46 3300     		movs	r3, r6
 2931 0f48 2100     		movs	r1, r4
 2932 0f4a 2800     		movs	r0, r5
 2933              	.LVL361:
 228:Src/cmd.c     ****         SERIAL_WRITE("PID 704 Output: %li\n", State.PID_704_Output);
 2934              		.loc 1 228 9 is_stmt 0 view .LVU452
 2935 0f4c FFF7FEFF 		bl	HAL_UART_Transmit
 2936              	.LVL362:
 2937              	.LBE85:
 228:Src/cmd.c     ****         SERIAL_WRITE("PID 704 Output: %li\n", State.PID_704_Output);
 2938              		.loc 1 228 79 is_stmt 1 view .LVU453
 2939              	.LBB86:
 229:Src/cmd.c     ****         SERIAL_WRITE("PID_704_P_error %i\n", State.PID_704_P_error);
 2940              		.loc 1 229 9 view .LVU454
 2941 0f50 0197     		str	r7, [sp, #4]
 2942 0f52 6022     		movs	r2, #96
 2943 0f54 0021     		movs	r1, #0
 2944 0f56 02A8     		add	r0, sp, #8
 2945 0f58 FFF7FEFF 		bl	memset
 2946              	.LVL363:
 229:Src/cmd.c     ****         SERIAL_WRITE("PID_704_P_error %i\n", State.PID_704_P_error);
 2947              		.loc 1 229 9 view .LVU455
 2948 0f5c DF4B     		ldr	r3, .L56+12
 2949 0f5e 4246     		mov	r2, r8
 2950 0f60 D258     		ldr	r2, [r2, r3]
 2951 0f62 DF49     		ldr	r1, .L56+16
 2952 0f64 2000     		movs	r0, r4
 2953 0f66 FFF7FEFF 		bl	sprintf
 2954              	.LVL364:
 229:Src/cmd.c     ****         SERIAL_WRITE("PID_704_P_error %i\n", State.PID_704_P_error);
 2955              		.loc 1 229 9 view .LVU456
 2956 0f6a 82B2     		uxth	r2, r0
 2957 0f6c 3300     		movs	r3, r6
 2958 0f6e 2100     		movs	r1, r4
 2959 0f70 2800     		movs	r0, r5
 2960              	.LVL365:
 229:Src/cmd.c     ****         SERIAL_WRITE("PID_704_P_error %i\n", State.PID_704_P_error);
 2961              		.loc 1 229 9 is_stmt 0 view .LVU457
 2962 0f72 FFF7FEFF 		bl	HAL_UART_Transmit
 2963              	.LVL366:
 2964              	.LBE86:
 229:Src/cmd.c     ****         SERIAL_WRITE("PID_704_P_error %i\n", State.PID_704_P_error);
ARM GAS  C:\Users\matil\AppData\Local\Temp\ccjdhBtu.s 			page 70


 2965              		.loc 1 229 68 is_stmt 1 view .LVU458
 2966              	.LBB87:
 230:Src/cmd.c     **** 
 2967              		.loc 1 230 9 view .LVU459
 2968 0f76 0197     		str	r7, [sp, #4]
 2969 0f78 6022     		movs	r2, #96
 2970 0f7a 0021     		movs	r1, #0
 2971 0f7c 02A8     		add	r0, sp, #8
 2972 0f7e FFF7FEFF 		bl	memset
 2973              	.LVL367:
 230:Src/cmd.c     **** 
 2974              		.loc 1 230 9 view .LVU460
 2975 0f82 AB22     		movs	r2, #171
 2976 0f84 D200     		lsls	r2, r2, #3
 2977 0f86 4244     		add	r2, r2, r8
 2978 0f88 5368     		ldr	r3, [r2, #4]
 2979 0f8a 1268     		ldr	r2, [r2]
 2980 0f8c D549     		ldr	r1, .L56+20
 2981 0f8e 2000     		movs	r0, r4
 2982 0f90 FFF7FEFF 		bl	sprintf
 2983              	.LVL368:
 230:Src/cmd.c     **** 
 2984              		.loc 1 230 9 view .LVU461
 2985 0f94 82B2     		uxth	r2, r0
 2986 0f96 3300     		movs	r3, r6
 2987 0f98 2100     		movs	r1, r4
 2988 0f9a 2800     		movs	r0, r5
 2989              	.LVL369:
 230:Src/cmd.c     **** 
 2990              		.loc 1 230 9 is_stmt 0 view .LVU462
 2991 0f9c FFF7FEFF 		bl	HAL_UART_Transmit
 2992              	.LVL370:
 2993              	.LBE87:
 230:Src/cmd.c     **** 
 2994              		.loc 1 230 68 is_stmt 1 view .LVU463
 2995              	.LBB88:
 232:Src/cmd.c     ****         SERIAL_WRITE("%3i.", Phase_u(ADC_PD1_Phase_CH) / 1000000);
 2996              		.loc 1 232 9 view .LVU464
 2997 0fa0 6022     		movs	r2, #96
 2998 0fa2 0021     		movs	r1, #0
 2999 0fa4 02A8     		add	r0, sp, #8
 3000 0fa6 FFF7FEFF 		bl	memset
 3001              	.LVL371:
 232:Src/cmd.c     ****         SERIAL_WRITE("%3i.", Phase_u(ADC_PD1_Phase_CH) / 1000000);
 3002              		.loc 1 232 9 view .LVU465
 3003 0faa CF4B     		ldr	r3, .L56+24
 3004 0fac 2200     		movs	r2, r4
 3005 0fae 83CB     		ldmia	r3!, {r0, r1, r7}
 3006 0fb0 83C2     		stmia	r2!, {r0, r1, r7}
 3007 0fb2 1B78     		ldrb	r3, [r3]
 3008 0fb4 1370     		strb	r3, [r2]
 3009              	.LVL372:
 232:Src/cmd.c     ****         SERIAL_WRITE("%3i.", Phase_u(ADC_PD1_Phase_CH) / 1000000);
 3010              		.loc 1 232 9 view .LVU466
 3011 0fb6 3300     		movs	r3, r6
 3012 0fb8 0C22     		movs	r2, #12
 3013 0fba 2100     		movs	r1, r4
ARM GAS  C:\Users\matil\AppData\Local\Temp\ccjdhBtu.s 			page 71


 3014 0fbc 2800     		movs	r0, r5
 3015 0fbe FFF7FEFF 		bl	HAL_UART_Transmit
 3016              	.LVL373:
 3017              	.LBE88:
 232:Src/cmd.c     ****         SERIAL_WRITE("%3i.", Phase_u(ADC_PD1_Phase_CH) / 1000000);
 3018              		.loc 1 232 39 view .LVU467
 3019              	.LBB89:
 233:Src/cmd.c     ****         SERIAL_WRITE("%06li deg\t\t\n", Phase_u(ADC_PD1_Phase_CH) % 1000000);
 3020              		.loc 1 233 9 view .LVU468
 3021 0fc2 0027     		movs	r7, #0
 3022 0fc4 0197     		str	r7, [sp, #4]
 3023 0fc6 6022     		movs	r2, #96
 3024 0fc8 0021     		movs	r1, #0
 3025 0fca 02A8     		add	r0, sp, #8
 3026 0fcc FFF7FEFF 		bl	memset
 3027              	.LVL374:
 233:Src/cmd.c     ****         SERIAL_WRITE("%06li deg\t\t\n", Phase_u(ADC_PD1_Phase_CH) % 1000000);
 3028              		.loc 1 233 9 view .LVU469
 3029 0fd0 0620     		movs	r0, #6
 3030 0fd2 FFF7FEFF 		bl	Phase_u
 3031              	.LVL375:
 3032 0fd6 C54A     		ldr	r2, .L56+28
 3033 0fd8 0023     		movs	r3, #0
 3034 0fda FFF7FEFF 		bl	__aeabi_uldivmod
 3035              	.LVL376:
 3036 0fde 0200     		movs	r2, r0
 3037 0fe0 0B00     		movs	r3, r1
 3038 0fe2 C349     		ldr	r1, .L56+32
 3039 0fe4 8946     		mov	r9, r1
 3040 0fe6 2000     		movs	r0, r4
 3041 0fe8 FFF7FEFF 		bl	sprintf
 3042              	.LVL377:
 233:Src/cmd.c     ****         SERIAL_WRITE("%06li deg\t\t\n", Phase_u(ADC_PD1_Phase_CH) % 1000000);
 3043              		.loc 1 233 9 view .LVU470
 3044 0fec 82B2     		uxth	r2, r0
 3045 0fee 3300     		movs	r3, r6
 3046 0ff0 2100     		movs	r1, r4
 3047 0ff2 2800     		movs	r0, r5
 3048              	.LVL378:
 233:Src/cmd.c     ****         SERIAL_WRITE("%06li deg\t\t\n", Phase_u(ADC_PD1_Phase_CH) % 1000000);
 3049              		.loc 1 233 9 is_stmt 0 view .LVU471
 3050 0ff4 FFF7FEFF 		bl	HAL_UART_Transmit
 3051              	.LVL379:
 3052              	.LBE89:
 233:Src/cmd.c     ****         SERIAL_WRITE("%06li deg\t\t\n", Phase_u(ADC_PD1_Phase_CH) % 1000000);
 3053              		.loc 1 233 66 is_stmt 1 view .LVU472
 3054              	.LBB90:
 234:Src/cmd.c     **** 
 3055              		.loc 1 234 9 view .LVU473
 3056 0ff8 0197     		str	r7, [sp, #4]
 3057 0ffa 6022     		movs	r2, #96
 3058 0ffc 0021     		movs	r1, #0
 3059 0ffe 02A8     		add	r0, sp, #8
 3060 1000 FFF7FEFF 		bl	memset
 3061              	.LVL380:
 234:Src/cmd.c     **** 
 3062              		.loc 1 234 9 view .LVU474
ARM GAS  C:\Users\matil\AppData\Local\Temp\ccjdhBtu.s 			page 72


 3063 1004 0620     		movs	r0, #6
 3064 1006 FFF7FEFF 		bl	Phase_u
 3065              	.LVL381:
 3066 100a B84A     		ldr	r2, .L56+28
 3067 100c 0023     		movs	r3, #0
 3068 100e FFF7FEFF 		bl	__aeabi_uldivmod
 3069              	.LVL382:
 3070 1012 B849     		ldr	r1, .L56+36
 3071 1014 8B46     		mov	fp, r1
 3072 1016 2000     		movs	r0, r4
 3073 1018 FFF7FEFF 		bl	sprintf
 3074              	.LVL383:
 234:Src/cmd.c     **** 
 3075              		.loc 1 234 9 view .LVU475
 3076 101c 3300     		movs	r3, r6
 3077 101e 0D22     		movs	r2, #13
 3078 1020 2100     		movs	r1, r4
 3079 1022 2800     		movs	r0, r5
 3080 1024 FFF7FEFF 		bl	HAL_UART_Transmit
 3081              	.LVL384:
 3082              	.LBE90:
 234:Src/cmd.c     **** 
 3083              		.loc 1 234 77 view .LVU476
 3084              	.LBB91:
 236:Src/cmd.c     ****         SERIAL_WRITE("%3i.", Phase_u(ADC_PD2_Phase_CH) / 1000000);
 3085              		.loc 1 236 9 view .LVU477
 3086 1028 6022     		movs	r2, #96
 3087 102a 0021     		movs	r1, #0
 3088 102c 02A8     		add	r0, sp, #8
 3089 102e FFF7FEFF 		bl	memset
 3090              	.LVL385:
 236:Src/cmd.c     ****         SERIAL_WRITE("%3i.", Phase_u(ADC_PD2_Phase_CH) / 1000000);
 3091              		.loc 1 236 9 view .LVU478
 3092 1032 B14B     		ldr	r3, .L56+40
 3093 1034 2200     		movs	r2, r4
 3094 1036 83CB     		ldmia	r3!, {r0, r1, r7}
 3095 1038 83C2     		stmia	r2!, {r0, r1, r7}
 3096 103a 1B78     		ldrb	r3, [r3]
 3097 103c 1370     		strb	r3, [r2]
 3098              	.LVL386:
 236:Src/cmd.c     ****         SERIAL_WRITE("%3i.", Phase_u(ADC_PD2_Phase_CH) / 1000000);
 3099              		.loc 1 236 9 view .LVU479
 3100 103e 3300     		movs	r3, r6
 3101 1040 0C22     		movs	r2, #12
 3102 1042 2100     		movs	r1, r4
 3103 1044 2800     		movs	r0, r5
 3104 1046 FFF7FEFF 		bl	HAL_UART_Transmit
 3105              	.LVL387:
 3106              	.LBE91:
 236:Src/cmd.c     ****         SERIAL_WRITE("%3i.", Phase_u(ADC_PD2_Phase_CH) / 1000000);
 3107              		.loc 1 236 39 view .LVU480
 3108              	.LBB92:
 237:Src/cmd.c     ****         SERIAL_WRITE("%03li deg\t\t\n\n", Phase_u(ADC_PD2_Phase_CH) % 1000000);
 3109              		.loc 1 237 9 view .LVU481
 3110 104a 0027     		movs	r7, #0
 3111 104c 0197     		str	r7, [sp, #4]
 3112 104e 6022     		movs	r2, #96
ARM GAS  C:\Users\matil\AppData\Local\Temp\ccjdhBtu.s 			page 73


 3113 1050 0021     		movs	r1, #0
 3114 1052 02A8     		add	r0, sp, #8
 3115 1054 FFF7FEFF 		bl	memset
 3116              	.LVL388:
 237:Src/cmd.c     ****         SERIAL_WRITE("%03li deg\t\t\n\n", Phase_u(ADC_PD2_Phase_CH) % 1000000);
 3117              		.loc 1 237 9 view .LVU482
 3118 1058 0020     		movs	r0, #0
 3119 105a FFF7FEFF 		bl	Phase_u
 3120              	.LVL389:
 3121 105e A34A     		ldr	r2, .L56+28
 3122 1060 0023     		movs	r3, #0
 3123 1062 FFF7FEFF 		bl	__aeabi_uldivmod
 3124              	.LVL390:
 3125 1066 0200     		movs	r2, r0
 3126 1068 0B00     		movs	r3, r1
 3127 106a 4946     		mov	r1, r9
 3128 106c 2000     		movs	r0, r4
 3129 106e FFF7FEFF 		bl	sprintf
 3130              	.LVL391:
 237:Src/cmd.c     ****         SERIAL_WRITE("%03li deg\t\t\n\n", Phase_u(ADC_PD2_Phase_CH) % 1000000);
 3131              		.loc 1 237 9 view .LVU483
 3132 1072 82B2     		uxth	r2, r0
 3133 1074 3300     		movs	r3, r6
 3134 1076 2100     		movs	r1, r4
 3135 1078 2800     		movs	r0, r5
 3136              	.LVL392:
 237:Src/cmd.c     ****         SERIAL_WRITE("%03li deg\t\t\n\n", Phase_u(ADC_PD2_Phase_CH) % 1000000);
 3137              		.loc 1 237 9 is_stmt 0 view .LVU484
 3138 107a FFF7FEFF 		bl	HAL_UART_Transmit
 3139              	.LVL393:
 3140              	.LBE92:
 237:Src/cmd.c     ****         SERIAL_WRITE("%03li deg\t\t\n\n", Phase_u(ADC_PD2_Phase_CH) % 1000000);
 3141              		.loc 1 237 66 is_stmt 1 view .LVU485
 3142              	.LBB93:
 238:Src/cmd.c     **** 
 3143              		.loc 1 238 9 view .LVU486
 3144 107e 0197     		str	r7, [sp, #4]
 3145 1080 6022     		movs	r2, #96
 3146 1082 0021     		movs	r1, #0
 3147 1084 02A8     		add	r0, sp, #8
 3148 1086 FFF7FEFF 		bl	memset
 3149              	.LVL394:
 238:Src/cmd.c     **** 
 3150              		.loc 1 238 9 view .LVU487
 3151 108a 0020     		movs	r0, #0
 3152 108c FFF7FEFF 		bl	Phase_u
 3153              	.LVL395:
 3154 1090 964A     		ldr	r2, .L56+28
 3155 1092 0023     		movs	r3, #0
 3156 1094 FFF7FEFF 		bl	__aeabi_uldivmod
 3157              	.LVL396:
 3158 1098 9849     		ldr	r1, .L56+44
 3159 109a 2000     		movs	r0, r4
 3160 109c FFF7FEFF 		bl	sprintf
 3161              	.LVL397:
 238:Src/cmd.c     **** 
 3162              		.loc 1 238 9 view .LVU488
ARM GAS  C:\Users\matil\AppData\Local\Temp\ccjdhBtu.s 			page 74


 3163 10a0 82B2     		uxth	r2, r0
 3164 10a2 3300     		movs	r3, r6
 3165 10a4 2100     		movs	r1, r4
 3166 10a6 2800     		movs	r0, r5
 3167              	.LVL398:
 238:Src/cmd.c     **** 
 3168              		.loc 1 238 9 is_stmt 0 view .LVU489
 3169 10a8 FFF7FEFF 		bl	HAL_UART_Transmit
 3170              	.LVL399:
 3171              	.LBE93:
 238:Src/cmd.c     **** 
 3172              		.loc 1 238 79 is_stmt 1 view .LVU490
 3173              	.LBB94:
 240:Src/cmd.c     ****         SERIAL_WRITE("PID 352 Output: %li\n", State.PID_352_Output);
 3174              		.loc 1 240 9 view .LVU491
 3175 10ac 0197     		str	r7, [sp, #4]
 3176 10ae 6022     		movs	r2, #96
 3177 10b0 0021     		movs	r1, #0
 3178 10b2 02A8     		add	r0, sp, #8
 3179 10b4 FFF7FEFF 		bl	memset
 3180              	.LVL400:
 240:Src/cmd.c     ****         SERIAL_WRITE("PID 352 Output: %li\n", State.PID_352_Output);
 3181              		.loc 1 240 9 view .LVU492
 3182 10b8 9E22     		movs	r2, #158
 3183 10ba D200     		lsls	r2, r2, #3
 3184 10bc 4244     		add	r2, r2, r8
 3185 10be 1068     		ldr	r0, [r2]
 3186 10c0 5168     		ldr	r1, [r2, #4]
 3187 10c2 FA22     		movs	r2, #250
 3188 10c4 9200     		lsls	r2, r2, #2
 3189 10c6 0023     		movs	r3, #0
 3190 10c8 FFF7FEFF 		bl	__aeabi_lmul
 3191              	.LVL401:
 3192 10cc 0200     		movs	r2, r0
 3193 10ce 0B00     		movs	r3, r1
 3194 10d0 8B49     		ldr	r1, .L56+48
 3195 10d2 2000     		movs	r0, r4
 3196 10d4 FFF7FEFF 		bl	sprintf
 3197              	.LVL402:
 240:Src/cmd.c     ****         SERIAL_WRITE("PID 352 Output: %li\n", State.PID_352_Output);
 3198              		.loc 1 240 9 view .LVU493
 3199 10d8 82B2     		uxth	r2, r0
 3200 10da 3300     		movs	r3, r6
 3201 10dc 2100     		movs	r1, r4
 3202 10de 2800     		movs	r0, r5
 3203              	.LVL403:
 240:Src/cmd.c     ****         SERIAL_WRITE("PID 352 Output: %li\n", State.PID_352_Output);
 3204              		.loc 1 240 9 is_stmt 0 view .LVU494
 3205 10e0 FFF7FEFF 		bl	HAL_UART_Transmit
 3206              	.LVL404:
 3207              	.LBE94:
 240:Src/cmd.c     ****         SERIAL_WRITE("PID 352 Output: %li\n", State.PID_352_Output);
 3208              		.loc 1 240 79 is_stmt 1 view .LVU495
 3209              	.LBB95:
 241:Src/cmd.c     ****         SERIAL_WRITE("PID_352_P_error %i\n", State.PID_352_P_error);
 3210              		.loc 1 241 9 view .LVU496
 3211 10e4 0197     		str	r7, [sp, #4]
ARM GAS  C:\Users\matil\AppData\Local\Temp\ccjdhBtu.s 			page 75


 3212 10e6 6022     		movs	r2, #96
 3213 10e8 0021     		movs	r1, #0
 3214 10ea 02A8     		add	r0, sp, #8
 3215 10ec FFF7FEFF 		bl	memset
 3216              	.LVL405:
 241:Src/cmd.c     ****         SERIAL_WRITE("PID_352_P_error %i\n", State.PID_352_P_error);
 3217              		.loc 1 241 9 view .LVU497
 3218 10f0 A123     		movs	r3, #161
 3219 10f2 DB00     		lsls	r3, r3, #3
 3220 10f4 4246     		mov	r2, r8
 3221 10f6 D258     		ldr	r2, [r2, r3]
 3222 10f8 8249     		ldr	r1, .L56+52
 3223 10fa 2000     		movs	r0, r4
 3224 10fc FFF7FEFF 		bl	sprintf
 3225              	.LVL406:
 241:Src/cmd.c     ****         SERIAL_WRITE("PID_352_P_error %i\n", State.PID_352_P_error);
 3226              		.loc 1 241 9 view .LVU498
 3227 1100 82B2     		uxth	r2, r0
 3228 1102 3300     		movs	r3, r6
 3229 1104 2100     		movs	r1, r4
 3230 1106 2800     		movs	r0, r5
 3231              	.LVL407:
 241:Src/cmd.c     ****         SERIAL_WRITE("PID_352_P_error %i\n", State.PID_352_P_error);
 3232              		.loc 1 241 9 is_stmt 0 view .LVU499
 3233 1108 FFF7FEFF 		bl	HAL_UART_Transmit
 3234              	.LVL408:
 3235              	.LBE95:
 241:Src/cmd.c     ****         SERIAL_WRITE("PID_352_P_error %i\n", State.PID_352_P_error);
 3236              		.loc 1 241 68 is_stmt 1 view .LVU500
 3237              	.LBB96:
 242:Src/cmd.c     **** 
 3238              		.loc 1 242 9 view .LVU501
 3239 110c 0197     		str	r7, [sp, #4]
 3240 110e 6022     		movs	r2, #96
 3241 1110 0021     		movs	r1, #0
 3242 1112 02A8     		add	r0, sp, #8
 3243 1114 FFF7FEFF 		bl	memset
 3244              	.LVL409:
 242:Src/cmd.c     **** 
 3245              		.loc 1 242 9 view .LVU502
 3246 1118 A522     		movs	r2, #165
 3247 111a D200     		lsls	r2, r2, #3
 3248 111c 4244     		add	r2, r2, r8
 3249 111e 5368     		ldr	r3, [r2, #4]
 3250 1120 1268     		ldr	r2, [r2]
 3251 1122 7949     		ldr	r1, .L56+56
 3252 1124 2000     		movs	r0, r4
 3253 1126 FFF7FEFF 		bl	sprintf
 3254              	.LVL410:
 242:Src/cmd.c     **** 
 3255              		.loc 1 242 9 view .LVU503
 3256 112a 82B2     		uxth	r2, r0
 3257 112c 3300     		movs	r3, r6
 3258 112e 2100     		movs	r1, r4
 3259 1130 2800     		movs	r0, r5
 3260              	.LVL411:
 242:Src/cmd.c     **** 
ARM GAS  C:\Users\matil\AppData\Local\Temp\ccjdhBtu.s 			page 76


 3261              		.loc 1 242 9 is_stmt 0 view .LVU504
 3262 1132 FFF7FEFF 		bl	HAL_UART_Transmit
 3263              	.LVL412:
 3264              	.LBE96:
 242:Src/cmd.c     **** 
 3265              		.loc 1 242 68 is_stmt 1 view .LVU505
 3266              	.LBB97:
 244:Src/cmd.c     ****         SERIAL_WRITE("%3i.", Phase_u(ADC_PD3_Phase_CH) / 1000000);
 3267              		.loc 1 244 9 view .LVU506
 3268 1136 6022     		movs	r2, #96
 3269 1138 0021     		movs	r1, #0
 3270 113a 02A8     		add	r0, sp, #8
 3271 113c FFF7FEFF 		bl	memset
 3272              	.LVL413:
 244:Src/cmd.c     ****         SERIAL_WRITE("%3i.", Phase_u(ADC_PD3_Phase_CH) / 1000000);
 3273              		.loc 1 244 9 view .LVU507
 3274 1140 724B     		ldr	r3, .L56+60
 3275 1142 2200     		movs	r2, r4
 3276 1144 83CB     		ldmia	r3!, {r0, r1, r7}
 3277 1146 83C2     		stmia	r2!, {r0, r1, r7}
 3278 1148 1B78     		ldrb	r3, [r3]
 3279 114a 1370     		strb	r3, [r2]
 3280              	.LVL414:
 244:Src/cmd.c     ****         SERIAL_WRITE("%3i.", Phase_u(ADC_PD3_Phase_CH) / 1000000);
 3281              		.loc 1 244 9 view .LVU508
 3282 114c 3300     		movs	r3, r6
 3283 114e 0C22     		movs	r2, #12
 3284 1150 2100     		movs	r1, r4
 3285 1152 2800     		movs	r0, r5
 3286 1154 FFF7FEFF 		bl	HAL_UART_Transmit
 3287              	.LVL415:
 3288              	.LBE97:
 244:Src/cmd.c     ****         SERIAL_WRITE("%3i.", Phase_u(ADC_PD3_Phase_CH) / 1000000);
 3289              		.loc 1 244 39 view .LVU509
 3290              	.LBB98:
 245:Src/cmd.c     ****         SERIAL_WRITE("%06li deg\t\t\n", Phase_u(ADC_PD3_Phase_CH) % 1000000);
 3291              		.loc 1 245 9 view .LVU510
 3292 1158 0027     		movs	r7, #0
 3293 115a 0197     		str	r7, [sp, #4]
 3294 115c 6022     		movs	r2, #96
 3295 115e 0021     		movs	r1, #0
 3296 1160 02A8     		add	r0, sp, #8
 3297 1162 FFF7FEFF 		bl	memset
 3298              	.LVL416:
 245:Src/cmd.c     ****         SERIAL_WRITE("%06li deg\t\t\n", Phase_u(ADC_PD3_Phase_CH) % 1000000);
 3299              		.loc 1 245 9 view .LVU511
 3300 1166 0E20     		movs	r0, #14
 3301 1168 FFF7FEFF 		bl	Phase_u
 3302              	.LVL417:
 3303 116c 5F4A     		ldr	r2, .L56+28
 3304 116e 0023     		movs	r3, #0
 3305 1170 FFF7FEFF 		bl	__aeabi_uldivmod
 3306              	.LVL418:
 3307 1174 0200     		movs	r2, r0
 3308 1176 0B00     		movs	r3, r1
 3309 1178 4946     		mov	r1, r9
 3310 117a 2000     		movs	r0, r4
ARM GAS  C:\Users\matil\AppData\Local\Temp\ccjdhBtu.s 			page 77


 3311 117c FFF7FEFF 		bl	sprintf
 3312              	.LVL419:
 245:Src/cmd.c     ****         SERIAL_WRITE("%06li deg\t\t\n", Phase_u(ADC_PD3_Phase_CH) % 1000000);
 3313              		.loc 1 245 9 view .LVU512
 3314 1180 82B2     		uxth	r2, r0
 3315 1182 3300     		movs	r3, r6
 3316 1184 2100     		movs	r1, r4
 3317 1186 2800     		movs	r0, r5
 3318              	.LVL420:
 245:Src/cmd.c     ****         SERIAL_WRITE("%06li deg\t\t\n", Phase_u(ADC_PD3_Phase_CH) % 1000000);
 3319              		.loc 1 245 9 is_stmt 0 view .LVU513
 3320 1188 FFF7FEFF 		bl	HAL_UART_Transmit
 3321              	.LVL421:
 3322              	.LBE98:
 245:Src/cmd.c     ****         SERIAL_WRITE("%06li deg\t\t\n", Phase_u(ADC_PD3_Phase_CH) % 1000000);
 3323              		.loc 1 245 66 is_stmt 1 view .LVU514
 3324              	.LBB99:
 246:Src/cmd.c     **** 
 3325              		.loc 1 246 9 view .LVU515
 3326 118c 0197     		str	r7, [sp, #4]
 3327 118e 6022     		movs	r2, #96
 3328 1190 0021     		movs	r1, #0
 3329 1192 02A8     		add	r0, sp, #8
 3330 1194 FFF7FEFF 		bl	memset
 3331              	.LVL422:
 246:Src/cmd.c     **** 
 3332              		.loc 1 246 9 view .LVU516
 3333 1198 0E20     		movs	r0, #14
 3334 119a FFF7FEFF 		bl	Phase_u
 3335              	.LVL423:
 3336 119e 534A     		ldr	r2, .L56+28
 3337 11a0 0023     		movs	r3, #0
 3338 11a2 FFF7FEFF 		bl	__aeabi_uldivmod
 3339              	.LVL424:
 3340 11a6 5946     		mov	r1, fp
 3341 11a8 2000     		movs	r0, r4
 3342 11aa FFF7FEFF 		bl	sprintf
 3343              	.LVL425:
 246:Src/cmd.c     **** 
 3344              		.loc 1 246 9 view .LVU517
 3345 11ae 3300     		movs	r3, r6
 3346 11b0 0D22     		movs	r2, #13
 3347 11b2 2100     		movs	r1, r4
 3348 11b4 2800     		movs	r0, r5
 3349 11b6 FFF7FEFF 		bl	HAL_UART_Transmit
 3350              	.LVL426:
 3351              	.LBE99:
 246:Src/cmd.c     **** 
 3352              		.loc 1 246 77 view .LVU518
 3353              	.LBB100:
 248:Src/cmd.c     ****         SERIAL_WRITE("%3i.", Phase_u(ADC_PD4_Phase_CH) / 1000000);
 3354              		.loc 1 248 9 view .LVU519
 3355 11ba 6022     		movs	r2, #96
 3356 11bc 0021     		movs	r1, #0
 3357 11be 02A8     		add	r0, sp, #8
 3358 11c0 FFF7FEFF 		bl	memset
 3359              	.LVL427:
ARM GAS  C:\Users\matil\AppData\Local\Temp\ccjdhBtu.s 			page 78


 248:Src/cmd.c     ****         SERIAL_WRITE("%3i.", Phase_u(ADC_PD4_Phase_CH) / 1000000);
 3360              		.loc 1 248 9 view .LVU520
 3361 11c4 524B     		ldr	r3, .L56+64
 3362 11c6 2200     		movs	r2, r4
 3363 11c8 83CB     		ldmia	r3!, {r0, r1, r7}
 3364 11ca 83C2     		stmia	r2!, {r0, r1, r7}
 3365 11cc 1B78     		ldrb	r3, [r3]
 3366 11ce 1370     		strb	r3, [r2]
 3367              	.LVL428:
 248:Src/cmd.c     ****         SERIAL_WRITE("%3i.", Phase_u(ADC_PD4_Phase_CH) / 1000000);
 3368              		.loc 1 248 9 view .LVU521
 3369 11d0 3300     		movs	r3, r6
 3370 11d2 0C22     		movs	r2, #12
 3371 11d4 2100     		movs	r1, r4
 3372 11d6 2800     		movs	r0, r5
 3373 11d8 FFF7FEFF 		bl	HAL_UART_Transmit
 3374              	.LVL429:
 3375              	.LBE100:
 248:Src/cmd.c     ****         SERIAL_WRITE("%3i.", Phase_u(ADC_PD4_Phase_CH) / 1000000);
 3376              		.loc 1 248 39 view .LVU522
 3377              	.LBB101:
 249:Src/cmd.c     ****         SERIAL_WRITE("%06li deg\t\t\n\n", Phase_u(ADC_PD4_Phase_CH) % 1000000);
 3378              		.loc 1 249 9 view .LVU523
 3379 11dc 0027     		movs	r7, #0
 3380 11de 0197     		str	r7, [sp, #4]
 3381 11e0 6022     		movs	r2, #96
 3382 11e2 0021     		movs	r1, #0
 3383 11e4 02A8     		add	r0, sp, #8
 3384 11e6 FFF7FEFF 		bl	memset
 3385              	.LVL430:
 249:Src/cmd.c     ****         SERIAL_WRITE("%06li deg\t\t\n\n", Phase_u(ADC_PD4_Phase_CH) % 1000000);
 3386              		.loc 1 249 9 view .LVU524
 3387 11ea 0220     		movs	r0, #2
 3388 11ec FFF7FEFF 		bl	Phase_u
 3389              	.LVL431:
 3390 11f0 3E4A     		ldr	r2, .L56+28
 3391 11f2 0023     		movs	r3, #0
 3392 11f4 FFF7FEFF 		bl	__aeabi_uldivmod
 3393              	.LVL432:
 3394 11f8 0200     		movs	r2, r0
 3395 11fa 0B00     		movs	r3, r1
 3396 11fc 4946     		mov	r1, r9
 3397 11fe 2000     		movs	r0, r4
 3398 1200 FFF7FEFF 		bl	sprintf
 3399              	.LVL433:
 249:Src/cmd.c     ****         SERIAL_WRITE("%06li deg\t\t\n\n", Phase_u(ADC_PD4_Phase_CH) % 1000000);
 3400              		.loc 1 249 9 view .LVU525
 3401 1204 82B2     		uxth	r2, r0
 3402 1206 3300     		movs	r3, r6
 3403 1208 2100     		movs	r1, r4
 3404 120a 2800     		movs	r0, r5
 3405              	.LVL434:
 249:Src/cmd.c     ****         SERIAL_WRITE("%06li deg\t\t\n\n", Phase_u(ADC_PD4_Phase_CH) % 1000000);
 3406              		.loc 1 249 9 is_stmt 0 view .LVU526
 3407 120c FFF7FEFF 		bl	HAL_UART_Transmit
 3408              	.LVL435:
 3409              	.LBE101:
ARM GAS  C:\Users\matil\AppData\Local\Temp\ccjdhBtu.s 			page 79


 249:Src/cmd.c     ****         SERIAL_WRITE("%06li deg\t\t\n\n", Phase_u(ADC_PD4_Phase_CH) % 1000000);
 3410              		.loc 1 249 66 is_stmt 1 view .LVU527
 3411              	.LBB102:
 250:Src/cmd.c     **** 
 3412              		.loc 1 250 9 view .LVU528
 3413 1210 0197     		str	r7, [sp, #4]
 3414 1212 6022     		movs	r2, #96
 3415 1214 0021     		movs	r1, #0
 3416 1216 02A8     		add	r0, sp, #8
 3417 1218 FFF7FEFF 		bl	memset
 3418              	.LVL436:
 250:Src/cmd.c     **** 
 3419              		.loc 1 250 9 view .LVU529
 3420 121c 0220     		movs	r0, #2
 3421 121e FFF7FEFF 		bl	Phase_u
 3422              	.LVL437:
 3423 1222 324A     		ldr	r2, .L56+28
 3424 1224 0023     		movs	r3, #0
 3425 1226 FFF7FEFF 		bl	__aeabi_uldivmod
 3426              	.LVL438:
 3427 122a 3A49     		ldr	r1, .L56+68
 3428 122c 2000     		movs	r0, r4
 3429 122e FFF7FEFF 		bl	sprintf
 3430              	.LVL439:
 250:Src/cmd.c     **** 
 3431              		.loc 1 250 9 view .LVU530
 3432 1232 3300     		movs	r3, r6
 3433 1234 0E22     		movs	r2, #14
 3434 1236 2100     		movs	r1, r4
 3435 1238 2800     		movs	r0, r5
 3436 123a FFF7FEFF 		bl	HAL_UART_Transmit
 3437              	.LVL440:
 3438              	.LBE102:
 250:Src/cmd.c     **** 
 3439              		.loc 1 250 79 view .LVU531
 3440              	.LBB103:
 252:Src/cmd.c     ****         SERIAL_WRITE("POWER 352 Output: 0x%04x\n", State.POWER_PID_352_Output);
 3441              		.loc 1 252 9 view .LVU532
 3442 123e 0197     		str	r7, [sp, #4]
 3443 1240 6022     		movs	r2, #96
 3444 1242 0021     		movs	r1, #0
 3445 1244 02A8     		add	r0, sp, #8
 3446 1246 FFF7FEFF 		bl	memset
 3447              	.LVL441:
 252:Src/cmd.c     ****         SERIAL_WRITE("POWER 352 Output: 0x%04x\n", State.POWER_PID_352_Output);
 3448              		.loc 1 252 9 view .LVU533
 3449 124a 334A     		ldr	r2, .L56+72
 3450 124c 9246     		mov	r10, r2
 3451 124e 4246     		mov	r2, r8
 3452 1250 5146     		mov	r1, r10
 3453 1252 5258     		ldr	r2, [r2, r1]
 3454 1254 3149     		ldr	r1, .L56+76
 3455 1256 2000     		movs	r0, r4
 3456 1258 FFF7FEFF 		bl	sprintf
 3457              	.LVL442:
 252:Src/cmd.c     ****         SERIAL_WRITE("POWER 352 Output: 0x%04x\n", State.POWER_PID_352_Output);
 3458              		.loc 1 252 9 view .LVU534
ARM GAS  C:\Users\matil\AppData\Local\Temp\ccjdhBtu.s 			page 80


 3459 125c 82B2     		uxth	r2, r0
 3460 125e 3300     		movs	r3, r6
 3461 1260 2100     		movs	r1, r4
 3462 1262 2800     		movs	r0, r5
 3463              	.LVL443:
 252:Src/cmd.c     ****         SERIAL_WRITE("POWER 352 Output: 0x%04x\n", State.POWER_PID_352_Output);
 3464              		.loc 1 252 9 is_stmt 0 view .LVU535
 3465 1264 FFF7FEFF 		bl	HAL_UART_Transmit
 3466              	.LVL444:
 3467              	.LBE103:
 252:Src/cmd.c     ****         SERIAL_WRITE("POWER 352 Output: 0x%04x\n", State.POWER_PID_352_Output);
 3468              		.loc 1 252 83 is_stmt 1 view .LVU536
 3469              	.LBB104:
 253:Src/cmd.c     ****         SERIAL_WRITE("POWER 352 error: %i\n", State.ADC_ValuesFiltered[RF_POWER_AMP352] - State.POW
 3470              		.loc 1 253 9 view .LVU537
 3471 1268 0197     		str	r7, [sp, #4]
 3472 126a 6022     		movs	r2, #96
 3473 126c 0021     		movs	r1, #0
 3474 126e 02A8     		add	r0, sp, #8
 3475 1270 FFF7FEFF 		bl	memset
 3476              	.LVL445:
 253:Src/cmd.c     ****         SERIAL_WRITE("POWER 352 error: %i\n", State.ADC_ValuesFiltered[RF_POWER_AMP352] - State.POW
 3477              		.loc 1 253 9 view .LVU538
 3478 1274 2A4B     		ldr	r3, .L56+80
 3479 1276 4246     		mov	r2, r8
 3480 1278 D258     		ldr	r2, [r2, r3]
 3481 127a 2A49     		ldr	r1, .L56+84
 3482 127c 2000     		movs	r0, r4
 3483 127e FFF7FEFF 		bl	sprintf
 3484              	.LVL446:
 253:Src/cmd.c     ****         SERIAL_WRITE("POWER 352 error: %i\n", State.ADC_ValuesFiltered[RF_POWER_AMP352] - State.POW
 3485              		.loc 1 253 9 view .LVU539
 3486 1282 82B2     		uxth	r2, r0
 3487 1284 3300     		movs	r3, r6
 3488 1286 2100     		movs	r1, r4
 3489 1288 2800     		movs	r0, r5
 3490              	.LVL447:
 253:Src/cmd.c     ****         SERIAL_WRITE("POWER 352 error: %i\n", State.ADC_ValuesFiltered[RF_POWER_AMP352] - State.POW
 3491              		.loc 1 253 9 is_stmt 0 view .LVU540
 3492 128a FFF7FEFF 		bl	HAL_UART_Transmit
 3493              	.LVL448:
 3494              	.LBE104:
 253:Src/cmd.c     ****         SERIAL_WRITE("POWER 352 error: %i\n", State.ADC_ValuesFiltered[RF_POWER_AMP352] - State.POW
 3495              		.loc 1 253 79 is_stmt 1 view .LVU541
 3496              	.LBB105:
 254:Src/cmd.c     ****         SERIAL_WRITE("POWER 352: 0x%06x\n\n", State.ADC_ValuesFiltered[RF_POWER_AMP352]);
 3497              		.loc 1 254 9 view .LVU542
 3498 128e 0197     		str	r7, [sp, #4]
 3499 1290 6022     		movs	r2, #96
 3500 1292 0021     		movs	r1, #0
 3501 1294 02A8     		add	r0, sp, #8
 3502 1296 FFF7FEFF 		bl	memset
 3503              	.LVL449:
 254:Src/cmd.c     ****         SERIAL_WRITE("POWER 352: 0x%06x\n\n", State.ADC_ValuesFiltered[RF_POWER_AMP352]);
 3504              		.loc 1 254 9 view .LVU543
 3505 129a 234A     		ldr	r2, .L56+88
 3506 129c 9146     		mov	r9, r2
ARM GAS  C:\Users\matil\AppData\Local\Temp\ccjdhBtu.s 			page 81


 3507 129e 4246     		mov	r2, r8
 3508 12a0 5146     		mov	r1, r10
 3509 12a2 5258     		ldr	r2, [r2, r1]
 3510 12a4 4146     		mov	r1, r8
 3511 12a6 4846     		mov	r0, r9
 3512 12a8 0958     		ldr	r1, [r1, r0]
 3513 12aa 8A1A     		subs	r2, r1, r2
 3514 12ac 1F49     		ldr	r1, .L56+92
 3515 12ae 2000     		movs	r0, r4
 3516 12b0 FFF7FEFF 		bl	sprintf
 3517              	.LVL450:
 254:Src/cmd.c     ****         SERIAL_WRITE("POWER 352: 0x%06x\n\n", State.ADC_ValuesFiltered[RF_POWER_AMP352]);
 3518              		.loc 1 254 9 view .LVU544
 3519 12b4 82B2     		uxth	r2, r0
 3520 12b6 3300     		movs	r3, r6
 3521 12b8 2100     		movs	r1, r4
 3522 12ba 2800     		movs	r0, r5
 3523              	.LVL451:
 254:Src/cmd.c     ****         SERIAL_WRITE("POWER 352: 0x%06x\n\n", State.ADC_ValuesFiltered[RF_POWER_AMP352]);
 3524              		.loc 1 254 9 is_stmt 0 view .LVU545
 3525 12bc FFF7FEFF 		bl	HAL_UART_Transmit
 3526              	.LVL452:
 3527              	.LBE105:
 254:Src/cmd.c     ****         SERIAL_WRITE("POWER 352: 0x%06x\n\n", State.ADC_ValuesFiltered[RF_POWER_AMP352]);
 3528              		.loc 1 254 120 is_stmt 1 view .LVU546
 3529              	.LBB106:
 255:Src/cmd.c     **** 
 3530              		.loc 1 255 9 view .LVU547
 3531 12c0 0197     		str	r7, [sp, #4]
 3532 12c2 6022     		movs	r2, #96
 3533 12c4 0021     		movs	r1, #0
 3534 12c6 02A8     		add	r0, sp, #8
 3535 12c8 FFF7FEFF 		bl	memset
 3536              	.LVL453:
 3537 12cc 30E0     		b	.L57
 3538              	.L58:
 3539 12ce C046     		.align	2
 3540              	.L56:
 3541 12d0 00000000 		.word	State
 3542 12d4 00000000 		.word	huart2
 3543 12d8 C8020000 		.word	.LC84
 3544 12dc 3C050000 		.word	1340
 3545 12e0 E0020000 		.word	.LC86
 3546 12e4 F8020000 		.word	.LC88
 3547 12e8 AC010000 		.word	.LC48
 3548 12ec 40420F00 		.word	1000000
 3549 12f0 94010000 		.word	.LC44
 3550 12f4 0C030000 		.word	.LC90
 3551 12f8 BC010000 		.word	.LC50
 3552 12fc 1C030000 		.word	.LC92
 3553 1300 2C030000 		.word	.LC94
 3554 1304 44030000 		.word	.LC96
 3555 1308 5C030000 		.word	.LC98
 3556 130c CC010000 		.word	.LC52
 3557 1310 DC010000 		.word	.LC54
 3558 1314 70030000 		.word	.LC100
 3559 1318 6C050000 		.word	1388
ARM GAS  C:\Users\matil\AppData\Local\Temp\ccjdhBtu.s 			page 82


 3560 131c 80030000 		.word	.LC102
 3561 1320 74050000 		.word	1396
 3562 1324 9C030000 		.word	.LC104
 3563 1328 B4040000 		.word	1204
 3564 132c B8030000 		.word	.LC106
 3565              	.L57:
 255:Src/cmd.c     **** 
 3566              		.loc 1 255 9 view .LVU548
 3567 1330 4246     		mov	r2, r8
 3568 1332 4946     		mov	r1, r9
 3569 1334 5258     		ldr	r2, [r2, r1]
 3570 1336 6F49     		ldr	r1, .L59
 3571 1338 2000     		movs	r0, r4
 3572 133a FFF7FEFF 		bl	sprintf
 3573              	.LVL454:
 255:Src/cmd.c     **** 
 3574              		.loc 1 255 9 view .LVU549
 3575 133e 82B2     		uxth	r2, r0
 3576 1340 3300     		movs	r3, r6
 3577 1342 2100     		movs	r1, r4
 3578 1344 2800     		movs	r0, r5
 3579              	.LVL455:
 255:Src/cmd.c     **** 
 3580              		.loc 1 255 9 is_stmt 0 view .LVU550
 3581 1346 FFF7FEFF 		bl	HAL_UART_Transmit
 3582              	.LVL456:
 3583              	.LBE106:
 255:Src/cmd.c     **** 
 3584              		.loc 1 255 89 is_stmt 1 view .LVU551
 3585              	.LBB107:
 257:Src/cmd.c     ****         SERIAL_WRITE("POWER 704 Output: 0x%04x\n", State.POWER_PID_704_Output);
 3586              		.loc 1 257 9 view .LVU552
 3587 134a 0197     		str	r7, [sp, #4]
 3588 134c 6022     		movs	r2, #96
 3589 134e 0021     		movs	r1, #0
 3590 1350 02A8     		add	r0, sp, #8
 3591 1352 FFF7FEFF 		bl	memset
 3592              	.LVL457:
 257:Src/cmd.c     ****         SERIAL_WRITE("POWER 704 Output: 0x%04x\n", State.POWER_PID_704_Output);
 3593              		.loc 1 257 9 view .LVU553
 3594 1356 AE22     		movs	r2, #174
 3595 1358 D200     		lsls	r2, r2, #3
 3596 135a 9246     		mov	r10, r2
 3597 135c 4246     		mov	r2, r8
 3598 135e 5146     		mov	r1, r10
 3599 1360 5258     		ldr	r2, [r2, r1]
 3600 1362 6549     		ldr	r1, .L59+4
 3601 1364 2000     		movs	r0, r4
 3602 1366 FFF7FEFF 		bl	sprintf
 3603              	.LVL458:
 257:Src/cmd.c     ****         SERIAL_WRITE("POWER 704 Output: 0x%04x\n", State.POWER_PID_704_Output);
 3604              		.loc 1 257 9 view .LVU554
 3605 136a 82B2     		uxth	r2, r0
 3606 136c 3300     		movs	r3, r6
 3607 136e 2100     		movs	r1, r4
 3608 1370 2800     		movs	r0, r5
 3609              	.LVL459:
ARM GAS  C:\Users\matil\AppData\Local\Temp\ccjdhBtu.s 			page 83


 257:Src/cmd.c     ****         SERIAL_WRITE("POWER 704 Output: 0x%04x\n", State.POWER_PID_704_Output);
 3610              		.loc 1 257 9 is_stmt 0 view .LVU555
 3611 1372 FFF7FEFF 		bl	HAL_UART_Transmit
 3612              	.LVL460:
 3613              	.LBE107:
 257:Src/cmd.c     ****         SERIAL_WRITE("POWER 704 Output: 0x%04x\n", State.POWER_PID_704_Output);
 3614              		.loc 1 257 83 is_stmt 1 view .LVU556
 3615              	.LBB108:
 258:Src/cmd.c     ****         SERIAL_WRITE("POWER 704 error: %i\n", State.ADC_ValuesFiltered[RF_POWER_AMP704] - State.POW
 3616              		.loc 1 258 9 view .LVU557
 3617 1376 0197     		str	r7, [sp, #4]
 3618 1378 6022     		movs	r2, #96
 3619 137a 0021     		movs	r1, #0
 3620 137c 02A8     		add	r0, sp, #8
 3621 137e FFF7FEFF 		bl	memset
 3622              	.LVL461:
 258:Src/cmd.c     ****         SERIAL_WRITE("POWER 704 error: %i\n", State.ADC_ValuesFiltered[RF_POWER_AMP704] - State.POW
 3623              		.loc 1 258 9 view .LVU558
 3624 1382 5E4B     		ldr	r3, .L59+8
 3625 1384 4246     		mov	r2, r8
 3626 1386 D258     		ldr	r2, [r2, r3]
 3627 1388 5D49     		ldr	r1, .L59+12
 3628 138a 2000     		movs	r0, r4
 3629 138c FFF7FEFF 		bl	sprintf
 3630              	.LVL462:
 258:Src/cmd.c     ****         SERIAL_WRITE("POWER 704 error: %i\n", State.ADC_ValuesFiltered[RF_POWER_AMP704] - State.POW
 3631              		.loc 1 258 9 view .LVU559
 3632 1390 82B2     		uxth	r2, r0
 3633 1392 3300     		movs	r3, r6
 3634 1394 2100     		movs	r1, r4
 3635 1396 2800     		movs	r0, r5
 3636              	.LVL463:
 258:Src/cmd.c     ****         SERIAL_WRITE("POWER 704 error: %i\n", State.ADC_ValuesFiltered[RF_POWER_AMP704] - State.POW
 3637              		.loc 1 258 9 is_stmt 0 view .LVU560
 3638 1398 FFF7FEFF 		bl	HAL_UART_Transmit
 3639              	.LVL464:
 3640              	.LBE108:
 258:Src/cmd.c     ****         SERIAL_WRITE("POWER 704 error: %i\n", State.ADC_ValuesFiltered[RF_POWER_AMP704] - State.POW
 3641              		.loc 1 258 79 is_stmt 1 view .LVU561
 3642              	.LBB109:
 259:Src/cmd.c     ****         SERIAL_WRITE("POWER 704: 0x%06x\n", State.ADC_ValuesFiltered[RF_POWER_AMP704]);
 3643              		.loc 1 259 9 view .LVU562
 3644 139c 0197     		str	r7, [sp, #4]
 3645 139e 6022     		movs	r2, #96
 3646 13a0 0021     		movs	r1, #0
 3647 13a2 02A8     		add	r0, sp, #8
 3648 13a4 FFF7FEFF 		bl	memset
 3649              	.LVL465:
 259:Src/cmd.c     ****         SERIAL_WRITE("POWER 704: 0x%06x\n", State.ADC_ValuesFiltered[RF_POWER_AMP704]);
 3650              		.loc 1 259 9 view .LVU563
 3651 13a8 9722     		movs	r2, #151
 3652 13aa D200     		lsls	r2, r2, #3
 3653 13ac 9146     		mov	r9, r2
 3654 13ae 4246     		mov	r2, r8
 3655 13b0 5146     		mov	r1, r10
 3656 13b2 5258     		ldr	r2, [r2, r1]
 3657 13b4 4146     		mov	r1, r8
ARM GAS  C:\Users\matil\AppData\Local\Temp\ccjdhBtu.s 			page 84


 3658 13b6 4846     		mov	r0, r9
 3659 13b8 0958     		ldr	r1, [r1, r0]
 3660 13ba 8A1A     		subs	r2, r1, r2
 3661 13bc 5149     		ldr	r1, .L59+16
 3662 13be 2000     		movs	r0, r4
 3663 13c0 FFF7FEFF 		bl	sprintf
 3664              	.LVL466:
 259:Src/cmd.c     ****         SERIAL_WRITE("POWER 704: 0x%06x\n", State.ADC_ValuesFiltered[RF_POWER_AMP704]);
 3665              		.loc 1 259 9 view .LVU564
 3666 13c4 82B2     		uxth	r2, r0
 3667 13c6 3300     		movs	r3, r6
 3668 13c8 2100     		movs	r1, r4
 3669 13ca 2800     		movs	r0, r5
 3670              	.LVL467:
 259:Src/cmd.c     ****         SERIAL_WRITE("POWER 704: 0x%06x\n", State.ADC_ValuesFiltered[RF_POWER_AMP704]);
 3671              		.loc 1 259 9 is_stmt 0 view .LVU565
 3672 13cc FFF7FEFF 		bl	HAL_UART_Transmit
 3673              	.LVL468:
 3674              	.LBE109:
 259:Src/cmd.c     ****         SERIAL_WRITE("POWER 704: 0x%06x\n", State.ADC_ValuesFiltered[RF_POWER_AMP704]);
 3675              		.loc 1 259 120 is_stmt 1 view .LVU566
 3676              	.LBB110:
 260:Src/cmd.c     **** 
 3677              		.loc 1 260 9 view .LVU567
 3678 13d0 0197     		str	r7, [sp, #4]
 3679 13d2 6022     		movs	r2, #96
 3680 13d4 0021     		movs	r1, #0
 3681 13d6 02A8     		add	r0, sp, #8
 3682 13d8 FFF7FEFF 		bl	memset
 3683              	.LVL469:
 260:Src/cmd.c     **** 
 3684              		.loc 1 260 9 view .LVU568
 3685 13dc 4246     		mov	r2, r8
 3686 13de 4946     		mov	r1, r9
 3687 13e0 5258     		ldr	r2, [r2, r1]
 3688 13e2 4949     		ldr	r1, .L59+20
 3689 13e4 2000     		movs	r0, r4
 3690 13e6 FFF7FEFF 		bl	sprintf
 3691              	.LVL470:
 260:Src/cmd.c     **** 
 3692              		.loc 1 260 9 view .LVU569
 3693 13ea 82B2     		uxth	r2, r0
 3694 13ec 3300     		movs	r3, r6
 3695 13ee 2100     		movs	r1, r4
 3696 13f0 2800     		movs	r0, r5
 3697              	.LVL471:
 260:Src/cmd.c     **** 
 3698              		.loc 1 260 9 is_stmt 0 view .LVU570
 3699 13f2 FFF7FEFF 		bl	HAL_UART_Transmit
 3700              	.LVL472:
 3701              	.LBE110:
 260:Src/cmd.c     **** 
 3702              		.loc 1 260 87 is_stmt 1 view .LVU571
 3703              	.LBB111:
 262:Src/cmd.c     **** 
 3704              		.loc 1 262 9 view .LVU572
 3705 13f6 0197     		str	r7, [sp, #4]
ARM GAS  C:\Users\matil\AppData\Local\Temp\ccjdhBtu.s 			page 85


 3706 13f8 6022     		movs	r2, #96
 3707 13fa 0021     		movs	r1, #0
 3708 13fc 02A8     		add	r0, sp, #8
 3709 13fe FFF7FEFF 		bl	memset
 3710              	.LVL473:
 262:Src/cmd.c     **** 
 3711              		.loc 1 262 9 view .LVU573
 3712 1402 0A23     		movs	r3, #10
 3713 1404 2380     		strh	r3, [r4]
 3714              	.LVL474:
 262:Src/cmd.c     **** 
 3715              		.loc 1 262 9 view .LVU574
 3716 1406 3300     		movs	r3, r6
 3717 1408 0122     		movs	r2, #1
 3718 140a 2100     		movs	r1, r4
 3719 140c 2800     		movs	r0, r5
 3720 140e FFF7FEFF 		bl	HAL_UART_Transmit
 3721              	.LVL475:
 3722              	.LBE111:
 264:Src/cmd.c     ****     }
 3723              		.loc 1 264 9 view .LVU575
 3724 1412 FFF70EF8 		bl	.L1	@ far jump
 3725              	.LVL476:
 3726              	.L6:
 274:Src/cmd.c     ****         HAL_GPIO_WritePin(BOOTLOADER_GPIO_Port, BOOTLOADER_Pin, 1);
 3727              		.loc 1 274 9 view .LVU576
 274:Src/cmd.c     ****         HAL_GPIO_WritePin(BOOTLOADER_GPIO_Port, BOOTLOADER_Pin, 1);
 3728              		.loc 1 274 19 is_stmt 0 view .LVU577
 3729 1416 3D4B     		ldr	r3, .L59+24
 3730 1418 0022     		movs	r2, #0
 3731 141a 9A72     		strb	r2, [r3, #10]
 275:Src/cmd.c     ****         SERIAL_WRITE("bootloader available in 3s!\n");
 3732              		.loc 1 275 9 is_stmt 1 view .LVU578
 3733 141c 8021     		movs	r1, #128
 3734 141e A020     		movs	r0, #160
 3735 1420 0132     		adds	r2, r2, #1
 3736 1422 C901     		lsls	r1, r1, #7
 3737 1424 C005     		lsls	r0, r0, #23
 3738 1426 FFF7FEFF 		bl	HAL_GPIO_WritePin
 3739              	.LVL477:
 3740              	.LBB112:
 276:Src/cmd.c     ****         HAL_Delay(1000);
 3741              		.loc 1 276 9 view .LVU579
 3742 142a 01AC     		add	r4, sp, #4
 3743 142c 6022     		movs	r2, #96
 3744 142e 0021     		movs	r1, #0
 3745 1430 02A8     		add	r0, sp, #8
 3746 1432 FFF7FEFF 		bl	memset
 3747              	.LVL478:
 276:Src/cmd.c     ****         HAL_Delay(1000);
 3748              		.loc 1 276 9 view .LVU580
 3749 1436 364B     		ldr	r3, .L59+28
 3750 1438 2200     		movs	r2, r4
 3751 143a 23CB     		ldmia	r3!, {r0, r1, r5}
 3752 143c 23C2     		stmia	r2!, {r0, r1, r5}
 3753 143e 23CB     		ldmia	r3!, {r0, r1, r5}
 3754 1440 23C2     		stmia	r2!, {r0, r1, r5}
ARM GAS  C:\Users\matil\AppData\Local\Temp\ccjdhBtu.s 			page 86


 3755 1442 1968     		ldr	r1, [r3]
 3756 1444 1160     		str	r1, [r2]
 3757 1446 1B79     		ldrb	r3, [r3, #4]
 3758 1448 1371     		strb	r3, [r2, #4]
 3759              	.LVL479:
 276:Src/cmd.c     ****         HAL_Delay(1000);
 3760              		.loc 1 276 9 view .LVU581
 3761 144a FA25     		movs	r5, #250
 3762 144c AD00     		lsls	r5, r5, #2
 3763 144e 314E     		ldr	r6, .L59+32
 3764 1450 2B00     		movs	r3, r5
 3765 1452 1C22     		movs	r2, #28
 3766 1454 2100     		movs	r1, r4
 3767 1456 3000     		movs	r0, r6
 3768 1458 FFF7FEFF 		bl	HAL_UART_Transmit
 3769              	.LVL480:
 3770              	.LBE112:
 276:Src/cmd.c     ****         HAL_Delay(1000);
 3771              		.loc 1 276 54 view .LVU582
 277:Src/cmd.c     ****         SERIAL_WRITE("bootloader available in 2s!\n");
 3772              		.loc 1 277 9 view .LVU583
 3773 145c 2800     		movs	r0, r5
 3774 145e FFF7FEFF 		bl	HAL_Delay
 3775              	.LVL481:
 3776              	.LBB113:
 278:Src/cmd.c     ****         HAL_Delay(1000);
 3777              		.loc 1 278 9 view .LVU584
 3778 1462 6022     		movs	r2, #96
 3779 1464 0021     		movs	r1, #0
 3780 1466 02A8     		add	r0, sp, #8
 3781 1468 FFF7FEFF 		bl	memset
 3782              	.LVL482:
 278:Src/cmd.c     ****         HAL_Delay(1000);
 3783              		.loc 1 278 9 view .LVU585
 3784 146c 2A4B     		ldr	r3, .L59+36
 3785 146e 2200     		movs	r2, r4
 3786 1470 83CB     		ldmia	r3!, {r0, r1, r7}
 3787 1472 83C2     		stmia	r2!, {r0, r1, r7}
 3788 1474 83CB     		ldmia	r3!, {r0, r1, r7}
 3789 1476 83C2     		stmia	r2!, {r0, r1, r7}
 3790 1478 1968     		ldr	r1, [r3]
 3791 147a 1160     		str	r1, [r2]
 3792 147c 1B79     		ldrb	r3, [r3, #4]
 3793 147e 1371     		strb	r3, [r2, #4]
 3794              	.LVL483:
 278:Src/cmd.c     ****         HAL_Delay(1000);
 3795              		.loc 1 278 9 view .LVU586
 3796 1480 2B00     		movs	r3, r5
 3797 1482 1C22     		movs	r2, #28
 3798 1484 2100     		movs	r1, r4
 3799 1486 3000     		movs	r0, r6
 3800 1488 FFF7FEFF 		bl	HAL_UART_Transmit
 3801              	.LVL484:
 3802              	.LBE113:
 278:Src/cmd.c     ****         HAL_Delay(1000);
 3803              		.loc 1 278 54 view .LVU587
 279:Src/cmd.c     ****         SERIAL_WRITE("bootloader available in 1s!\n");
ARM GAS  C:\Users\matil\AppData\Local\Temp\ccjdhBtu.s 			page 87


 3804              		.loc 1 279 9 view .LVU588
 3805 148c 2800     		movs	r0, r5
 3806 148e FFF7FEFF 		bl	HAL_Delay
 3807              	.LVL485:
 3808              	.LBB114:
 280:Src/cmd.c     ****         HAL_Delay(1000);
 3809              		.loc 1 280 9 view .LVU589
 3810 1492 6022     		movs	r2, #96
 3811 1494 0021     		movs	r1, #0
 3812 1496 02A8     		add	r0, sp, #8
 3813 1498 FFF7FEFF 		bl	memset
 3814              	.LVL486:
 280:Src/cmd.c     ****         HAL_Delay(1000);
 3815              		.loc 1 280 9 view .LVU590
 3816 149c 1F4B     		ldr	r3, .L59+40
 3817 149e 2200     		movs	r2, r4
 3818 14a0 83CB     		ldmia	r3!, {r0, r1, r7}
 3819 14a2 83C2     		stmia	r2!, {r0, r1, r7}
 3820 14a4 83CB     		ldmia	r3!, {r0, r1, r7}
 3821 14a6 83C2     		stmia	r2!, {r0, r1, r7}
 3822 14a8 1968     		ldr	r1, [r3]
 3823 14aa 1160     		str	r1, [r2]
 3824 14ac 1B79     		ldrb	r3, [r3, #4]
 3825 14ae 1371     		strb	r3, [r2, #4]
 3826              	.LVL487:
 280:Src/cmd.c     ****         HAL_Delay(1000);
 3827              		.loc 1 280 9 view .LVU591
 3828 14b0 2B00     		movs	r3, r5
 3829 14b2 1C22     		movs	r2, #28
 3830 14b4 2100     		movs	r1, r4
 3831 14b6 3000     		movs	r0, r6
 3832 14b8 FFF7FEFF 		bl	HAL_UART_Transmit
 3833              	.LVL488:
 3834              	.LBE114:
 280:Src/cmd.c     ****         HAL_Delay(1000);
 3835              		.loc 1 280 54 view .LVU592
 281:Src/cmd.c     ****         SERIAL_WRITE("bootloader available until reset\n");
 3836              		.loc 1 281 9 view .LVU593
 3837 14bc 2800     		movs	r0, r5
 3838 14be FFF7FEFF 		bl	HAL_Delay
 3839              	.LVL489:
 3840              	.LBB115:
 282:Src/cmd.c     ****         HAL_NVIC_SystemReset();
 3841              		.loc 1 282 9 view .LVU594
 3842 14c2 6022     		movs	r2, #96
 3843 14c4 0021     		movs	r1, #0
 3844 14c6 02A8     		add	r0, sp, #8
 3845 14c8 FFF7FEFF 		bl	memset
 3846              	.LVL490:
 282:Src/cmd.c     ****         HAL_NVIC_SystemReset();
 3847              		.loc 1 282 9 view .LVU595
 3848 14cc 144B     		ldr	r3, .L59+44
 3849 14ce 2200     		movs	r2, r4
 3850 14d0 83CB     		ldmia	r3!, {r0, r1, r7}
 3851 14d2 83C2     		stmia	r2!, {r0, r1, r7}
 3852 14d4 83CB     		ldmia	r3!, {r0, r1, r7}
 3853 14d6 83C2     		stmia	r2!, {r0, r1, r7}
ARM GAS  C:\Users\matil\AppData\Local\Temp\ccjdhBtu.s 			page 88


 3854 14d8 03CB     		ldmia	r3!, {r0, r1}
 3855 14da 03C2     		stmia	r2!, {r0, r1}
 3856 14dc 1B88     		ldrh	r3, [r3]
 3857 14de 1380     		strh	r3, [r2]
 3858              	.LVL491:
 282:Src/cmd.c     ****         HAL_NVIC_SystemReset();
 3859              		.loc 1 282 9 view .LVU596
 3860 14e0 2B00     		movs	r3, r5
 3861 14e2 2122     		movs	r2, #33
 3862 14e4 2100     		movs	r1, r4
 3863 14e6 3000     		movs	r0, r6
 3864 14e8 FFF7FEFF 		bl	HAL_UART_Transmit
 3865              	.LVL492:
 3866              	.LBE115:
 282:Src/cmd.c     ****         HAL_NVIC_SystemReset();
 3867              		.loc 1 282 59 view .LVU597
 283:Src/cmd.c     **** 
 3868              		.loc 1 283 9 view .LVU598
 3869 14ec FFF7FEFF 		bl	HAL_NVIC_SystemReset
 3870              	.LVL493:
 285:Src/cmd.c     ****     }
 3871              		.loc 1 285 9 view .LVU599
 3872 14f0 FEF79FFF 		bl	.L1	@ far jump
 3873              	.L60:
 3874              		.align	2
 3875              	.L59:
 3876 14f4 D0030000 		.word	.LC108
 3877 14f8 E4030000 		.word	.LC110
 3878 14fc A4050000 		.word	1444
 3879 1500 00040000 		.word	.LC112
 3880 1504 1C040000 		.word	.LC114
 3881 1508 34040000 		.word	.LC116
 3882 150c 00000000 		.word	State
 3883 1510 54040000 		.word	.LC120
 3884 1514 00000000 		.word	huart2
 3885 1518 74040000 		.word	.LC122
 3886 151c 94040000 		.word	.LC124
 3887 1520 B4040000 		.word	.LC126
 3888              	.LVL494:
 3889              	.L4:
 3890              	.LBB116:
 289:Src/cmd.c     ****         SERIAL_WRITE("%d\n", State.TEMP_PID_DIR);
 3891              		.loc 1 289 9 view .LVU600
 3892 1524 01AC     		add	r4, sp, #4
 3893 1526 6022     		movs	r2, #96
 3894 1528 0021     		movs	r1, #0
 3895 152a 02A8     		add	r0, sp, #8
 3896 152c FFF7FEFF 		bl	memset
 3897              	.LVL495:
 289:Src/cmd.c     ****         SERIAL_WRITE("%d\n", State.TEMP_PID_DIR);
 3898              		.loc 1 289 9 view .LVU601
 3899 1530 9A4B     		ldr	r3, .L61
 3900 1532 1A68     		ldr	r2, [r3]
 3901 1534 0192     		str	r2, [sp, #4]
 3902 1536 9A88     		ldrh	r2, [r3, #4]
 3903 1538 A280     		strh	r2, [r4, #4]
 3904 153a 9B79     		ldrb	r3, [r3, #6]
ARM GAS  C:\Users\matil\AppData\Local\Temp\ccjdhBtu.s 			page 89


 3905 153c A371     		strb	r3, [r4, #6]
 3906              	.LVL496:
 289:Src/cmd.c     ****         SERIAL_WRITE("%d\n", State.TEMP_PID_DIR);
 3907              		.loc 1 289 9 view .LVU602
 3908 153e FA25     		movs	r5, #250
 3909 1540 AD00     		lsls	r5, r5, #2
 3910 1542 974E     		ldr	r6, .L61+4
 3911 1544 2B00     		movs	r3, r5
 3912 1546 0622     		movs	r2, #6
 3913 1548 2100     		movs	r1, r4
 3914 154a 3000     		movs	r0, r6
 3915 154c FFF7FEFF 		bl	HAL_UART_Transmit
 3916              	.LVL497:
 3917              	.LBE116:
 289:Src/cmd.c     ****         SERIAL_WRITE("%d\n", State.TEMP_PID_DIR);
 3918              		.loc 1 289 32 view .LVU603
 3919              	.LBB117:
 290:Src/cmd.c     ****         SERIAL_WRITE("PWM: \t");
 3920              		.loc 1 290 9 view .LVU604
 3921 1550 0027     		movs	r7, #0
 3922 1552 0197     		str	r7, [sp, #4]
 3923 1554 6022     		movs	r2, #96
 3924 1556 0021     		movs	r1, #0
 3925 1558 02A8     		add	r0, sp, #8
 3926 155a FFF7FEFF 		bl	memset
 3927              	.LVL498:
 290:Src/cmd.c     ****         SERIAL_WRITE("PWM: \t");
 3928              		.loc 1 290 9 view .LVU605
 3929 155e 914B     		ldr	r3, .L61+8
 3930 1560 9846     		mov	r8, r3
 3931 1562 BE23     		movs	r3, #190
 3932 1564 DB00     		lsls	r3, r3, #3
 3933 1566 4246     		mov	r2, r8
 3934 1568 D258     		ldr	r2, [r2, r3]
 3935 156a 8F4B     		ldr	r3, .L61+12
 3936 156c 9946     		mov	r9, r3
 3937 156e 1900     		movs	r1, r3
 3938 1570 2000     		movs	r0, r4
 3939 1572 FFF7FEFF 		bl	sprintf
 3940              	.LVL499:
 290:Src/cmd.c     ****         SERIAL_WRITE("PWM: \t");
 3941              		.loc 1 290 9 view .LVU606
 3942 1576 82B2     		uxth	r2, r0
 3943 1578 2B00     		movs	r3, r5
 3944 157a 2100     		movs	r1, r4
 3945 157c 3000     		movs	r0, r6
 3946              	.LVL500:
 290:Src/cmd.c     ****         SERIAL_WRITE("PWM: \t");
 3947              		.loc 1 290 9 is_stmt 0 view .LVU607
 3948 157e FFF7FEFF 		bl	HAL_UART_Transmit
 3949              	.LVL501:
 3950              	.LBE117:
 290:Src/cmd.c     ****         SERIAL_WRITE("PWM: \t");
 3951              		.loc 1 290 49 is_stmt 1 view .LVU608
 3952              	.LBB118:
 291:Src/cmd.c     ****         SERIAL_WRITE("%d\n", State.TEMP_PID_PWM);
 3953              		.loc 1 291 9 view .LVU609
ARM GAS  C:\Users\matil\AppData\Local\Temp\ccjdhBtu.s 			page 90


 3954 1582 6022     		movs	r2, #96
 3955 1584 0021     		movs	r1, #0
 3956 1586 02A8     		add	r0, sp, #8
 3957 1588 FFF7FEFF 		bl	memset
 3958              	.LVL502:
 291:Src/cmd.c     ****         SERIAL_WRITE("%d\n", State.TEMP_PID_PWM);
 3959              		.loc 1 291 9 view .LVU610
 3960 158c 874B     		ldr	r3, .L61+16
 3961 158e 1A68     		ldr	r2, [r3]
 3962 1590 0192     		str	r2, [sp, #4]
 3963 1592 9A88     		ldrh	r2, [r3, #4]
 3964 1594 A280     		strh	r2, [r4, #4]
 3965 1596 9B79     		ldrb	r3, [r3, #6]
 3966 1598 A371     		strb	r3, [r4, #6]
 3967              	.LVL503:
 291:Src/cmd.c     ****         SERIAL_WRITE("%d\n", State.TEMP_PID_PWM);
 3968              		.loc 1 291 9 view .LVU611
 3969 159a 2B00     		movs	r3, r5
 3970 159c 0622     		movs	r2, #6
 3971 159e 2100     		movs	r1, r4
 3972 15a0 3000     		movs	r0, r6
 3973 15a2 FFF7FEFF 		bl	HAL_UART_Transmit
 3974              	.LVL504:
 3975              	.LBE118:
 291:Src/cmd.c     ****         SERIAL_WRITE("%d\n", State.TEMP_PID_PWM);
 3976              		.loc 1 291 32 view .LVU612
 3977              	.LBB119:
 292:Src/cmd.c     ****         SERIAL_WRITE("Temp: \t");
 3978              		.loc 1 292 9 view .LVU613
 3979 15a6 0197     		str	r7, [sp, #4]
 3980 15a8 6022     		movs	r2, #96
 3981 15aa 0021     		movs	r1, #0
 3982 15ac 02A8     		add	r0, sp, #8
 3983 15ae FFF7FEFF 		bl	memset
 3984              	.LVL505:
 292:Src/cmd.c     ****         SERIAL_WRITE("Temp: \t");
 3985              		.loc 1 292 9 view .LVU614
 3986 15b2 7F4B     		ldr	r3, .L61+20
 3987 15b4 4246     		mov	r2, r8
 3988 15b6 D258     		ldr	r2, [r2, r3]
 3989 15b8 4946     		mov	r1, r9
 3990 15ba 2000     		movs	r0, r4
 3991 15bc FFF7FEFF 		bl	sprintf
 3992              	.LVL506:
 292:Src/cmd.c     ****         SERIAL_WRITE("Temp: \t");
 3993              		.loc 1 292 9 view .LVU615
 3994 15c0 82B2     		uxth	r2, r0
 3995 15c2 2B00     		movs	r3, r5
 3996 15c4 2100     		movs	r1, r4
 3997 15c6 3000     		movs	r0, r6
 3998              	.LVL507:
 292:Src/cmd.c     ****         SERIAL_WRITE("Temp: \t");
 3999              		.loc 1 292 9 is_stmt 0 view .LVU616
 4000 15c8 FFF7FEFF 		bl	HAL_UART_Transmit
 4001              	.LVL508:
 4002              	.LBE119:
 292:Src/cmd.c     ****         SERIAL_WRITE("Temp: \t");
ARM GAS  C:\Users\matil\AppData\Local\Temp\ccjdhBtu.s 			page 91


 4003              		.loc 1 292 49 is_stmt 1 view .LVU617
 4004              	.LBB120:
 293:Src/cmd.c     ****         SERIAL_WRITE("%d.", Temperature() / 1000000);
 4005              		.loc 1 293 9 view .LVU618
 4006 15cc 6022     		movs	r2, #96
 4007 15ce 0021     		movs	r1, #0
 4008 15d0 02A8     		add	r0, sp, #8
 4009 15d2 FFF7FEFF 		bl	memset
 4010              	.LVL509:
 293:Src/cmd.c     ****         SERIAL_WRITE("%d.", Temperature() / 1000000);
 4011              		.loc 1 293 9 view .LVU619
 4012 15d6 774B     		ldr	r3, .L61+24
 4013 15d8 2200     		movs	r2, r4
 4014 15da 03CB     		ldmia	r3!, {r0, r1}
 4015 15dc 03C2     		stmia	r2!, {r0, r1}
 4016 15de 9346     		mov	fp, r2
 4017              	.LVL510:
 293:Src/cmd.c     ****         SERIAL_WRITE("%d.", Temperature() / 1000000);
 4018              		.loc 1 293 9 view .LVU620
 4019 15e0 2B00     		movs	r3, r5
 4020 15e2 0722     		movs	r2, #7
 4021 15e4 2100     		movs	r1, r4
 4022 15e6 3000     		movs	r0, r6
 4023 15e8 FFF7FEFF 		bl	HAL_UART_Transmit
 4024              	.LVL511:
 4025              	.LBE120:
 293:Src/cmd.c     ****         SERIAL_WRITE("%d.", Temperature() / 1000000);
 4026              		.loc 1 293 33 view .LVU621
 4027              	.LBB121:
 294:Src/cmd.c     ****         SERIAL_WRITE("%03u *C\n", abs(Temperature() / 1000) % 1000);
 4028              		.loc 1 294 9 view .LVU622
 4029 15ec 0197     		str	r7, [sp, #4]
 4030 15ee 6022     		movs	r2, #96
 4031 15f0 0021     		movs	r1, #0
 4032 15f2 02A8     		add	r0, sp, #8
 4033 15f4 FFF7FEFF 		bl	memset
 4034              	.LVL512:
 294:Src/cmd.c     ****         SERIAL_WRITE("%03u *C\n", abs(Temperature() / 1000) % 1000);
 4035              		.loc 1 294 9 view .LVU623
 4036 15f8 FFF7FEFF 		bl	Temperature
 4037              	.LVL513:
 4038 15fc 6E4A     		ldr	r2, .L61+28
 4039 15fe 0023     		movs	r3, #0
 4040 1600 FFF7FEFF 		bl	__aeabi_ldivmod
 4041              	.LVL514:
 4042 1604 0200     		movs	r2, r0
 4043 1606 0B00     		movs	r3, r1
 4044 1608 6C49     		ldr	r1, .L61+32
 4045 160a 2000     		movs	r0, r4
 4046 160c FFF7FEFF 		bl	sprintf
 4047              	.LVL515:
 294:Src/cmd.c     ****         SERIAL_WRITE("%03u *C\n", abs(Temperature() / 1000) % 1000);
 4048              		.loc 1 294 9 view .LVU624
 4049 1610 82B2     		uxth	r2, r0
 4050 1612 2B00     		movs	r3, r5
 4051 1614 2100     		movs	r1, r4
 4052 1616 3000     		movs	r0, r6
ARM GAS  C:\Users\matil\AppData\Local\Temp\ccjdhBtu.s 			page 92


 4053              	.LVL516:
 294:Src/cmd.c     ****         SERIAL_WRITE("%03u *C\n", abs(Temperature() / 1000) % 1000);
 4054              		.loc 1 294 9 is_stmt 0 view .LVU625
 4055 1618 FFF7FEFF 		bl	HAL_UART_Transmit
 4056              	.LVL517:
 4057              	.LBE121:
 294:Src/cmd.c     ****         SERIAL_WRITE("%03u *C\n", abs(Temperature() / 1000) % 1000);
 4058              		.loc 1 294 53 is_stmt 1 view .LVU626
 4059              	.LBB122:
 295:Src/cmd.c     ****         SERIAL_WRITE("Setpoint: \t");
 4060              		.loc 1 295 9 view .LVU627
 4061 161c 0197     		str	r7, [sp, #4]
 4062 161e 6022     		movs	r2, #96
 4063 1620 0021     		movs	r1, #0
 4064 1622 02A8     		add	r0, sp, #8
 4065 1624 FFF7FEFF 		bl	memset
 4066              	.LVL518:
 295:Src/cmd.c     ****         SERIAL_WRITE("Setpoint: \t");
 4067              		.loc 1 295 9 view .LVU628
 4068 1628 FFF7FEFF 		bl	Temperature
 4069              	.LVL519:
 4070 162c FA22     		movs	r2, #250
 4071 162e 9200     		lsls	r2, r2, #2
 4072 1630 0023     		movs	r3, #0
 4073 1632 FFF7FEFF 		bl	__aeabi_ldivmod
 4074              	.LVL520:
 4075 1636 C317     		asrs	r3, r0, #31
 4076 1638 C018     		adds	r0, r0, r3
 4077 163a 5840     		eors	r0, r3
 4078 163c 2900     		movs	r1, r5
 4079 163e FFF7FEFF 		bl	__aeabi_idivmod
 4080              	.LVL521:
 4081 1642 0A00     		movs	r2, r1
 4082 1644 5E49     		ldr	r1, .L61+36
 4083 1646 2000     		movs	r0, r4
 4084 1648 FFF7FEFF 		bl	sprintf
 4085              	.LVL522:
 295:Src/cmd.c     ****         SERIAL_WRITE("Setpoint: \t");
 4086              		.loc 1 295 9 view .LVU629
 4087 164c 2B00     		movs	r3, r5
 4088 164e 0722     		movs	r2, #7
 4089 1650 2100     		movs	r1, r4
 4090 1652 3000     		movs	r0, r6
 4091 1654 FFF7FEFF 		bl	HAL_UART_Transmit
 4092              	.LVL523:
 4093              	.LBE122:
 295:Src/cmd.c     ****         SERIAL_WRITE("Setpoint: \t");
 4094              		.loc 1 295 68 view .LVU630
 4095              	.LBB123:
 296:Src/cmd.c     ****         SERIAL_WRITE("%d.", State.TEMP_PID_SetPoint / 1000000);
 4096              		.loc 1 296 9 view .LVU631
 4097 1658 6022     		movs	r2, #96
 4098 165a 0021     		movs	r1, #0
 4099 165c 02A8     		add	r0, sp, #8
 4100 165e FFF7FEFF 		bl	memset
 4101              	.LVL524:
 296:Src/cmd.c     ****         SERIAL_WRITE("%d.", State.TEMP_PID_SetPoint / 1000000);
ARM GAS  C:\Users\matil\AppData\Local\Temp\ccjdhBtu.s 			page 93


 4102              		.loc 1 296 9 view .LVU632
 4103 1662 584B     		ldr	r3, .L61+40
 4104 1664 2200     		movs	r2, r4
 4105 1666 83CB     		ldmia	r3!, {r0, r1, r7}
 4106 1668 83C2     		stmia	r2!, {r0, r1, r7}
 4107              	.LVL525:
 296:Src/cmd.c     ****         SERIAL_WRITE("%d.", State.TEMP_PID_SetPoint / 1000000);
 4108              		.loc 1 296 9 view .LVU633
 4109 166a 2B00     		movs	r3, r5
 4110 166c 0B22     		movs	r2, #11
 4111 166e 2100     		movs	r1, r4
 4112 1670 3000     		movs	r0, r6
 4113 1672 FFF7FEFF 		bl	HAL_UART_Transmit
 4114              	.LVL526:
 4115              	.LBE123:
 296:Src/cmd.c     ****         SERIAL_WRITE("%d.", State.TEMP_PID_SetPoint / 1000000);
 4116              		.loc 1 296 37 view .LVU634
 4117              	.LBB124:
 297:Src/cmd.c     ****         SERIAL_WRITE("%03u *C\n", abs(State.TEMP_PID_SetPoint / 1000) % 1000);
 4118              		.loc 1 297 9 view .LVU635
 4119 1676 0027     		movs	r7, #0
 4120 1678 0197     		str	r7, [sp, #4]
 4121 167a 6022     		movs	r2, #96
 4122 167c 0021     		movs	r1, #0
 4123 167e 02A8     		add	r0, sp, #8
 4124 1680 FFF7FEFF 		bl	memset
 4125              	.LVL527:
 297:Src/cmd.c     ****         SERIAL_WRITE("%03u *C\n", abs(State.TEMP_PID_SetPoint / 1000) % 1000);
 4126              		.loc 1 297 9 view .LVU636
 4127 1684 BC23     		movs	r3, #188
 4128 1686 DB00     		lsls	r3, r3, #3
 4129 1688 9A46     		mov	r10, r3
 4130 168a 4B49     		ldr	r1, .L61+28
 4131 168c 4346     		mov	r3, r8
 4132 168e 5246     		mov	r2, r10
 4133 1690 9858     		ldr	r0, [r3, r2]
 4134 1692 FFF7FEFF 		bl	__aeabi_idiv
 4135              	.LVL528:
 4136 1696 0200     		movs	r2, r0
 4137 1698 4849     		ldr	r1, .L61+32
 4138 169a 2000     		movs	r0, r4
 4139 169c FFF7FEFF 		bl	sprintf
 4140              	.LVL529:
 297:Src/cmd.c     ****         SERIAL_WRITE("%03u *C\n", abs(State.TEMP_PID_SetPoint / 1000) % 1000);
 4141              		.loc 1 297 9 view .LVU637
 4142 16a0 82B2     		uxth	r2, r0
 4143 16a2 2B00     		movs	r3, r5
 4144 16a4 2100     		movs	r1, r4
 4145 16a6 3000     		movs	r0, r6
 4146              	.LVL530:
 297:Src/cmd.c     ****         SERIAL_WRITE("%03u *C\n", abs(State.TEMP_PID_SetPoint / 1000) % 1000);
 4147              		.loc 1 297 9 is_stmt 0 view .LVU638
 4148 16a8 FFF7FEFF 		bl	HAL_UART_Transmit
 4149              	.LVL531:
 4150              	.LBE124:
 297:Src/cmd.c     ****         SERIAL_WRITE("%03u *C\n", abs(State.TEMP_PID_SetPoint / 1000) % 1000);
 4151              		.loc 1 297 63 is_stmt 1 view .LVU639
ARM GAS  C:\Users\matil\AppData\Local\Temp\ccjdhBtu.s 			page 94


 4152              	.LBB125:
 298:Src/cmd.c     ****         SERIAL_WRITE("error P: \t");
 4153              		.loc 1 298 9 view .LVU640
 4154 16ac 0197     		str	r7, [sp, #4]
 4155 16ae 6022     		movs	r2, #96
 4156 16b0 0021     		movs	r1, #0
 4157 16b2 02A8     		add	r0, sp, #8
 4158 16b4 FFF7FEFF 		bl	memset
 4159              	.LVL532:
 298:Src/cmd.c     ****         SERIAL_WRITE("error P: \t");
 4160              		.loc 1 298 9 view .LVU641
 4161 16b8 4346     		mov	r3, r8
 4162 16ba 5246     		mov	r2, r10
 4163 16bc 9858     		ldr	r0, [r3, r2]
 4164 16be 2900     		movs	r1, r5
 4165 16c0 FFF7FEFF 		bl	__aeabi_idiv
 4166              	.LVL533:
 4167 16c4 C317     		asrs	r3, r0, #31
 4168 16c6 C018     		adds	r0, r0, r3
 4169 16c8 5840     		eors	r0, r3
 4170 16ca 2900     		movs	r1, r5
 4171 16cc FFF7FEFF 		bl	__aeabi_idivmod
 4172              	.LVL534:
 4173 16d0 0A00     		movs	r2, r1
 4174 16d2 3B49     		ldr	r1, .L61+36
 4175 16d4 2000     		movs	r0, r4
 4176 16d6 FFF7FEFF 		bl	sprintf
 4177              	.LVL535:
 298:Src/cmd.c     ****         SERIAL_WRITE("error P: \t");
 4178              		.loc 1 298 9 view .LVU642
 4179 16da 2B00     		movs	r3, r5
 4180 16dc 0722     		movs	r2, #7
 4181 16de 2100     		movs	r1, r4
 4182 16e0 3000     		movs	r0, r6
 4183 16e2 FFF7FEFF 		bl	HAL_UART_Transmit
 4184              	.LVL536:
 4185              	.LBE125:
 298:Src/cmd.c     ****         SERIAL_WRITE("error P: \t");
 4186              		.loc 1 298 78 view .LVU643
 4187              	.LBB126:
 299:Src/cmd.c     ****         SERIAL_WRITE("%d\n", State.TEMP_PID_P_Error);
 4188              		.loc 1 299 9 view .LVU644
 4189 16e6 6022     		movs	r2, #96
 4190 16e8 0021     		movs	r1, #0
 4191 16ea 02A8     		add	r0, sp, #8
 4192 16ec FFF7FEFF 		bl	memset
 4193              	.LVL537:
 299:Src/cmd.c     ****         SERIAL_WRITE("%d\n", State.TEMP_PID_P_Error);
 4194              		.loc 1 299 9 view .LVU645
 4195 16f0 354B     		ldr	r3, .L61+44
 4196 16f2 2200     		movs	r2, r4
 4197 16f4 03CB     		ldmia	r3!, {r0, r1}
 4198 16f6 03C2     		stmia	r2!, {r0, r1}
 4199 16f8 1A88     		ldrh	r2, [r3]
 4200 16fa 5946     		mov	r1, fp
 4201 16fc 0A80     		strh	r2, [r1]
 4202 16fe 9B78     		ldrb	r3, [r3, #2]
ARM GAS  C:\Users\matil\AppData\Local\Temp\ccjdhBtu.s 			page 95


 4203 1700 8B70     		strb	r3, [r1, #2]
 4204              	.LVL538:
 299:Src/cmd.c     ****         SERIAL_WRITE("%d\n", State.TEMP_PID_P_Error);
 4205              		.loc 1 299 9 view .LVU646
 4206 1702 2B00     		movs	r3, r5
 4207 1704 0A22     		movs	r2, #10
 4208 1706 2100     		movs	r1, r4
 4209 1708 3000     		movs	r0, r6
 4210 170a FFF7FEFF 		bl	HAL_UART_Transmit
 4211              	.LVL539:
 4212              	.LBE126:
 299:Src/cmd.c     ****         SERIAL_WRITE("%d\n", State.TEMP_PID_P_Error);
 4213              		.loc 1 299 36 view .LVU647
 4214              	.LBB127:
 300:Src/cmd.c     ****         SERIAL_WRITE("error I: \t");
 4215              		.loc 1 300 9 view .LVU648
 4216 170e 0197     		str	r7, [sp, #4]
 4217 1710 6022     		movs	r2, #96
 4218 1712 0021     		movs	r1, #0
 4219 1714 02A8     		add	r0, sp, #8
 4220 1716 FFF7FEFF 		bl	memset
 4221              	.LVL540:
 300:Src/cmd.c     ****         SERIAL_WRITE("error I: \t");
 4222              		.loc 1 300 9 view .LVU649
 4223 171a 2C4B     		ldr	r3, .L61+48
 4224 171c 4246     		mov	r2, r8
 4225 171e D258     		ldr	r2, [r2, r3]
 4226 1720 4946     		mov	r1, r9
 4227 1722 2000     		movs	r0, r4
 4228 1724 FFF7FEFF 		bl	sprintf
 4229              	.LVL541:
 300:Src/cmd.c     ****         SERIAL_WRITE("error I: \t");
 4230              		.loc 1 300 9 view .LVU650
 4231 1728 82B2     		uxth	r2, r0
 4232 172a 2B00     		movs	r3, r5
 4233 172c 2100     		movs	r1, r4
 4234 172e 3000     		movs	r0, r6
 4235              	.LVL542:
 300:Src/cmd.c     ****         SERIAL_WRITE("error I: \t");
 4236              		.loc 1 300 9 is_stmt 0 view .LVU651
 4237 1730 FFF7FEFF 		bl	HAL_UART_Transmit
 4238              	.LVL543:
 4239              	.LBE127:
 300:Src/cmd.c     ****         SERIAL_WRITE("error I: \t");
 4240              		.loc 1 300 53 is_stmt 1 view .LVU652
 4241              	.LBB128:
 301:Src/cmd.c     ****         SERIAL_WRITE("%d\n", State.TEMP_PID_I_Error);
 4242              		.loc 1 301 9 view .LVU653
 4243 1734 6022     		movs	r2, #96
 4244 1736 0021     		movs	r1, #0
 4245 1738 02A8     		add	r0, sp, #8
 4246 173a FFF7FEFF 		bl	memset
 4247              	.LVL544:
 301:Src/cmd.c     ****         SERIAL_WRITE("%d\n", State.TEMP_PID_I_Error);
 4248              		.loc 1 301 9 view .LVU654
 4249 173e 244B     		ldr	r3, .L61+52
 4250 1740 2200     		movs	r2, r4
ARM GAS  C:\Users\matil\AppData\Local\Temp\ccjdhBtu.s 			page 96


 4251 1742 03CB     		ldmia	r3!, {r0, r1}
 4252 1744 03C2     		stmia	r2!, {r0, r1}
 4253 1746 1A88     		ldrh	r2, [r3]
 4254 1748 5946     		mov	r1, fp
 4255 174a 0A80     		strh	r2, [r1]
 4256 174c 9B78     		ldrb	r3, [r3, #2]
 4257 174e 8B70     		strb	r3, [r1, #2]
 4258              	.LVL545:
 301:Src/cmd.c     ****         SERIAL_WRITE("%d\n", State.TEMP_PID_I_Error);
 4259              		.loc 1 301 9 view .LVU655
 4260 1750 2B00     		movs	r3, r5
 4261 1752 0A22     		movs	r2, #10
 4262 1754 2100     		movs	r1, r4
 4263 1756 3000     		movs	r0, r6
 4264 1758 FFF7FEFF 		bl	HAL_UART_Transmit
 4265              	.LVL546:
 4266              	.LBE128:
 301:Src/cmd.c     ****         SERIAL_WRITE("%d\n", State.TEMP_PID_I_Error);
 4267              		.loc 1 301 36 view .LVU656
 4268              	.LBB129:
 302:Src/cmd.c     ****         if (!State.cmdLoop)
 4269              		.loc 1 302 9 view .LVU657
 4270 175c 0197     		str	r7, [sp, #4]
 4271 175e 6022     		movs	r2, #96
 4272 1760 0021     		movs	r1, #0
 4273 1762 02A8     		add	r0, sp, #8
 4274 1764 FFF7FEFF 		bl	memset
 4275              	.LVL547:
 302:Src/cmd.c     ****         if (!State.cmdLoop)
 4276              		.loc 1 302 9 view .LVU658
 4277 1768 BD23     		movs	r3, #189
 4278 176a DB00     		lsls	r3, r3, #3
 4279 176c 4246     		mov	r2, r8
 4280 176e D258     		ldr	r2, [r2, r3]
 4281 1770 4946     		mov	r1, r9
 4282 1772 2000     		movs	r0, r4
 4283 1774 FFF7FEFF 		bl	sprintf
 4284              	.LVL548:
 302:Src/cmd.c     ****         if (!State.cmdLoop)
 4285              		.loc 1 302 9 view .LVU659
 4286 1778 82B2     		uxth	r2, r0
 4287 177a 2B00     		movs	r3, r5
 4288 177c 2100     		movs	r1, r4
 4289 177e 3000     		movs	r0, r6
 4290              	.LVL549:
 302:Src/cmd.c     ****         if (!State.cmdLoop)
 4291              		.loc 1 302 9 is_stmt 0 view .LVU660
 4292 1780 FFF7FEFF 		bl	HAL_UART_Transmit
 4293              	.LVL550:
 4294              	.LBE129:
 302:Src/cmd.c     ****         if (!State.cmdLoop)
 4295              		.loc 1 302 53 is_stmt 1 view .LVU661
 303:Src/cmd.c     ****         {
 4296              		.loc 1 303 9 view .LVU662
 303:Src/cmd.c     ****         {
 4297              		.loc 1 303 19 is_stmt 0 view .LVU663
 4298 1784 4346     		mov	r3, r8
ARM GAS  C:\Users\matil\AppData\Local\Temp\ccjdhBtu.s 			page 97


 4299 1786 DB7A     		ldrb	r3, [r3, #11]
 303:Src/cmd.c     ****         {
 4300              		.loc 1 303 12 view .LVU664
 4301 1788 002B     		cmp	r3, #0
 4302 178a 01D0     		beq	.LCB3865
 4303 178c FEF751FE 		bl	.L1	@far jump
 4304              	.LCB3865:
 305:Src/cmd.c     ****         }
 4305              		.loc 1 305 13 is_stmt 1 view .LVU665
 305:Src/cmd.c     ****         }
 4306              		.loc 1 305 23 is_stmt 0 view .LVU666
 4307 1790 044B     		ldr	r3, .L61+8
 4308 1792 0022     		movs	r2, #0
 4309 1794 9A72     		strb	r2, [r3, #10]
 4310              		.loc 1 314 1 view .LVU667
 4311 1796 FEF74CFE 		bl	.L1	@ far jump
 4312              	.L62:
 4313 179a C046     		.align	2
 4314              	.L61:
 4315 179c D8040000 		.word	.LC128
 4316 17a0 00000000 		.word	huart2
 4317 17a4 00000000 		.word	State
 4318 17a8 E0040000 		.word	.LC130
 4319 17ac E4040000 		.word	.LC132
 4320 17b0 EC050000 		.word	1516
 4321 17b4 EC040000 		.word	.LC134
 4322 17b8 40420F00 		.word	1000000
 4323 17bc F4040000 		.word	.LC136
 4324 17c0 70010000 		.word	.LC38
 4325 17c4 F8040000 		.word	.LC138
 4326 17c8 04050000 		.word	.LC140
 4327 17cc E4050000 		.word	1508
 4328 17d0 10050000 		.word	.LC142
 4329              		.cfi_endproc
 4330              	.LFE284:
 4332              		.text
 4333              	.Letext0:
 4334              		.file 2 "c:\\gnu tools arm embedded\\arm-none-eabi\\include\\machine\\_default_types.h"
 4335              		.file 3 "c:\\gnu tools arm embedded\\arm-none-eabi\\include\\sys\\_stdint.h"
 4336              		.file 4 "Drivers/CMSIS/Device/ST/STM32G0xx/Include/system_stm32g0xx.h"
 4337              		.file 5 "Drivers/CMSIS/Device/ST/STM32G0xx/Include/stm32g071xx.h"
 4338              		.file 6 "Drivers/STM32G0xx_HAL_Driver/Inc/stm32g0xx_hal_def.h"
 4339              		.file 7 "Drivers/STM32G0xx_HAL_Driver/Inc/stm32g0xx_hal_dma.h"
 4340              		.file 8 "Drivers/STM32G0xx_HAL_Driver/Inc/stm32g0xx_hal_flash.h"
 4341              		.file 9 "Drivers/STM32G0xx_HAL_Driver/Inc/stm32g0xx_hal_spi.h"
 4342              		.file 10 "Drivers/STM32G0xx_HAL_Driver/Inc/stm32g0xx_hal_uart.h"
 4343              		.file 11 "Drivers/STM32G0xx_HAL_Driver/Inc/stm32g0xx_hal.h"
 4344              		.file 12 "c:\\gnu tools arm embedded\\arm-none-eabi\\include\\sys\\lock.h"
 4345              		.file 13 "c:\\gnu tools arm embedded\\arm-none-eabi\\include\\sys\\_types.h"
 4346              		.file 14 "c:\\gnu tools arm embedded\\lib\\gcc\\arm-none-eabi\\9.2.1\\include\\stddef.h"
 4347              		.file 15 "c:\\gnu tools arm embedded\\arm-none-eabi\\include\\sys\\reent.h"
 4348              		.file 16 "Inc/usart.h"
 4349              		.file 17 "Inc/state.h"
 4350              		.file 18 "Inc/spi.h"
 4351              		.file 19 "c:\\gnu tools arm embedded\\arm-none-eabi\\include\\stdlib.h"
 4352              		.file 20 "Drivers/STM32G0xx_HAL_Driver/Inc/stm32g0xx_hal_gpio.h"
 4353              		.file 21 "Inc/ADC.h"
ARM GAS  C:\Users\matil\AppData\Local\Temp\ccjdhBtu.s 			page 98


 4354              		.file 22 "c:\\gnu tools arm embedded\\arm-none-eabi\\include\\stdio.h"
 4355              		.file 23 "Inc/PID.h"
 4356              		.file 24 "Inc/DAC.h"
 4357              		.file 25 "Drivers/STM32G0xx_HAL_Driver/Inc/stm32g0xx_hal_cortex.h"
 4358              		.file 26 "<built-in>"
ARM GAS  C:\Users\matil\AppData\Local\Temp\ccjdhBtu.s 			page 99


DEFINED SYMBOLS
                            *ABS*:00000000 cmd.c
C:\Users\matil\AppData\Local\Temp\ccjdhBtu.s:16     .rodata.cmd.str1.4:00000000 $d
C:\Users\matil\AppData\Local\Temp\ccjdhBtu.s:232    .text.cmd:00000000 $t
C:\Users\matil\AppData\Local\Temp\ccjdhBtu.s:240    .text.cmd:00000000 cmd
C:\Users\matil\AppData\Local\Temp\ccjdhBtu.s:295    .rodata.cmd:00000000 $d
C:\Users\matil\AppData\Local\Temp\ccjdhBtu.s:991    .text.cmd:0000038c $d
C:\Users\matil\AppData\Local\Temp\ccjdhBtu.s:1016   .text.cmd:000003d8 $t
C:\Users\matil\AppData\Local\Temp\ccjdhBtu.s:1389   .text.cmd:000005b8 $d
C:\Users\matil\AppData\Local\Temp\ccjdhBtu.s:1405   .text.cmd:000005e8 $t
C:\Users\matil\AppData\Local\Temp\ccjdhBtu.s:2073   .text.cmd:000009f0 $d
C:\Users\matil\AppData\Local\Temp\ccjdhBtu.s:2087   .text.cmd:00000a24 $t
C:\Users\matil\AppData\Local\Temp\ccjdhBtu.s:2749   .text.cmd:00000e24 $d
C:\Users\matil\AppData\Local\Temp\ccjdhBtu.s:2760   .text.cmd:00000e4c $t
C:\Users\matil\AppData\Local\Temp\ccjdhBtu.s:2855   .text.cmd:00000ed0 $d
C:\Users\matil\AppData\Local\Temp\ccjdhBtu.s:2865   .text.cmd:00000ee0 $t
C:\Users\matil\AppData\Local\Temp\ccjdhBtu.s:3541   .text.cmd:000012d0 $d
C:\Users\matil\AppData\Local\Temp\ccjdhBtu.s:3567   .text.cmd:00001330 $t
C:\Users\matil\AppData\Local\Temp\ccjdhBtu.s:3876   .text.cmd:000014f4 $d
C:\Users\matil\AppData\Local\Temp\ccjdhBtu.s:3892   .text.cmd:00001524 $t
C:\Users\matil\AppData\Local\Temp\ccjdhBtu.s:4315   .text.cmd:0000179c $d

UNDEFINED SYMBOLS
__aeabi_lmul
__aeabi_uldivmod
__aeabi_ldivmod
__aeabi_idivmod
__aeabi_idiv
HAL_GPIO_TogglePin
memset
HAL_UART_Transmit
HAL_Delay
ADC_ID
sprintf
ADC_DATA_READY_EXTI_deInit
HAL_SPI_MspInit
ADC_CMD
ADC_SPI_READ_8
ADC_SPI_READ_16
ADC_SPI_READ_24
State
huart2
hspi2
HAL_SPI_MspDeInit
ADC_DATA_READY_EXTI_Init
Temperature
DAC_test
Phase
Relative_Power
RMS_Power
Phase_u
HAL_GPIO_WritePin
HAL_NVIC_SystemReset
