ARM GAS  C:\Users\matil\AppData\Local\Temp\cce1w2PW.s 			page 1


   1              		.cpu cortex-m0plus
   2              		.eabi_attribute 20, 1
   3              		.eabi_attribute 21, 1
   4              		.eabi_attribute 23, 3
   5              		.eabi_attribute 24, 1
   6              		.eabi_attribute 25, 1
   7              		.eabi_attribute 26, 1
   8              		.eabi_attribute 30, 1
   9              		.eabi_attribute 34, 0
  10              		.eabi_attribute 18, 4
  11              		.file	"cmd.c"
  12              		.text
  13              	.Ltext0:
  14              		.cfi_sections	.debug_frame
  15              		.section	.rodata.cmd.str1.4,"aMS",%progbits,1
  16              		.align	2
  17              	.LC3:
  18 0000 30782530 		.ascii	"0x%06x\012\000"
  18      36780A00 
  19              		.align	2
  20              	.LC6:
  21 0008 41444320 		.ascii	"ADC DEBUG:\012\012\000"
  21      44454255 
  21      473A0A0A 
  21      00
  22 0015 000000   		.align	2
  23              	.LC8:
  24 0018 09414443 		.ascii	"\011ADC_STATUS_REG:\011\0110x%02x\012\000"
  24      5F535441 
  24      5455535F 
  24      5245473A 
  24      09093078 
  25 0032 0000     		.align	2
  26              	.LC10:
  27 0034 09414443 		.ascii	"\011ADC_MODE_REG:\011\0110x%04x\012\000"
  27      5F4D4F44 
  27      455F5245 
  27      473A0909 
  27      30782530 
  28              		.align	2
  29              	.LC12:
  30 004c 09414443 		.ascii	"\011ADC_INTERFACE_REG:\0110x%04x\012\000"
  30      5F494E54 
  30      45524641 
  30      43455F52 
  30      45473A09 
  31              		.align	2
  32              	.LC14:
  33 0068 09414443 		.ascii	"\011ADC_CHECK_REG:\011\0110x%06x\012\000"
  33      5F434845 
  33      434B5F52 
  33      45473A09 
  33      09307825 
  34 0081 000000   		.align	2
  35              	.LC16:
  36 0084 09414443 		.ascii	"\011ADC_DATA_REG:\011\0110x%06x\012\000"
  36      5F444154 
ARM GAS  C:\Users\matil\AppData\Local\Temp\cce1w2PW.s 			page 2


  36      415F5245 
  36      473A0909 
  36      30782530 
  37              		.align	2
  38              	.LC18:
  39 009c 09414443 		.ascii	"\011ADC_GPIO_REG:\011\0110x%04x\012\000"
  39      5F475049 
  39      4F5F5245 
  39      473A0909 
  39      30782530 
  40              		.align	2
  41              	.LC20:
  42 00b4 09414443 		.ascii	"\011ADC_ID_REG:\011\0110x%04x\012\000"
  42      5F49445F 
  42      5245473A 
  42      09093078 
  42      25303478 
  43 00ca 0000     		.align	2
  44              	.LC22:
  45 00cc 09414443 		.ascii	"\011ADC_CH%i_REG:\011\0110x%04x\012\000"
  45      5F434825 
  45      695F5245 
  45      473A0909 
  45      30782530 
  46              		.align	2
  47              	.LC24:
  48 00e4 09414443 		.ascii	"\011ADC_SETUPCON%i_REG:\0110x%04x\012\000"
  48      5F534554 
  48      5550434F 
  48      4E25695F 
  48      5245473A 
  49 0101 000000   		.align	2
  50              	.LC26:
  51 0104 09414443 		.ascii	"\011ADC_FILTCON%i_REG:\0110x%04x\012\000"
  51      5F46494C 
  51      54434F4E 
  51      25695F52 
  51      45473A09 
  52              		.align	2
  53              	.LC28:
  54 0120 09414443 		.ascii	"\011ADC_OFFSET%i_REG:\0110x%04x\012\000"
  54      5F4F4646 
  54      53455425 
  54      695F5245 
  54      473A0930 
  55 013b 00       		.align	2
  56              	.LC30:
  57 013c 09414443 		.ascii	"\011ADC_GAIN%i_REG:\011\0110x%04x\012\000"
  57      5F474149 
  57      4E25695F 
  57      5245473A 
  57      09093078 
  58              		.global	__aeabi_lmul
  59              		.global	__aeabi_uldivmod
  60 0156 0000     		.align	2
  61              	.LC32:
  62 0158 5B25695D 		.ascii	"[%i]\011\000"
ARM GAS  C:\Users\matil\AppData\Local\Temp\cce1w2PW.s 			page 3


  62      0900
  63 015e 0000     		.align	2
  64              	.LC34:
  65 0160 25313069 		.ascii	"%10i uV\011\011\000"
  65      20755609 
  65      0900
  66              		.global	__aeabi_ldivmod
  67 016a 0000     		.align	2
  68              	.LC36:
  69 016c 25692E00 		.ascii	"%i.\000"
  70              		.align	2
  71              	.LC38:
  72 0170 25303375 		.ascii	"%03u *C\012\000"
  72      202A430A 
  72      00
  73 0179 000000   		.align	2
  74              	.LC40:
  75 017c 0A0A0A0A 		.ascii	"\012\012\012\012\012\000"
  75      0A00
  76 0182 0000     		.align	2
  77              	.LC42:
  78 0184 50443020 		.ascii	"PD0 Phase:\011\011\000"
  78      50686173 
  78      653A0909 
  78      00
  79 0191 000000   		.align	2
  80              	.LC44:
  81 0194 2533692E 		.ascii	"%3i.\000"
  81      00
  82 0199 000000   		.align	2
  83              	.LC46:
  84 019c 2530336C 		.ascii	"%03lu deg\011\011\012\000"
  84      75206465 
  84      6709090A 
  84      00
  85 01a9 000000   		.align	2
  86              	.LC48:
  87 01ac 50443120 		.ascii	"PD1 Phase:\011\011\000"
  87      50686173 
  87      653A0909 
  87      00
  88 01b9 000000   		.align	2
  89              	.LC50:
  90 01bc 50443220 		.ascii	"PD2 Phase:\011\011\000"
  90      50686173 
  90      653A0909 
  90      00
  91 01c9 000000   		.align	2
  92              	.LC52:
  93 01cc 50443320 		.ascii	"PD3 Phase:\011\011\000"
  93      50686173 
  93      653A0909 
  93      00
  94 01d9 000000   		.align	2
  95              	.LC54:
  96 01dc 50443420 		.ascii	"PD4 Phase:\011\011\000"
  96      50686173 
ARM GAS  C:\Users\matil\AppData\Local\Temp\cce1w2PW.s 			page 4


  96      653A0909 
  96      00
  97 01e9 000000   		.align	2
  98              	.LC56:
  99 01ec 50443020 		.ascii	"PD0 Rel Power:\011\011\000"
  99      52656C20 
  99      506F7765 
  99      723A0909 
  99      00
 100 01fd 000000   		.align	2
 101              	.LC58:
 102 0200 25336C69 		.ascii	"%3li.\000"
 102      2E00
 103              		.global	__aeabi_idivmod
 104 0206 0000     		.align	2
 105              	.LC60:
 106 0208 25303375 		.ascii	"%03u dB\011\011\012\000"
 106      20644209 
 106      090A00
 107 0213 00       		.align	2
 108              	.LC62:
 109 0214 50443120 		.ascii	"PD1 Rel Power:\011\011\000"
 109      52656C20 
 109      506F7765 
 109      723A0909 
 109      00
 110 0225 000000   		.align	2
 111              	.LC64:
 112 0228 50443220 		.ascii	"PD2 Rel Power:\011\011\000"
 112      52656C20 
 112      506F7765 
 112      723A0909 
 112      00
 113 0239 000000   		.align	2
 114              	.LC66:
 115 023c 50443320 		.ascii	"PD3 Rel Power:\011\011\000"
 115      52656C20 
 115      506F7765 
 115      723A0909 
 115      00
 116 024d 000000   		.align	2
 117              	.LC68:
 118 0250 50443420 		.ascii	"PD4 Rel Power:\011\011\000"
 118      52656C20 
 118      506F7765 
 118      723A0909 
 118      00
 119 0261 000000   		.align	2
 120              	.LC70:
 121 0264 50574430 		.ascii	"PWD0 Power:\011\011\000"
 121      20506F77 
 121      65723A09 
 121      0900
 122 0272 0000     		.align	2
 123              	.LC72:
 124 0274 25303375 		.ascii	"%03u dBm\011\011\012\000"
 124      2064426D 
ARM GAS  C:\Users\matil\AppData\Local\Temp\cce1w2PW.s 			page 5


 124      09090A00 
 125              		.align	2
 126              	.LC74:
 127 0280 50574431 		.ascii	"PWD1 Power:\011\011\000"
 127      20506F77 
 127      65723A09 
 127      0900
 128 028e 0000     		.align	2
 129              	.LC76:
 130 0290 50574432 		.ascii	"PWD2 Power:\011\011\000"
 130      20506F77 
 130      65723A09 
 130      0900
 131 029e 0000     		.align	2
 132              	.LC78:
 133 02a0 50574433 		.ascii	"PWD3 Power:\011\011\000"
 133      20506F77 
 133      65723A09 
 133      0900
 134 02ae 0000     		.align	2
 135              	.LC80:
 136 02b0 656E6162 		.ascii	"enabled\012\000"
 136      6C65640A 
 136      00
 137 02b9 000000   		.align	2
 138              	.LC82:
 139 02bc 64697361 		.ascii	"disabled\012\000"
 139      626C6564 
 139      0A00
 140 02c6 0000     		.align	2
 141              	.LC84:
 142 02c8 5044312B 		.ascii	"PD1+PD2 SETPOINT: %li\012\000"
 142      50443220 
 142      53455450 
 142      4F494E54 
 142      3A20256C 
 143 02df 00       		.align	2
 144              	.LC86:
 145 02e0 50494420 		.ascii	"PID 704 Output: %li\012\000"
 145      37303420 
 145      4F757470 
 145      75743A20 
 145      256C690A 
 146 02f5 000000   		.align	2
 147              	.LC88:
 148 02f8 5049445F 		.ascii	"PID_704_P_error %i\012\000"
 148      3730345F 
 148      505F6572 
 148      726F7220 
 148      25690A00 
 149              		.align	2
 150              	.LC90:
 151 030c 2530366C 		.ascii	"%06li deg\011\011\012\000"
 151      69206465 
 151      6709090A 
 151      00
 152 0319 000000   		.align	2
ARM GAS  C:\Users\matil\AppData\Local\Temp\cce1w2PW.s 			page 6


 153              	.LC92:
 154 031c 2530336C 		.ascii	"%03li deg\011\011\012\012\000"
 154      69206465 
 154      6709090A 
 154      0A00
 155 032a 0000     		.align	2
 156              	.LC94:
 157 032c 5044332B 		.ascii	"PD3+PD4 SETPOINT: %li\012\000"
 157      50443420 
 157      53455450 
 157      4F494E54 
 157      3A20256C 
 158 0343 00       		.align	2
 159              	.LC96:
 160 0344 50494420 		.ascii	"PID 352 Output: %li\012\000"
 160      33353220 
 160      4F757470 
 160      75743A20 
 160      256C690A 
 161 0359 000000   		.align	2
 162              	.LC98:
 163 035c 5049445F 		.ascii	"PID_352_P_error %i\012\000"
 163      3335325F 
 163      505F6572 
 163      726F7220 
 163      25690A00 
 164              		.align	2
 165              	.LC100:
 166 0370 756E6465 		.ascii	"undefined\012\000"
 166      66696E65 
 166      640A00
 167              		.section	.text.cmd,"ax",%progbits
 168              		.align	1
 169              		.global	cmd
 170              		.arch armv6s-m
 171              		.syntax unified
 172              		.code	16
 173              		.thumb_func
 174              		.fpu softvfp
 176              	cmd:
 177              	.LFB284:
 178              		.file 1 "Src/cmd.c"
   1:Src/cmd.c     **** #include "usart.h"
   2:Src/cmd.c     **** #include <stdio.h>
   3:Src/cmd.c     **** #include "state.h"
   4:Src/cmd.c     **** #include "usart_utils.h"
   5:Src/cmd.c     **** #include "ADC.h"
   6:Src/cmd.c     **** #include "spi.h"
   7:Src/cmd.c     **** #include "DAC.h"
   8:Src/cmd.c     **** #include "PID.h"
   9:Src/cmd.c     **** #include <stdlib.h>
  10:Src/cmd.c     **** extern state State;
  11:Src/cmd.c     **** 
  12:Src/cmd.c     **** void cmd()
  13:Src/cmd.c     **** {
 179              		.loc 1 13 1 view -0
 180              		.cfi_startproc
ARM GAS  C:\Users\matil\AppData\Local\Temp\cce1w2PW.s 			page 7


 181              		@ args = 0, pretend = 0, frame = 104
 182              		@ frame_needed = 0, uses_anonymous_args = 0
 183 0000 F0B5     		push	{r4, r5, r6, r7, lr}
 184              	.LCFI0:
 185              		.cfi_def_cfa_offset 20
 186              		.cfi_offset 4, -20
 187              		.cfi_offset 5, -16
 188              		.cfi_offset 6, -12
 189              		.cfi_offset 7, -8
 190              		.cfi_offset 14, -4
 191 0002 DE46     		mov	lr, fp
 192 0004 5746     		mov	r7, r10
 193 0006 4E46     		mov	r6, r9
 194 0008 4546     		mov	r5, r8
 195 000a E0B5     		push	{r5, r6, r7, lr}
 196              	.LCFI1:
 197              		.cfi_def_cfa_offset 36
 198              		.cfi_offset 8, -36
 199              		.cfi_offset 9, -32
 200              		.cfi_offset 10, -28
 201              		.cfi_offset 11, -24
 202 000c 9BB0     		sub	sp, sp, #108
 203              	.LCFI2:
 204              		.cfi_def_cfa_offset 144
  14:Src/cmd.c     ****     HAL_GPIO_TogglePin(LED_PHASE_GPIO_Port, LED_PHASE_Pin);
 205              		.loc 1 14 5 view .LVU1
 206 000e A020     		movs	r0, #160
 207 0010 0121     		movs	r1, #1
 208 0012 C005     		lsls	r0, r0, #23
 209 0014 FFF7FEFF 		bl	HAL_GPIO_TogglePin
 210              	.LVL0:
  15:Src/cmd.c     ****     switch (State.cmd)
 211              		.loc 1 15 5 view .LVU2
 212              		.loc 1 15 18 is_stmt 0 view .LVU3
 213 0018 DC4B     		ldr	r3, .L42
 214 001a 9B7A     		ldrb	r3, [r3, #10]
 215              		.loc 1 15 5 view .LVU4
 216 001c 0B2B     		cmp	r3, #11
 217 001e 09D8     		bhi	.L2
 218 0020 002B     		cmp	r3, #0
 219 0022 00D1     		bne	.LCB38
 220 0024 05E2     		b	.L1	@long jump
 221              	.LCB38:
 222 0026 0B2B     		cmp	r3, #11
 223 0028 00D9     		bls	.LCB40
 224 002a 02E2     		b	.L1	@long jump
 225              	.LCB40:
 226 002c 9B00     		lsls	r3, r3, #2
 227 002e D84A     		ldr	r2, .L42+4
 228 0030 D358     		ldr	r3, [r2, r3]
 229 0032 9F46     		mov	pc, r3
 230              		.section	.rodata.cmd,"a",%progbits
 231              		.align	2
 232              	.L5:
 233 0000 32040000 		.word	.L1
 234 0004 6C000000 		.word	.L13
 235 0008 B2000000 		.word	.L12
ARM GAS  C:\Users\matil\AppData\Local\Temp\cce1w2PW.s 			page 8


 236 000c 32040000 		.word	.L1
 237 0010 EE000000 		.word	.L11
 238 0014 32040000 		.word	.L1
 239 0018 44040000 		.word	.L36
 240 001c FC040000 		.word	.L9
 241 0020 7E050000 		.word	.L8
 242 0024 E8050000 		.word	.L7
 243 0028 E00E0000 		.word	.L6
 244 002c 660E0000 		.word	.L4
 245              		.section	.text.cmd
 246              	.L2:
 247 0034 FF2B     		cmp	r3, #255
 248 0036 00D0     		beq	.LCB53
 249 0038 FBE1     		b	.L1	@long jump
 250              	.LCB53:
  16:Src/cmd.c     ****     {
  17:Src/cmd.c     ****     case cmd_blink:
  18:Src/cmd.c     ****     {
  19:Src/cmd.c     ****         if (!State.cmdLoop)
  20:Src/cmd.c     ****         {
  21:Src/cmd.c     ****             State.cmd = 0;
  22:Src/cmd.c     ****         }
  23:Src/cmd.c     ****         SERIAL_WRITE("ok\n");
  24:Src/cmd.c     ****         for (int i = 0; i < 10; i++)
  25:Src/cmd.c     ****         {
  26:Src/cmd.c     ****             HAL_GPIO_TogglePin(LED_PHASE_GPIO_Port, LED_PHASE_Pin);
  27:Src/cmd.c     ****             HAL_Delay(100);
  28:Src/cmd.c     ****         }
  29:Src/cmd.c     ****         break;
  30:Src/cmd.c     ****     }
  31:Src/cmd.c     ****     case cmd_adc_id:
  32:Src/cmd.c     ****     {
  33:Src/cmd.c     ****         SERIAL_WRITE("0x%06x\n", ADC_ID());
  34:Src/cmd.c     ****         if (!State.cmdLoop)
  35:Src/cmd.c     ****         {
  36:Src/cmd.c     ****             State.cmd = 0;
  37:Src/cmd.c     ****         }
  38:Src/cmd.c     ****         break;
  39:Src/cmd.c     ****     }
  40:Src/cmd.c     ****     // case cmd_adc_data:
  41:Src/cmd.c     ****     // {
  42:Src/cmd.c     ****     //     ADC_CMD(ADC_READ, ADC_DATA_REG);
  43:Src/cmd.c     ****     //     SERIAL_WRITE("0x%06x\n", ADC_SPI_READ_24());
  44:Src/cmd.c     ****     //    if(!State.cmdLoop){ State.cmd = 0;}
  45:Src/cmd.c     ****     //     break;
  46:Src/cmd.c     ****     // }
  47:Src/cmd.c     ****     // case cmd_adc_reset:
  48:Src/cmd.c     ****     // {
  49:Src/cmd.c     ****     //     SERIAL_WRITE("ADC RESET\n");
  50:Src/cmd.c     ****     //     ADC_reset();
  51:Src/cmd.c     ****     //    if(!State.cmdLoop){ State.cmd = 0;}
  52:Src/cmd.c     ****     //     break;
  53:Src/cmd.c     ****     // }
  54:Src/cmd.c     ****     case cmd_adc_debug:
  55:Src/cmd.c     ****     {
  56:Src/cmd.c     ****         ADC_DATA_READY_EXTI_deInit();
  57:Src/cmd.c     ****         HAL_SPI_MspInit(&hspi2);
ARM GAS  C:\Users\matil\AppData\Local\Temp\cce1w2PW.s 			page 9


  58:Src/cmd.c     ****         SERIAL_WRITE("ADC DEBUG:\n\n");
  59:Src/cmd.c     ****         ADC_CMD(ADC_READ, ADC_STATUS_REG);
  60:Src/cmd.c     ****         SERIAL_WRITE("\tADC_STATUS_REG:\t\t0x%02x\n", ADC_SPI_READ_8());
  61:Src/cmd.c     ****         ADC_CMD(ADC_READ, ADC_MODE_REG);
  62:Src/cmd.c     ****         SERIAL_WRITE("\tADC_MODE_REG:\t\t0x%04x\n", ADC_SPI_READ_16());
  63:Src/cmd.c     ****         ADC_CMD(ADC_READ, ADC_INTERFACE_REG);
  64:Src/cmd.c     ****         SERIAL_WRITE("\tADC_INTERFACE_REG:\t0x%04x\n", ADC_SPI_READ_16());
  65:Src/cmd.c     ****         ADC_CMD(ADC_READ, ADC_CHECK_REG);
  66:Src/cmd.c     ****         SERIAL_WRITE("\tADC_CHECK_REG:\t\t0x%06x\n", ADC_SPI_READ_24());
  67:Src/cmd.c     ****         ADC_CMD(ADC_READ, ADC_DATA_REG);
  68:Src/cmd.c     ****         SERIAL_WRITE("\tADC_DATA_REG:\t\t0x%06x\n", ADC_SPI_READ_24());
  69:Src/cmd.c     ****         ADC_CMD(ADC_READ, ADC_GPIO_REG);
  70:Src/cmd.c     ****         SERIAL_WRITE("\tADC_GPIO_REG:\t\t0x%04x\n", ADC_SPI_READ_16());
  71:Src/cmd.c     ****         ADC_CMD(ADC_READ, ADC_ID_REG);
  72:Src/cmd.c     ****         SERIAL_WRITE("\tADC_ID_REG:\t\t0x%04x\n", ADC_SPI_READ_16());
  73:Src/cmd.c     ****         for (int i = 0; i < 15; i++)
  74:Src/cmd.c     ****         {
  75:Src/cmd.c     ****             ADC_CMD(ADC_READ, ADC_CHx_REG(i));
  76:Src/cmd.c     ****             SERIAL_WRITE("\tADC_CH%i_REG:\t\t0x%04x\n", i, ADC_SPI_READ_16());
  77:Src/cmd.c     ****         }
  78:Src/cmd.c     ****         for (int i = 0; i < 7; i++)
  79:Src/cmd.c     ****         {
  80:Src/cmd.c     ****             ADC_CMD(ADC_READ, ADC_SETUPCONx_REG(i));
  81:Src/cmd.c     ****             SERIAL_WRITE("\tADC_SETUPCON%i_REG:\t0x%04x\n", i, ADC_SPI_READ_16());
  82:Src/cmd.c     ****         }
  83:Src/cmd.c     ****         for (int i = 0; i < 7; i++)
  84:Src/cmd.c     ****         {
  85:Src/cmd.c     ****             ADC_CMD(ADC_READ, ADC_FILTCONx_REG(i));
  86:Src/cmd.c     ****             SERIAL_WRITE("\tADC_FILTCON%i_REG:\t0x%04x\n", i, ADC_SPI_READ_16());
  87:Src/cmd.c     ****         }
  88:Src/cmd.c     ****         for (int i = 0; i < 7; i++)
  89:Src/cmd.c     ****         {
  90:Src/cmd.c     ****             ADC_CMD(ADC_READ, ADC_OFFSETx_REG(i));
  91:Src/cmd.c     ****             SERIAL_WRITE("\tADC_OFFSET%i_REG:\t0x%04x\n", i, ADC_SPI_READ_24());
  92:Src/cmd.c     ****         }
  93:Src/cmd.c     ****         for (int i = 0; i < 7; i++)
  94:Src/cmd.c     ****         {
  95:Src/cmd.c     ****             ADC_CMD(ADC_READ, ADC_GAINx_REG(i));
  96:Src/cmd.c     ****             SERIAL_WRITE("\tADC_GAIN%i_REG:\t\t0x%04x\n", i, ADC_SPI_READ_24());
  97:Src/cmd.c     ****         }
  98:Src/cmd.c     ****         if (!State.cmdLoop)
  99:Src/cmd.c     ****         {
 100:Src/cmd.c     ****             State.cmd = 0;
 101:Src/cmd.c     ****         }
 102:Src/cmd.c     ****         HAL_SPI_MspDeInit(&hspi2);
 103:Src/cmd.c     ****         ADC_DATA_READY_EXTI_Init();
 104:Src/cmd.c     ****         break;
 105:Src/cmd.c     ****     }
 106:Src/cmd.c     ****     case cmd_adc_values:
 107:Src/cmd.c     ****     {
 108:Src/cmd.c     ****         for (int i = 0; i < 16; i++)
 109:Src/cmd.c     ****         {
 110:Src/cmd.c     ****             uint64_t voltage_uV = (((uint64_t)State.ADC_Values[i] * 1800000) / 0xffffff);
 111:Src/cmd.c     ****             SERIAL_WRITE("[%i]\t", i);
 112:Src/cmd.c     ****             SERIAL_WRITE("%10i uV\t\t", voltage_uV);
 113:Src/cmd.c     ****             SERIAL_WRITE("0x%06x\n", State.ADC_Values[i]);
 114:Src/cmd.c     ****         }
ARM GAS  C:\Users\matil\AppData\Local\Temp\cce1w2PW.s 			page 10


 115:Src/cmd.c     ****         if (!State.cmdLoop)
 116:Src/cmd.c     ****         {
 117:Src/cmd.c     ****             State.cmd = 0;
 118:Src/cmd.c     ****         }
 119:Src/cmd.c     ****         break;
 120:Src/cmd.c     ****     }
 121:Src/cmd.c     ****     case cmd_temperature:
 122:Src/cmd.c     ****     {
 123:Src/cmd.c     ****         SERIAL_WRITE("%i.", Temperature() / 1000000);             //-66.875 to +52.443 C
 124:Src/cmd.c     ****         SERIAL_WRITE("%03u *C\n", (Temperature() / 1000) % 1000); //-66.875 to +52.443 C
 125:Src/cmd.c     ****         if (!State.cmdLoop)
 126:Src/cmd.c     ****         {
 127:Src/cmd.c     ****             State.cmd = 0;
 128:Src/cmd.c     ****         }
 129:Src/cmd.c     ****         break;
 130:Src/cmd.c     ****     }
 131:Src/cmd.c     ****     case cmd_dac_test:
 132:Src/cmd.c     ****     {
 133:Src/cmd.c     ****         SERIAL_WRITE("\n");
 134:Src/cmd.c     ****         DAC_test();
 135:Src/cmd.c     ****         if (!State.cmdLoop)
 136:Src/cmd.c     ****         {
 137:Src/cmd.c     ****             State.cmd = 0;
 138:Src/cmd.c     ****         }
 139:Src/cmd.c     ****         break;
 140:Src/cmd.c     ****     }
 141:Src/cmd.c     ****     case cmd_rf_state:
 142:Src/cmd.c     ****     {
 143:Src/cmd.c     ****         SERIAL_WRITE("\n\n\n\n\n")
 144:Src/cmd.c     ****         SERIAL_WRITE("PD0 Phase:\t\t");
 145:Src/cmd.c     ****         SERIAL_WRITE("%3i.", Phase(ADC_PD0_Phase_CH) / 1000);
 146:Src/cmd.c     ****         SERIAL_WRITE("%03lu deg\t\t\n", Phase(ADC_PD0_Phase_CH) % 1000);
 147:Src/cmd.c     **** 
 148:Src/cmd.c     ****         SERIAL_WRITE("PD1 Phase:\t\t");
 149:Src/cmd.c     ****         SERIAL_WRITE("%3i.", Phase(ADC_PD1_Phase_CH) / 1000);
 150:Src/cmd.c     ****         SERIAL_WRITE("%03lu deg\t\t\n", Phase(ADC_PD1_Phase_CH) % 1000);
 151:Src/cmd.c     **** 
 152:Src/cmd.c     ****         SERIAL_WRITE("PD2 Phase:\t\t");
 153:Src/cmd.c     ****         SERIAL_WRITE("%3i.", Phase(ADC_PD2_Phase_CH) / 1000);
 154:Src/cmd.c     ****         SERIAL_WRITE("%03lu deg\t\t\n", Phase(ADC_PD2_Phase_CH) % 1000);
 155:Src/cmd.c     **** 
 156:Src/cmd.c     ****         SERIAL_WRITE("PD3 Phase:\t\t");
 157:Src/cmd.c     ****         SERIAL_WRITE("%3i.", Phase(ADC_PD3_Phase_CH) / 1000);
 158:Src/cmd.c     ****         SERIAL_WRITE("%03lu deg\t\t\n", Phase(ADC_PD3_Phase_CH) % 1000);
 159:Src/cmd.c     **** 
 160:Src/cmd.c     ****         SERIAL_WRITE("PD4 Phase:\t\t");
 161:Src/cmd.c     ****         SERIAL_WRITE("%3i.", Phase(ADC_PD4_Phase_CH) / 1000);
 162:Src/cmd.c     ****         SERIAL_WRITE("%03lu deg\t\t\n", Phase(ADC_PD4_Phase_CH) % 1000);
 163:Src/cmd.c     **** 
 164:Src/cmd.c     ****         SERIAL_WRITE("PD0 Rel Power:\t\t");
 165:Src/cmd.c     ****         SERIAL_WRITE("%3li.", Relative_Power(ADC_PD0_Power_CH) / 1000);
 166:Src/cmd.c     ****         SERIAL_WRITE("%03u dB\t\t\n", abs(Relative_Power(ADC_PD0_Power_CH)) % 1000);
 167:Src/cmd.c     **** 
 168:Src/cmd.c     ****         SERIAL_WRITE("PD1 Rel Power:\t\t");
 169:Src/cmd.c     ****         SERIAL_WRITE("%3li.", Relative_Power(ADC_PD1_Power_CH) / 1000);
 170:Src/cmd.c     ****         SERIAL_WRITE("%03u dB\t\t\n", abs(Relative_Power(ADC_PD1_Power_CH)) % 1000);
 171:Src/cmd.c     **** 
ARM GAS  C:\Users\matil\AppData\Local\Temp\cce1w2PW.s 			page 11


 172:Src/cmd.c     ****         SERIAL_WRITE("PD2 Rel Power:\t\t");
 173:Src/cmd.c     ****         SERIAL_WRITE("%3li.", Relative_Power(ADC_PD2_Power_CH) / 1000);
 174:Src/cmd.c     ****         SERIAL_WRITE("%03u dB\t\t\n", abs(Relative_Power(ADC_PD2_Power_CH)) % 1000);
 175:Src/cmd.c     **** 
 176:Src/cmd.c     ****         SERIAL_WRITE("PD3 Rel Power:\t\t");
 177:Src/cmd.c     ****         SERIAL_WRITE("%3li.", Relative_Power(ADC_PD3_Power_CH) / 1000);
 178:Src/cmd.c     ****         SERIAL_WRITE("%03u dB\t\t\n", abs(Relative_Power(ADC_PD3_Power_CH)) % 1000);
 179:Src/cmd.c     **** 
 180:Src/cmd.c     ****         SERIAL_WRITE("PD4 Rel Power:\t\t");
 181:Src/cmd.c     ****         SERIAL_WRITE("%3li.", Relative_Power(ADC_PD4_Power_CH) / 1000);
 182:Src/cmd.c     ****         SERIAL_WRITE("%03u dB\t\t\n", abs(Relative_Power(ADC_PD4_Power_CH)) % 1000);
 183:Src/cmd.c     **** 
 184:Src/cmd.c     ****         SERIAL_WRITE("PWD0 Power:\t\t");
 185:Src/cmd.c     ****         SERIAL_WRITE("%3li.", RMS_Power(ADC_PWD0_Power_CH) / 1000);
 186:Src/cmd.c     ****         SERIAL_WRITE("%03u dBm\t\t\n", abs(RMS_Power(ADC_PWD0_Power_CH)) % 1000);
 187:Src/cmd.c     **** 
 188:Src/cmd.c     ****         SERIAL_WRITE("PWD1 Power:\t\t");
 189:Src/cmd.c     ****         SERIAL_WRITE("%3li.", RMS_Power(ADC_PWD1_Power_CH) / 1000);
 190:Src/cmd.c     ****         SERIAL_WRITE("%03u dBm\t\t\n", abs(RMS_Power(ADC_PWD1_Power_CH)) % 1000);
 191:Src/cmd.c     **** 
 192:Src/cmd.c     ****         SERIAL_WRITE("PWD2 Power:\t\t");
 193:Src/cmd.c     ****         SERIAL_WRITE("%3li.", RMS_Power(ADC_PWD2_Power_CH) / 1000);
 194:Src/cmd.c     ****         SERIAL_WRITE("%03u dBm\t\t\n", abs(RMS_Power(ADC_PWD2_Power_CH)) % 1000);
 195:Src/cmd.c     **** 
 196:Src/cmd.c     ****         SERIAL_WRITE("PWD3 Power:\t\t");
 197:Src/cmd.c     ****         SERIAL_WRITE("%3li.", RMS_Power(ADC_PWD3_Power_CH) / 1000);
 198:Src/cmd.c     ****         SERIAL_WRITE("%03u dBm\t\t\n", abs(RMS_Power(ADC_PWD3_Power_CH)) % 1000);
 199:Src/cmd.c     ****         if (!State.cmdLoop)
 200:Src/cmd.c     ****         {
 201:Src/cmd.c     ****             State.cmd = 0;
 202:Src/cmd.c     ****         }
 203:Src/cmd.c     **** 
 204:Src/cmd.c     ****         break;
 205:Src/cmd.c     ****     }
 206:Src/cmd.c     ****     case cmd_loop:
 207:Src/cmd.c     ****     {
 208:Src/cmd.c     ****         State.cmd = 0;
 209:Src/cmd.c     ****         State.cmdLoop = !State.cmdLoop;
 210:Src/cmd.c     ****         if (State.cmdLoop)
 211:Src/cmd.c     ****         {
 212:Src/cmd.c     ****             SERIAL_WRITE("enabled\n")
 213:Src/cmd.c     ****         }
 214:Src/cmd.c     ****         else
 215:Src/cmd.c     ****         {
 216:Src/cmd.c     ****             SERIAL_WRITE("disabled\n")
 217:Src/cmd.c     ****         }
 218:Src/cmd.c     ****         break;
 219:Src/cmd.c     ****     }
 220:Src/cmd.c     ****     case cmd_rf_pid:
 221:Src/cmd.c     ****     {
 222:Src/cmd.c     ****         if (!State.cmdLoop)
 223:Src/cmd.c     ****         {
 224:Src/cmd.c     ****             State.cmd = 0;
 225:Src/cmd.c     ****         }
 226:Src/cmd.c     ****         SERIAL_WRITE("\n")
 227:Src/cmd.c     ****         SERIAL_WRITE("PD1+PD2 SETPOINT: %li\n", State.PD1_PD2_SetPoint * 1000);
 228:Src/cmd.c     ****         SERIAL_WRITE("PID 704 Output: %li\n", State.PID_704_Output);
ARM GAS  C:\Users\matil\AppData\Local\Temp\cce1w2PW.s 			page 12


 229:Src/cmd.c     ****         SERIAL_WRITE("PID_704_P_error %i\n", State.PID_704_P_error);
 230:Src/cmd.c     **** 
 231:Src/cmd.c     ****         SERIAL_WRITE("PD1 Phase:\t\t");
 232:Src/cmd.c     ****         SERIAL_WRITE("%3i.", Phase_u(ADC_PD1_Phase_CH) / 1000000);
 233:Src/cmd.c     ****         SERIAL_WRITE("%06li deg\t\t\n", Phase_u(ADC_PD1_Phase_CH) % 1000000);
 234:Src/cmd.c     **** 
 235:Src/cmd.c     ****         SERIAL_WRITE("PD2 Phase:\t\t");
 236:Src/cmd.c     ****         SERIAL_WRITE("%3i.", Phase_u(ADC_PD2_Phase_CH) / 1000000);
 237:Src/cmd.c     ****         SERIAL_WRITE("%03li deg\t\t\n\n", Phase_u(ADC_PD2_Phase_CH) % 1000000);
 238:Src/cmd.c     **** 
 239:Src/cmd.c     ****         SERIAL_WRITE("PD3+PD4 SETPOINT: %li\n", State.PD3_PD4_SetPoint * 1000);
 240:Src/cmd.c     ****         SERIAL_WRITE("PID 352 Output: %li\n", State.PID_352_Output);
 241:Src/cmd.c     ****         SERIAL_WRITE("PID_352_P_error %i\n", State.PID_352_P_error);
 242:Src/cmd.c     **** 
 243:Src/cmd.c     ****         SERIAL_WRITE("PD3 Phase:\t\t");
 244:Src/cmd.c     ****         SERIAL_WRITE("%3i.", Phase_u(ADC_PD3_Phase_CH) / 1000000);
 245:Src/cmd.c     ****         SERIAL_WRITE("%06li deg\t\t\n", Phase_u(ADC_PD3_Phase_CH) % 1000000);
 246:Src/cmd.c     **** 
 247:Src/cmd.c     ****         SERIAL_WRITE("PD4 Phase:\t\t");
 248:Src/cmd.c     ****         SERIAL_WRITE("%3i.", Phase_u(ADC_PD4_Phase_CH) / 1000000);
 249:Src/cmd.c     ****         SERIAL_WRITE("%06li deg\t\t\n", Phase_u(ADC_PD4_Phase_CH) % 1000000);
 250:Src/cmd.c     ****         SERIAL_WRITE("\n")
 251:Src/cmd.c     **** 
 252:Src/cmd.c     ****         break;
 253:Src/cmd.c     ****     }
 254:Src/cmd.c     ****     case cmd_undefined:
 255:Src/cmd.c     ****     {
 256:Src/cmd.c     ****         State.cmd = 0;
 251              		.loc 1 256 9 is_stmt 1 view .LVU5
 252              		.loc 1 256 19 is_stmt 0 view .LVU6
 253 003a D44B     		ldr	r3, .L42
 254 003c 0022     		movs	r2, #0
 255 003e 9A72     		strb	r2, [r3, #10]
 256              	.LBB2:
 257:Src/cmd.c     ****         SERIAL_WRITE("undefined\n");
 257              		.loc 1 257 9 is_stmt 1 view .LVU7
 258 0040 01AC     		add	r4, sp, #4
 259 0042 6032     		adds	r2, r2, #96
 260 0044 0021     		movs	r1, #0
 261 0046 02A8     		add	r0, sp, #8
 262 0048 FFF7FEFF 		bl	memset
 263              	.LVL1:
 264              		.loc 1 257 9 view .LVU8
 265 004c D14B     		ldr	r3, .L42+8
 266 004e 2200     		movs	r2, r4
 267 0050 03CB     		ldmia	r3!, {r0, r1}
 268 0052 03C2     		stmia	r2!, {r0, r1}
 269 0054 1988     		ldrh	r1, [r3]
 270 0056 1180     		strh	r1, [r2]
 271 0058 9B78     		ldrb	r3, [r3, #2]
 272 005a 9370     		strb	r3, [r2, #2]
 273              	.LVL2:
 274              		.loc 1 257 9 view .LVU9
 275 005c FA23     		movs	r3, #250
 276 005e 9B00     		lsls	r3, r3, #2
 277 0060 0A22     		movs	r2, #10
 278 0062 2100     		movs	r1, r4
ARM GAS  C:\Users\matil\AppData\Local\Temp\cce1w2PW.s 			page 13


 279 0064 CC48     		ldr	r0, .L42+12
 280 0066 FFF7FEFF 		bl	HAL_UART_Transmit
 281              	.LVL3:
 282              	.LBE2:
 283              		.loc 1 257 36 view .LVU10
 258:Src/cmd.c     ****         break;
 284              		.loc 1 258 9 view .LVU11
 259:Src/cmd.c     ****     }
 260:Src/cmd.c     ****     default:
 261:Src/cmd.c     ****     {
 262:Src/cmd.c     ****         break;
 263:Src/cmd.c     ****     }
 264:Src/cmd.c     ****     }
 265:Src/cmd.c     **** }
 285              		.loc 1 265 1 is_stmt 0 view .LVU12
 286 006a E2E1     		b	.L1
 287              	.LVL4:
 288              	.L13:
  19:Src/cmd.c     ****         {
 289              		.loc 1 19 9 is_stmt 1 view .LVU13
  19:Src/cmd.c     ****         {
 290              		.loc 1 19 19 is_stmt 0 view .LVU14
 291 006c C74B     		ldr	r3, .L42
 292 006e DB7A     		ldrb	r3, [r3, #11]
  19:Src/cmd.c     ****         {
 293              		.loc 1 19 12 view .LVU15
 294 0070 002B     		cmp	r3, #0
 295 0072 02D1     		bne	.L15
  21:Src/cmd.c     ****         }
 296              		.loc 1 21 13 is_stmt 1 view .LVU16
  21:Src/cmd.c     ****         }
 297              		.loc 1 21 23 is_stmt 0 view .LVU17
 298 0074 C54B     		ldr	r3, .L42
 299 0076 0022     		movs	r2, #0
 300 0078 9A72     		strb	r2, [r3, #10]
 301              	.L15:
 302              	.LBB3:
  23:Src/cmd.c     ****         for (int i = 0; i < 10; i++)
 303              		.loc 1 23 9 is_stmt 1 view .LVU18
 304 007a 6022     		movs	r2, #96
 305 007c 0021     		movs	r1, #0
 306 007e 02A8     		add	r0, sp, #8
 307 0080 FFF7FEFF 		bl	memset
 308              	.LVL5:
  23:Src/cmd.c     ****         for (int i = 0; i < 10; i++)
 309              		.loc 1 23 9 view .LVU19
 310 0084 C54B     		ldr	r3, .L42+16
 311 0086 0193     		str	r3, [sp, #4]
 312              	.LVL6:
  23:Src/cmd.c     ****         for (int i = 0; i < 10; i++)
 313              		.loc 1 23 9 view .LVU20
 314 0088 FA23     		movs	r3, #250
 315 008a 9B00     		lsls	r3, r3, #2
 316 008c 0322     		movs	r2, #3
 317 008e 01A9     		add	r1, sp, #4
 318 0090 C148     		ldr	r0, .L42+12
 319 0092 FFF7FEFF 		bl	HAL_UART_Transmit
ARM GAS  C:\Users\matil\AppData\Local\Temp\cce1w2PW.s 			page 14


 320              	.LVL7:
 321              	.LBE3:
  23:Src/cmd.c     ****         for (int i = 0; i < 10; i++)
 322              		.loc 1 23 29 view .LVU21
  24:Src/cmd.c     ****         {
 323              		.loc 1 24 9 view .LVU22
 324              	.LBB4:
  24:Src/cmd.c     ****         {
 325              		.loc 1 24 14 view .LVU23
  24:Src/cmd.c     ****         {
 326              		.loc 1 24 18 is_stmt 0 view .LVU24
 327 0096 0024     		movs	r4, #0
 328              	.LVL8:
 329              	.L16:
  24:Src/cmd.c     ****         {
 330              		.loc 1 24 25 is_stmt 1 discriminator 1 view .LVU25
  24:Src/cmd.c     ****         {
 331              		.loc 1 24 9 is_stmt 0 discriminator 1 view .LVU26
 332 0098 092C     		cmp	r4, #9
 333 009a 00DD     		ble	.LCB130
 334 009c C9E1     		b	.L1	@long jump
 335              	.LCB130:
  26:Src/cmd.c     ****             HAL_Delay(100);
 336              		.loc 1 26 13 is_stmt 1 discriminator 3 view .LVU27
 337 009e A020     		movs	r0, #160
 338 00a0 0121     		movs	r1, #1
 339 00a2 C005     		lsls	r0, r0, #23
 340 00a4 FFF7FEFF 		bl	HAL_GPIO_TogglePin
 341              	.LVL9:
  27:Src/cmd.c     ****         }
 342              		.loc 1 27 13 discriminator 3 view .LVU28
 343 00a8 6420     		movs	r0, #100
 344 00aa FFF7FEFF 		bl	HAL_Delay
 345              	.LVL10:
  24:Src/cmd.c     ****         {
 346              		.loc 1 24 33 discriminator 3 view .LVU29
  24:Src/cmd.c     ****         {
 347              		.loc 1 24 34 is_stmt 0 discriminator 3 view .LVU30
 348 00ae 0134     		adds	r4, r4, #1
 349              	.LVL11:
  24:Src/cmd.c     ****         {
 350              		.loc 1 24 34 discriminator 3 view .LVU31
 351 00b0 F2E7     		b	.L16
 352              	.LVL12:
 353              	.L12:
  24:Src/cmd.c     ****         {
 354              		.loc 1 24 34 discriminator 3 view .LVU32
 355              	.LBE4:
 356              	.LBB5:
  33:Src/cmd.c     ****         if (!State.cmdLoop)
 357              		.loc 1 33 9 is_stmt 1 view .LVU33
 358 00b2 0023     		movs	r3, #0
 359 00b4 0193     		str	r3, [sp, #4]
 360 00b6 6022     		movs	r2, #96
 361 00b8 0021     		movs	r1, #0
 362 00ba 02A8     		add	r0, sp, #8
 363 00bc FFF7FEFF 		bl	memset
ARM GAS  C:\Users\matil\AppData\Local\Temp\cce1w2PW.s 			page 15


 364              	.LVL13:
  33:Src/cmd.c     ****         if (!State.cmdLoop)
 365              		.loc 1 33 9 view .LVU34
 366 00c0 FFF7FEFF 		bl	ADC_ID
 367              	.LVL14:
 368 00c4 0200     		movs	r2, r0
 369 00c6 B649     		ldr	r1, .L42+20
 370 00c8 01A8     		add	r0, sp, #4
 371 00ca FFF7FEFF 		bl	sprintf
 372              	.LVL15:
  33:Src/cmd.c     ****         if (!State.cmdLoop)
 373              		.loc 1 33 9 view .LVU35
 374 00ce FA23     		movs	r3, #250
 375 00d0 9B00     		lsls	r3, r3, #2
 376 00d2 0922     		movs	r2, #9
 377 00d4 01A9     		add	r1, sp, #4
 378 00d6 B048     		ldr	r0, .L42+12
 379 00d8 FFF7FEFF 		bl	HAL_UART_Transmit
 380              	.LVL16:
 381              	.LBE5:
  33:Src/cmd.c     ****         if (!State.cmdLoop)
 382              		.loc 1 33 43 view .LVU36
  34:Src/cmd.c     ****         {
 383              		.loc 1 34 9 view .LVU37
  34:Src/cmd.c     ****         {
 384              		.loc 1 34 19 is_stmt 0 view .LVU38
 385 00dc AB4B     		ldr	r3, .L42
 386 00de DB7A     		ldrb	r3, [r3, #11]
  34:Src/cmd.c     ****         {
 387              		.loc 1 34 12 view .LVU39
 388 00e0 002B     		cmp	r3, #0
 389 00e2 00D0     		beq	.LCB179
 390 00e4 A5E1     		b	.L1	@long jump
 391              	.LCB179:
  36:Src/cmd.c     ****         }
 392              		.loc 1 36 13 is_stmt 1 view .LVU40
  36:Src/cmd.c     ****         }
 393              		.loc 1 36 23 is_stmt 0 view .LVU41
 394 00e6 A94B     		ldr	r3, .L42
 395 00e8 0022     		movs	r2, #0
 396 00ea 9A72     		strb	r2, [r3, #10]
 397 00ec A1E1     		b	.L1
 398              	.LVL17:
 399              	.L11:
  56:Src/cmd.c     ****         HAL_SPI_MspInit(&hspi2);
 400              		.loc 1 56 9 is_stmt 1 view .LVU42
 401 00ee FFF7FEFF 		bl	ADC_DATA_READY_EXTI_deInit
 402              	.LVL18:
  57:Src/cmd.c     ****         SERIAL_WRITE("ADC DEBUG:\n\n");
 403              		.loc 1 57 9 view .LVU43
 404 00f2 AC48     		ldr	r0, .L42+24
 405 00f4 FFF7FEFF 		bl	HAL_SPI_MspInit
 406              	.LVL19:
 407              	.LBB6:
  58:Src/cmd.c     ****         ADC_CMD(ADC_READ, ADC_STATUS_REG);
 408              		.loc 1 58 9 view .LVU44
 409 00f8 01AC     		add	r4, sp, #4
ARM GAS  C:\Users\matil\AppData\Local\Temp\cce1w2PW.s 			page 16


 410 00fa 0027     		movs	r7, #0
 411 00fc 6022     		movs	r2, #96
 412 00fe 0021     		movs	r1, #0
 413 0100 02A8     		add	r0, sp, #8
 414 0102 FFF7FEFF 		bl	memset
 415              	.LVL20:
  58:Src/cmd.c     ****         ADC_CMD(ADC_READ, ADC_STATUS_REG);
 416              		.loc 1 58 9 view .LVU45
 417 0106 A84B     		ldr	r3, .L42+28
 418 0108 2200     		movs	r2, r4
 419 010a 23CB     		ldmia	r3!, {r0, r1, r5}
 420 010c 23C2     		stmia	r2!, {r0, r1, r5}
 421 010e 1B78     		ldrb	r3, [r3]
 422 0110 1370     		strb	r3, [r2]
 423              	.LVL21:
  58:Src/cmd.c     ****         ADC_CMD(ADC_READ, ADC_STATUS_REG);
 424              		.loc 1 58 9 view .LVU46
 425 0112 FA26     		movs	r6, #250
 426 0114 B600     		lsls	r6, r6, #2
 427 0116 A04D     		ldr	r5, .L42+12
 428 0118 3300     		movs	r3, r6
 429 011a 0C22     		movs	r2, #12
 430 011c 2100     		movs	r1, r4
 431 011e 2800     		movs	r0, r5
 432 0120 FFF7FEFF 		bl	HAL_UART_Transmit
 433              	.LVL22:
 434              	.LBE6:
  58:Src/cmd.c     ****         ADC_CMD(ADC_READ, ADC_STATUS_REG);
 435              		.loc 1 58 39 view .LVU47
  59:Src/cmd.c     ****         SERIAL_WRITE("\tADC_STATUS_REG:\t\t0x%02x\n", ADC_SPI_READ_8());
 436              		.loc 1 59 9 view .LVU48
 437 0124 0021     		movs	r1, #0
 438 0126 4020     		movs	r0, #64
 439 0128 FFF7FEFF 		bl	ADC_CMD
 440              	.LVL23:
 441              	.LBB7:
  60:Src/cmd.c     ****         ADC_CMD(ADC_READ, ADC_MODE_REG);
 442              		.loc 1 60 9 view .LVU49
 443 012c 0197     		str	r7, [sp, #4]
 444 012e 6022     		movs	r2, #96
 445 0130 0021     		movs	r1, #0
 446 0132 02A8     		add	r0, sp, #8
 447 0134 FFF7FEFF 		bl	memset
 448              	.LVL24:
  60:Src/cmd.c     ****         ADC_CMD(ADC_READ, ADC_MODE_REG);
 449              		.loc 1 60 9 view .LVU50
 450 0138 FFF7FEFF 		bl	ADC_SPI_READ_8
 451              	.LVL25:
 452 013c 0200     		movs	r2, r0
 453 013e 9B49     		ldr	r1, .L42+32
 454 0140 2000     		movs	r0, r4
 455 0142 FFF7FEFF 		bl	sprintf
 456              	.LVL26:
  60:Src/cmd.c     ****         ADC_CMD(ADC_READ, ADC_MODE_REG);
 457              		.loc 1 60 9 view .LVU51
 458 0146 3300     		movs	r3, r6
 459 0148 1722     		movs	r2, #23
ARM GAS  C:\Users\matil\AppData\Local\Temp\cce1w2PW.s 			page 17


 460 014a 2100     		movs	r1, r4
 461 014c 2800     		movs	r0, r5
 462 014e FFF7FEFF 		bl	HAL_UART_Transmit
 463              	.LVL27:
 464              	.LBE7:
  60:Src/cmd.c     ****         ADC_CMD(ADC_READ, ADC_MODE_REG);
 465              		.loc 1 60 72 view .LVU52
  61:Src/cmd.c     ****         SERIAL_WRITE("\tADC_MODE_REG:\t\t0x%04x\n", ADC_SPI_READ_16());
 466              		.loc 1 61 9 view .LVU53
 467 0152 0121     		movs	r1, #1
 468 0154 4020     		movs	r0, #64
 469 0156 FFF7FEFF 		bl	ADC_CMD
 470              	.LVL28:
 471              	.LBB8:
  62:Src/cmd.c     ****         ADC_CMD(ADC_READ, ADC_INTERFACE_REG);
 472              		.loc 1 62 9 view .LVU54
 473 015a 0197     		str	r7, [sp, #4]
 474 015c 6022     		movs	r2, #96
 475 015e 0021     		movs	r1, #0
 476 0160 02A8     		add	r0, sp, #8
 477 0162 FFF7FEFF 		bl	memset
 478              	.LVL29:
  62:Src/cmd.c     ****         ADC_CMD(ADC_READ, ADC_INTERFACE_REG);
 479              		.loc 1 62 9 view .LVU55
 480 0166 FFF7FEFF 		bl	ADC_SPI_READ_16
 481              	.LVL30:
 482 016a 0200     		movs	r2, r0
 483 016c 9049     		ldr	r1, .L42+36
 484 016e 2000     		movs	r0, r4
 485 0170 FFF7FEFF 		bl	sprintf
 486              	.LVL31:
  62:Src/cmd.c     ****         ADC_CMD(ADC_READ, ADC_INTERFACE_REG);
 487              		.loc 1 62 9 view .LVU56
 488 0174 3300     		movs	r3, r6
 489 0176 1722     		movs	r2, #23
 490 0178 2100     		movs	r1, r4
 491 017a 2800     		movs	r0, r5
 492 017c FFF7FEFF 		bl	HAL_UART_Transmit
 493              	.LVL32:
 494              	.LBE8:
  62:Src/cmd.c     ****         ADC_CMD(ADC_READ, ADC_INTERFACE_REG);
 495              		.loc 1 62 71 view .LVU57
  63:Src/cmd.c     ****         SERIAL_WRITE("\tADC_INTERFACE_REG:\t0x%04x\n", ADC_SPI_READ_16());
 496              		.loc 1 63 9 view .LVU58
 497 0180 0221     		movs	r1, #2
 498 0182 4020     		movs	r0, #64
 499 0184 FFF7FEFF 		bl	ADC_CMD
 500              	.LVL33:
 501              	.LBB9:
  64:Src/cmd.c     ****         ADC_CMD(ADC_READ, ADC_CHECK_REG);
 502              		.loc 1 64 9 view .LVU59
 503 0188 0197     		str	r7, [sp, #4]
 504 018a 6022     		movs	r2, #96
 505 018c 0021     		movs	r1, #0
 506 018e 02A8     		add	r0, sp, #8
 507 0190 FFF7FEFF 		bl	memset
 508              	.LVL34:
ARM GAS  C:\Users\matil\AppData\Local\Temp\cce1w2PW.s 			page 18


  64:Src/cmd.c     ****         ADC_CMD(ADC_READ, ADC_CHECK_REG);
 509              		.loc 1 64 9 view .LVU60
 510 0194 FFF7FEFF 		bl	ADC_SPI_READ_16
 511              	.LVL35:
 512 0198 0200     		movs	r2, r0
 513 019a 8649     		ldr	r1, .L42+40
 514 019c 2000     		movs	r0, r4
 515 019e FFF7FEFF 		bl	sprintf
 516              	.LVL36:
  64:Src/cmd.c     ****         ADC_CMD(ADC_READ, ADC_CHECK_REG);
 517              		.loc 1 64 9 view .LVU61
 518 01a2 3300     		movs	r3, r6
 519 01a4 1B22     		movs	r2, #27
 520 01a6 2100     		movs	r1, r4
 521 01a8 2800     		movs	r0, r5
 522 01aa FFF7FEFF 		bl	HAL_UART_Transmit
 523              	.LVL37:
 524              	.LBE9:
  64:Src/cmd.c     ****         ADC_CMD(ADC_READ, ADC_CHECK_REG);
 525              		.loc 1 64 74 view .LVU62
  65:Src/cmd.c     ****         SERIAL_WRITE("\tADC_CHECK_REG:\t\t0x%06x\n", ADC_SPI_READ_24());
 526              		.loc 1 65 9 view .LVU63
 527 01ae 0321     		movs	r1, #3
 528 01b0 4020     		movs	r0, #64
 529 01b2 FFF7FEFF 		bl	ADC_CMD
 530              	.LVL38:
 531              	.LBB10:
  66:Src/cmd.c     ****         ADC_CMD(ADC_READ, ADC_DATA_REG);
 532              		.loc 1 66 9 view .LVU64
 533 01b6 0197     		str	r7, [sp, #4]
 534 01b8 6022     		movs	r2, #96
 535 01ba 0021     		movs	r1, #0
 536 01bc 02A8     		add	r0, sp, #8
 537 01be FFF7FEFF 		bl	memset
 538              	.LVL39:
  66:Src/cmd.c     ****         ADC_CMD(ADC_READ, ADC_DATA_REG);
 539              		.loc 1 66 9 view .LVU65
 540 01c2 FFF7FEFF 		bl	ADC_SPI_READ_24
 541              	.LVL40:
 542 01c6 0200     		movs	r2, r0
 543 01c8 7B49     		ldr	r1, .L42+44
 544 01ca 2000     		movs	r0, r4
 545 01cc FFF7FEFF 		bl	sprintf
 546              	.LVL41:
  66:Src/cmd.c     ****         ADC_CMD(ADC_READ, ADC_DATA_REG);
 547              		.loc 1 66 9 view .LVU66
 548 01d0 82B2     		uxth	r2, r0
 549 01d2 3300     		movs	r3, r6
 550 01d4 2100     		movs	r1, r4
 551 01d6 2800     		movs	r0, r5
 552              	.LVL42:
  66:Src/cmd.c     ****         ADC_CMD(ADC_READ, ADC_DATA_REG);
 553              		.loc 1 66 9 is_stmt 0 view .LVU67
 554 01d8 FFF7FEFF 		bl	HAL_UART_Transmit
 555              	.LVL43:
 556              	.LBE10:
  66:Src/cmd.c     ****         ADC_CMD(ADC_READ, ADC_DATA_REG);
ARM GAS  C:\Users\matil\AppData\Local\Temp\cce1w2PW.s 			page 19


 557              		.loc 1 66 72 is_stmt 1 view .LVU68
  67:Src/cmd.c     ****         SERIAL_WRITE("\tADC_DATA_REG:\t\t0x%06x\n", ADC_SPI_READ_24());
 558              		.loc 1 67 9 view .LVU69
 559 01dc 0421     		movs	r1, #4
 560 01de 4020     		movs	r0, #64
 561 01e0 FFF7FEFF 		bl	ADC_CMD
 562              	.LVL44:
 563              	.LBB11:
  68:Src/cmd.c     ****         ADC_CMD(ADC_READ, ADC_GPIO_REG);
 564              		.loc 1 68 9 view .LVU70
 565 01e4 0197     		str	r7, [sp, #4]
 566 01e6 6022     		movs	r2, #96
 567 01e8 0021     		movs	r1, #0
 568 01ea 02A8     		add	r0, sp, #8
 569 01ec FFF7FEFF 		bl	memset
 570              	.LVL45:
  68:Src/cmd.c     ****         ADC_CMD(ADC_READ, ADC_GPIO_REG);
 571              		.loc 1 68 9 view .LVU71
 572 01f0 FFF7FEFF 		bl	ADC_SPI_READ_24
 573              	.LVL46:
 574 01f4 0200     		movs	r2, r0
 575 01f6 7149     		ldr	r1, .L42+48
 576 01f8 2000     		movs	r0, r4
 577 01fa FFF7FEFF 		bl	sprintf
 578              	.LVL47:
  68:Src/cmd.c     ****         ADC_CMD(ADC_READ, ADC_GPIO_REG);
 579              		.loc 1 68 9 view .LVU72
 580 01fe 82B2     		uxth	r2, r0
 581 0200 3300     		movs	r3, r6
 582 0202 2100     		movs	r1, r4
 583 0204 2800     		movs	r0, r5
 584              	.LVL48:
  68:Src/cmd.c     ****         ADC_CMD(ADC_READ, ADC_GPIO_REG);
 585              		.loc 1 68 9 is_stmt 0 view .LVU73
 586 0206 FFF7FEFF 		bl	HAL_UART_Transmit
 587              	.LVL49:
 588              	.LBE11:
  68:Src/cmd.c     ****         ADC_CMD(ADC_READ, ADC_GPIO_REG);
 589              		.loc 1 68 71 is_stmt 1 view .LVU74
  69:Src/cmd.c     ****         SERIAL_WRITE("\tADC_GPIO_REG:\t\t0x%04x\n", ADC_SPI_READ_16());
 590              		.loc 1 69 9 view .LVU75
 591 020a 0621     		movs	r1, #6
 592 020c 4020     		movs	r0, #64
 593 020e FFF7FEFF 		bl	ADC_CMD
 594              	.LVL50:
 595              	.LBB12:
  70:Src/cmd.c     ****         ADC_CMD(ADC_READ, ADC_ID_REG);
 596              		.loc 1 70 9 view .LVU76
 597 0212 0197     		str	r7, [sp, #4]
 598 0214 6022     		movs	r2, #96
 599 0216 0021     		movs	r1, #0
 600 0218 02A8     		add	r0, sp, #8
 601 021a FFF7FEFF 		bl	memset
 602              	.LVL51:
  70:Src/cmd.c     ****         ADC_CMD(ADC_READ, ADC_ID_REG);
 603              		.loc 1 70 9 view .LVU77
 604 021e FFF7FEFF 		bl	ADC_SPI_READ_16
ARM GAS  C:\Users\matil\AppData\Local\Temp\cce1w2PW.s 			page 20


 605              	.LVL52:
 606 0222 0200     		movs	r2, r0
 607 0224 6649     		ldr	r1, .L42+52
 608 0226 2000     		movs	r0, r4
 609 0228 FFF7FEFF 		bl	sprintf
 610              	.LVL53:
  70:Src/cmd.c     ****         ADC_CMD(ADC_READ, ADC_ID_REG);
 611              		.loc 1 70 9 view .LVU78
 612 022c 3300     		movs	r3, r6
 613 022e 1722     		movs	r2, #23
 614 0230 2100     		movs	r1, r4
 615 0232 2800     		movs	r0, r5
 616 0234 FFF7FEFF 		bl	HAL_UART_Transmit
 617              	.LVL54:
 618              	.LBE12:
  70:Src/cmd.c     ****         ADC_CMD(ADC_READ, ADC_ID_REG);
 619              		.loc 1 70 71 view .LVU79
  71:Src/cmd.c     ****         SERIAL_WRITE("\tADC_ID_REG:\t\t0x%04x\n", ADC_SPI_READ_16());
 620              		.loc 1 71 9 view .LVU80
 621 0238 0721     		movs	r1, #7
 622 023a 4020     		movs	r0, #64
 623 023c FFF7FEFF 		bl	ADC_CMD
 624              	.LVL55:
 625              	.LBB13:
  72:Src/cmd.c     ****         for (int i = 0; i < 15; i++)
 626              		.loc 1 72 9 view .LVU81
 627 0240 0197     		str	r7, [sp, #4]
 628 0242 6022     		movs	r2, #96
 629 0244 0021     		movs	r1, #0
 630 0246 02A8     		add	r0, sp, #8
 631 0248 FFF7FEFF 		bl	memset
 632              	.LVL56:
  72:Src/cmd.c     ****         for (int i = 0; i < 15; i++)
 633              		.loc 1 72 9 view .LVU82
 634 024c FFF7FEFF 		bl	ADC_SPI_READ_16
 635              	.LVL57:
 636 0250 0200     		movs	r2, r0
 637 0252 5C49     		ldr	r1, .L42+56
 638 0254 2000     		movs	r0, r4
 639 0256 FFF7FEFF 		bl	sprintf
 640              	.LVL58:
  72:Src/cmd.c     ****         for (int i = 0; i < 15; i++)
 641              		.loc 1 72 9 view .LVU83
 642 025a 3300     		movs	r3, r6
 643 025c 1522     		movs	r2, #21
 644 025e 2100     		movs	r1, r4
 645 0260 2800     		movs	r0, r5
 646 0262 FFF7FEFF 		bl	HAL_UART_Transmit
 647              	.LVL59:
 648              	.LBE13:
  72:Src/cmd.c     ****         for (int i = 0; i < 15; i++)
 649              		.loc 1 72 69 view .LVU84
  73:Src/cmd.c     ****         {
 650              		.loc 1 73 9 view .LVU85
 651              	.LBB14:
  73:Src/cmd.c     ****         {
 652              		.loc 1 73 14 view .LVU86
ARM GAS  C:\Users\matil\AppData\Local\Temp\cce1w2PW.s 			page 21


  73:Src/cmd.c     ****         {
 653              		.loc 1 73 18 is_stmt 0 view .LVU87
 654 0266 0024     		movs	r4, #0
  73:Src/cmd.c     ****         {
 655              		.loc 1 73 9 view .LVU88
 656 0268 1CE0     		b	.L18
 657              	.LVL60:
 658              	.L19:
  75:Src/cmd.c     ****             SERIAL_WRITE("\tADC_CH%i_REG:\t\t0x%04x\n", i, ADC_SPI_READ_16());
 659              		.loc 1 75 13 is_stmt 1 discriminator 3 view .LVU89
  75:Src/cmd.c     ****             SERIAL_WRITE("\tADC_CH%i_REG:\t\t0x%04x\n", i, ADC_SPI_READ_16());
 660              		.loc 1 75 31 is_stmt 0 discriminator 3 view .LVU90
 661 026a 2100     		movs	r1, r4
 662 026c 1031     		adds	r1, r1, #16
  75:Src/cmd.c     ****             SERIAL_WRITE("\tADC_CH%i_REG:\t\t0x%04x\n", i, ADC_SPI_READ_16());
 663              		.loc 1 75 13 discriminator 3 view .LVU91
 664 026e C9B2     		uxtb	r1, r1
 665 0270 4020     		movs	r0, #64
 666 0272 FFF7FEFF 		bl	ADC_CMD
 667              	.LVL61:
 668              	.LBB15:
  76:Src/cmd.c     ****         }
 669              		.loc 1 76 13 is_stmt 1 discriminator 3 view .LVU92
 670 0276 0023     		movs	r3, #0
 671 0278 0193     		str	r3, [sp, #4]
 672 027a 6022     		movs	r2, #96
 673 027c 0021     		movs	r1, #0
 674 027e 02A8     		add	r0, sp, #8
 675 0280 FFF7FEFF 		bl	memset
 676              	.LVL62:
  76:Src/cmd.c     ****         }
 677              		.loc 1 76 13 discriminator 3 view .LVU93
 678 0284 FFF7FEFF 		bl	ADC_SPI_READ_16
 679              	.LVL63:
 680 0288 0300     		movs	r3, r0
 681 028a 2200     		movs	r2, r4
 682 028c 4E49     		ldr	r1, .L42+60
 683 028e 01A8     		add	r0, sp, #4
 684 0290 FFF7FEFF 		bl	sprintf
 685              	.LVL64:
  76:Src/cmd.c     ****         }
 686              		.loc 1 76 13 discriminator 3 view .LVU94
 687 0294 FA23     		movs	r3, #250
 688 0296 82B2     		uxth	r2, r0
 689 0298 9B00     		lsls	r3, r3, #2
 690 029a 01A9     		add	r1, sp, #4
 691 029c 3E48     		ldr	r0, .L42+12
 692              	.LVL65:
  76:Src/cmd.c     ****         }
 693              		.loc 1 76 13 is_stmt 0 discriminator 3 view .LVU95
 694 029e FFF7FEFF 		bl	HAL_UART_Transmit
 695              	.LVL66:
 696              	.LBE15:
  76:Src/cmd.c     ****         }
 697              		.loc 1 76 78 is_stmt 1 discriminator 3 view .LVU96
  73:Src/cmd.c     ****         {
 698              		.loc 1 73 33 discriminator 3 view .LVU97
ARM GAS  C:\Users\matil\AppData\Local\Temp\cce1w2PW.s 			page 22


  73:Src/cmd.c     ****         {
 699              		.loc 1 73 34 is_stmt 0 discriminator 3 view .LVU98
 700 02a2 0134     		adds	r4, r4, #1
 701              	.LVL67:
 702              	.L18:
  73:Src/cmd.c     ****         {
 703              		.loc 1 73 25 is_stmt 1 discriminator 1 view .LVU99
  73:Src/cmd.c     ****         {
 704              		.loc 1 73 9 is_stmt 0 discriminator 1 view .LVU100
 705 02a4 0E2C     		cmp	r4, #14
 706 02a6 E0DD     		ble	.L19
 707              	.LBE14:
 708              	.LBB16:
  78:Src/cmd.c     ****         {
 709              		.loc 1 78 18 view .LVU101
 710 02a8 0024     		movs	r4, #0
 711              	.LVL68:
  78:Src/cmd.c     ****         {
 712              		.loc 1 78 18 view .LVU102
 713 02aa 1EE0     		b	.L20
 714              	.LVL69:
 715              	.L22:
  80:Src/cmd.c     ****             SERIAL_WRITE("\tADC_SETUPCON%i_REG:\t0x%04x\n", i, ADC_SPI_READ_16());
 716              		.loc 1 80 13 is_stmt 1 view .LVU103
 717 02ac 072C     		cmp	r4, #7
 718 02ae 20D8     		bhi	.L37
  80:Src/cmd.c     ****             SERIAL_WRITE("\tADC_SETUPCON%i_REG:\t0x%04x\n", i, ADC_SPI_READ_16());
 719              		.loc 1 80 31 is_stmt 0 discriminator 1 view .LVU104
 720 02b0 2100     		movs	r1, r4
 721 02b2 2031     		adds	r1, r1, #32
  80:Src/cmd.c     ****             SERIAL_WRITE("\tADC_SETUPCON%i_REG:\t0x%04x\n", i, ADC_SPI_READ_16());
 722              		.loc 1 80 13 discriminator 1 view .LVU105
 723 02b4 C9B2     		uxtb	r1, r1
 724              	.L21:
  80:Src/cmd.c     ****             SERIAL_WRITE("\tADC_SETUPCON%i_REG:\t0x%04x\n", i, ADC_SPI_READ_16());
 725              		.loc 1 80 13 discriminator 4 view .LVU106
 726 02b6 4020     		movs	r0, #64
 727 02b8 FFF7FEFF 		bl	ADC_CMD
 728              	.LVL70:
 729              	.LBB17:
  81:Src/cmd.c     ****         }
 730              		.loc 1 81 13 is_stmt 1 discriminator 4 view .LVU107
 731 02bc 0023     		movs	r3, #0
 732 02be 0193     		str	r3, [sp, #4]
 733 02c0 6022     		movs	r2, #96
 734 02c2 0021     		movs	r1, #0
 735 02c4 02A8     		add	r0, sp, #8
 736 02c6 FFF7FEFF 		bl	memset
 737              	.LVL71:
  81:Src/cmd.c     ****         }
 738              		.loc 1 81 13 discriminator 4 view .LVU108
 739 02ca FFF7FEFF 		bl	ADC_SPI_READ_16
 740              	.LVL72:
 741 02ce 0300     		movs	r3, r0
 742 02d0 2200     		movs	r2, r4
 743 02d2 3E49     		ldr	r1, .L42+64
 744 02d4 01A8     		add	r0, sp, #4
ARM GAS  C:\Users\matil\AppData\Local\Temp\cce1w2PW.s 			page 23


 745 02d6 FFF7FEFF 		bl	sprintf
 746              	.LVL73:
  81:Src/cmd.c     ****         }
 747              		.loc 1 81 13 discriminator 4 view .LVU109
 748 02da FA23     		movs	r3, #250
 749 02dc 9B00     		lsls	r3, r3, #2
 750 02de 1B22     		movs	r2, #27
 751 02e0 01A9     		add	r1, sp, #4
 752 02e2 2D48     		ldr	r0, .L42+12
 753 02e4 FFF7FEFF 		bl	HAL_UART_Transmit
 754              	.LVL74:
 755              	.LBE17:
  81:Src/cmd.c     ****         }
 756              		.loc 1 81 82 discriminator 4 view .LVU110
  78:Src/cmd.c     ****         {
 757              		.loc 1 78 32 discriminator 4 view .LVU111
  78:Src/cmd.c     ****         {
 758              		.loc 1 78 33 is_stmt 0 discriminator 4 view .LVU112
 759 02e8 0134     		adds	r4, r4, #1
 760              	.LVL75:
 761              	.L20:
  78:Src/cmd.c     ****         {
 762              		.loc 1 78 25 is_stmt 1 discriminator 2 view .LVU113
  78:Src/cmd.c     ****         {
 763              		.loc 1 78 9 is_stmt 0 discriminator 2 view .LVU114
 764 02ea 062C     		cmp	r4, #6
 765 02ec DEDD     		ble	.L22
 766              	.LBE16:
 767              	.LBB18:
  83:Src/cmd.c     ****         {
 768              		.loc 1 83 18 view .LVU115
 769 02ee 0024     		movs	r4, #0
 770              	.LVL76:
  83:Src/cmd.c     ****         {
 771              		.loc 1 83 18 view .LVU116
 772 02f0 20E0     		b	.L23
 773              	.LVL77:
 774              	.L37:
  83:Src/cmd.c     ****         {
 775              		.loc 1 83 18 view .LVU117
 776              	.LBE18:
 777              	.LBB20:
  80:Src/cmd.c     ****             SERIAL_WRITE("\tADC_SETUPCON%i_REG:\t0x%04x\n", i, ADC_SPI_READ_16());
 778              		.loc 1 80 13 view .LVU118
 779 02f2 0021     		movs	r1, #0
 780 02f4 DFE7     		b	.L21
 781              	.LVL78:
 782              	.L25:
  80:Src/cmd.c     ****             SERIAL_WRITE("\tADC_SETUPCON%i_REG:\t0x%04x\n", i, ADC_SPI_READ_16());
 783              		.loc 1 80 13 view .LVU119
 784              	.LBE20:
 785              	.LBB21:
  85:Src/cmd.c     ****             SERIAL_WRITE("\tADC_FILTCON%i_REG:\t0x%04x\n", i, ADC_SPI_READ_16());
 786              		.loc 1 85 13 is_stmt 1 view .LVU120
 787 02f6 072C     		cmp	r4, #7
 788 02f8 20D8     		bhi	.L38
  85:Src/cmd.c     ****             SERIAL_WRITE("\tADC_FILTCON%i_REG:\t0x%04x\n", i, ADC_SPI_READ_16());
ARM GAS  C:\Users\matil\AppData\Local\Temp\cce1w2PW.s 			page 24


 789              		.loc 1 85 31 is_stmt 0 discriminator 1 view .LVU121
 790 02fa 2100     		movs	r1, r4
 791 02fc 2831     		adds	r1, r1, #40
  85:Src/cmd.c     ****             SERIAL_WRITE("\tADC_FILTCON%i_REG:\t0x%04x\n", i, ADC_SPI_READ_16());
 792              		.loc 1 85 13 discriminator 1 view .LVU122
 793 02fe C9B2     		uxtb	r1, r1
 794              	.L24:
  85:Src/cmd.c     ****             SERIAL_WRITE("\tADC_FILTCON%i_REG:\t0x%04x\n", i, ADC_SPI_READ_16());
 795              		.loc 1 85 13 discriminator 4 view .LVU123
 796 0300 4020     		movs	r0, #64
 797 0302 FFF7FEFF 		bl	ADC_CMD
 798              	.LVL79:
 799              	.LBB19:
  86:Src/cmd.c     ****         }
 800              		.loc 1 86 13 is_stmt 1 discriminator 4 view .LVU124
 801 0306 0023     		movs	r3, #0
 802 0308 0193     		str	r3, [sp, #4]
 803 030a 6022     		movs	r2, #96
 804 030c 0021     		movs	r1, #0
 805 030e 02A8     		add	r0, sp, #8
 806 0310 FFF7FEFF 		bl	memset
 807              	.LVL80:
  86:Src/cmd.c     ****         }
 808              		.loc 1 86 13 discriminator 4 view .LVU125
 809 0314 FFF7FEFF 		bl	ADC_SPI_READ_16
 810              	.LVL81:
 811 0318 0300     		movs	r3, r0
 812 031a 2200     		movs	r2, r4
 813 031c 2C49     		ldr	r1, .L42+68
 814 031e 01A8     		add	r0, sp, #4
 815 0320 FFF7FEFF 		bl	sprintf
 816              	.LVL82:
  86:Src/cmd.c     ****         }
 817              		.loc 1 86 13 discriminator 4 view .LVU126
 818 0324 FA23     		movs	r3, #250
 819 0326 9B00     		lsls	r3, r3, #2
 820 0328 1A22     		movs	r2, #26
 821 032a 01A9     		add	r1, sp, #4
 822 032c 1A48     		ldr	r0, .L42+12
 823 032e FFF7FEFF 		bl	HAL_UART_Transmit
 824              	.LVL83:
 825              	.LBE19:
  86:Src/cmd.c     ****         }
 826              		.loc 1 86 81 discriminator 4 view .LVU127
  83:Src/cmd.c     ****         {
 827              		.loc 1 83 32 discriminator 4 view .LVU128
  83:Src/cmd.c     ****         {
 828              		.loc 1 83 33 is_stmt 0 discriminator 4 view .LVU129
 829 0332 0134     		adds	r4, r4, #1
 830              	.LVL84:
 831              	.L23:
  83:Src/cmd.c     ****         {
 832              		.loc 1 83 25 is_stmt 1 discriminator 2 view .LVU130
  83:Src/cmd.c     ****         {
 833              		.loc 1 83 9 is_stmt 0 discriminator 2 view .LVU131
 834 0334 062C     		cmp	r4, #6
 835 0336 DEDD     		ble	.L25
ARM GAS  C:\Users\matil\AppData\Local\Temp\cce1w2PW.s 			page 25


 836              	.LBE21:
 837              	.LBB22:
  88:Src/cmd.c     ****         {
 838              		.loc 1 88 18 view .LVU132
 839 0338 0024     		movs	r4, #0
 840              	.LVL85:
  88:Src/cmd.c     ****         {
 841              		.loc 1 88 18 view .LVU133
 842 033a 20E0     		b	.L26
 843              	.LVL86:
 844              	.L38:
  88:Src/cmd.c     ****         {
 845              		.loc 1 88 18 view .LVU134
 846              	.LBE22:
 847              	.LBB24:
  85:Src/cmd.c     ****             SERIAL_WRITE("\tADC_FILTCON%i_REG:\t0x%04x\n", i, ADC_SPI_READ_16());
 848              		.loc 1 85 13 view .LVU135
 849 033c 0021     		movs	r1, #0
 850 033e DFE7     		b	.L24
 851              	.LVL87:
 852              	.L28:
  85:Src/cmd.c     ****             SERIAL_WRITE("\tADC_FILTCON%i_REG:\t0x%04x\n", i, ADC_SPI_READ_16());
 853              		.loc 1 85 13 view .LVU136
 854              	.LBE24:
 855              	.LBB25:
  90:Src/cmd.c     ****             SERIAL_WRITE("\tADC_OFFSET%i_REG:\t0x%04x\n", i, ADC_SPI_READ_24());
 856              		.loc 1 90 13 is_stmt 1 view .LVU137
 857 0340 072C     		cmp	r4, #7
 858 0342 20D8     		bhi	.L39
  90:Src/cmd.c     ****             SERIAL_WRITE("\tADC_OFFSET%i_REG:\t0x%04x\n", i, ADC_SPI_READ_24());
 859              		.loc 1 90 31 is_stmt 0 discriminator 1 view .LVU138
 860 0344 2100     		movs	r1, r4
 861 0346 3031     		adds	r1, r1, #48
  90:Src/cmd.c     ****             SERIAL_WRITE("\tADC_OFFSET%i_REG:\t0x%04x\n", i, ADC_SPI_READ_24());
 862              		.loc 1 90 13 discriminator 1 view .LVU139
 863 0348 C9B2     		uxtb	r1, r1
 864              	.L27:
  90:Src/cmd.c     ****             SERIAL_WRITE("\tADC_OFFSET%i_REG:\t0x%04x\n", i, ADC_SPI_READ_24());
 865              		.loc 1 90 13 discriminator 4 view .LVU140
 866 034a 4020     		movs	r0, #64
 867 034c FFF7FEFF 		bl	ADC_CMD
 868              	.LVL88:
 869              	.LBB23:
  91:Src/cmd.c     ****         }
 870              		.loc 1 91 13 is_stmt 1 discriminator 4 view .LVU141
 871 0350 0023     		movs	r3, #0
 872 0352 0193     		str	r3, [sp, #4]
 873 0354 6022     		movs	r2, #96
 874 0356 0021     		movs	r1, #0
 875 0358 02A8     		add	r0, sp, #8
 876 035a FFF7FEFF 		bl	memset
 877              	.LVL89:
  91:Src/cmd.c     ****         }
 878              		.loc 1 91 13 discriminator 4 view .LVU142
 879 035e FFF7FEFF 		bl	ADC_SPI_READ_24
 880              	.LVL90:
 881 0362 0300     		movs	r3, r0
ARM GAS  C:\Users\matil\AppData\Local\Temp\cce1w2PW.s 			page 26


 882 0364 2200     		movs	r2, r4
 883 0366 1B49     		ldr	r1, .L42+72
 884 0368 01A8     		add	r0, sp, #4
 885 036a FFF7FEFF 		bl	sprintf
 886              	.LVL91:
  91:Src/cmd.c     ****         }
 887              		.loc 1 91 13 discriminator 4 view .LVU143
 888 036e FA23     		movs	r3, #250
 889 0370 82B2     		uxth	r2, r0
 890 0372 9B00     		lsls	r3, r3, #2
 891 0374 01A9     		add	r1, sp, #4
 892 0376 0848     		ldr	r0, .L42+12
 893              	.LVL92:
  91:Src/cmd.c     ****         }
 894              		.loc 1 91 13 is_stmt 0 discriminator 4 view .LVU144
 895 0378 FFF7FEFF 		bl	HAL_UART_Transmit
 896              	.LVL93:
 897              	.LBE23:
  91:Src/cmd.c     ****         }
 898              		.loc 1 91 80 is_stmt 1 discriminator 4 view .LVU145
  88:Src/cmd.c     ****         {
 899              		.loc 1 88 32 discriminator 4 view .LVU146
  88:Src/cmd.c     ****         {
 900              		.loc 1 88 33 is_stmt 0 discriminator 4 view .LVU147
 901 037c 0134     		adds	r4, r4, #1
 902              	.LVL94:
 903              	.L26:
  88:Src/cmd.c     ****         {
 904              		.loc 1 88 25 is_stmt 1 discriminator 2 view .LVU148
  88:Src/cmd.c     ****         {
 905              		.loc 1 88 9 is_stmt 0 discriminator 2 view .LVU149
 906 037e 062C     		cmp	r4, #6
 907 0380 DEDD     		ble	.L28
 908              	.LBE25:
 909              	.LBB26:
  93:Src/cmd.c     ****         {
 910              		.loc 1 93 18 view .LVU150
 911 0382 0024     		movs	r4, #0
 912              	.LVL95:
  93:Src/cmd.c     ****         {
 913              		.loc 1 93 18 view .LVU151
 914 0384 47E0     		b	.L29
 915              	.LVL96:
 916              	.L39:
  93:Src/cmd.c     ****         {
 917              		.loc 1 93 18 view .LVU152
 918              	.LBE26:
 919              	.LBB28:
  90:Src/cmd.c     ****             SERIAL_WRITE("\tADC_OFFSET%i_REG:\t0x%04x\n", i, ADC_SPI_READ_24());
 920              		.loc 1 90 13 view .LVU153
 921 0386 0021     		movs	r1, #0
 922 0388 DFE7     		b	.L27
 923              	.L43:
 924 038a C046     		.align	2
 925              	.L42:
 926 038c 00000000 		.word	State
 927 0390 00000000 		.word	.L5
ARM GAS  C:\Users\matil\AppData\Local\Temp\cce1w2PW.s 			page 27


 928 0394 70030000 		.word	.LC100
 929 0398 00000000 		.word	huart2
 930 039c 6F6B0A00 		.word	682863
 931 03a0 00000000 		.word	.LC3
 932 03a4 00000000 		.word	hspi2
 933 03a8 08000000 		.word	.LC6
 934 03ac 18000000 		.word	.LC8
 935 03b0 34000000 		.word	.LC10
 936 03b4 4C000000 		.word	.LC12
 937 03b8 68000000 		.word	.LC14
 938 03bc 84000000 		.word	.LC16
 939 03c0 9C000000 		.word	.LC18
 940 03c4 B4000000 		.word	.LC20
 941 03c8 CC000000 		.word	.LC22
 942 03cc E4000000 		.word	.LC24
 943 03d0 04010000 		.word	.LC26
 944 03d4 20010000 		.word	.LC28
 945              	.LVL97:
 946              	.L31:
  90:Src/cmd.c     ****             SERIAL_WRITE("\tADC_OFFSET%i_REG:\t0x%04x\n", i, ADC_SPI_READ_24());
 947              		.loc 1 90 13 view .LVU154
 948              	.LBE28:
 949              	.LBB29:
  95:Src/cmd.c     ****             SERIAL_WRITE("\tADC_GAIN%i_REG:\t\t0x%04x\n", i, ADC_SPI_READ_24());
 950              		.loc 1 95 13 is_stmt 1 view .LVU155
 951 03d8 072C     		cmp	r4, #7
 952 03da 31D8     		bhi	.L40
  95:Src/cmd.c     ****             SERIAL_WRITE("\tADC_GAIN%i_REG:\t\t0x%04x\n", i, ADC_SPI_READ_24());
 953              		.loc 1 95 31 is_stmt 0 discriminator 1 view .LVU156
 954 03dc 2100     		movs	r1, r4
 955 03de 3831     		adds	r1, r1, #56
  95:Src/cmd.c     ****             SERIAL_WRITE("\tADC_GAIN%i_REG:\t\t0x%04x\n", i, ADC_SPI_READ_24());
 956              		.loc 1 95 13 discriminator 1 view .LVU157
 957 03e0 C9B2     		uxtb	r1, r1
 958              	.L30:
  95:Src/cmd.c     ****             SERIAL_WRITE("\tADC_GAIN%i_REG:\t\t0x%04x\n", i, ADC_SPI_READ_24());
 959              		.loc 1 95 13 discriminator 4 view .LVU158
 960 03e2 4020     		movs	r0, #64
 961 03e4 FFF7FEFF 		bl	ADC_CMD
 962              	.LVL98:
 963              	.LBB27:
  96:Src/cmd.c     ****         }
 964              		.loc 1 96 13 is_stmt 1 discriminator 4 view .LVU159
 965 03e8 0023     		movs	r3, #0
 966 03ea 0193     		str	r3, [sp, #4]
 967 03ec 6022     		movs	r2, #96
 968 03ee 0021     		movs	r1, #0
 969 03f0 02A8     		add	r0, sp, #8
 970 03f2 FFF7FEFF 		bl	memset
 971              	.LVL99:
  96:Src/cmd.c     ****         }
 972              		.loc 1 96 13 discriminator 4 view .LVU160
 973 03f6 FFF7FEFF 		bl	ADC_SPI_READ_24
 974              	.LVL100:
 975 03fa 0300     		movs	r3, r0
 976 03fc 2200     		movs	r2, r4
 977 03fe 6E49     		ldr	r1, .L44
ARM GAS  C:\Users\matil\AppData\Local\Temp\cce1w2PW.s 			page 28


 978 0400 01A8     		add	r0, sp, #4
 979 0402 FFF7FEFF 		bl	sprintf
 980              	.LVL101:
  96:Src/cmd.c     ****         }
 981              		.loc 1 96 13 discriminator 4 view .LVU161
 982 0406 FA23     		movs	r3, #250
 983 0408 82B2     		uxth	r2, r0
 984 040a 9B00     		lsls	r3, r3, #2
 985 040c 01A9     		add	r1, sp, #4
 986 040e 6B48     		ldr	r0, .L44+4
 987              	.LVL102:
  96:Src/cmd.c     ****         }
 988              		.loc 1 96 13 is_stmt 0 discriminator 4 view .LVU162
 989 0410 FFF7FEFF 		bl	HAL_UART_Transmit
 990              	.LVL103:
 991              	.LBE27:
  96:Src/cmd.c     ****         }
 992              		.loc 1 96 80 is_stmt 1 discriminator 4 view .LVU163
  93:Src/cmd.c     ****         {
 993              		.loc 1 93 32 discriminator 4 view .LVU164
  93:Src/cmd.c     ****         {
 994              		.loc 1 93 33 is_stmt 0 discriminator 4 view .LVU165
 995 0414 0134     		adds	r4, r4, #1
 996              	.LVL104:
 997              	.L29:
  93:Src/cmd.c     ****         {
 998              		.loc 1 93 25 is_stmt 1 discriminator 2 view .LVU166
  93:Src/cmd.c     ****         {
 999              		.loc 1 93 9 is_stmt 0 discriminator 2 view .LVU167
 1000 0416 062C     		cmp	r4, #6
 1001 0418 DEDD     		ble	.L31
 1002              	.LBE29:
  98:Src/cmd.c     ****         {
 1003              		.loc 1 98 9 is_stmt 1 view .LVU168
  98:Src/cmd.c     ****         {
 1004              		.loc 1 98 19 is_stmt 0 view .LVU169
 1005 041a 694B     		ldr	r3, .L44+8
 1006 041c DB7A     		ldrb	r3, [r3, #11]
  98:Src/cmd.c     ****         {
 1007              		.loc 1 98 12 view .LVU170
 1008 041e 002B     		cmp	r3, #0
 1009 0420 02D1     		bne	.L32
 100:Src/cmd.c     ****         }
 1010              		.loc 1 100 13 is_stmt 1 view .LVU171
 100:Src/cmd.c     ****         }
 1011              		.loc 1 100 23 is_stmt 0 view .LVU172
 1012 0422 674B     		ldr	r3, .L44+8
 1013 0424 0022     		movs	r2, #0
 1014 0426 9A72     		strb	r2, [r3, #10]
 1015              	.L32:
 102:Src/cmd.c     ****         ADC_DATA_READY_EXTI_Init();
 1016              		.loc 1 102 9 is_stmt 1 view .LVU173
 1017 0428 6648     		ldr	r0, .L44+12
 1018 042a FFF7FEFF 		bl	HAL_SPI_MspDeInit
 1019              	.LVL105:
 103:Src/cmd.c     ****         break;
 1020              		.loc 1 103 9 view .LVU174
ARM GAS  C:\Users\matil\AppData\Local\Temp\cce1w2PW.s 			page 29


 1021 042e FFF7FEFF 		bl	ADC_DATA_READY_EXTI_Init
 1022              	.LVL106:
 104:Src/cmd.c     ****     }
 1023              		.loc 1 104 9 view .LVU175
 1024              	.L1:
 1025              		.loc 1 265 1 is_stmt 0 view .LVU176
 1026 0432 1BB0     		add	sp, sp, #108
 1027              		@ sp needed
 1028 0434 3CBC     		pop	{r2, r3, r4, r5}
 1029 0436 9046     		mov	r8, r2
 1030 0438 9946     		mov	r9, r3
 1031 043a A246     		mov	r10, r4
 1032 043c AB46     		mov	fp, r5
 1033 043e F0BD     		pop	{r4, r5, r6, r7, pc}
 1034              	.LVL107:
 1035              	.L40:
 1036              	.LBB30:
  95:Src/cmd.c     ****             SERIAL_WRITE("\tADC_GAIN%i_REG:\t\t0x%04x\n", i, ADC_SPI_READ_24());
 1037              		.loc 1 95 13 view .LVU177
 1038 0440 0021     		movs	r1, #0
 1039 0442 CEE7     		b	.L30
 1040              	.LVL108:
 1041              	.L36:
  95:Src/cmd.c     ****             SERIAL_WRITE("\tADC_GAIN%i_REG:\t\t0x%04x\n", i, ADC_SPI_READ_24());
 1042              		.loc 1 95 13 view .LVU178
 1043              	.LBE30:
  15:Src/cmd.c     ****     {
 1044              		.loc 1 15 5 view .LVU179
 1045 0444 0024     		movs	r4, #0
 1046              	.L10:
 1047              	.LVL109:
 1048              	.LBB31:
 108:Src/cmd.c     ****         {
 1049              		.loc 1 108 25 is_stmt 1 discriminator 1 view .LVU180
 108:Src/cmd.c     ****         {
 1050              		.loc 1 108 9 is_stmt 0 discriminator 1 view .LVU181
 1051 0446 0F2C     		cmp	r4, #15
 1052 0448 50DC     		bgt	.L41
 1053              	.LBB32:
 110:Src/cmd.c     ****             SERIAL_WRITE("[%i]\t", i);
 1054              		.loc 1 110 13 is_stmt 1 discriminator 3 view .LVU182
 110:Src/cmd.c     ****             SERIAL_WRITE("[%i]\t", i);
 1055              		.loc 1 110 63 is_stmt 0 discriminator 3 view .LVU183
 1056 044a 5D4B     		ldr	r3, .L44+8
 1057 044c 9B46     		mov	fp, r3
 1058 044e 2500     		movs	r5, r4
 1059 0450 1435     		adds	r5, r5, #20
 1060 0452 AD00     		lsls	r5, r5, #2
 110:Src/cmd.c     ****             SERIAL_WRITE("[%i]\t", i);
 1061              		.loc 1 110 37 discriminator 3 view .LVU184
 1062 0454 0023     		movs	r3, #0
 1063 0456 9846     		mov	r8, r3
 110:Src/cmd.c     ****             SERIAL_WRITE("[%i]\t", i);
 1064              		.loc 1 110 67 discriminator 3 view .LVU185
 1065 0458 5B4A     		ldr	r2, .L44+16
 1066 045a 0023     		movs	r3, #0
 1067 045c 5946     		mov	r1, fp
ARM GAS  C:\Users\matil\AppData\Local\Temp\cce1w2PW.s 			page 30


 1068 045e 6858     		ldr	r0, [r5, r1]
 1069 0460 0021     		movs	r1, #0
 1070 0462 FFF7FEFF 		bl	__aeabi_lmul
 1071              	.LVL110:
 110:Src/cmd.c     ****             SERIAL_WRITE("[%i]\t", i);
 1072              		.loc 1 110 22 discriminator 3 view .LVU186
 1073 0466 594A     		ldr	r2, .L44+20
 1074 0468 0023     		movs	r3, #0
 1075 046a FFF7FEFF 		bl	__aeabi_uldivmod
 1076              	.LVL111:
 1077 046e 8246     		mov	r10, r0
 1078 0470 8946     		mov	r9, r1
 1079              	.LVL112:
 1080              	.LBB33:
 111:Src/cmd.c     ****             SERIAL_WRITE("%10i uV\t\t", voltage_uV);
 1081              		.loc 1 111 13 is_stmt 1 discriminator 3 view .LVU187
 1082 0472 4346     		mov	r3, r8
 1083 0474 0193     		str	r3, [sp, #4]
 1084 0476 6022     		movs	r2, #96
 1085 0478 0021     		movs	r1, #0
 1086              	.LVL113:
 111:Src/cmd.c     ****             SERIAL_WRITE("%10i uV\t\t", voltage_uV);
 1087              		.loc 1 111 13 is_stmt 0 discriminator 3 view .LVU188
 1088 047a 02A8     		add	r0, sp, #8
 1089              	.LVL114:
 111:Src/cmd.c     ****             SERIAL_WRITE("%10i uV\t\t", voltage_uV);
 1090              		.loc 1 111 13 discriminator 3 view .LVU189
 1091 047c FFF7FEFF 		bl	memset
 1092              	.LVL115:
 111:Src/cmd.c     ****             SERIAL_WRITE("%10i uV\t\t", voltage_uV);
 1093              		.loc 1 111 13 is_stmt 1 discriminator 3 view .LVU190
 1094 0480 2200     		movs	r2, r4
 1095 0482 5349     		ldr	r1, .L44+24
 1096 0484 01A8     		add	r0, sp, #4
 1097 0486 FFF7FEFF 		bl	sprintf
 1098              	.LVL116:
 111:Src/cmd.c     ****             SERIAL_WRITE("%10i uV\t\t", voltage_uV);
 1099              		.loc 1 111 13 discriminator 3 view .LVU191
 1100 048a FA27     		movs	r7, #250
 1101 048c BF00     		lsls	r7, r7, #2
 1102 048e 82B2     		uxth	r2, r0
 1103 0490 4A4E     		ldr	r6, .L44+4
 1104 0492 3B00     		movs	r3, r7
 1105 0494 01A9     		add	r1, sp, #4
 1106 0496 3000     		movs	r0, r6
 1107              	.LVL117:
 111:Src/cmd.c     ****             SERIAL_WRITE("%10i uV\t\t", voltage_uV);
 1108              		.loc 1 111 13 is_stmt 0 discriminator 3 view .LVU192
 1109 0498 FFF7FEFF 		bl	HAL_UART_Transmit
 1110              	.LVL118:
 1111              	.LBE33:
 111:Src/cmd.c     ****             SERIAL_WRITE("%10i uV\t\t", voltage_uV);
 1112              		.loc 1 111 38 is_stmt 1 discriminator 3 view .LVU193
 1113              	.LBB34:
 112:Src/cmd.c     ****             SERIAL_WRITE("0x%06x\n", State.ADC_Values[i]);
 1114              		.loc 1 112 13 discriminator 3 view .LVU194
 1115 049c 4346     		mov	r3, r8
ARM GAS  C:\Users\matil\AppData\Local\Temp\cce1w2PW.s 			page 31


 1116 049e 0193     		str	r3, [sp, #4]
 1117 04a0 6022     		movs	r2, #96
 1118 04a2 0021     		movs	r1, #0
 1119 04a4 02A8     		add	r0, sp, #8
 1120 04a6 FFF7FEFF 		bl	memset
 1121              	.LVL119:
 112:Src/cmd.c     ****             SERIAL_WRITE("0x%06x\n", State.ADC_Values[i]);
 1122              		.loc 1 112 13 discriminator 3 view .LVU195
 1123 04aa 5246     		mov	r2, r10
 1124 04ac 4B46     		mov	r3, r9
 1125 04ae 4949     		ldr	r1, .L44+28
 1126 04b0 01A8     		add	r0, sp, #4
 1127 04b2 FFF7FEFF 		bl	sprintf
 1128              	.LVL120:
 112:Src/cmd.c     ****             SERIAL_WRITE("0x%06x\n", State.ADC_Values[i]);
 1129              		.loc 1 112 13 discriminator 3 view .LVU196
 1130 04b6 3B00     		movs	r3, r7
 1131 04b8 0F22     		movs	r2, #15
 1132 04ba 01A9     		add	r1, sp, #4
 1133 04bc 3000     		movs	r0, r6
 1134 04be FFF7FEFF 		bl	HAL_UART_Transmit
 1135              	.LVL121:
 1136              	.LBE34:
 112:Src/cmd.c     ****             SERIAL_WRITE("0x%06x\n", State.ADC_Values[i]);
 1137              		.loc 1 112 52 discriminator 3 view .LVU197
 1138              	.LBB35:
 113:Src/cmd.c     ****         }
 1139              		.loc 1 113 13 discriminator 3 view .LVU198
 1140 04c2 4346     		mov	r3, r8
 1141 04c4 0193     		str	r3, [sp, #4]
 1142 04c6 6022     		movs	r2, #96
 1143 04c8 0021     		movs	r1, #0
 1144 04ca 02A8     		add	r0, sp, #8
 1145 04cc FFF7FEFF 		bl	memset
 1146              	.LVL122:
 113:Src/cmd.c     ****         }
 1147              		.loc 1 113 13 discriminator 3 view .LVU199
 1148 04d0 5B46     		mov	r3, fp
 1149 04d2 EA58     		ldr	r2, [r5, r3]
 1150 04d4 4049     		ldr	r1, .L44+32
 1151 04d6 01A8     		add	r0, sp, #4
 1152 04d8 FFF7FEFF 		bl	sprintf
 1153              	.LVL123:
 113:Src/cmd.c     ****         }
 1154              		.loc 1 113 13 discriminator 3 view .LVU200
 1155 04dc 82B2     		uxth	r2, r0
 1156 04de 3B00     		movs	r3, r7
 1157 04e0 01A9     		add	r1, sp, #4
 1158 04e2 3000     		movs	r0, r6
 1159              	.LVL124:
 113:Src/cmd.c     ****         }
 1160              		.loc 1 113 13 is_stmt 0 discriminator 3 view .LVU201
 1161 04e4 FFF7FEFF 		bl	HAL_UART_Transmit
 1162              	.LVL125:
 1163              	.LBE35:
 113:Src/cmd.c     ****         }
 1164              		.loc 1 113 58 is_stmt 1 discriminator 3 view .LVU202
ARM GAS  C:\Users\matil\AppData\Local\Temp\cce1w2PW.s 			page 32


 1165              	.LBE32:
 108:Src/cmd.c     ****         {
 1166              		.loc 1 108 33 discriminator 3 view .LVU203
 108:Src/cmd.c     ****         {
 1167              		.loc 1 108 34 is_stmt 0 discriminator 3 view .LVU204
 1168 04e8 0134     		adds	r4, r4, #1
 1169              	.LVL126:
 108:Src/cmd.c     ****         {
 1170              		.loc 1 108 34 discriminator 3 view .LVU205
 1171 04ea ACE7     		b	.L10
 1172              	.LVL127:
 1173              	.L41:
 108:Src/cmd.c     ****         {
 1174              		.loc 1 108 34 discriminator 3 view .LVU206
 1175              	.LBE31:
 115:Src/cmd.c     ****         {
 1176              		.loc 1 115 9 is_stmt 1 view .LVU207
 115:Src/cmd.c     ****         {
 1177              		.loc 1 115 19 is_stmt 0 view .LVU208
 1178 04ec 344B     		ldr	r3, .L44+8
 1179 04ee DB7A     		ldrb	r3, [r3, #11]
 115:Src/cmd.c     ****         {
 1180              		.loc 1 115 12 view .LVU209
 1181 04f0 002B     		cmp	r3, #0
 1182 04f2 9ED1     		bne	.L1
 117:Src/cmd.c     ****         }
 1183              		.loc 1 117 13 is_stmt 1 view .LVU210
 117:Src/cmd.c     ****         }
 1184              		.loc 1 117 23 is_stmt 0 view .LVU211
 1185 04f4 324B     		ldr	r3, .L44+8
 1186 04f6 0022     		movs	r2, #0
 1187 04f8 9A72     		strb	r2, [r3, #10]
 1188 04fa 9AE7     		b	.L1
 1189              	.LVL128:
 1190              	.L9:
 1191              	.LBB36:
 123:Src/cmd.c     ****         SERIAL_WRITE("%03u *C\n", (Temperature() / 1000) % 1000); //-66.875 to +52.443 C
 1192              		.loc 1 123 9 is_stmt 1 view .LVU212
 1193 04fc 0026     		movs	r6, #0
 1194 04fe 0196     		str	r6, [sp, #4]
 1195 0500 6022     		movs	r2, #96
 1196 0502 0021     		movs	r1, #0
 1197 0504 02A8     		add	r0, sp, #8
 1198 0506 FFF7FEFF 		bl	memset
 1199              	.LVL129:
 123:Src/cmd.c     ****         SERIAL_WRITE("%03u *C\n", (Temperature() / 1000) % 1000); //-66.875 to +52.443 C
 1200              		.loc 1 123 9 view .LVU213
 1201 050a FFF7FEFF 		bl	Temperature
 1202              	.LVL130:
 1203 050e 334A     		ldr	r2, .L44+36
 1204 0510 0023     		movs	r3, #0
 1205 0512 FFF7FEFF 		bl	__aeabi_ldivmod
 1206              	.LVL131:
 1207 0516 0200     		movs	r2, r0
 1208 0518 0B00     		movs	r3, r1
 1209 051a 3149     		ldr	r1, .L44+40
 1210 051c 01A8     		add	r0, sp, #4
ARM GAS  C:\Users\matil\AppData\Local\Temp\cce1w2PW.s 			page 33


 1211 051e FFF7FEFF 		bl	sprintf
 1212              	.LVL132:
 123:Src/cmd.c     ****         SERIAL_WRITE("%03u *C\n", (Temperature() / 1000) % 1000); //-66.875 to +52.443 C
 1213              		.loc 1 123 9 view .LVU214
 1214 0522 FA25     		movs	r5, #250
 1215 0524 AD00     		lsls	r5, r5, #2
 1216 0526 82B2     		uxth	r2, r0
 1217 0528 244C     		ldr	r4, .L44+4
 1218 052a 2B00     		movs	r3, r5
 1219 052c 01A9     		add	r1, sp, #4
 1220 052e 2000     		movs	r0, r4
 1221              	.LVL133:
 123:Src/cmd.c     ****         SERIAL_WRITE("%03u *C\n", (Temperature() / 1000) % 1000); //-66.875 to +52.443 C
 1222              		.loc 1 123 9 is_stmt 0 view .LVU215
 1223 0530 FFF7FEFF 		bl	HAL_UART_Transmit
 1224              	.LVL134:
 1225              	.LBE36:
 123:Src/cmd.c     ****         SERIAL_WRITE("%03u *C\n", (Temperature() / 1000) % 1000); //-66.875 to +52.443 C
 1226              		.loc 1 123 53 is_stmt 1 view .LVU216
 1227              	.LBB37:
 124:Src/cmd.c     ****         if (!State.cmdLoop)
 1228              		.loc 1 124 9 view .LVU217
 1229 0534 0196     		str	r6, [sp, #4]
 1230 0536 6022     		movs	r2, #96
 1231 0538 0021     		movs	r1, #0
 1232 053a 02A8     		add	r0, sp, #8
 1233 053c FFF7FEFF 		bl	memset
 1234              	.LVL135:
 124:Src/cmd.c     ****         if (!State.cmdLoop)
 1235              		.loc 1 124 9 view .LVU218
 1236 0540 FFF7FEFF 		bl	Temperature
 1237              	.LVL136:
 1238 0544 FA22     		movs	r2, #250
 1239 0546 9200     		lsls	r2, r2, #2
 1240 0548 0023     		movs	r3, #0
 1241 054a FFF7FEFF 		bl	__aeabi_ldivmod
 1242              	.LVL137:
 1243 054e FA22     		movs	r2, #250
 1244 0550 9200     		lsls	r2, r2, #2
 1245 0552 0023     		movs	r3, #0
 1246 0554 FFF7FEFF 		bl	__aeabi_ldivmod
 1247              	.LVL138:
 1248 0558 2249     		ldr	r1, .L44+44
 1249 055a 01A8     		add	r0, sp, #4
 1250 055c FFF7FEFF 		bl	sprintf
 1251              	.LVL139:
 124:Src/cmd.c     ****         if (!State.cmdLoop)
 1252              		.loc 1 124 9 view .LVU219
 1253 0560 82B2     		uxth	r2, r0
 1254 0562 2B00     		movs	r3, r5
 1255 0564 01A9     		add	r1, sp, #4
 1256 0566 2000     		movs	r0, r4
 1257              	.LVL140:
 124:Src/cmd.c     ****         if (!State.cmdLoop)
 1258              		.loc 1 124 9 is_stmt 0 view .LVU220
 1259 0568 FFF7FEFF 		bl	HAL_UART_Transmit
 1260              	.LVL141:
ARM GAS  C:\Users\matil\AppData\Local\Temp\cce1w2PW.s 			page 34


 1261              	.LBE37:
 124:Src/cmd.c     ****         if (!State.cmdLoop)
 1262              		.loc 1 124 65 is_stmt 1 view .LVU221
 125:Src/cmd.c     ****         {
 1263              		.loc 1 125 9 view .LVU222
 125:Src/cmd.c     ****         {
 1264              		.loc 1 125 19 is_stmt 0 view .LVU223
 1265 056c 144B     		ldr	r3, .L44+8
 1266 056e DB7A     		ldrb	r3, [r3, #11]
 125:Src/cmd.c     ****         {
 1267              		.loc 1 125 12 view .LVU224
 1268 0570 002B     		cmp	r3, #0
 1269 0572 00D0     		beq	.LCB1045
 1270 0574 5DE7     		b	.L1	@long jump
 1271              	.LCB1045:
 127:Src/cmd.c     ****         }
 1272              		.loc 1 127 13 is_stmt 1 view .LVU225
 127:Src/cmd.c     ****         }
 1273              		.loc 1 127 23 is_stmt 0 view .LVU226
 1274 0576 124B     		ldr	r3, .L44+8
 1275 0578 0022     		movs	r2, #0
 1276 057a 9A72     		strb	r2, [r3, #10]
 1277 057c 59E7     		b	.L1
 1278              	.L8:
 1279              	.LBB38:
 133:Src/cmd.c     ****         DAC_test();
 1280              		.loc 1 133 9 is_stmt 1 view .LVU227
 1281 057e 01AC     		add	r4, sp, #4
 1282 0580 0023     		movs	r3, #0
 1283 0582 0193     		str	r3, [sp, #4]
 1284 0584 6022     		movs	r2, #96
 1285 0586 0021     		movs	r1, #0
 1286 0588 02A8     		add	r0, sp, #8
 1287 058a FFF7FEFF 		bl	memset
 1288              	.LVL142:
 133:Src/cmd.c     ****         DAC_test();
 1289              		.loc 1 133 9 view .LVU228
 1290 058e 0A23     		movs	r3, #10
 1291 0590 2380     		strh	r3, [r4]
 1292              	.LVL143:
 133:Src/cmd.c     ****         DAC_test();
 1293              		.loc 1 133 9 view .LVU229
 1294 0592 F033     		adds	r3, r3, #240
 1295 0594 9B00     		lsls	r3, r3, #2
 1296 0596 0122     		movs	r2, #1
 1297 0598 2100     		movs	r1, r4
 1298 059a 0848     		ldr	r0, .L44+4
 1299 059c FFF7FEFF 		bl	HAL_UART_Transmit
 1300              	.LVL144:
 1301              	.LBE38:
 133:Src/cmd.c     ****         DAC_test();
 1302              		.loc 1 133 27 view .LVU230
 134:Src/cmd.c     ****         if (!State.cmdLoop)
 1303              		.loc 1 134 9 view .LVU231
 1304 05a0 FFF7FEFF 		bl	DAC_test
 1305              	.LVL145:
 135:Src/cmd.c     ****         {
ARM GAS  C:\Users\matil\AppData\Local\Temp\cce1w2PW.s 			page 35


 1306              		.loc 1 135 9 view .LVU232
 135:Src/cmd.c     ****         {
 1307              		.loc 1 135 19 is_stmt 0 view .LVU233
 1308 05a4 064B     		ldr	r3, .L44+8
 1309 05a6 DB7A     		ldrb	r3, [r3, #11]
 135:Src/cmd.c     ****         {
 1310              		.loc 1 135 12 view .LVU234
 1311 05a8 002B     		cmp	r3, #0
 1312 05aa 00D0     		beq	.LCB1084
 1313 05ac 41E7     		b	.L1	@long jump
 1314              	.LCB1084:
 137:Src/cmd.c     ****         }
 1315              		.loc 1 137 13 is_stmt 1 view .LVU235
 137:Src/cmd.c     ****         }
 1316              		.loc 1 137 23 is_stmt 0 view .LVU236
 1317 05ae 044B     		ldr	r3, .L44+8
 1318 05b0 0022     		movs	r2, #0
 1319 05b2 9A72     		strb	r2, [r3, #10]
 1320 05b4 3DE7     		b	.L1
 1321              	.L45:
 1322 05b6 C046     		.align	2
 1323              	.L44:
 1324 05b8 3C010000 		.word	.LC30
 1325 05bc 00000000 		.word	huart2
 1326 05c0 00000000 		.word	State
 1327 05c4 00000000 		.word	hspi2
 1328 05c8 40771B00 		.word	1800000
 1329 05cc FFFFFF00 		.word	16777215
 1330 05d0 58010000 		.word	.LC32
 1331 05d4 60010000 		.word	.LC34
 1332 05d8 00000000 		.word	.LC3
 1333 05dc 40420F00 		.word	1000000
 1334 05e0 6C010000 		.word	.LC36
 1335 05e4 70010000 		.word	.LC38
 1336              	.LVL146:
 1337              	.L7:
 1338              	.LBB39:
 143:Src/cmd.c     ****         SERIAL_WRITE("PD0 Phase:\t\t");
 1339              		.loc 1 143 9 is_stmt 1 view .LVU237
 1340 05e8 01AC     		add	r4, sp, #4
 1341 05ea 0023     		movs	r3, #0
 1342 05ec 9B46     		mov	fp, r3
 1343 05ee 6022     		movs	r2, #96
 1344 05f0 0021     		movs	r1, #0
 1345 05f2 02A8     		add	r0, sp, #8
 1346 05f4 FFF7FEFF 		bl	memset
 1347              	.LVL147:
 143:Src/cmd.c     ****         SERIAL_WRITE("PD0 Phase:\t\t");
 1348              		.loc 1 143 9 view .LVU238
 1349 05f8 FD4B     		ldr	r3, .L46
 1350 05fa 1A68     		ldr	r2, [r3]
 1351 05fc 0192     		str	r2, [sp, #4]
 1352 05fe 9B88     		ldrh	r3, [r3, #4]
 1353 0600 A380     		strh	r3, [r4, #4]
 1354              	.LVL148:
 143:Src/cmd.c     ****         SERIAL_WRITE("PD0 Phase:\t\t");
 1355              		.loc 1 143 9 view .LVU239
ARM GAS  C:\Users\matil\AppData\Local\Temp\cce1w2PW.s 			page 36


 1356 0602 FA25     		movs	r5, #250
 1357 0604 AD00     		lsls	r5, r5, #2
 1358 0606 FB4E     		ldr	r6, .L46+4
 1359 0608 2B00     		movs	r3, r5
 1360 060a 0522     		movs	r2, #5
 1361 060c 2100     		movs	r1, r4
 1362 060e 3000     		movs	r0, r6
 1363 0610 FFF7FEFF 		bl	HAL_UART_Transmit
 1364              	.LVL149:
 1365              	.LBE39:
 1366              	.LBB40:
 144:Src/cmd.c     ****         SERIAL_WRITE("%3i.", Phase(ADC_PD0_Phase_CH) / 1000);
 1367              		.loc 1 144 9 view .LVU240
 1368 0614 6022     		movs	r2, #96
 1369 0616 0021     		movs	r1, #0
 1370 0618 02A8     		add	r0, sp, #8
 1371 061a FFF7FEFF 		bl	memset
 1372              	.LVL150:
 144:Src/cmd.c     ****         SERIAL_WRITE("%3i.", Phase(ADC_PD0_Phase_CH) / 1000);
 1373              		.loc 1 144 9 view .LVU241
 1374 061e F64B     		ldr	r3, .L46+8
 1375 0620 2200     		movs	r2, r4
 1376 0622 83CB     		ldmia	r3!, {r0, r1, r7}
 1377 0624 83C2     		stmia	r2!, {r0, r1, r7}
 1378 0626 1B78     		ldrb	r3, [r3]
 1379 0628 1370     		strb	r3, [r2]
 1380              	.LVL151:
 144:Src/cmd.c     ****         SERIAL_WRITE("%3i.", Phase(ADC_PD0_Phase_CH) / 1000);
 1381              		.loc 1 144 9 view .LVU242
 1382 062a 2B00     		movs	r3, r5
 1383 062c 0C22     		movs	r2, #12
 1384 062e 2100     		movs	r1, r4
 1385 0630 3000     		movs	r0, r6
 1386 0632 FFF7FEFF 		bl	HAL_UART_Transmit
 1387              	.LVL152:
 1388              	.LBE40:
 144:Src/cmd.c     ****         SERIAL_WRITE("%3i.", Phase(ADC_PD0_Phase_CH) / 1000);
 1389              		.loc 1 144 39 view .LVU243
 1390              	.LBB41:
 145:Src/cmd.c     ****         SERIAL_WRITE("%03lu deg\t\t\n", Phase(ADC_PD0_Phase_CH) % 1000);
 1391              		.loc 1 145 9 view .LVU244
 1392 0636 5B46     		mov	r3, fp
 1393 0638 0193     		str	r3, [sp, #4]
 1394 063a 6022     		movs	r2, #96
 1395 063c 0021     		movs	r1, #0
 1396 063e 02A8     		add	r0, sp, #8
 1397 0640 FFF7FEFF 		bl	memset
 1398              	.LVL153:
 145:Src/cmd.c     ****         SERIAL_WRITE("%03lu deg\t\t\n", Phase(ADC_PD0_Phase_CH) % 1000);
 1399              		.loc 1 145 9 view .LVU245
 1400 0644 0B20     		movs	r0, #11
 1401 0646 FFF7FEFF 		bl	Phase
 1402              	.LVL154:
 1403 064a FA22     		movs	r2, #250
 1404 064c 9200     		lsls	r2, r2, #2
 1405 064e 0023     		movs	r3, #0
 1406 0650 FFF7FEFF 		bl	__aeabi_uldivmod
ARM GAS  C:\Users\matil\AppData\Local\Temp\cce1w2PW.s 			page 37


 1407              	.LVL155:
 1408 0654 0200     		movs	r2, r0
 1409 0656 0B00     		movs	r3, r1
 1410 0658 E849     		ldr	r1, .L46+12
 1411 065a 8A46     		mov	r10, r1
 1412 065c 2000     		movs	r0, r4
 1413 065e FFF7FEFF 		bl	sprintf
 1414              	.LVL156:
 145:Src/cmd.c     ****         SERIAL_WRITE("%03lu deg\t\t\n", Phase(ADC_PD0_Phase_CH) % 1000);
 1415              		.loc 1 145 9 view .LVU246
 1416 0662 82B2     		uxth	r2, r0
 1417 0664 2B00     		movs	r3, r5
 1418 0666 2100     		movs	r1, r4
 1419 0668 3000     		movs	r0, r6
 1420              	.LVL157:
 145:Src/cmd.c     ****         SERIAL_WRITE("%03lu deg\t\t\n", Phase(ADC_PD0_Phase_CH) % 1000);
 1421              		.loc 1 145 9 is_stmt 0 view .LVU247
 1422 066a FFF7FEFF 		bl	HAL_UART_Transmit
 1423              	.LVL158:
 1424              	.LBE41:
 145:Src/cmd.c     ****         SERIAL_WRITE("%03lu deg\t\t\n", Phase(ADC_PD0_Phase_CH) % 1000);
 1425              		.loc 1 145 61 is_stmt 1 view .LVU248
 1426              	.LBB42:
 146:Src/cmd.c     **** 
 1427              		.loc 1 146 9 view .LVU249
 1428 066e 5B46     		mov	r3, fp
 1429 0670 0193     		str	r3, [sp, #4]
 1430 0672 6022     		movs	r2, #96
 1431 0674 0021     		movs	r1, #0
 1432 0676 02A8     		add	r0, sp, #8
 1433 0678 FFF7FEFF 		bl	memset
 1434              	.LVL159:
 146:Src/cmd.c     **** 
 1435              		.loc 1 146 9 view .LVU250
 1436 067c 0B20     		movs	r0, #11
 1437 067e FFF7FEFF 		bl	Phase
 1438              	.LVL160:
 1439 0682 FA22     		movs	r2, #250
 1440 0684 9200     		lsls	r2, r2, #2
 1441 0686 0023     		movs	r3, #0
 1442 0688 FFF7FEFF 		bl	__aeabi_uldivmod
 1443              	.LVL161:
 1444 068c DC49     		ldr	r1, .L46+16
 1445 068e 8946     		mov	r9, r1
 1446 0690 2000     		movs	r0, r4
 1447 0692 FFF7FEFF 		bl	sprintf
 1448              	.LVL162:
 146:Src/cmd.c     **** 
 1449              		.loc 1 146 9 view .LVU251
 1450 0696 2B00     		movs	r3, r5
 1451 0698 0A22     		movs	r2, #10
 1452 069a 2100     		movs	r1, r4
 1453 069c 3000     		movs	r0, r6
 1454 069e FFF7FEFF 		bl	HAL_UART_Transmit
 1455              	.LVL163:
 1456              	.LBE42:
 146:Src/cmd.c     **** 
ARM GAS  C:\Users\matil\AppData\Local\Temp\cce1w2PW.s 			page 38


 1457              		.loc 1 146 72 view .LVU252
 1458              	.LBB43:
 148:Src/cmd.c     ****         SERIAL_WRITE("%3i.", Phase(ADC_PD1_Phase_CH) / 1000);
 1459              		.loc 1 148 9 view .LVU253
 1460 06a2 6022     		movs	r2, #96
 1461 06a4 0021     		movs	r1, #0
 1462 06a6 02A8     		add	r0, sp, #8
 1463 06a8 FFF7FEFF 		bl	memset
 1464              	.LVL164:
 148:Src/cmd.c     ****         SERIAL_WRITE("%3i.", Phase(ADC_PD1_Phase_CH) / 1000);
 1465              		.loc 1 148 9 view .LVU254
 1466 06ac D54B     		ldr	r3, .L46+20
 1467 06ae 2200     		movs	r2, r4
 1468 06b0 83CB     		ldmia	r3!, {r0, r1, r7}
 1469 06b2 83C2     		stmia	r2!, {r0, r1, r7}
 1470 06b4 1B78     		ldrb	r3, [r3]
 1471 06b6 1370     		strb	r3, [r2]
 1472              	.LVL165:
 148:Src/cmd.c     ****         SERIAL_WRITE("%3i.", Phase(ADC_PD1_Phase_CH) / 1000);
 1473              		.loc 1 148 9 view .LVU255
 1474 06b8 2B00     		movs	r3, r5
 1475 06ba 0C22     		movs	r2, #12
 1476 06bc 2100     		movs	r1, r4
 1477 06be 3000     		movs	r0, r6
 1478 06c0 FFF7FEFF 		bl	HAL_UART_Transmit
 1479              	.LVL166:
 1480              	.LBE43:
 148:Src/cmd.c     ****         SERIAL_WRITE("%3i.", Phase(ADC_PD1_Phase_CH) / 1000);
 1481              		.loc 1 148 39 view .LVU256
 1482              	.LBB44:
 149:Src/cmd.c     ****         SERIAL_WRITE("%03lu deg\t\t\n", Phase(ADC_PD1_Phase_CH) % 1000);
 1483              		.loc 1 149 9 view .LVU257
 1484 06c4 5B46     		mov	r3, fp
 1485 06c6 0193     		str	r3, [sp, #4]
 1486 06c8 6022     		movs	r2, #96
 1487 06ca 0021     		movs	r1, #0
 1488 06cc 02A8     		add	r0, sp, #8
 1489 06ce FFF7FEFF 		bl	memset
 1490              	.LVL167:
 149:Src/cmd.c     ****         SERIAL_WRITE("%03lu deg\t\t\n", Phase(ADC_PD1_Phase_CH) % 1000);
 1491              		.loc 1 149 9 view .LVU258
 1492 06d2 0620     		movs	r0, #6
 1493 06d4 FFF7FEFF 		bl	Phase
 1494              	.LVL168:
 1495 06d8 FA22     		movs	r2, #250
 1496 06da 9200     		lsls	r2, r2, #2
 1497 06dc 0023     		movs	r3, #0
 1498 06de FFF7FEFF 		bl	__aeabi_uldivmod
 1499              	.LVL169:
 1500 06e2 0200     		movs	r2, r0
 1501 06e4 0B00     		movs	r3, r1
 1502 06e6 5146     		mov	r1, r10
 1503 06e8 2000     		movs	r0, r4
 1504 06ea FFF7FEFF 		bl	sprintf
 1505              	.LVL170:
 149:Src/cmd.c     ****         SERIAL_WRITE("%03lu deg\t\t\n", Phase(ADC_PD1_Phase_CH) % 1000);
 1506              		.loc 1 149 9 view .LVU259
ARM GAS  C:\Users\matil\AppData\Local\Temp\cce1w2PW.s 			page 39


 1507 06ee 82B2     		uxth	r2, r0
 1508 06f0 2B00     		movs	r3, r5
 1509 06f2 2100     		movs	r1, r4
 1510 06f4 3000     		movs	r0, r6
 1511              	.LVL171:
 149:Src/cmd.c     ****         SERIAL_WRITE("%03lu deg\t\t\n", Phase(ADC_PD1_Phase_CH) % 1000);
 1512              		.loc 1 149 9 is_stmt 0 view .LVU260
 1513 06f6 FFF7FEFF 		bl	HAL_UART_Transmit
 1514              	.LVL172:
 1515              	.LBE44:
 149:Src/cmd.c     ****         SERIAL_WRITE("%03lu deg\t\t\n", Phase(ADC_PD1_Phase_CH) % 1000);
 1516              		.loc 1 149 61 is_stmt 1 view .LVU261
 1517              	.LBB45:
 150:Src/cmd.c     **** 
 1518              		.loc 1 150 9 view .LVU262
 1519 06fa 5B46     		mov	r3, fp
 1520 06fc 0193     		str	r3, [sp, #4]
 1521 06fe 6022     		movs	r2, #96
 1522 0700 0021     		movs	r1, #0
 1523 0702 02A8     		add	r0, sp, #8
 1524 0704 FFF7FEFF 		bl	memset
 1525              	.LVL173:
 150:Src/cmd.c     **** 
 1526              		.loc 1 150 9 view .LVU263
 1527 0708 0620     		movs	r0, #6
 1528 070a FFF7FEFF 		bl	Phase
 1529              	.LVL174:
 1530 070e FA22     		movs	r2, #250
 1531 0710 9200     		lsls	r2, r2, #2
 1532 0712 0023     		movs	r3, #0
 1533 0714 FFF7FEFF 		bl	__aeabi_uldivmod
 1534              	.LVL175:
 1535 0718 4946     		mov	r1, r9
 1536 071a 2000     		movs	r0, r4
 1537 071c FFF7FEFF 		bl	sprintf
 1538              	.LVL176:
 150:Src/cmd.c     **** 
 1539              		.loc 1 150 9 view .LVU264
 1540 0720 2B00     		movs	r3, r5
 1541 0722 0A22     		movs	r2, #10
 1542 0724 2100     		movs	r1, r4
 1543 0726 3000     		movs	r0, r6
 1544 0728 FFF7FEFF 		bl	HAL_UART_Transmit
 1545              	.LVL177:
 1546              	.LBE45:
 150:Src/cmd.c     **** 
 1547              		.loc 1 150 72 view .LVU265
 1548              	.LBB46:
 152:Src/cmd.c     ****         SERIAL_WRITE("%3i.", Phase(ADC_PD2_Phase_CH) / 1000);
 1549              		.loc 1 152 9 view .LVU266
 1550 072c 6022     		movs	r2, #96
 1551 072e 0021     		movs	r1, #0
 1552 0730 02A8     		add	r0, sp, #8
 1553 0732 FFF7FEFF 		bl	memset
 1554              	.LVL178:
 152:Src/cmd.c     ****         SERIAL_WRITE("%3i.", Phase(ADC_PD2_Phase_CH) / 1000);
 1555              		.loc 1 152 9 view .LVU267
ARM GAS  C:\Users\matil\AppData\Local\Temp\cce1w2PW.s 			page 40


 1556 0736 B44B     		ldr	r3, .L46+24
 1557 0738 2200     		movs	r2, r4
 1558 073a 83CB     		ldmia	r3!, {r0, r1, r7}
 1559 073c 83C2     		stmia	r2!, {r0, r1, r7}
 1560 073e 1B78     		ldrb	r3, [r3]
 1561 0740 1370     		strb	r3, [r2]
 1562              	.LVL179:
 152:Src/cmd.c     ****         SERIAL_WRITE("%3i.", Phase(ADC_PD2_Phase_CH) / 1000);
 1563              		.loc 1 152 9 view .LVU268
 1564 0742 2B00     		movs	r3, r5
 1565 0744 0C22     		movs	r2, #12
 1566 0746 2100     		movs	r1, r4
 1567 0748 3000     		movs	r0, r6
 1568 074a FFF7FEFF 		bl	HAL_UART_Transmit
 1569              	.LVL180:
 1570              	.LBE46:
 152:Src/cmd.c     ****         SERIAL_WRITE("%3i.", Phase(ADC_PD2_Phase_CH) / 1000);
 1571              		.loc 1 152 39 view .LVU269
 1572              	.LBB47:
 153:Src/cmd.c     ****         SERIAL_WRITE("%03lu deg\t\t\n", Phase(ADC_PD2_Phase_CH) % 1000);
 1573              		.loc 1 153 9 view .LVU270
 1574 074e 5B46     		mov	r3, fp
 1575 0750 0193     		str	r3, [sp, #4]
 1576 0752 6022     		movs	r2, #96
 1577 0754 0021     		movs	r1, #0
 1578 0756 02A8     		add	r0, sp, #8
 1579 0758 FFF7FEFF 		bl	memset
 1580              	.LVL181:
 153:Src/cmd.c     ****         SERIAL_WRITE("%03lu deg\t\t\n", Phase(ADC_PD2_Phase_CH) % 1000);
 1581              		.loc 1 153 9 view .LVU271
 1582 075c 0020     		movs	r0, #0
 1583 075e FFF7FEFF 		bl	Phase
 1584              	.LVL182:
 1585 0762 FA22     		movs	r2, #250
 1586 0764 9200     		lsls	r2, r2, #2
 1587 0766 0023     		movs	r3, #0
 1588 0768 FFF7FEFF 		bl	__aeabi_uldivmod
 1589              	.LVL183:
 1590 076c 0200     		movs	r2, r0
 1591 076e 0B00     		movs	r3, r1
 1592 0770 5146     		mov	r1, r10
 1593 0772 2000     		movs	r0, r4
 1594 0774 FFF7FEFF 		bl	sprintf
 1595              	.LVL184:
 153:Src/cmd.c     ****         SERIAL_WRITE("%03lu deg\t\t\n", Phase(ADC_PD2_Phase_CH) % 1000);
 1596              		.loc 1 153 9 view .LVU272
 1597 0778 82B2     		uxth	r2, r0
 1598 077a 2B00     		movs	r3, r5
 1599 077c 2100     		movs	r1, r4
 1600 077e 3000     		movs	r0, r6
 1601              	.LVL185:
 153:Src/cmd.c     ****         SERIAL_WRITE("%03lu deg\t\t\n", Phase(ADC_PD2_Phase_CH) % 1000);
 1602              		.loc 1 153 9 is_stmt 0 view .LVU273
 1603 0780 FFF7FEFF 		bl	HAL_UART_Transmit
 1604              	.LVL186:
 1605              	.LBE47:
 153:Src/cmd.c     ****         SERIAL_WRITE("%03lu deg\t\t\n", Phase(ADC_PD2_Phase_CH) % 1000);
ARM GAS  C:\Users\matil\AppData\Local\Temp\cce1w2PW.s 			page 41


 1606              		.loc 1 153 61 is_stmt 1 view .LVU274
 1607              	.LBB48:
 154:Src/cmd.c     **** 
 1608              		.loc 1 154 9 view .LVU275
 1609 0784 5B46     		mov	r3, fp
 1610 0786 0193     		str	r3, [sp, #4]
 1611 0788 6022     		movs	r2, #96
 1612 078a 0021     		movs	r1, #0
 1613 078c 02A8     		add	r0, sp, #8
 1614 078e FFF7FEFF 		bl	memset
 1615              	.LVL187:
 154:Src/cmd.c     **** 
 1616              		.loc 1 154 9 view .LVU276
 1617 0792 0020     		movs	r0, #0
 1618 0794 FFF7FEFF 		bl	Phase
 1619              	.LVL188:
 1620 0798 FA22     		movs	r2, #250
 1621 079a 9200     		lsls	r2, r2, #2
 1622 079c 0023     		movs	r3, #0
 1623 079e FFF7FEFF 		bl	__aeabi_uldivmod
 1624              	.LVL189:
 1625 07a2 4946     		mov	r1, r9
 1626 07a4 2000     		movs	r0, r4
 1627 07a6 FFF7FEFF 		bl	sprintf
 1628              	.LVL190:
 154:Src/cmd.c     **** 
 1629              		.loc 1 154 9 view .LVU277
 1630 07aa 2B00     		movs	r3, r5
 1631 07ac 0A22     		movs	r2, #10
 1632 07ae 2100     		movs	r1, r4
 1633 07b0 3000     		movs	r0, r6
 1634 07b2 FFF7FEFF 		bl	HAL_UART_Transmit
 1635              	.LVL191:
 1636              	.LBE48:
 154:Src/cmd.c     **** 
 1637              		.loc 1 154 72 view .LVU278
 1638              	.LBB49:
 156:Src/cmd.c     ****         SERIAL_WRITE("%3i.", Phase(ADC_PD3_Phase_CH) / 1000);
 1639              		.loc 1 156 9 view .LVU279
 1640 07b6 6022     		movs	r2, #96
 1641 07b8 0021     		movs	r1, #0
 1642 07ba 02A8     		add	r0, sp, #8
 1643 07bc FFF7FEFF 		bl	memset
 1644              	.LVL192:
 156:Src/cmd.c     ****         SERIAL_WRITE("%3i.", Phase(ADC_PD3_Phase_CH) / 1000);
 1645              		.loc 1 156 9 view .LVU280
 1646 07c0 924B     		ldr	r3, .L46+28
 1647 07c2 2200     		movs	r2, r4
 1648 07c4 83CB     		ldmia	r3!, {r0, r1, r7}
 1649 07c6 83C2     		stmia	r2!, {r0, r1, r7}
 1650 07c8 1B78     		ldrb	r3, [r3]
 1651 07ca 1370     		strb	r3, [r2]
 1652              	.LVL193:
 156:Src/cmd.c     ****         SERIAL_WRITE("%3i.", Phase(ADC_PD3_Phase_CH) / 1000);
 1653              		.loc 1 156 9 view .LVU281
 1654 07cc 2B00     		movs	r3, r5
 1655 07ce 0C22     		movs	r2, #12
ARM GAS  C:\Users\matil\AppData\Local\Temp\cce1w2PW.s 			page 42


 1656 07d0 2100     		movs	r1, r4
 1657 07d2 3000     		movs	r0, r6
 1658 07d4 FFF7FEFF 		bl	HAL_UART_Transmit
 1659              	.LVL194:
 1660              	.LBE49:
 156:Src/cmd.c     ****         SERIAL_WRITE("%3i.", Phase(ADC_PD3_Phase_CH) / 1000);
 1661              		.loc 1 156 39 view .LVU282
 1662              	.LBB50:
 157:Src/cmd.c     ****         SERIAL_WRITE("%03lu deg\t\t\n", Phase(ADC_PD3_Phase_CH) % 1000);
 1663              		.loc 1 157 9 view .LVU283
 1664 07d8 5B46     		mov	r3, fp
 1665 07da 0193     		str	r3, [sp, #4]
 1666 07dc 6022     		movs	r2, #96
 1667 07de 0021     		movs	r1, #0
 1668 07e0 02A8     		add	r0, sp, #8
 1669 07e2 FFF7FEFF 		bl	memset
 1670              	.LVL195:
 157:Src/cmd.c     ****         SERIAL_WRITE("%03lu deg\t\t\n", Phase(ADC_PD3_Phase_CH) % 1000);
 1671              		.loc 1 157 9 view .LVU284
 1672 07e6 0E20     		movs	r0, #14
 1673 07e8 FFF7FEFF 		bl	Phase
 1674              	.LVL196:
 1675 07ec FA22     		movs	r2, #250
 1676 07ee 9200     		lsls	r2, r2, #2
 1677 07f0 0023     		movs	r3, #0
 1678 07f2 FFF7FEFF 		bl	__aeabi_uldivmod
 1679              	.LVL197:
 1680 07f6 0200     		movs	r2, r0
 1681 07f8 0B00     		movs	r3, r1
 1682 07fa 5146     		mov	r1, r10
 1683 07fc 2000     		movs	r0, r4
 1684 07fe FFF7FEFF 		bl	sprintf
 1685              	.LVL198:
 157:Src/cmd.c     ****         SERIAL_WRITE("%03lu deg\t\t\n", Phase(ADC_PD3_Phase_CH) % 1000);
 1686              		.loc 1 157 9 view .LVU285
 1687 0802 82B2     		uxth	r2, r0
 1688 0804 2B00     		movs	r3, r5
 1689 0806 2100     		movs	r1, r4
 1690 0808 3000     		movs	r0, r6
 1691              	.LVL199:
 157:Src/cmd.c     ****         SERIAL_WRITE("%03lu deg\t\t\n", Phase(ADC_PD3_Phase_CH) % 1000);
 1692              		.loc 1 157 9 is_stmt 0 view .LVU286
 1693 080a FFF7FEFF 		bl	HAL_UART_Transmit
 1694              	.LVL200:
 1695              	.LBE50:
 157:Src/cmd.c     ****         SERIAL_WRITE("%03lu deg\t\t\n", Phase(ADC_PD3_Phase_CH) % 1000);
 1696              		.loc 1 157 61 is_stmt 1 view .LVU287
 1697              	.LBB51:
 158:Src/cmd.c     **** 
 1698              		.loc 1 158 9 view .LVU288
 1699 080e 5B46     		mov	r3, fp
 1700 0810 0193     		str	r3, [sp, #4]
 1701 0812 6022     		movs	r2, #96
 1702 0814 0021     		movs	r1, #0
 1703 0816 02A8     		add	r0, sp, #8
 1704 0818 FFF7FEFF 		bl	memset
 1705              	.LVL201:
ARM GAS  C:\Users\matil\AppData\Local\Temp\cce1w2PW.s 			page 43


 158:Src/cmd.c     **** 
 1706              		.loc 1 158 9 view .LVU289
 1707 081c 0E20     		movs	r0, #14
 1708 081e FFF7FEFF 		bl	Phase
 1709              	.LVL202:
 1710 0822 FA22     		movs	r2, #250
 1711 0824 9200     		lsls	r2, r2, #2
 1712 0826 0023     		movs	r3, #0
 1713 0828 FFF7FEFF 		bl	__aeabi_uldivmod
 1714              	.LVL203:
 1715 082c 4946     		mov	r1, r9
 1716 082e 2000     		movs	r0, r4
 1717 0830 FFF7FEFF 		bl	sprintf
 1718              	.LVL204:
 158:Src/cmd.c     **** 
 1719              		.loc 1 158 9 view .LVU290
 1720 0834 2B00     		movs	r3, r5
 1721 0836 0A22     		movs	r2, #10
 1722 0838 2100     		movs	r1, r4
 1723 083a 3000     		movs	r0, r6
 1724 083c FFF7FEFF 		bl	HAL_UART_Transmit
 1725              	.LVL205:
 1726              	.LBE51:
 158:Src/cmd.c     **** 
 1727              		.loc 1 158 72 view .LVU291
 1728              	.LBB52:
 160:Src/cmd.c     ****         SERIAL_WRITE("%3i.", Phase(ADC_PD4_Phase_CH) / 1000);
 1729              		.loc 1 160 9 view .LVU292
 1730 0840 6022     		movs	r2, #96
 1731 0842 0021     		movs	r1, #0
 1732 0844 02A8     		add	r0, sp, #8
 1733 0846 FFF7FEFF 		bl	memset
 1734              	.LVL206:
 160:Src/cmd.c     ****         SERIAL_WRITE("%3i.", Phase(ADC_PD4_Phase_CH) / 1000);
 1735              		.loc 1 160 9 view .LVU293
 1736 084a 714B     		ldr	r3, .L46+32
 1737 084c 2200     		movs	r2, r4
 1738 084e 83CB     		ldmia	r3!, {r0, r1, r7}
 1739 0850 83C2     		stmia	r2!, {r0, r1, r7}
 1740 0852 1B78     		ldrb	r3, [r3]
 1741 0854 1370     		strb	r3, [r2]
 1742              	.LVL207:
 160:Src/cmd.c     ****         SERIAL_WRITE("%3i.", Phase(ADC_PD4_Phase_CH) / 1000);
 1743              		.loc 1 160 9 view .LVU294
 1744 0856 2B00     		movs	r3, r5
 1745 0858 0C22     		movs	r2, #12
 1746 085a 2100     		movs	r1, r4
 1747 085c 3000     		movs	r0, r6
 1748 085e FFF7FEFF 		bl	HAL_UART_Transmit
 1749              	.LVL208:
 1750              	.LBE52:
 160:Src/cmd.c     ****         SERIAL_WRITE("%3i.", Phase(ADC_PD4_Phase_CH) / 1000);
 1751              		.loc 1 160 39 view .LVU295
 1752              	.LBB53:
 161:Src/cmd.c     ****         SERIAL_WRITE("%03lu deg\t\t\n", Phase(ADC_PD4_Phase_CH) % 1000);
 1753              		.loc 1 161 9 view .LVU296
 1754 0862 5B46     		mov	r3, fp
ARM GAS  C:\Users\matil\AppData\Local\Temp\cce1w2PW.s 			page 44


 1755 0864 0193     		str	r3, [sp, #4]
 1756 0866 6022     		movs	r2, #96
 1757 0868 0021     		movs	r1, #0
 1758 086a 02A8     		add	r0, sp, #8
 1759 086c FFF7FEFF 		bl	memset
 1760              	.LVL209:
 161:Src/cmd.c     ****         SERIAL_WRITE("%03lu deg\t\t\n", Phase(ADC_PD4_Phase_CH) % 1000);
 1761              		.loc 1 161 9 view .LVU297
 1762 0870 0220     		movs	r0, #2
 1763 0872 FFF7FEFF 		bl	Phase
 1764              	.LVL210:
 1765 0876 FA22     		movs	r2, #250
 1766 0878 9200     		lsls	r2, r2, #2
 1767 087a 0023     		movs	r3, #0
 1768 087c FFF7FEFF 		bl	__aeabi_uldivmod
 1769              	.LVL211:
 1770 0880 0200     		movs	r2, r0
 1771 0882 0B00     		movs	r3, r1
 1772 0884 5146     		mov	r1, r10
 1773 0886 2000     		movs	r0, r4
 1774 0888 FFF7FEFF 		bl	sprintf
 1775              	.LVL212:
 161:Src/cmd.c     ****         SERIAL_WRITE("%03lu deg\t\t\n", Phase(ADC_PD4_Phase_CH) % 1000);
 1776              		.loc 1 161 9 view .LVU298
 1777 088c 82B2     		uxth	r2, r0
 1778 088e 2B00     		movs	r3, r5
 1779 0890 2100     		movs	r1, r4
 1780 0892 3000     		movs	r0, r6
 1781              	.LVL213:
 161:Src/cmd.c     ****         SERIAL_WRITE("%03lu deg\t\t\n", Phase(ADC_PD4_Phase_CH) % 1000);
 1782              		.loc 1 161 9 is_stmt 0 view .LVU299
 1783 0894 FFF7FEFF 		bl	HAL_UART_Transmit
 1784              	.LVL214:
 1785              	.LBE53:
 161:Src/cmd.c     ****         SERIAL_WRITE("%03lu deg\t\t\n", Phase(ADC_PD4_Phase_CH) % 1000);
 1786              		.loc 1 161 61 is_stmt 1 view .LVU300
 1787              	.LBB54:
 162:Src/cmd.c     **** 
 1788              		.loc 1 162 9 view .LVU301
 1789 0898 5B46     		mov	r3, fp
 1790 089a 0193     		str	r3, [sp, #4]
 1791 089c 6022     		movs	r2, #96
 1792 089e 0021     		movs	r1, #0
 1793 08a0 02A8     		add	r0, sp, #8
 1794 08a2 FFF7FEFF 		bl	memset
 1795              	.LVL215:
 162:Src/cmd.c     **** 
 1796              		.loc 1 162 9 view .LVU302
 1797 08a6 0220     		movs	r0, #2
 1798 08a8 FFF7FEFF 		bl	Phase
 1799              	.LVL216:
 1800 08ac FA22     		movs	r2, #250
 1801 08ae 9200     		lsls	r2, r2, #2
 1802 08b0 0023     		movs	r3, #0
 1803 08b2 FFF7FEFF 		bl	__aeabi_uldivmod
 1804              	.LVL217:
 1805 08b6 4946     		mov	r1, r9
ARM GAS  C:\Users\matil\AppData\Local\Temp\cce1w2PW.s 			page 45


 1806 08b8 2000     		movs	r0, r4
 1807 08ba FFF7FEFF 		bl	sprintf
 1808              	.LVL218:
 162:Src/cmd.c     **** 
 1809              		.loc 1 162 9 view .LVU303
 1810 08be 2B00     		movs	r3, r5
 1811 08c0 0A22     		movs	r2, #10
 1812 08c2 2100     		movs	r1, r4
 1813 08c4 3000     		movs	r0, r6
 1814 08c6 FFF7FEFF 		bl	HAL_UART_Transmit
 1815              	.LVL219:
 1816              	.LBE54:
 162:Src/cmd.c     **** 
 1817              		.loc 1 162 72 view .LVU304
 1818              	.LBB55:
 164:Src/cmd.c     ****         SERIAL_WRITE("%3li.", Relative_Power(ADC_PD0_Power_CH) / 1000);
 1819              		.loc 1 164 9 view .LVU305
 1820 08ca 6022     		movs	r2, #96
 1821 08cc 0021     		movs	r1, #0
 1822 08ce 02A8     		add	r0, sp, #8
 1823 08d0 FFF7FEFF 		bl	memset
 1824              	.LVL220:
 164:Src/cmd.c     ****         SERIAL_WRITE("%3li.", Relative_Power(ADC_PD0_Power_CH) / 1000);
 1825              		.loc 1 164 9 view .LVU306
 1826 08d4 4F4B     		ldr	r3, .L46+36
 1827 08d6 2200     		movs	r2, r4
 1828 08d8 83CB     		ldmia	r3!, {r0, r1, r7}
 1829 08da 83C2     		stmia	r2!, {r0, r1, r7}
 1830 08dc 1968     		ldr	r1, [r3]
 1831 08de 1160     		str	r1, [r2]
 1832 08e0 1B79     		ldrb	r3, [r3, #4]
 1833 08e2 1371     		strb	r3, [r2, #4]
 1834              	.LVL221:
 164:Src/cmd.c     ****         SERIAL_WRITE("%3li.", Relative_Power(ADC_PD0_Power_CH) / 1000);
 1835              		.loc 1 164 9 view .LVU307
 1836 08e4 2B00     		movs	r3, r5
 1837 08e6 1022     		movs	r2, #16
 1838 08e8 2100     		movs	r1, r4
 1839 08ea 3000     		movs	r0, r6
 1840 08ec FFF7FEFF 		bl	HAL_UART_Transmit
 1841              	.LVL222:
 1842              	.LBE55:
 164:Src/cmd.c     ****         SERIAL_WRITE("%3li.", Relative_Power(ADC_PD0_Power_CH) / 1000);
 1843              		.loc 1 164 43 view .LVU308
 1844              	.LBB56:
 165:Src/cmd.c     ****         SERIAL_WRITE("%03u dB\t\t\n", abs(Relative_Power(ADC_PD0_Power_CH)) % 1000);
 1845              		.loc 1 165 9 view .LVU309
 1846 08f0 5B46     		mov	r3, fp
 1847 08f2 0193     		str	r3, [sp, #4]
 1848 08f4 6022     		movs	r2, #96
 1849 08f6 0021     		movs	r1, #0
 1850 08f8 02A8     		add	r0, sp, #8
 1851 08fa FFF7FEFF 		bl	memset
 1852              	.LVL223:
 165:Src/cmd.c     ****         SERIAL_WRITE("%03u dB\t\t\n", abs(Relative_Power(ADC_PD0_Power_CH)) % 1000);
 1853              		.loc 1 165 9 view .LVU310
 1854 08fe 0C20     		movs	r0, #12
ARM GAS  C:\Users\matil\AppData\Local\Temp\cce1w2PW.s 			page 46


 1855 0900 FFF7FEFF 		bl	Relative_Power
 1856              	.LVL224:
 1857 0904 FA22     		movs	r2, #250
 1858 0906 9200     		lsls	r2, r2, #2
 1859 0908 0023     		movs	r3, #0
 1860 090a FFF7FEFF 		bl	__aeabi_ldivmod
 1861              	.LVL225:
 1862 090e 0200     		movs	r2, r0
 1863 0910 0B00     		movs	r3, r1
 1864 0912 4149     		ldr	r1, .L46+40
 1865 0914 8946     		mov	r9, r1
 1866 0916 2000     		movs	r0, r4
 1867 0918 FFF7FEFF 		bl	sprintf
 1868              	.LVL226:
 165:Src/cmd.c     ****         SERIAL_WRITE("%03u dB\t\t\n", abs(Relative_Power(ADC_PD0_Power_CH)) % 1000);
 1869              		.loc 1 165 9 view .LVU311
 1870 091c 82B2     		uxth	r2, r0
 1871 091e 2B00     		movs	r3, r5
 1872 0920 2100     		movs	r1, r4
 1873 0922 3000     		movs	r0, r6
 1874              	.LVL227:
 165:Src/cmd.c     ****         SERIAL_WRITE("%03u dB\t\t\n", abs(Relative_Power(ADC_PD0_Power_CH)) % 1000);
 1875              		.loc 1 165 9 is_stmt 0 view .LVU312
 1876 0924 FFF7FEFF 		bl	HAL_UART_Transmit
 1877              	.LVL228:
 1878              	.LBE56:
 165:Src/cmd.c     ****         SERIAL_WRITE("%03u dB\t\t\n", abs(Relative_Power(ADC_PD0_Power_CH)) % 1000);
 1879              		.loc 1 165 71 is_stmt 1 view .LVU313
 1880              	.LBB57:
 166:Src/cmd.c     **** 
 1881              		.loc 1 166 9 view .LVU314
 1882 0928 5B46     		mov	r3, fp
 1883 092a 0193     		str	r3, [sp, #4]
 1884 092c 6022     		movs	r2, #96
 1885 092e 0021     		movs	r1, #0
 1886 0930 02A8     		add	r0, sp, #8
 1887 0932 FFF7FEFF 		bl	memset
 1888              	.LVL229:
 166:Src/cmd.c     **** 
 1889              		.loc 1 166 9 view .LVU315
 1890 0936 0C20     		movs	r0, #12
 1891 0938 FFF7FEFF 		bl	Relative_Power
 1892              	.LVL230:
 1893 093c C317     		asrs	r3, r0, #31
 1894 093e C018     		adds	r0, r0, r3
 1895 0940 5840     		eors	r0, r3
 1896 0942 2900     		movs	r1, r5
 1897 0944 FFF7FEFF 		bl	__aeabi_idivmod
 1898              	.LVL231:
 1899 0948 0A00     		movs	r2, r1
 1900 094a 344B     		ldr	r3, .L46+44
 1901 094c 9A46     		mov	r10, r3
 1902 094e 1900     		movs	r1, r3
 1903 0950 2000     		movs	r0, r4
 1904 0952 FFF7FEFF 		bl	sprintf
 1905              	.LVL232:
 166:Src/cmd.c     **** 
ARM GAS  C:\Users\matil\AppData\Local\Temp\cce1w2PW.s 			page 47


 1906              		.loc 1 166 9 view .LVU316
 1907 0956 2B00     		movs	r3, r5
 1908 0958 0922     		movs	r2, #9
 1909 095a 2100     		movs	r1, r4
 1910 095c 3000     		movs	r0, r6
 1911 095e FFF7FEFF 		bl	HAL_UART_Transmit
 1912              	.LVL233:
 1913              	.LBE57:
 166:Src/cmd.c     **** 
 1914              		.loc 1 166 84 view .LVU317
 1915              	.LBB58:
 168:Src/cmd.c     ****         SERIAL_WRITE("%3li.", Relative_Power(ADC_PD1_Power_CH) / 1000);
 1916              		.loc 1 168 9 view .LVU318
 1917 0962 6022     		movs	r2, #96
 1918 0964 0021     		movs	r1, #0
 1919 0966 02A8     		add	r0, sp, #8
 1920 0968 FFF7FEFF 		bl	memset
 1921              	.LVL234:
 168:Src/cmd.c     ****         SERIAL_WRITE("%3li.", Relative_Power(ADC_PD1_Power_CH) / 1000);
 1922              		.loc 1 168 9 view .LVU319
 1923 096c 2C4B     		ldr	r3, .L46+48
 1924 096e 2200     		movs	r2, r4
 1925 0970 83CB     		ldmia	r3!, {r0, r1, r7}
 1926 0972 83C2     		stmia	r2!, {r0, r1, r7}
 1927 0974 1968     		ldr	r1, [r3]
 1928 0976 1160     		str	r1, [r2]
 1929 0978 1B79     		ldrb	r3, [r3, #4]
 1930 097a 1371     		strb	r3, [r2, #4]
 1931              	.LVL235:
 168:Src/cmd.c     ****         SERIAL_WRITE("%3li.", Relative_Power(ADC_PD1_Power_CH) / 1000);
 1932              		.loc 1 168 9 view .LVU320
 1933 097c 2B00     		movs	r3, r5
 1934 097e 1022     		movs	r2, #16
 1935 0980 2100     		movs	r1, r4
 1936 0982 3000     		movs	r0, r6
 1937 0984 FFF7FEFF 		bl	HAL_UART_Transmit
 1938              	.LVL236:
 1939              	.LBE58:
 168:Src/cmd.c     ****         SERIAL_WRITE("%3li.", Relative_Power(ADC_PD1_Power_CH) / 1000);
 1940              		.loc 1 168 43 view .LVU321
 1941              	.LBB59:
 169:Src/cmd.c     ****         SERIAL_WRITE("%03u dB\t\t\n", abs(Relative_Power(ADC_PD1_Power_CH)) % 1000);
 1942              		.loc 1 169 9 view .LVU322
 1943 0988 5B46     		mov	r3, fp
 1944 098a 0193     		str	r3, [sp, #4]
 1945 098c 6022     		movs	r2, #96
 1946 098e 0021     		movs	r1, #0
 1947 0990 02A8     		add	r0, sp, #8
 1948 0992 FFF7FEFF 		bl	memset
 1949              	.LVL237:
 169:Src/cmd.c     ****         SERIAL_WRITE("%03u dB\t\t\n", abs(Relative_Power(ADC_PD1_Power_CH)) % 1000);
 1950              		.loc 1 169 9 view .LVU323
 1951 0996 0520     		movs	r0, #5
 1952 0998 FFF7FEFF 		bl	Relative_Power
 1953              	.LVL238:
 1954 099c FA22     		movs	r2, #250
 1955 099e 9200     		lsls	r2, r2, #2
ARM GAS  C:\Users\matil\AppData\Local\Temp\cce1w2PW.s 			page 48


 1956 09a0 0023     		movs	r3, #0
 1957 09a2 FFF7FEFF 		bl	__aeabi_ldivmod
 1958              	.LVL239:
 1959 09a6 0200     		movs	r2, r0
 1960 09a8 0B00     		movs	r3, r1
 1961 09aa 4946     		mov	r1, r9
 1962 09ac 2000     		movs	r0, r4
 1963 09ae FFF7FEFF 		bl	sprintf
 1964              	.LVL240:
 169:Src/cmd.c     ****         SERIAL_WRITE("%03u dB\t\t\n", abs(Relative_Power(ADC_PD1_Power_CH)) % 1000);
 1965              		.loc 1 169 9 view .LVU324
 1966 09b2 82B2     		uxth	r2, r0
 1967 09b4 2B00     		movs	r3, r5
 1968 09b6 2100     		movs	r1, r4
 1969 09b8 3000     		movs	r0, r6
 1970              	.LVL241:
 169:Src/cmd.c     ****         SERIAL_WRITE("%03u dB\t\t\n", abs(Relative_Power(ADC_PD1_Power_CH)) % 1000);
 1971              		.loc 1 169 9 is_stmt 0 view .LVU325
 1972 09ba FFF7FEFF 		bl	HAL_UART_Transmit
 1973              	.LVL242:
 1974              	.LBE59:
 169:Src/cmd.c     ****         SERIAL_WRITE("%03u dB\t\t\n", abs(Relative_Power(ADC_PD1_Power_CH)) % 1000);
 1975              		.loc 1 169 71 is_stmt 1 view .LVU326
 1976              	.LBB60:
 170:Src/cmd.c     **** 
 1977              		.loc 1 170 9 view .LVU327
 1978 09be 5B46     		mov	r3, fp
 1979 09c0 0193     		str	r3, [sp, #4]
 1980 09c2 6022     		movs	r2, #96
 1981 09c4 0021     		movs	r1, #0
 1982 09c6 02A8     		add	r0, sp, #8
 1983 09c8 FFF7FEFF 		bl	memset
 1984              	.LVL243:
 170:Src/cmd.c     **** 
 1985              		.loc 1 170 9 view .LVU328
 1986 09cc 0520     		movs	r0, #5
 1987 09ce FFF7FEFF 		bl	Relative_Power
 1988              	.LVL244:
 1989 09d2 C317     		asrs	r3, r0, #31
 1990 09d4 C018     		adds	r0, r0, r3
 1991 09d6 5840     		eors	r0, r3
 1992 09d8 2900     		movs	r1, r5
 1993 09da FFF7FEFF 		bl	__aeabi_idivmod
 1994              	.LVL245:
 1995 09de 0A00     		movs	r2, r1
 1996 09e0 5146     		mov	r1, r10
 1997 09e2 2000     		movs	r0, r4
 1998 09e4 FFF7FEFF 		bl	sprintf
 1999              	.LVL246:
 170:Src/cmd.c     **** 
 2000              		.loc 1 170 9 view .LVU329
 2001 09e8 2B00     		movs	r3, r5
 2002 09ea 0922     		movs	r2, #9
 2003 09ec 2100     		movs	r1, r4
 2004 09ee 19E0     		b	.L47
 2005              	.L48:
 2006              		.align	2
ARM GAS  C:\Users\matil\AppData\Local\Temp\cce1w2PW.s 			page 49


 2007              	.L46:
 2008 09f0 7C010000 		.word	.LC40
 2009 09f4 00000000 		.word	huart2
 2010 09f8 84010000 		.word	.LC42
 2011 09fc 94010000 		.word	.LC44
 2012 0a00 9C010000 		.word	.LC46
 2013 0a04 AC010000 		.word	.LC48
 2014 0a08 BC010000 		.word	.LC50
 2015 0a0c CC010000 		.word	.LC52
 2016 0a10 DC010000 		.word	.LC54
 2017 0a14 EC010000 		.word	.LC56
 2018 0a18 00020000 		.word	.LC58
 2019 0a1c 08020000 		.word	.LC60
 2020 0a20 14020000 		.word	.LC62
 2021              	.L47:
 2022 0a24 3000     		movs	r0, r6
 2023 0a26 FFF7FEFF 		bl	HAL_UART_Transmit
 2024              	.LVL247:
 2025              	.LBE60:
 170:Src/cmd.c     **** 
 2026              		.loc 1 170 84 view .LVU330
 2027              	.LBB61:
 172:Src/cmd.c     ****         SERIAL_WRITE("%3li.", Relative_Power(ADC_PD2_Power_CH) / 1000);
 2028              		.loc 1 172 9 view .LVU331
 2029 0a2a 6022     		movs	r2, #96
 2030 0a2c 0021     		movs	r1, #0
 2031 0a2e 02A8     		add	r0, sp, #8
 2032 0a30 FFF7FEFF 		bl	memset
 2033              	.LVL248:
 172:Src/cmd.c     ****         SERIAL_WRITE("%3li.", Relative_Power(ADC_PD2_Power_CH) / 1000);
 2034              		.loc 1 172 9 view .LVU332
 2035 0a34 FB4B     		ldr	r3, .L49
 2036 0a36 2200     		movs	r2, r4
 2037 0a38 83CB     		ldmia	r3!, {r0, r1, r7}
 2038 0a3a 83C2     		stmia	r2!, {r0, r1, r7}
 2039 0a3c 1968     		ldr	r1, [r3]
 2040 0a3e 1160     		str	r1, [r2]
 2041 0a40 1B79     		ldrb	r3, [r3, #4]
 2042 0a42 1371     		strb	r3, [r2, #4]
 2043              	.LVL249:
 172:Src/cmd.c     ****         SERIAL_WRITE("%3li.", Relative_Power(ADC_PD2_Power_CH) / 1000);
 2044              		.loc 1 172 9 view .LVU333
 2045 0a44 2B00     		movs	r3, r5
 2046 0a46 1022     		movs	r2, #16
 2047 0a48 2100     		movs	r1, r4
 2048 0a4a 3000     		movs	r0, r6
 2049 0a4c FFF7FEFF 		bl	HAL_UART_Transmit
 2050              	.LVL250:
 2051              	.LBE61:
 172:Src/cmd.c     ****         SERIAL_WRITE("%3li.", Relative_Power(ADC_PD2_Power_CH) / 1000);
 2052              		.loc 1 172 43 view .LVU334
 2053              	.LBB62:
 173:Src/cmd.c     ****         SERIAL_WRITE("%03u dB\t\t\n", abs(Relative_Power(ADC_PD2_Power_CH)) % 1000);
 2054              		.loc 1 173 9 view .LVU335
 2055 0a50 5B46     		mov	r3, fp
 2056 0a52 0193     		str	r3, [sp, #4]
 2057 0a54 6022     		movs	r2, #96
ARM GAS  C:\Users\matil\AppData\Local\Temp\cce1w2PW.s 			page 50


 2058 0a56 0021     		movs	r1, #0
 2059 0a58 02A8     		add	r0, sp, #8
 2060 0a5a FFF7FEFF 		bl	memset
 2061              	.LVL251:
 173:Src/cmd.c     ****         SERIAL_WRITE("%03u dB\t\t\n", abs(Relative_Power(ADC_PD2_Power_CH)) % 1000);
 2062              		.loc 1 173 9 view .LVU336
 2063 0a5e 0120     		movs	r0, #1
 2064 0a60 FFF7FEFF 		bl	Relative_Power
 2065              	.LVL252:
 2066 0a64 FA22     		movs	r2, #250
 2067 0a66 9200     		lsls	r2, r2, #2
 2068 0a68 0023     		movs	r3, #0
 2069 0a6a FFF7FEFF 		bl	__aeabi_ldivmod
 2070              	.LVL253:
 2071 0a6e 0200     		movs	r2, r0
 2072 0a70 0B00     		movs	r3, r1
 2073 0a72 4946     		mov	r1, r9
 2074 0a74 2000     		movs	r0, r4
 2075 0a76 FFF7FEFF 		bl	sprintf
 2076              	.LVL254:
 173:Src/cmd.c     ****         SERIAL_WRITE("%03u dB\t\t\n", abs(Relative_Power(ADC_PD2_Power_CH)) % 1000);
 2077              		.loc 1 173 9 view .LVU337
 2078 0a7a 82B2     		uxth	r2, r0
 2079 0a7c 2B00     		movs	r3, r5
 2080 0a7e 2100     		movs	r1, r4
 2081 0a80 3000     		movs	r0, r6
 2082              	.LVL255:
 173:Src/cmd.c     ****         SERIAL_WRITE("%03u dB\t\t\n", abs(Relative_Power(ADC_PD2_Power_CH)) % 1000);
 2083              		.loc 1 173 9 is_stmt 0 view .LVU338
 2084 0a82 FFF7FEFF 		bl	HAL_UART_Transmit
 2085              	.LVL256:
 2086              	.LBE62:
 173:Src/cmd.c     ****         SERIAL_WRITE("%03u dB\t\t\n", abs(Relative_Power(ADC_PD2_Power_CH)) % 1000);
 2087              		.loc 1 173 71 is_stmt 1 view .LVU339
 2088              	.LBB63:
 174:Src/cmd.c     **** 
 2089              		.loc 1 174 9 view .LVU340
 2090 0a86 5B46     		mov	r3, fp
 2091 0a88 0193     		str	r3, [sp, #4]
 2092 0a8a 6022     		movs	r2, #96
 2093 0a8c 0021     		movs	r1, #0
 2094 0a8e 02A8     		add	r0, sp, #8
 2095 0a90 FFF7FEFF 		bl	memset
 2096              	.LVL257:
 174:Src/cmd.c     **** 
 2097              		.loc 1 174 9 view .LVU341
 2098 0a94 0120     		movs	r0, #1
 2099 0a96 FFF7FEFF 		bl	Relative_Power
 2100              	.LVL258:
 2101 0a9a C317     		asrs	r3, r0, #31
 2102 0a9c C018     		adds	r0, r0, r3
 2103 0a9e 5840     		eors	r0, r3
 2104 0aa0 2900     		movs	r1, r5
 2105 0aa2 FFF7FEFF 		bl	__aeabi_idivmod
 2106              	.LVL259:
 2107 0aa6 0A00     		movs	r2, r1
 2108 0aa8 5146     		mov	r1, r10
ARM GAS  C:\Users\matil\AppData\Local\Temp\cce1w2PW.s 			page 51


 2109 0aaa 2000     		movs	r0, r4
 2110 0aac FFF7FEFF 		bl	sprintf
 2111              	.LVL260:
 174:Src/cmd.c     **** 
 2112              		.loc 1 174 9 view .LVU342
 2113 0ab0 2B00     		movs	r3, r5
 2114 0ab2 0922     		movs	r2, #9
 2115 0ab4 2100     		movs	r1, r4
 2116 0ab6 3000     		movs	r0, r6
 2117 0ab8 FFF7FEFF 		bl	HAL_UART_Transmit
 2118              	.LVL261:
 2119              	.LBE63:
 174:Src/cmd.c     **** 
 2120              		.loc 1 174 84 view .LVU343
 2121              	.LBB64:
 176:Src/cmd.c     ****         SERIAL_WRITE("%3li.", Relative_Power(ADC_PD3_Power_CH) / 1000);
 2122              		.loc 1 176 9 view .LVU344
 2123 0abc 6022     		movs	r2, #96
 2124 0abe 0021     		movs	r1, #0
 2125 0ac0 02A8     		add	r0, sp, #8
 2126 0ac2 FFF7FEFF 		bl	memset
 2127              	.LVL262:
 176:Src/cmd.c     ****         SERIAL_WRITE("%3li.", Relative_Power(ADC_PD3_Power_CH) / 1000);
 2128              		.loc 1 176 9 view .LVU345
 2129 0ac6 D84B     		ldr	r3, .L49+4
 2130 0ac8 2200     		movs	r2, r4
 2131 0aca 83CB     		ldmia	r3!, {r0, r1, r7}
 2132 0acc 83C2     		stmia	r2!, {r0, r1, r7}
 2133 0ace 1968     		ldr	r1, [r3]
 2134 0ad0 1160     		str	r1, [r2]
 2135 0ad2 1B79     		ldrb	r3, [r3, #4]
 2136 0ad4 1371     		strb	r3, [r2, #4]
 2137              	.LVL263:
 176:Src/cmd.c     ****         SERIAL_WRITE("%3li.", Relative_Power(ADC_PD3_Power_CH) / 1000);
 2138              		.loc 1 176 9 view .LVU346
 2139 0ad6 2B00     		movs	r3, r5
 2140 0ad8 1022     		movs	r2, #16
 2141 0ada 2100     		movs	r1, r4
 2142 0adc 3000     		movs	r0, r6
 2143 0ade FFF7FEFF 		bl	HAL_UART_Transmit
 2144              	.LVL264:
 2145              	.LBE64:
 176:Src/cmd.c     ****         SERIAL_WRITE("%3li.", Relative_Power(ADC_PD3_Power_CH) / 1000);
 2146              		.loc 1 176 43 view .LVU347
 2147              	.LBB65:
 177:Src/cmd.c     ****         SERIAL_WRITE("%03u dB\t\t\n", abs(Relative_Power(ADC_PD3_Power_CH)) % 1000);
 2148              		.loc 1 177 9 view .LVU348
 2149 0ae2 5B46     		mov	r3, fp
 2150 0ae4 0193     		str	r3, [sp, #4]
 2151 0ae6 6022     		movs	r2, #96
 2152 0ae8 0021     		movs	r1, #0
 2153 0aea 02A8     		add	r0, sp, #8
 2154 0aec FFF7FEFF 		bl	memset
 2155              	.LVL265:
 177:Src/cmd.c     ****         SERIAL_WRITE("%03u dB\t\t\n", abs(Relative_Power(ADC_PD3_Power_CH)) % 1000);
 2156              		.loc 1 177 9 view .LVU349
 2157 0af0 0D20     		movs	r0, #13
ARM GAS  C:\Users\matil\AppData\Local\Temp\cce1w2PW.s 			page 52


 2158 0af2 FFF7FEFF 		bl	Relative_Power
 2159              	.LVL266:
 2160 0af6 FA22     		movs	r2, #250
 2161 0af8 9200     		lsls	r2, r2, #2
 2162 0afa 0023     		movs	r3, #0
 2163 0afc FFF7FEFF 		bl	__aeabi_ldivmod
 2164              	.LVL267:
 2165 0b00 0200     		movs	r2, r0
 2166 0b02 0B00     		movs	r3, r1
 2167 0b04 4946     		mov	r1, r9
 2168 0b06 2000     		movs	r0, r4
 2169 0b08 FFF7FEFF 		bl	sprintf
 2170              	.LVL268:
 177:Src/cmd.c     ****         SERIAL_WRITE("%03u dB\t\t\n", abs(Relative_Power(ADC_PD3_Power_CH)) % 1000);
 2171              		.loc 1 177 9 view .LVU350
 2172 0b0c 82B2     		uxth	r2, r0
 2173 0b0e 2B00     		movs	r3, r5
 2174 0b10 2100     		movs	r1, r4
 2175 0b12 3000     		movs	r0, r6
 2176              	.LVL269:
 177:Src/cmd.c     ****         SERIAL_WRITE("%03u dB\t\t\n", abs(Relative_Power(ADC_PD3_Power_CH)) % 1000);
 2177              		.loc 1 177 9 is_stmt 0 view .LVU351
 2178 0b14 FFF7FEFF 		bl	HAL_UART_Transmit
 2179              	.LVL270:
 2180              	.LBE65:
 177:Src/cmd.c     ****         SERIAL_WRITE("%03u dB\t\t\n", abs(Relative_Power(ADC_PD3_Power_CH)) % 1000);
 2181              		.loc 1 177 71 is_stmt 1 view .LVU352
 2182              	.LBB66:
 178:Src/cmd.c     **** 
 2183              		.loc 1 178 9 view .LVU353
 2184 0b18 5B46     		mov	r3, fp
 2185 0b1a 0193     		str	r3, [sp, #4]
 2186 0b1c 6022     		movs	r2, #96
 2187 0b1e 0021     		movs	r1, #0
 2188 0b20 02A8     		add	r0, sp, #8
 2189 0b22 FFF7FEFF 		bl	memset
 2190              	.LVL271:
 178:Src/cmd.c     **** 
 2191              		.loc 1 178 9 view .LVU354
 2192 0b26 0D20     		movs	r0, #13
 2193 0b28 FFF7FEFF 		bl	Relative_Power
 2194              	.LVL272:
 2195 0b2c C317     		asrs	r3, r0, #31
 2196 0b2e C018     		adds	r0, r0, r3
 2197 0b30 5840     		eors	r0, r3
 2198 0b32 2900     		movs	r1, r5
 2199 0b34 FFF7FEFF 		bl	__aeabi_idivmod
 2200              	.LVL273:
 2201 0b38 0A00     		movs	r2, r1
 2202 0b3a 5146     		mov	r1, r10
 2203 0b3c 2000     		movs	r0, r4
 2204 0b3e FFF7FEFF 		bl	sprintf
 2205              	.LVL274:
 178:Src/cmd.c     **** 
 2206              		.loc 1 178 9 view .LVU355
 2207 0b42 2B00     		movs	r3, r5
 2208 0b44 0922     		movs	r2, #9
ARM GAS  C:\Users\matil\AppData\Local\Temp\cce1w2PW.s 			page 53


 2209 0b46 2100     		movs	r1, r4
 2210 0b48 3000     		movs	r0, r6
 2211 0b4a FFF7FEFF 		bl	HAL_UART_Transmit
 2212              	.LVL275:
 2213              	.LBE66:
 178:Src/cmd.c     **** 
 2214              		.loc 1 178 84 view .LVU356
 2215              	.LBB67:
 180:Src/cmd.c     ****         SERIAL_WRITE("%3li.", Relative_Power(ADC_PD4_Power_CH) / 1000);
 2216              		.loc 1 180 9 view .LVU357
 2217 0b4e 6022     		movs	r2, #96
 2218 0b50 0021     		movs	r1, #0
 2219 0b52 02A8     		add	r0, sp, #8
 2220 0b54 FFF7FEFF 		bl	memset
 2221              	.LVL276:
 180:Src/cmd.c     ****         SERIAL_WRITE("%3li.", Relative_Power(ADC_PD4_Power_CH) / 1000);
 2222              		.loc 1 180 9 view .LVU358
 2223 0b58 B44B     		ldr	r3, .L49+8
 2224 0b5a 2200     		movs	r2, r4
 2225 0b5c 83CB     		ldmia	r3!, {r0, r1, r7}
 2226 0b5e 83C2     		stmia	r2!, {r0, r1, r7}
 2227 0b60 1968     		ldr	r1, [r3]
 2228 0b62 1160     		str	r1, [r2]
 2229 0b64 1B79     		ldrb	r3, [r3, #4]
 2230 0b66 1371     		strb	r3, [r2, #4]
 2231              	.LVL277:
 180:Src/cmd.c     ****         SERIAL_WRITE("%3li.", Relative_Power(ADC_PD4_Power_CH) / 1000);
 2232              		.loc 1 180 9 view .LVU359
 2233 0b68 2B00     		movs	r3, r5
 2234 0b6a 1022     		movs	r2, #16
 2235 0b6c 2100     		movs	r1, r4
 2236 0b6e 3000     		movs	r0, r6
 2237 0b70 FFF7FEFF 		bl	HAL_UART_Transmit
 2238              	.LVL278:
 2239              	.LBE67:
 180:Src/cmd.c     ****         SERIAL_WRITE("%3li.", Relative_Power(ADC_PD4_Power_CH) / 1000);
 2240              		.loc 1 180 43 view .LVU360
 2241              	.LBB68:
 181:Src/cmd.c     ****         SERIAL_WRITE("%03u dB\t\t\n", abs(Relative_Power(ADC_PD4_Power_CH)) % 1000);
 2242              		.loc 1 181 9 view .LVU361
 2243 0b74 5B46     		mov	r3, fp
 2244 0b76 0193     		str	r3, [sp, #4]
 2245 0b78 6022     		movs	r2, #96
 2246 0b7a 0021     		movs	r1, #0
 2247 0b7c 02A8     		add	r0, sp, #8
 2248 0b7e FFF7FEFF 		bl	memset
 2249              	.LVL279:
 181:Src/cmd.c     ****         SERIAL_WRITE("%03u dB\t\t\n", abs(Relative_Power(ADC_PD4_Power_CH)) % 1000);
 2250              		.loc 1 181 9 view .LVU362
 2251 0b82 0320     		movs	r0, #3
 2252 0b84 FFF7FEFF 		bl	Relative_Power
 2253              	.LVL280:
 2254 0b88 FA22     		movs	r2, #250
 2255 0b8a 9200     		lsls	r2, r2, #2
 2256 0b8c 0023     		movs	r3, #0
 2257 0b8e FFF7FEFF 		bl	__aeabi_ldivmod
 2258              	.LVL281:
ARM GAS  C:\Users\matil\AppData\Local\Temp\cce1w2PW.s 			page 54


 2259 0b92 0200     		movs	r2, r0
 2260 0b94 0B00     		movs	r3, r1
 2261 0b96 4946     		mov	r1, r9
 2262 0b98 2000     		movs	r0, r4
 2263 0b9a FFF7FEFF 		bl	sprintf
 2264              	.LVL282:
 181:Src/cmd.c     ****         SERIAL_WRITE("%03u dB\t\t\n", abs(Relative_Power(ADC_PD4_Power_CH)) % 1000);
 2265              		.loc 1 181 9 view .LVU363
 2266 0b9e 82B2     		uxth	r2, r0
 2267 0ba0 2B00     		movs	r3, r5
 2268 0ba2 2100     		movs	r1, r4
 2269 0ba4 3000     		movs	r0, r6
 2270              	.LVL283:
 181:Src/cmd.c     ****         SERIAL_WRITE("%03u dB\t\t\n", abs(Relative_Power(ADC_PD4_Power_CH)) % 1000);
 2271              		.loc 1 181 9 is_stmt 0 view .LVU364
 2272 0ba6 FFF7FEFF 		bl	HAL_UART_Transmit
 2273              	.LVL284:
 2274              	.LBE68:
 181:Src/cmd.c     ****         SERIAL_WRITE("%03u dB\t\t\n", abs(Relative_Power(ADC_PD4_Power_CH)) % 1000);
 2275              		.loc 1 181 71 is_stmt 1 view .LVU365
 2276              	.LBB69:
 182:Src/cmd.c     **** 
 2277              		.loc 1 182 9 view .LVU366
 2278 0baa 5B46     		mov	r3, fp
 2279 0bac 0193     		str	r3, [sp, #4]
 2280 0bae 6022     		movs	r2, #96
 2281 0bb0 0021     		movs	r1, #0
 2282 0bb2 02A8     		add	r0, sp, #8
 2283 0bb4 FFF7FEFF 		bl	memset
 2284              	.LVL285:
 182:Src/cmd.c     **** 
 2285              		.loc 1 182 9 view .LVU367
 2286 0bb8 0320     		movs	r0, #3
 2287 0bba FFF7FEFF 		bl	Relative_Power
 2288              	.LVL286:
 2289 0bbe C317     		asrs	r3, r0, #31
 2290 0bc0 C018     		adds	r0, r0, r3
 2291 0bc2 5840     		eors	r0, r3
 2292 0bc4 2900     		movs	r1, r5
 2293 0bc6 FFF7FEFF 		bl	__aeabi_idivmod
 2294              	.LVL287:
 2295 0bca 0A00     		movs	r2, r1
 2296 0bcc 5146     		mov	r1, r10
 2297 0bce 2000     		movs	r0, r4
 2298 0bd0 FFF7FEFF 		bl	sprintf
 2299              	.LVL288:
 182:Src/cmd.c     **** 
 2300              		.loc 1 182 9 view .LVU368
 2301 0bd4 2B00     		movs	r3, r5
 2302 0bd6 0922     		movs	r2, #9
 2303 0bd8 2100     		movs	r1, r4
 2304 0bda 3000     		movs	r0, r6
 2305 0bdc FFF7FEFF 		bl	HAL_UART_Transmit
 2306              	.LVL289:
 2307              	.LBE69:
 182:Src/cmd.c     **** 
 2308              		.loc 1 182 84 view .LVU369
ARM GAS  C:\Users\matil\AppData\Local\Temp\cce1w2PW.s 			page 55


 2309              	.LBB70:
 184:Src/cmd.c     ****         SERIAL_WRITE("%3li.", RMS_Power(ADC_PWD0_Power_CH) / 1000);
 2310              		.loc 1 184 9 view .LVU370
 2311 0be0 6022     		movs	r2, #96
 2312 0be2 0021     		movs	r1, #0
 2313 0be4 02A8     		add	r0, sp, #8
 2314 0be6 FFF7FEFF 		bl	memset
 2315              	.LVL290:
 184:Src/cmd.c     ****         SERIAL_WRITE("%3li.", RMS_Power(ADC_PWD0_Power_CH) / 1000);
 2316              		.loc 1 184 9 view .LVU371
 2317 0bea 914B     		ldr	r3, .L49+12
 2318 0bec 2200     		movs	r2, r4
 2319 0bee 83CB     		ldmia	r3!, {r0, r1, r7}
 2320 0bf0 83C2     		stmia	r2!, {r0, r1, r7}
 2321 0bf2 1B88     		ldrh	r3, [r3]
 2322 0bf4 1380     		strh	r3, [r2]
 2323              	.LVL291:
 184:Src/cmd.c     ****         SERIAL_WRITE("%3li.", RMS_Power(ADC_PWD0_Power_CH) / 1000);
 2324              		.loc 1 184 9 view .LVU372
 2325 0bf6 2B00     		movs	r3, r5
 2326 0bf8 0D22     		movs	r2, #13
 2327 0bfa 2100     		movs	r1, r4
 2328 0bfc 3000     		movs	r0, r6
 2329 0bfe FFF7FEFF 		bl	HAL_UART_Transmit
 2330              	.LVL292:
 2331              	.LBE70:
 184:Src/cmd.c     ****         SERIAL_WRITE("%3li.", RMS_Power(ADC_PWD0_Power_CH) / 1000);
 2332              		.loc 1 184 40 view .LVU373
 2333              	.LBB71:
 185:Src/cmd.c     ****         SERIAL_WRITE("%03u dBm\t\t\n", abs(RMS_Power(ADC_PWD0_Power_CH)) % 1000);
 2334              		.loc 1 185 9 view .LVU374
 2335 0c02 5B46     		mov	r3, fp
 2336 0c04 0193     		str	r3, [sp, #4]
 2337 0c06 6022     		movs	r2, #96
 2338 0c08 0021     		movs	r1, #0
 2339 0c0a 02A8     		add	r0, sp, #8
 2340 0c0c FFF7FEFF 		bl	memset
 2341              	.LVL293:
 185:Src/cmd.c     ****         SERIAL_WRITE("%03u dBm\t\t\n", abs(RMS_Power(ADC_PWD0_Power_CH)) % 1000);
 2342              		.loc 1 185 9 view .LVU375
 2343 0c10 0420     		movs	r0, #4
 2344 0c12 FFF7FEFF 		bl	RMS_Power
 2345              	.LVL294:
 2346 0c16 FA22     		movs	r2, #250
 2347 0c18 9200     		lsls	r2, r2, #2
 2348 0c1a 0023     		movs	r3, #0
 2349 0c1c FFF7FEFF 		bl	__aeabi_ldivmod
 2350              	.LVL295:
 2351 0c20 0200     		movs	r2, r0
 2352 0c22 0B00     		movs	r3, r1
 2353 0c24 4946     		mov	r1, r9
 2354 0c26 2000     		movs	r0, r4
 2355 0c28 FFF7FEFF 		bl	sprintf
 2356              	.LVL296:
 185:Src/cmd.c     ****         SERIAL_WRITE("%03u dBm\t\t\n", abs(RMS_Power(ADC_PWD0_Power_CH)) % 1000);
 2357              		.loc 1 185 9 view .LVU376
 2358 0c2c 82B2     		uxth	r2, r0
ARM GAS  C:\Users\matil\AppData\Local\Temp\cce1w2PW.s 			page 56


 2359 0c2e 2B00     		movs	r3, r5
 2360 0c30 2100     		movs	r1, r4
 2361 0c32 3000     		movs	r0, r6
 2362              	.LVL297:
 185:Src/cmd.c     ****         SERIAL_WRITE("%03u dBm\t\t\n", abs(RMS_Power(ADC_PWD0_Power_CH)) % 1000);
 2363              		.loc 1 185 9 is_stmt 0 view .LVU377
 2364 0c34 FFF7FEFF 		bl	HAL_UART_Transmit
 2365              	.LVL298:
 2366              	.LBE71:
 185:Src/cmd.c     ****         SERIAL_WRITE("%03u dBm\t\t\n", abs(RMS_Power(ADC_PWD0_Power_CH)) % 1000);
 2367              		.loc 1 185 67 is_stmt 1 view .LVU378
 2368              	.LBB72:
 186:Src/cmd.c     **** 
 2369              		.loc 1 186 9 view .LVU379
 2370 0c38 5B46     		mov	r3, fp
 2371 0c3a 0193     		str	r3, [sp, #4]
 2372 0c3c 6022     		movs	r2, #96
 2373 0c3e 0021     		movs	r1, #0
 2374 0c40 02A8     		add	r0, sp, #8
 2375 0c42 FFF7FEFF 		bl	memset
 2376              	.LVL299:
 186:Src/cmd.c     **** 
 2377              		.loc 1 186 9 view .LVU380
 2378 0c46 0420     		movs	r0, #4
 2379 0c48 FFF7FEFF 		bl	RMS_Power
 2380              	.LVL300:
 2381 0c4c C317     		asrs	r3, r0, #31
 2382 0c4e C018     		adds	r0, r0, r3
 2383 0c50 5840     		eors	r0, r3
 2384 0c52 2900     		movs	r1, r5
 2385 0c54 FFF7FEFF 		bl	__aeabi_idivmod
 2386              	.LVL301:
 2387 0c58 0A00     		movs	r2, r1
 2388 0c5a 7649     		ldr	r1, .L49+16
 2389 0c5c 2000     		movs	r0, r4
 2390 0c5e FFF7FEFF 		bl	sprintf
 2391              	.LVL302:
 186:Src/cmd.c     **** 
 2392              		.loc 1 186 9 view .LVU381
 2393 0c62 2B00     		movs	r3, r5
 2394 0c64 0A22     		movs	r2, #10
 2395 0c66 2100     		movs	r1, r4
 2396 0c68 3000     		movs	r0, r6
 2397 0c6a FFF7FEFF 		bl	HAL_UART_Transmit
 2398              	.LVL303:
 2399              	.LBE72:
 186:Src/cmd.c     **** 
 2400              		.loc 1 186 81 view .LVU382
 2401              	.LBB73:
 188:Src/cmd.c     ****         SERIAL_WRITE("%3li.", RMS_Power(ADC_PWD1_Power_CH) / 1000);
 2402              		.loc 1 188 9 view .LVU383
 2403 0c6e 201D     		adds	r0, r4, #4
 2404 0c70 6022     		movs	r2, #96
 2405 0c72 0021     		movs	r1, #0
 2406 0c74 FFF7FEFF 		bl	memset
 2407              	.LVL304:
 188:Src/cmd.c     ****         SERIAL_WRITE("%3li.", RMS_Power(ADC_PWD1_Power_CH) / 1000);
ARM GAS  C:\Users\matil\AppData\Local\Temp\cce1w2PW.s 			page 57


 2408              		.loc 1 188 9 view .LVU384
 2409 0c78 01AC     		add	r4, sp, #4
 2410 0c7a 6F4B     		ldr	r3, .L49+20
 2411 0c7c 2200     		movs	r2, r4
 2412 0c7e 23CB     		ldmia	r3!, {r0, r1, r5}
 2413 0c80 23C2     		stmia	r2!, {r0, r1, r5}
 2414 0c82 1B88     		ldrh	r3, [r3]
 2415 0c84 1380     		strh	r3, [r2]
 2416              	.LVL305:
 188:Src/cmd.c     ****         SERIAL_WRITE("%3li.", RMS_Power(ADC_PWD1_Power_CH) / 1000);
 2417              		.loc 1 188 9 view .LVU385
 2418 0c86 FA25     		movs	r5, #250
 2419 0c88 AD00     		lsls	r5, r5, #2
 2420 0c8a 6C4E     		ldr	r6, .L49+24
 2421 0c8c 2B00     		movs	r3, r5
 2422 0c8e 0D22     		movs	r2, #13
 2423 0c90 2100     		movs	r1, r4
 2424 0c92 3000     		movs	r0, r6
 2425 0c94 FFF7FEFF 		bl	HAL_UART_Transmit
 2426              	.LVL306:
 2427              	.LBE73:
 188:Src/cmd.c     ****         SERIAL_WRITE("%3li.", RMS_Power(ADC_PWD1_Power_CH) / 1000);
 2428              		.loc 1 188 40 view .LVU386
 2429              	.LBB74:
 189:Src/cmd.c     ****         SERIAL_WRITE("%03u dBm\t\t\n", abs(RMS_Power(ADC_PWD1_Power_CH)) % 1000);
 2430              		.loc 1 189 9 view .LVU387
 2431 0c98 0023     		movs	r3, #0
 2432 0c9a 0193     		str	r3, [sp, #4]
 2433 0c9c 6022     		movs	r2, #96
 2434 0c9e 0021     		movs	r1, #0
 2435 0ca0 02A8     		add	r0, sp, #8
 2436 0ca2 FFF7FEFF 		bl	memset
 2437              	.LVL307:
 189:Src/cmd.c     ****         SERIAL_WRITE("%03u dBm\t\t\n", abs(RMS_Power(ADC_PWD1_Power_CH)) % 1000);
 2438              		.loc 1 189 9 view .LVU388
 2439 0ca6 0A20     		movs	r0, #10
 2440 0ca8 FFF7FEFF 		bl	RMS_Power
 2441              	.LVL308:
 2442 0cac FA22     		movs	r2, #250
 2443 0cae 9200     		lsls	r2, r2, #2
 2444 0cb0 0023     		movs	r3, #0
 2445 0cb2 FFF7FEFF 		bl	__aeabi_ldivmod
 2446              	.LVL309:
 2447 0cb6 0200     		movs	r2, r0
 2448 0cb8 0B00     		movs	r3, r1
 2449 0cba 6149     		ldr	r1, .L49+28
 2450 0cbc 8946     		mov	r9, r1
 2451 0cbe 2000     		movs	r0, r4
 2452 0cc0 FFF7FEFF 		bl	sprintf
 2453              	.LVL310:
 189:Src/cmd.c     ****         SERIAL_WRITE("%03u dBm\t\t\n", abs(RMS_Power(ADC_PWD1_Power_CH)) % 1000);
 2454              		.loc 1 189 9 view .LVU389
 2455 0cc4 82B2     		uxth	r2, r0
 2456 0cc6 2B00     		movs	r3, r5
 2457 0cc8 2100     		movs	r1, r4
 2458 0cca 3000     		movs	r0, r6
 2459              	.LVL311:
ARM GAS  C:\Users\matil\AppData\Local\Temp\cce1w2PW.s 			page 58


 189:Src/cmd.c     ****         SERIAL_WRITE("%03u dBm\t\t\n", abs(RMS_Power(ADC_PWD1_Power_CH)) % 1000);
 2460              		.loc 1 189 9 is_stmt 0 view .LVU390
 2461 0ccc FFF7FEFF 		bl	HAL_UART_Transmit
 2462              	.LVL312:
 2463              	.LBE74:
 189:Src/cmd.c     ****         SERIAL_WRITE("%03u dBm\t\t\n", abs(RMS_Power(ADC_PWD1_Power_CH)) % 1000);
 2464              		.loc 1 189 67 is_stmt 1 view .LVU391
 2465              	.LBB75:
 190:Src/cmd.c     **** 
 2466              		.loc 1 190 9 view .LVU392
 2467 0cd0 5B46     		mov	r3, fp
 2468 0cd2 0193     		str	r3, [sp, #4]
 2469 0cd4 6022     		movs	r2, #96
 2470 0cd6 0021     		movs	r1, #0
 2471 0cd8 02A8     		add	r0, sp, #8
 2472 0cda FFF7FEFF 		bl	memset
 2473              	.LVL313:
 190:Src/cmd.c     **** 
 2474              		.loc 1 190 9 view .LVU393
 2475 0cde 0A20     		movs	r0, #10
 2476 0ce0 FFF7FEFF 		bl	RMS_Power
 2477              	.LVL314:
 2478 0ce4 C317     		asrs	r3, r0, #31
 2479 0ce6 C018     		adds	r0, r0, r3
 2480 0ce8 5840     		eors	r0, r3
 2481 0cea 2900     		movs	r1, r5
 2482 0cec FFF7FEFF 		bl	__aeabi_idivmod
 2483              	.LVL315:
 2484 0cf0 0A00     		movs	r2, r1
 2485 0cf2 504B     		ldr	r3, .L49+16
 2486 0cf4 9846     		mov	r8, r3
 2487 0cf6 1900     		movs	r1, r3
 2488 0cf8 2000     		movs	r0, r4
 2489 0cfa FFF7FEFF 		bl	sprintf
 2490              	.LVL316:
 190:Src/cmd.c     **** 
 2491              		.loc 1 190 9 view .LVU394
 2492 0cfe 2B00     		movs	r3, r5
 2493 0d00 0A22     		movs	r2, #10
 2494 0d02 2100     		movs	r1, r4
 2495 0d04 3000     		movs	r0, r6
 2496 0d06 FFF7FEFF 		bl	HAL_UART_Transmit
 2497              	.LVL317:
 2498              	.LBE75:
 190:Src/cmd.c     **** 
 2499              		.loc 1 190 81 view .LVU395
 2500              	.LBB76:
 192:Src/cmd.c     ****         SERIAL_WRITE("%3li.", RMS_Power(ADC_PWD2_Power_CH) / 1000);
 2501              		.loc 1 192 9 view .LVU396
 2502 0d0a 6022     		movs	r2, #96
 2503 0d0c 0021     		movs	r1, #0
 2504 0d0e 02A8     		add	r0, sp, #8
 2505 0d10 FFF7FEFF 		bl	memset
 2506              	.LVL318:
 192:Src/cmd.c     ****         SERIAL_WRITE("%3li.", RMS_Power(ADC_PWD2_Power_CH) / 1000);
 2507              		.loc 1 192 9 view .LVU397
 2508 0d14 4B4B     		ldr	r3, .L49+32
ARM GAS  C:\Users\matil\AppData\Local\Temp\cce1w2PW.s 			page 59


 2509 0d16 2200     		movs	r2, r4
 2510 0d18 83CB     		ldmia	r3!, {r0, r1, r7}
 2511 0d1a 83C2     		stmia	r2!, {r0, r1, r7}
 2512 0d1c 1B88     		ldrh	r3, [r3]
 2513 0d1e 1380     		strh	r3, [r2]
 2514              	.LVL319:
 192:Src/cmd.c     ****         SERIAL_WRITE("%3li.", RMS_Power(ADC_PWD2_Power_CH) / 1000);
 2515              		.loc 1 192 9 view .LVU398
 2516 0d20 2B00     		movs	r3, r5
 2517 0d22 0D22     		movs	r2, #13
 2518 0d24 2100     		movs	r1, r4
 2519 0d26 3000     		movs	r0, r6
 2520 0d28 FFF7FEFF 		bl	HAL_UART_Transmit
 2521              	.LVL320:
 2522              	.LBE76:
 192:Src/cmd.c     ****         SERIAL_WRITE("%3li.", RMS_Power(ADC_PWD2_Power_CH) / 1000);
 2523              		.loc 1 192 40 view .LVU399
 2524              	.LBB77:
 193:Src/cmd.c     ****         SERIAL_WRITE("%03u dBm\t\t\n", abs(RMS_Power(ADC_PWD2_Power_CH)) % 1000);
 2525              		.loc 1 193 9 view .LVU400
 2526 0d2c 5B46     		mov	r3, fp
 2527 0d2e 0193     		str	r3, [sp, #4]
 2528 0d30 6022     		movs	r2, #96
 2529 0d32 0021     		movs	r1, #0
 2530 0d34 02A8     		add	r0, sp, #8
 2531 0d36 FFF7FEFF 		bl	memset
 2532              	.LVL321:
 193:Src/cmd.c     ****         SERIAL_WRITE("%03u dBm\t\t\n", abs(RMS_Power(ADC_PWD2_Power_CH)) % 1000);
 2533              		.loc 1 193 9 view .LVU401
 2534 0d3a 0920     		movs	r0, #9
 2535 0d3c FFF7FEFF 		bl	RMS_Power
 2536              	.LVL322:
 2537 0d40 FA22     		movs	r2, #250
 2538 0d42 9200     		lsls	r2, r2, #2
 2539 0d44 0023     		movs	r3, #0
 2540 0d46 FFF7FEFF 		bl	__aeabi_ldivmod
 2541              	.LVL323:
 2542 0d4a 0200     		movs	r2, r0
 2543 0d4c 0B00     		movs	r3, r1
 2544 0d4e 4946     		mov	r1, r9
 2545 0d50 2000     		movs	r0, r4
 2546 0d52 FFF7FEFF 		bl	sprintf
 2547              	.LVL324:
 193:Src/cmd.c     ****         SERIAL_WRITE("%03u dBm\t\t\n", abs(RMS_Power(ADC_PWD2_Power_CH)) % 1000);
 2548              		.loc 1 193 9 view .LVU402
 2549 0d56 82B2     		uxth	r2, r0
 2550 0d58 2B00     		movs	r3, r5
 2551 0d5a 2100     		movs	r1, r4
 2552 0d5c 3000     		movs	r0, r6
 2553              	.LVL325:
 193:Src/cmd.c     ****         SERIAL_WRITE("%03u dBm\t\t\n", abs(RMS_Power(ADC_PWD2_Power_CH)) % 1000);
 2554              		.loc 1 193 9 is_stmt 0 view .LVU403
 2555 0d5e FFF7FEFF 		bl	HAL_UART_Transmit
 2556              	.LVL326:
 2557              	.LBE77:
 193:Src/cmd.c     ****         SERIAL_WRITE("%03u dBm\t\t\n", abs(RMS_Power(ADC_PWD2_Power_CH)) % 1000);
 2558              		.loc 1 193 67 is_stmt 1 view .LVU404
ARM GAS  C:\Users\matil\AppData\Local\Temp\cce1w2PW.s 			page 60


 2559              	.LBB78:
 194:Src/cmd.c     **** 
 2560              		.loc 1 194 9 view .LVU405
 2561 0d62 5B46     		mov	r3, fp
 2562 0d64 0193     		str	r3, [sp, #4]
 2563 0d66 6022     		movs	r2, #96
 2564 0d68 0021     		movs	r1, #0
 2565 0d6a 02A8     		add	r0, sp, #8
 2566 0d6c FFF7FEFF 		bl	memset
 2567              	.LVL327:
 194:Src/cmd.c     **** 
 2568              		.loc 1 194 9 view .LVU406
 2569 0d70 0920     		movs	r0, #9
 2570 0d72 FFF7FEFF 		bl	RMS_Power
 2571              	.LVL328:
 2572 0d76 C317     		asrs	r3, r0, #31
 2573 0d78 C018     		adds	r0, r0, r3
 2574 0d7a 5840     		eors	r0, r3
 2575 0d7c 2900     		movs	r1, r5
 2576 0d7e FFF7FEFF 		bl	__aeabi_idivmod
 2577              	.LVL329:
 2578 0d82 0A00     		movs	r2, r1
 2579 0d84 4146     		mov	r1, r8
 2580 0d86 2000     		movs	r0, r4
 2581 0d88 FFF7FEFF 		bl	sprintf
 2582              	.LVL330:
 194:Src/cmd.c     **** 
 2583              		.loc 1 194 9 view .LVU407
 2584 0d8c 2B00     		movs	r3, r5
 2585 0d8e 0A22     		movs	r2, #10
 2586 0d90 2100     		movs	r1, r4
 2587 0d92 3000     		movs	r0, r6
 2588 0d94 FFF7FEFF 		bl	HAL_UART_Transmit
 2589              	.LVL331:
 2590              	.LBE78:
 194:Src/cmd.c     **** 
 2591              		.loc 1 194 81 view .LVU408
 2592              	.LBB79:
 196:Src/cmd.c     ****         SERIAL_WRITE("%3li.", RMS_Power(ADC_PWD3_Power_CH) / 1000);
 2593              		.loc 1 196 9 view .LVU409
 2594 0d98 6022     		movs	r2, #96
 2595 0d9a 0021     		movs	r1, #0
 2596 0d9c 02A8     		add	r0, sp, #8
 2597 0d9e FFF7FEFF 		bl	memset
 2598              	.LVL332:
 196:Src/cmd.c     ****         SERIAL_WRITE("%3li.", RMS_Power(ADC_PWD3_Power_CH) / 1000);
 2599              		.loc 1 196 9 view .LVU410
 2600 0da2 294B     		ldr	r3, .L49+36
 2601 0da4 2200     		movs	r2, r4
 2602 0da6 83CB     		ldmia	r3!, {r0, r1, r7}
 2603 0da8 83C2     		stmia	r2!, {r0, r1, r7}
 2604 0daa 1B88     		ldrh	r3, [r3]
 2605 0dac 1380     		strh	r3, [r2]
 2606              	.LVL333:
 196:Src/cmd.c     ****         SERIAL_WRITE("%3li.", RMS_Power(ADC_PWD3_Power_CH) / 1000);
 2607              		.loc 1 196 9 view .LVU411
 2608 0dae 2B00     		movs	r3, r5
ARM GAS  C:\Users\matil\AppData\Local\Temp\cce1w2PW.s 			page 61


 2609 0db0 0D22     		movs	r2, #13
 2610 0db2 2100     		movs	r1, r4
 2611 0db4 3000     		movs	r0, r6
 2612 0db6 FFF7FEFF 		bl	HAL_UART_Transmit
 2613              	.LVL334:
 2614              	.LBE79:
 196:Src/cmd.c     ****         SERIAL_WRITE("%3li.", RMS_Power(ADC_PWD3_Power_CH) / 1000);
 2615              		.loc 1 196 40 view .LVU412
 2616              	.LBB80:
 197:Src/cmd.c     ****         SERIAL_WRITE("%03u dBm\t\t\n", abs(RMS_Power(ADC_PWD3_Power_CH)) % 1000);
 2617              		.loc 1 197 9 view .LVU413
 2618 0dba 5B46     		mov	r3, fp
 2619 0dbc 0193     		str	r3, [sp, #4]
 2620 0dbe 6022     		movs	r2, #96
 2621 0dc0 0021     		movs	r1, #0
 2622 0dc2 02A8     		add	r0, sp, #8
 2623 0dc4 FFF7FEFF 		bl	memset
 2624              	.LVL335:
 197:Src/cmd.c     ****         SERIAL_WRITE("%03u dBm\t\t\n", abs(RMS_Power(ADC_PWD3_Power_CH)) % 1000);
 2625              		.loc 1 197 9 view .LVU414
 2626 0dc8 0F20     		movs	r0, #15
 2627 0dca FFF7FEFF 		bl	RMS_Power
 2628              	.LVL336:
 2629 0dce FA22     		movs	r2, #250
 2630 0dd0 9200     		lsls	r2, r2, #2
 2631 0dd2 0023     		movs	r3, #0
 2632 0dd4 FFF7FEFF 		bl	__aeabi_ldivmod
 2633              	.LVL337:
 2634 0dd8 0200     		movs	r2, r0
 2635 0dda 0B00     		movs	r3, r1
 2636 0ddc 4946     		mov	r1, r9
 2637 0dde 2000     		movs	r0, r4
 2638 0de0 FFF7FEFF 		bl	sprintf
 2639              	.LVL338:
 197:Src/cmd.c     ****         SERIAL_WRITE("%03u dBm\t\t\n", abs(RMS_Power(ADC_PWD3_Power_CH)) % 1000);
 2640              		.loc 1 197 9 view .LVU415
 2641 0de4 82B2     		uxth	r2, r0
 2642 0de6 2B00     		movs	r3, r5
 2643 0de8 2100     		movs	r1, r4
 2644 0dea 3000     		movs	r0, r6
 2645              	.LVL339:
 197:Src/cmd.c     ****         SERIAL_WRITE("%03u dBm\t\t\n", abs(RMS_Power(ADC_PWD3_Power_CH)) % 1000);
 2646              		.loc 1 197 9 is_stmt 0 view .LVU416
 2647 0dec FFF7FEFF 		bl	HAL_UART_Transmit
 2648              	.LVL340:
 2649              	.LBE80:
 197:Src/cmd.c     ****         SERIAL_WRITE("%03u dBm\t\t\n", abs(RMS_Power(ADC_PWD3_Power_CH)) % 1000);
 2650              		.loc 1 197 67 is_stmt 1 view .LVU417
 2651              	.LBB81:
 198:Src/cmd.c     ****         if (!State.cmdLoop)
 2652              		.loc 1 198 9 view .LVU418
 2653 0df0 5B46     		mov	r3, fp
 2654 0df2 0193     		str	r3, [sp, #4]
 2655 0df4 6022     		movs	r2, #96
 2656 0df6 0021     		movs	r1, #0
 2657 0df8 02A8     		add	r0, sp, #8
 2658 0dfa FFF7FEFF 		bl	memset
ARM GAS  C:\Users\matil\AppData\Local\Temp\cce1w2PW.s 			page 62


 2659              	.LVL341:
 198:Src/cmd.c     ****         if (!State.cmdLoop)
 2660              		.loc 1 198 9 view .LVU419
 2661 0dfe 0F20     		movs	r0, #15
 2662 0e00 FFF7FEFF 		bl	RMS_Power
 2663              	.LVL342:
 2664 0e04 C317     		asrs	r3, r0, #31
 2665 0e06 C018     		adds	r0, r0, r3
 2666 0e08 5840     		eors	r0, r3
 2667 0e0a 2900     		movs	r1, r5
 2668 0e0c FFF7FEFF 		bl	__aeabi_idivmod
 2669              	.LVL343:
 2670 0e10 0A00     		movs	r2, r1
 2671 0e12 4146     		mov	r1, r8
 2672 0e14 2000     		movs	r0, r4
 2673 0e16 FFF7FEFF 		bl	sprintf
 2674              	.LVL344:
 198:Src/cmd.c     ****         if (!State.cmdLoop)
 2675              		.loc 1 198 9 view .LVU420
 2676 0e1a 2B00     		movs	r3, r5
 2677 0e1c 0A22     		movs	r2, #10
 2678 0e1e 2100     		movs	r1, r4
 2679 0e20 3000     		movs	r0, r6
 2680 0e22 13E0     		b	.L50
 2681              	.L51:
 2682              		.align	2
 2683              	.L49:
 2684 0e24 28020000 		.word	.LC64
 2685 0e28 3C020000 		.word	.LC66
 2686 0e2c 50020000 		.word	.LC68
 2687 0e30 64020000 		.word	.LC70
 2688 0e34 74020000 		.word	.LC72
 2689 0e38 80020000 		.word	.LC74
 2690 0e3c 00000000 		.word	huart2
 2691 0e40 00020000 		.word	.LC58
 2692 0e44 90020000 		.word	.LC76
 2693 0e48 A0020000 		.word	.LC78
 2694              	.L50:
 2695 0e4c FFF7FEFF 		bl	HAL_UART_Transmit
 2696              	.LVL345:
 2697              	.LBE81:
 198:Src/cmd.c     ****         if (!State.cmdLoop)
 2698              		.loc 1 198 81 view .LVU421
 199:Src/cmd.c     ****         {
 2699              		.loc 1 199 9 view .LVU422
 199:Src/cmd.c     ****         {
 2700              		.loc 1 199 19 is_stmt 0 view .LVU423
 2701 0e50 1F4B     		ldr	r3, .L52
 2702 0e52 DB7A     		ldrb	r3, [r3, #11]
 199:Src/cmd.c     ****         {
 2703              		.loc 1 199 12 view .LVU424
 2704 0e54 002B     		cmp	r3, #0
 2705 0e56 01D0     		beq	.LCB2343
 2706 0e58 FFF7EBFA 		bl	.L1	@far jump
 2707              	.LCB2343:
 201:Src/cmd.c     ****         }
 2708              		.loc 1 201 13 is_stmt 1 view .LVU425
ARM GAS  C:\Users\matil\AppData\Local\Temp\cce1w2PW.s 			page 63


 201:Src/cmd.c     ****         }
 2709              		.loc 1 201 23 is_stmt 0 view .LVU426
 2710 0e5c 1C4B     		ldr	r3, .L52
 2711 0e5e 0022     		movs	r2, #0
 2712 0e60 9A72     		strb	r2, [r3, #10]
 2713 0e62 FFF7E6FA 		bl	.L1	@ far jump
 2714              	.LVL346:
 2715              	.L4:
 208:Src/cmd.c     ****         State.cmdLoop = !State.cmdLoop;
 2716              		.loc 1 208 9 is_stmt 1 view .LVU427
 208:Src/cmd.c     ****         State.cmdLoop = !State.cmdLoop;
 2717              		.loc 1 208 19 is_stmt 0 view .LVU428
 2718 0e66 1A4A     		ldr	r2, .L52
 2719 0e68 0023     		movs	r3, #0
 2720 0e6a 9372     		strb	r3, [r2, #10]
 209:Src/cmd.c     ****         if (State.cmdLoop)
 2721              		.loc 1 209 9 is_stmt 1 view .LVU429
 209:Src/cmd.c     ****         if (State.cmdLoop)
 2722              		.loc 1 209 31 is_stmt 0 view .LVU430
 2723 0e6c D37A     		ldrb	r3, [r2, #11]
 209:Src/cmd.c     ****         if (State.cmdLoop)
 2724              		.loc 1 209 25 view .LVU431
 2725 0e6e 5942     		rsbs	r1, r3, #0
 2726 0e70 4B41     		adcs	r3, r3, r1
 2727 0e72 DBB2     		uxtb	r3, r3
 209:Src/cmd.c     ****         if (State.cmdLoop)
 2728              		.loc 1 209 23 view .LVU432
 2729 0e74 D372     		strb	r3, [r2, #11]
 210:Src/cmd.c     ****         {
 2730              		.loc 1 210 9 is_stmt 1 view .LVU433
 210:Src/cmd.c     ****         {
 2731              		.loc 1 210 12 is_stmt 0 view .LVU434
 2732 0e76 002B     		cmp	r3, #0
 2733 0e78 14D0     		beq	.L34
 2734              	.LBB82:
 212:Src/cmd.c     ****         }
 2735              		.loc 1 212 13 is_stmt 1 view .LVU435
 2736 0e7a 01AC     		add	r4, sp, #4
 2737 0e7c 6022     		movs	r2, #96
 2738 0e7e 0021     		movs	r1, #0
 2739 0e80 02A8     		add	r0, sp, #8
 2740 0e82 FFF7FEFF 		bl	memset
 2741              	.LVL347:
 212:Src/cmd.c     ****         }
 2742              		.loc 1 212 13 view .LVU436
 2743 0e86 134B     		ldr	r3, .L52+4
 2744 0e88 2200     		movs	r2, r4
 2745 0e8a 03CB     		ldmia	r3!, {r0, r1}
 2746 0e8c 03C2     		stmia	r2!, {r0, r1}
 2747 0e8e 1B78     		ldrb	r3, [r3]
 2748 0e90 1370     		strb	r3, [r2]
 2749              	.LVL348:
 212:Src/cmd.c     ****         }
 2750              		.loc 1 212 13 view .LVU437
 2751 0e92 FA23     		movs	r3, #250
 2752 0e94 9B00     		lsls	r3, r3, #2
 2753 0e96 0822     		movs	r2, #8
ARM GAS  C:\Users\matil\AppData\Local\Temp\cce1w2PW.s 			page 64


 2754 0e98 2100     		movs	r1, r4
 2755 0e9a 0F48     		ldr	r0, .L52+8
 2756 0e9c FFF7FEFF 		bl	HAL_UART_Transmit
 2757              	.LVL349:
 2758              	.LBE82:
 2759 0ea0 FFF7C7FA 		bl	.L1	@ far jump
 2760              	.LVL350:
 2761              	.L34:
 2762              	.LBB83:
 216:Src/cmd.c     ****         }
 2763              		.loc 1 216 13 discriminator 2 view .LVU438
 2764 0ea4 01AC     		add	r4, sp, #4
 2765 0ea6 6022     		movs	r2, #96
 2766 0ea8 0021     		movs	r1, #0
 2767 0eaa 02A8     		add	r0, sp, #8
 2768 0eac FFF7FEFF 		bl	memset
 2769              	.LVL351:
 216:Src/cmd.c     ****         }
 2770              		.loc 1 216 13 discriminator 2 view .LVU439
 2771 0eb0 0A4B     		ldr	r3, .L52+12
 2772 0eb2 2200     		movs	r2, r4
 2773 0eb4 03CB     		ldmia	r3!, {r0, r1}
 2774 0eb6 03C2     		stmia	r2!, {r0, r1}
 2775 0eb8 1B88     		ldrh	r3, [r3]
 2776 0eba 1380     		strh	r3, [r2]
 2777              	.LVL352:
 216:Src/cmd.c     ****         }
 2778              		.loc 1 216 13 discriminator 2 view .LVU440
 2779 0ebc FA23     		movs	r3, #250
 2780 0ebe 9B00     		lsls	r3, r3, #2
 2781 0ec0 0922     		movs	r2, #9
 2782 0ec2 2100     		movs	r1, r4
 2783 0ec4 0448     		ldr	r0, .L52+8
 2784 0ec6 FFF7FEFF 		bl	HAL_UART_Transmit
 2785              	.LVL353:
 2786 0eca FFF7B2FA 		bl	.L1	@ far jump
 2787              	.L53:
 2788 0ece C046     		.align	2
 2789              	.L52:
 2790 0ed0 00000000 		.word	State
 2791 0ed4 B0020000 		.word	.LC80
 2792 0ed8 00000000 		.word	huart2
 2793 0edc BC020000 		.word	.LC82
 2794              	.LVL354:
 2795              	.L6:
 216:Src/cmd.c     ****         }
 2796              		.loc 1 216 13 is_stmt 0 discriminator 2 view .LVU441
 2797              	.LBE83:
 222:Src/cmd.c     ****         {
 2798              		.loc 1 222 9 is_stmt 1 view .LVU442
 222:Src/cmd.c     ****         {
 2799              		.loc 1 222 19 is_stmt 0 view .LVU443
 2800 0ee0 DF4B     		ldr	r3, .L54
 2801 0ee2 DB7A     		ldrb	r3, [r3, #11]
 222:Src/cmd.c     ****         {
 2802              		.loc 1 222 12 view .LVU444
 2803 0ee4 002B     		cmp	r3, #0
ARM GAS  C:\Users\matil\AppData\Local\Temp\cce1w2PW.s 			page 65


 2804 0ee6 02D1     		bne	.L35
 224:Src/cmd.c     ****         }
 2805              		.loc 1 224 13 is_stmt 1 view .LVU445
 224:Src/cmd.c     ****         }
 2806              		.loc 1 224 23 is_stmt 0 view .LVU446
 2807 0ee8 DD4B     		ldr	r3, .L54
 2808 0eea 0022     		movs	r2, #0
 2809 0eec 9A72     		strb	r2, [r3, #10]
 2810              	.L35:
 2811              	.LBB84:
 226:Src/cmd.c     ****         SERIAL_WRITE("PD1+PD2 SETPOINT: %li\n", State.PD1_PD2_SetPoint * 1000);
 2812              		.loc 1 226 9 is_stmt 1 view .LVU447
 2813 0eee 01AC     		add	r4, sp, #4
 2814 0ef0 0027     		movs	r7, #0
 2815 0ef2 0197     		str	r7, [sp, #4]
 2816 0ef4 6022     		movs	r2, #96
 2817 0ef6 0021     		movs	r1, #0
 2818 0ef8 02A8     		add	r0, sp, #8
 2819 0efa FFF7FEFF 		bl	memset
 2820              	.LVL355:
 226:Src/cmd.c     ****         SERIAL_WRITE("PD1+PD2 SETPOINT: %li\n", State.PD1_PD2_SetPoint * 1000);
 2821              		.loc 1 226 9 view .LVU448
 2822 0efe 0A23     		movs	r3, #10
 2823 0f00 2380     		strh	r3, [r4]
 2824              	.LVL356:
 226:Src/cmd.c     ****         SERIAL_WRITE("PD1+PD2 SETPOINT: %li\n", State.PD1_PD2_SetPoint * 1000);
 2825              		.loc 1 226 9 view .LVU449
 2826 0f02 FA26     		movs	r6, #250
 2827 0f04 B600     		lsls	r6, r6, #2
 2828 0f06 D74D     		ldr	r5, .L54+4
 2829 0f08 3300     		movs	r3, r6
 2830 0f0a 0122     		movs	r2, #1
 2831 0f0c 2100     		movs	r1, r4
 2832 0f0e 2800     		movs	r0, r5
 2833 0f10 FFF7FEFF 		bl	HAL_UART_Transmit
 2834              	.LVL357:
 2835              	.LBE84:
 2836              	.LBB85:
 227:Src/cmd.c     ****         SERIAL_WRITE("PID 704 Output: %li\n", State.PID_704_Output);
 2837              		.loc 1 227 9 view .LVU450
 2838 0f14 0197     		str	r7, [sp, #4]
 2839 0f16 6022     		movs	r2, #96
 2840 0f18 0021     		movs	r1, #0
 2841 0f1a 02A8     		add	r0, sp, #8
 2842 0f1c FFF7FEFF 		bl	memset
 2843              	.LVL358:
 227:Src/cmd.c     ****         SERIAL_WRITE("PID 704 Output: %li\n", State.PID_704_Output);
 2844              		.loc 1 227 9 view .LVU451
 2845 0f20 CF4A     		ldr	r2, .L54
 2846 0f22 9046     		mov	r8, r2
 2847 0f24 9B22     		movs	r2, #155
 2848 0f26 D200     		lsls	r2, r2, #3
 2849 0f28 4244     		add	r2, r2, r8
 2850 0f2a 1068     		ldr	r0, [r2]
 2851 0f2c 5168     		ldr	r1, [r2, #4]
 2852 0f2e FA22     		movs	r2, #250
 2853 0f30 9200     		lsls	r2, r2, #2
ARM GAS  C:\Users\matil\AppData\Local\Temp\cce1w2PW.s 			page 66


 2854 0f32 0023     		movs	r3, #0
 2855 0f34 FFF7FEFF 		bl	__aeabi_lmul
 2856              	.LVL359:
 2857 0f38 0200     		movs	r2, r0
 2858 0f3a 0B00     		movs	r3, r1
 2859 0f3c CA49     		ldr	r1, .L54+8
 2860 0f3e 2000     		movs	r0, r4
 2861 0f40 FFF7FEFF 		bl	sprintf
 2862              	.LVL360:
 227:Src/cmd.c     ****         SERIAL_WRITE("PID 704 Output: %li\n", State.PID_704_Output);
 2863              		.loc 1 227 9 view .LVU452
 2864 0f44 82B2     		uxth	r2, r0
 2865 0f46 3300     		movs	r3, r6
 2866 0f48 2100     		movs	r1, r4
 2867 0f4a 2800     		movs	r0, r5
 2868              	.LVL361:
 227:Src/cmd.c     ****         SERIAL_WRITE("PID 704 Output: %li\n", State.PID_704_Output);
 2869              		.loc 1 227 9 is_stmt 0 view .LVU453
 2870 0f4c FFF7FEFF 		bl	HAL_UART_Transmit
 2871              	.LVL362:
 2872              	.LBE85:
 227:Src/cmd.c     ****         SERIAL_WRITE("PID 704 Output: %li\n", State.PID_704_Output);
 2873              		.loc 1 227 79 is_stmt 1 view .LVU454
 2874              	.LBB86:
 228:Src/cmd.c     ****         SERIAL_WRITE("PID_704_P_error %i\n", State.PID_704_P_error);
 2875              		.loc 1 228 9 view .LVU455
 2876 0f50 0197     		str	r7, [sp, #4]
 2877 0f52 6022     		movs	r2, #96
 2878 0f54 0021     		movs	r1, #0
 2879 0f56 02A8     		add	r0, sp, #8
 2880 0f58 FFF7FEFF 		bl	memset
 2881              	.LVL363:
 228:Src/cmd.c     ****         SERIAL_WRITE("PID_704_P_error %i\n", State.PID_704_P_error);
 2882              		.loc 1 228 9 view .LVU456
 2883 0f5c C34B     		ldr	r3, .L54+12
 2884 0f5e 4246     		mov	r2, r8
 2885 0f60 D258     		ldr	r2, [r2, r3]
 2886 0f62 C349     		ldr	r1, .L54+16
 2887 0f64 2000     		movs	r0, r4
 2888 0f66 FFF7FEFF 		bl	sprintf
 2889              	.LVL364:
 228:Src/cmd.c     ****         SERIAL_WRITE("PID_704_P_error %i\n", State.PID_704_P_error);
 2890              		.loc 1 228 9 view .LVU457
 2891 0f6a 82B2     		uxth	r2, r0
 2892 0f6c 3300     		movs	r3, r6
 2893 0f6e 2100     		movs	r1, r4
 2894 0f70 2800     		movs	r0, r5
 2895              	.LVL365:
 228:Src/cmd.c     ****         SERIAL_WRITE("PID_704_P_error %i\n", State.PID_704_P_error);
 2896              		.loc 1 228 9 is_stmt 0 view .LVU458
 2897 0f72 FFF7FEFF 		bl	HAL_UART_Transmit
 2898              	.LVL366:
 2899              	.LBE86:
 228:Src/cmd.c     ****         SERIAL_WRITE("PID_704_P_error %i\n", State.PID_704_P_error);
 2900              		.loc 1 228 68 is_stmt 1 view .LVU459
 2901              	.LBB87:
 229:Src/cmd.c     **** 
ARM GAS  C:\Users\matil\AppData\Local\Temp\cce1w2PW.s 			page 67


 2902              		.loc 1 229 9 view .LVU460
 2903 0f76 0197     		str	r7, [sp, #4]
 2904 0f78 6022     		movs	r2, #96
 2905 0f7a 0021     		movs	r1, #0
 2906 0f7c 02A8     		add	r0, sp, #8
 2907 0f7e FFF7FEFF 		bl	memset
 2908              	.LVL367:
 229:Src/cmd.c     **** 
 2909              		.loc 1 229 9 view .LVU461
 2910 0f82 AB22     		movs	r2, #171
 2911 0f84 D200     		lsls	r2, r2, #3
 2912 0f86 4244     		add	r2, r2, r8
 2913 0f88 5368     		ldr	r3, [r2, #4]
 2914 0f8a 1268     		ldr	r2, [r2]
 2915 0f8c B949     		ldr	r1, .L54+20
 2916 0f8e 2000     		movs	r0, r4
 2917 0f90 FFF7FEFF 		bl	sprintf
 2918              	.LVL368:
 229:Src/cmd.c     **** 
 2919              		.loc 1 229 9 view .LVU462
 2920 0f94 82B2     		uxth	r2, r0
 2921 0f96 3300     		movs	r3, r6
 2922 0f98 2100     		movs	r1, r4
 2923 0f9a 2800     		movs	r0, r5
 2924              	.LVL369:
 229:Src/cmd.c     **** 
 2925              		.loc 1 229 9 is_stmt 0 view .LVU463
 2926 0f9c FFF7FEFF 		bl	HAL_UART_Transmit
 2927              	.LVL370:
 2928              	.LBE87:
 229:Src/cmd.c     **** 
 2929              		.loc 1 229 68 is_stmt 1 view .LVU464
 2930              	.LBB88:
 231:Src/cmd.c     ****         SERIAL_WRITE("%3i.", Phase_u(ADC_PD1_Phase_CH) / 1000000);
 2931              		.loc 1 231 9 view .LVU465
 2932 0fa0 6022     		movs	r2, #96
 2933 0fa2 0021     		movs	r1, #0
 2934 0fa4 02A8     		add	r0, sp, #8
 2935 0fa6 FFF7FEFF 		bl	memset
 2936              	.LVL371:
 231:Src/cmd.c     ****         SERIAL_WRITE("%3i.", Phase_u(ADC_PD1_Phase_CH) / 1000000);
 2937              		.loc 1 231 9 view .LVU466
 2938 0faa B34B     		ldr	r3, .L54+24
 2939 0fac 2200     		movs	r2, r4
 2940 0fae 83CB     		ldmia	r3!, {r0, r1, r7}
 2941 0fb0 83C2     		stmia	r2!, {r0, r1, r7}
 2942 0fb2 1B78     		ldrb	r3, [r3]
 2943 0fb4 1370     		strb	r3, [r2]
 2944              	.LVL372:
 231:Src/cmd.c     ****         SERIAL_WRITE("%3i.", Phase_u(ADC_PD1_Phase_CH) / 1000000);
 2945              		.loc 1 231 9 view .LVU467
 2946 0fb6 3300     		movs	r3, r6
 2947 0fb8 0C22     		movs	r2, #12
 2948 0fba 2100     		movs	r1, r4
 2949 0fbc 2800     		movs	r0, r5
 2950 0fbe FFF7FEFF 		bl	HAL_UART_Transmit
 2951              	.LVL373:
ARM GAS  C:\Users\matil\AppData\Local\Temp\cce1w2PW.s 			page 68


 2952              	.LBE88:
 231:Src/cmd.c     ****         SERIAL_WRITE("%3i.", Phase_u(ADC_PD1_Phase_CH) / 1000000);
 2953              		.loc 1 231 39 view .LVU468
 2954              	.LBB89:
 232:Src/cmd.c     ****         SERIAL_WRITE("%06li deg\t\t\n", Phase_u(ADC_PD1_Phase_CH) % 1000000);
 2955              		.loc 1 232 9 view .LVU469
 2956 0fc2 0027     		movs	r7, #0
 2957 0fc4 0197     		str	r7, [sp, #4]
 2958 0fc6 6022     		movs	r2, #96
 2959 0fc8 0021     		movs	r1, #0
 2960 0fca 02A8     		add	r0, sp, #8
 2961 0fcc FFF7FEFF 		bl	memset
 2962              	.LVL374:
 232:Src/cmd.c     ****         SERIAL_WRITE("%06li deg\t\t\n", Phase_u(ADC_PD1_Phase_CH) % 1000000);
 2963              		.loc 1 232 9 view .LVU470
 2964 0fd0 0620     		movs	r0, #6
 2965 0fd2 FFF7FEFF 		bl	Phase_u
 2966              	.LVL375:
 2967 0fd6 A94A     		ldr	r2, .L54+28
 2968 0fd8 0023     		movs	r3, #0
 2969 0fda FFF7FEFF 		bl	__aeabi_uldivmod
 2970              	.LVL376:
 2971 0fde 0200     		movs	r2, r0
 2972 0fe0 0B00     		movs	r3, r1
 2973 0fe2 A749     		ldr	r1, .L54+32
 2974 0fe4 8946     		mov	r9, r1
 2975 0fe6 2000     		movs	r0, r4
 2976 0fe8 FFF7FEFF 		bl	sprintf
 2977              	.LVL377:
 232:Src/cmd.c     ****         SERIAL_WRITE("%06li deg\t\t\n", Phase_u(ADC_PD1_Phase_CH) % 1000000);
 2978              		.loc 1 232 9 view .LVU471
 2979 0fec 82B2     		uxth	r2, r0
 2980 0fee 3300     		movs	r3, r6
 2981 0ff0 2100     		movs	r1, r4
 2982 0ff2 2800     		movs	r0, r5
 2983              	.LVL378:
 232:Src/cmd.c     ****         SERIAL_WRITE("%06li deg\t\t\n", Phase_u(ADC_PD1_Phase_CH) % 1000000);
 2984              		.loc 1 232 9 is_stmt 0 view .LVU472
 2985 0ff4 FFF7FEFF 		bl	HAL_UART_Transmit
 2986              	.LVL379:
 2987              	.LBE89:
 232:Src/cmd.c     ****         SERIAL_WRITE("%06li deg\t\t\n", Phase_u(ADC_PD1_Phase_CH) % 1000000);
 2988              		.loc 1 232 66 is_stmt 1 view .LVU473
 2989              	.LBB90:
 233:Src/cmd.c     **** 
 2990              		.loc 1 233 9 view .LVU474
 2991 0ff8 0197     		str	r7, [sp, #4]
 2992 0ffa 6022     		movs	r2, #96
 2993 0ffc 0021     		movs	r1, #0
 2994 0ffe 02A8     		add	r0, sp, #8
 2995 1000 FFF7FEFF 		bl	memset
 2996              	.LVL380:
 233:Src/cmd.c     **** 
 2997              		.loc 1 233 9 view .LVU475
 2998 1004 0620     		movs	r0, #6
 2999 1006 FFF7FEFF 		bl	Phase_u
 3000              	.LVL381:
ARM GAS  C:\Users\matil\AppData\Local\Temp\cce1w2PW.s 			page 69


 3001 100a 9C4A     		ldr	r2, .L54+28
 3002 100c 0023     		movs	r3, #0
 3003 100e FFF7FEFF 		bl	__aeabi_uldivmod
 3004              	.LVL382:
 3005 1012 9C49     		ldr	r1, .L54+36
 3006 1014 8B46     		mov	fp, r1
 3007 1016 2000     		movs	r0, r4
 3008 1018 FFF7FEFF 		bl	sprintf
 3009              	.LVL383:
 233:Src/cmd.c     **** 
 3010              		.loc 1 233 9 view .LVU476
 3011 101c 3300     		movs	r3, r6
 3012 101e 0D22     		movs	r2, #13
 3013 1020 2100     		movs	r1, r4
 3014 1022 2800     		movs	r0, r5
 3015 1024 FFF7FEFF 		bl	HAL_UART_Transmit
 3016              	.LVL384:
 3017              	.LBE90:
 233:Src/cmd.c     **** 
 3018              		.loc 1 233 77 view .LVU477
 3019              	.LBB91:
 235:Src/cmd.c     ****         SERIAL_WRITE("%3i.", Phase_u(ADC_PD2_Phase_CH) / 1000000);
 3020              		.loc 1 235 9 view .LVU478
 3021 1028 6022     		movs	r2, #96
 3022 102a 0021     		movs	r1, #0
 3023 102c 02A8     		add	r0, sp, #8
 3024 102e FFF7FEFF 		bl	memset
 3025              	.LVL385:
 235:Src/cmd.c     ****         SERIAL_WRITE("%3i.", Phase_u(ADC_PD2_Phase_CH) / 1000000);
 3026              		.loc 1 235 9 view .LVU479
 3027 1032 954B     		ldr	r3, .L54+40
 3028 1034 2200     		movs	r2, r4
 3029 1036 83CB     		ldmia	r3!, {r0, r1, r7}
 3030 1038 83C2     		stmia	r2!, {r0, r1, r7}
 3031 103a 1B78     		ldrb	r3, [r3]
 3032 103c 1370     		strb	r3, [r2]
 3033              	.LVL386:
 235:Src/cmd.c     ****         SERIAL_WRITE("%3i.", Phase_u(ADC_PD2_Phase_CH) / 1000000);
 3034              		.loc 1 235 9 view .LVU480
 3035 103e 3300     		movs	r3, r6
 3036 1040 0C22     		movs	r2, #12
 3037 1042 2100     		movs	r1, r4
 3038 1044 2800     		movs	r0, r5
 3039 1046 FFF7FEFF 		bl	HAL_UART_Transmit
 3040              	.LVL387:
 3041              	.LBE91:
 235:Src/cmd.c     ****         SERIAL_WRITE("%3i.", Phase_u(ADC_PD2_Phase_CH) / 1000000);
 3042              		.loc 1 235 39 view .LVU481
 3043              	.LBB92:
 236:Src/cmd.c     ****         SERIAL_WRITE("%03li deg\t\t\n\n", Phase_u(ADC_PD2_Phase_CH) % 1000000);
 3044              		.loc 1 236 9 view .LVU482
 3045 104a 0027     		movs	r7, #0
 3046 104c 0197     		str	r7, [sp, #4]
 3047 104e 6022     		movs	r2, #96
 3048 1050 0021     		movs	r1, #0
 3049 1052 02A8     		add	r0, sp, #8
 3050 1054 FFF7FEFF 		bl	memset
ARM GAS  C:\Users\matil\AppData\Local\Temp\cce1w2PW.s 			page 70


 3051              	.LVL388:
 236:Src/cmd.c     ****         SERIAL_WRITE("%03li deg\t\t\n\n", Phase_u(ADC_PD2_Phase_CH) % 1000000);
 3052              		.loc 1 236 9 view .LVU483
 3053 1058 0020     		movs	r0, #0
 3054 105a FFF7FEFF 		bl	Phase_u
 3055              	.LVL389:
 3056 105e 874A     		ldr	r2, .L54+28
 3057 1060 0023     		movs	r3, #0
 3058 1062 FFF7FEFF 		bl	__aeabi_uldivmod
 3059              	.LVL390:
 3060 1066 0200     		movs	r2, r0
 3061 1068 0B00     		movs	r3, r1
 3062 106a 4946     		mov	r1, r9
 3063 106c 2000     		movs	r0, r4
 3064 106e FFF7FEFF 		bl	sprintf
 3065              	.LVL391:
 236:Src/cmd.c     ****         SERIAL_WRITE("%03li deg\t\t\n\n", Phase_u(ADC_PD2_Phase_CH) % 1000000);
 3066              		.loc 1 236 9 view .LVU484
 3067 1072 82B2     		uxth	r2, r0
 3068 1074 3300     		movs	r3, r6
 3069 1076 2100     		movs	r1, r4
 3070 1078 2800     		movs	r0, r5
 3071              	.LVL392:
 236:Src/cmd.c     ****         SERIAL_WRITE("%03li deg\t\t\n\n", Phase_u(ADC_PD2_Phase_CH) % 1000000);
 3072              		.loc 1 236 9 is_stmt 0 view .LVU485
 3073 107a FFF7FEFF 		bl	HAL_UART_Transmit
 3074              	.LVL393:
 3075              	.LBE92:
 236:Src/cmd.c     ****         SERIAL_WRITE("%03li deg\t\t\n\n", Phase_u(ADC_PD2_Phase_CH) % 1000000);
 3076              		.loc 1 236 66 is_stmt 1 view .LVU486
 3077              	.LBB93:
 237:Src/cmd.c     **** 
 3078              		.loc 1 237 9 view .LVU487
 3079 107e 0197     		str	r7, [sp, #4]
 3080 1080 6022     		movs	r2, #96
 3081 1082 0021     		movs	r1, #0
 3082 1084 02A8     		add	r0, sp, #8
 3083 1086 FFF7FEFF 		bl	memset
 3084              	.LVL394:
 237:Src/cmd.c     **** 
 3085              		.loc 1 237 9 view .LVU488
 3086 108a 0020     		movs	r0, #0
 3087 108c FFF7FEFF 		bl	Phase_u
 3088              	.LVL395:
 3089 1090 7A4A     		ldr	r2, .L54+28
 3090 1092 0023     		movs	r3, #0
 3091 1094 FFF7FEFF 		bl	__aeabi_uldivmod
 3092              	.LVL396:
 3093 1098 7C49     		ldr	r1, .L54+44
 3094 109a 2000     		movs	r0, r4
 3095 109c FFF7FEFF 		bl	sprintf
 3096              	.LVL397:
 237:Src/cmd.c     **** 
 3097              		.loc 1 237 9 view .LVU489
 3098 10a0 82B2     		uxth	r2, r0
 3099 10a2 3300     		movs	r3, r6
 3100 10a4 2100     		movs	r1, r4
ARM GAS  C:\Users\matil\AppData\Local\Temp\cce1w2PW.s 			page 71


 3101 10a6 2800     		movs	r0, r5
 3102              	.LVL398:
 237:Src/cmd.c     **** 
 3103              		.loc 1 237 9 is_stmt 0 view .LVU490
 3104 10a8 FFF7FEFF 		bl	HAL_UART_Transmit
 3105              	.LVL399:
 3106              	.LBE93:
 237:Src/cmd.c     **** 
 3107              		.loc 1 237 79 is_stmt 1 view .LVU491
 3108              	.LBB94:
 239:Src/cmd.c     ****         SERIAL_WRITE("PID 352 Output: %li\n", State.PID_352_Output);
 3109              		.loc 1 239 9 view .LVU492
 3110 10ac 0197     		str	r7, [sp, #4]
 3111 10ae 6022     		movs	r2, #96
 3112 10b0 0021     		movs	r1, #0
 3113 10b2 02A8     		add	r0, sp, #8
 3114 10b4 FFF7FEFF 		bl	memset
 3115              	.LVL400:
 239:Src/cmd.c     ****         SERIAL_WRITE("PID 352 Output: %li\n", State.PID_352_Output);
 3116              		.loc 1 239 9 view .LVU493
 3117 10b8 9E22     		movs	r2, #158
 3118 10ba D200     		lsls	r2, r2, #3
 3119 10bc 4244     		add	r2, r2, r8
 3120 10be 1068     		ldr	r0, [r2]
 3121 10c0 5168     		ldr	r1, [r2, #4]
 3122 10c2 FA22     		movs	r2, #250
 3123 10c4 9200     		lsls	r2, r2, #2
 3124 10c6 0023     		movs	r3, #0
 3125 10c8 FFF7FEFF 		bl	__aeabi_lmul
 3126              	.LVL401:
 3127 10cc 0200     		movs	r2, r0
 3128 10ce 0B00     		movs	r3, r1
 3129 10d0 6F49     		ldr	r1, .L54+48
 3130 10d2 2000     		movs	r0, r4
 3131 10d4 FFF7FEFF 		bl	sprintf
 3132              	.LVL402:
 239:Src/cmd.c     ****         SERIAL_WRITE("PID 352 Output: %li\n", State.PID_352_Output);
 3133              		.loc 1 239 9 view .LVU494
 3134 10d8 82B2     		uxth	r2, r0
 3135 10da 3300     		movs	r3, r6
 3136 10dc 2100     		movs	r1, r4
 3137 10de 2800     		movs	r0, r5
 3138              	.LVL403:
 239:Src/cmd.c     ****         SERIAL_WRITE("PID 352 Output: %li\n", State.PID_352_Output);
 3139              		.loc 1 239 9 is_stmt 0 view .LVU495
 3140 10e0 FFF7FEFF 		bl	HAL_UART_Transmit
 3141              	.LVL404:
 3142              	.LBE94:
 239:Src/cmd.c     ****         SERIAL_WRITE("PID 352 Output: %li\n", State.PID_352_Output);
 3143              		.loc 1 239 79 is_stmt 1 view .LVU496
 3144              	.LBB95:
 240:Src/cmd.c     ****         SERIAL_WRITE("PID_352_P_error %i\n", State.PID_352_P_error);
 3145              		.loc 1 240 9 view .LVU497
 3146 10e4 0197     		str	r7, [sp, #4]
 3147 10e6 6022     		movs	r2, #96
 3148 10e8 0021     		movs	r1, #0
 3149 10ea 02A8     		add	r0, sp, #8
ARM GAS  C:\Users\matil\AppData\Local\Temp\cce1w2PW.s 			page 72


 3150 10ec FFF7FEFF 		bl	memset
 3151              	.LVL405:
 240:Src/cmd.c     ****         SERIAL_WRITE("PID_352_P_error %i\n", State.PID_352_P_error);
 3152              		.loc 1 240 9 view .LVU498
 3153 10f0 A123     		movs	r3, #161
 3154 10f2 DB00     		lsls	r3, r3, #3
 3155 10f4 4246     		mov	r2, r8
 3156 10f6 D258     		ldr	r2, [r2, r3]
 3157 10f8 6649     		ldr	r1, .L54+52
 3158 10fa 2000     		movs	r0, r4
 3159 10fc FFF7FEFF 		bl	sprintf
 3160              	.LVL406:
 240:Src/cmd.c     ****         SERIAL_WRITE("PID_352_P_error %i\n", State.PID_352_P_error);
 3161              		.loc 1 240 9 view .LVU499
 3162 1100 82B2     		uxth	r2, r0
 3163 1102 3300     		movs	r3, r6
 3164 1104 2100     		movs	r1, r4
 3165 1106 2800     		movs	r0, r5
 3166              	.LVL407:
 240:Src/cmd.c     ****         SERIAL_WRITE("PID_352_P_error %i\n", State.PID_352_P_error);
 3167              		.loc 1 240 9 is_stmt 0 view .LVU500
 3168 1108 FFF7FEFF 		bl	HAL_UART_Transmit
 3169              	.LVL408:
 3170              	.LBE95:
 240:Src/cmd.c     ****         SERIAL_WRITE("PID_352_P_error %i\n", State.PID_352_P_error);
 3171              		.loc 1 240 68 is_stmt 1 view .LVU501
 3172              	.LBB96:
 241:Src/cmd.c     **** 
 3173              		.loc 1 241 9 view .LVU502
 3174 110c 0197     		str	r7, [sp, #4]
 3175 110e 6022     		movs	r2, #96
 3176 1110 0021     		movs	r1, #0
 3177 1112 02A8     		add	r0, sp, #8
 3178 1114 FFF7FEFF 		bl	memset
 3179              	.LVL409:
 241:Src/cmd.c     **** 
 3180              		.loc 1 241 9 view .LVU503
 3181 1118 A522     		movs	r2, #165
 3182 111a D200     		lsls	r2, r2, #3
 3183 111c 4244     		add	r2, r2, r8
 3184 111e 5368     		ldr	r3, [r2, #4]
 3185 1120 1268     		ldr	r2, [r2]
 3186 1122 5D49     		ldr	r1, .L54+56
 3187 1124 2000     		movs	r0, r4
 3188 1126 FFF7FEFF 		bl	sprintf
 3189              	.LVL410:
 241:Src/cmd.c     **** 
 3190              		.loc 1 241 9 view .LVU504
 3191 112a 82B2     		uxth	r2, r0
 3192 112c 3300     		movs	r3, r6
 3193 112e 2100     		movs	r1, r4
 3194 1130 2800     		movs	r0, r5
 3195              	.LVL411:
 241:Src/cmd.c     **** 
 3196              		.loc 1 241 9 is_stmt 0 view .LVU505
 3197 1132 FFF7FEFF 		bl	HAL_UART_Transmit
 3198              	.LVL412:
ARM GAS  C:\Users\matil\AppData\Local\Temp\cce1w2PW.s 			page 73


 3199              	.LBE96:
 241:Src/cmd.c     **** 
 3200              		.loc 1 241 68 is_stmt 1 view .LVU506
 3201              	.LBB97:
 243:Src/cmd.c     ****         SERIAL_WRITE("%3i.", Phase_u(ADC_PD3_Phase_CH) / 1000000);
 3202              		.loc 1 243 9 view .LVU507
 3203 1136 6022     		movs	r2, #96
 3204 1138 0021     		movs	r1, #0
 3205 113a 02A8     		add	r0, sp, #8
 3206 113c FFF7FEFF 		bl	memset
 3207              	.LVL413:
 243:Src/cmd.c     ****         SERIAL_WRITE("%3i.", Phase_u(ADC_PD3_Phase_CH) / 1000000);
 3208              		.loc 1 243 9 view .LVU508
 3209 1140 564B     		ldr	r3, .L54+60
 3210 1142 2200     		movs	r2, r4
 3211 1144 83CB     		ldmia	r3!, {r0, r1, r7}
 3212 1146 83C2     		stmia	r2!, {r0, r1, r7}
 3213 1148 1B78     		ldrb	r3, [r3]
 3214 114a 1370     		strb	r3, [r2]
 3215              	.LVL414:
 243:Src/cmd.c     ****         SERIAL_WRITE("%3i.", Phase_u(ADC_PD3_Phase_CH) / 1000000);
 3216              		.loc 1 243 9 view .LVU509
 3217 114c 3300     		movs	r3, r6
 3218 114e 0C22     		movs	r2, #12
 3219 1150 2100     		movs	r1, r4
 3220 1152 2800     		movs	r0, r5
 3221 1154 FFF7FEFF 		bl	HAL_UART_Transmit
 3222              	.LVL415:
 3223              	.LBE97:
 243:Src/cmd.c     ****         SERIAL_WRITE("%3i.", Phase_u(ADC_PD3_Phase_CH) / 1000000);
 3224              		.loc 1 243 39 view .LVU510
 3225              	.LBB98:
 244:Src/cmd.c     ****         SERIAL_WRITE("%06li deg\t\t\n", Phase_u(ADC_PD3_Phase_CH) % 1000000);
 3226              		.loc 1 244 9 view .LVU511
 3227 1158 0027     		movs	r7, #0
 3228 115a 0197     		str	r7, [sp, #4]
 3229 115c 6022     		movs	r2, #96
 3230 115e 0021     		movs	r1, #0
 3231 1160 02A8     		add	r0, sp, #8
 3232 1162 FFF7FEFF 		bl	memset
 3233              	.LVL416:
 244:Src/cmd.c     ****         SERIAL_WRITE("%06li deg\t\t\n", Phase_u(ADC_PD3_Phase_CH) % 1000000);
 3234              		.loc 1 244 9 view .LVU512
 3235 1166 0E20     		movs	r0, #14
 3236 1168 FFF7FEFF 		bl	Phase_u
 3237              	.LVL417:
 3238 116c 434A     		ldr	r2, .L54+28
 3239 116e 0023     		movs	r3, #0
 3240 1170 FFF7FEFF 		bl	__aeabi_uldivmod
 3241              	.LVL418:
 3242 1174 0200     		movs	r2, r0
 3243 1176 0B00     		movs	r3, r1
 3244 1178 4946     		mov	r1, r9
 3245 117a 2000     		movs	r0, r4
 3246 117c FFF7FEFF 		bl	sprintf
 3247              	.LVL419:
 244:Src/cmd.c     ****         SERIAL_WRITE("%06li deg\t\t\n", Phase_u(ADC_PD3_Phase_CH) % 1000000);
ARM GAS  C:\Users\matil\AppData\Local\Temp\cce1w2PW.s 			page 74


 3248              		.loc 1 244 9 view .LVU513
 3249 1180 82B2     		uxth	r2, r0
 3250 1182 3300     		movs	r3, r6
 3251 1184 2100     		movs	r1, r4
 3252 1186 2800     		movs	r0, r5
 3253              	.LVL420:
 244:Src/cmd.c     ****         SERIAL_WRITE("%06li deg\t\t\n", Phase_u(ADC_PD3_Phase_CH) % 1000000);
 3254              		.loc 1 244 9 is_stmt 0 view .LVU514
 3255 1188 FFF7FEFF 		bl	HAL_UART_Transmit
 3256              	.LVL421:
 3257              	.LBE98:
 244:Src/cmd.c     ****         SERIAL_WRITE("%06li deg\t\t\n", Phase_u(ADC_PD3_Phase_CH) % 1000000);
 3258              		.loc 1 244 66 is_stmt 1 view .LVU515
 3259              	.LBB99:
 245:Src/cmd.c     **** 
 3260              		.loc 1 245 9 view .LVU516
 3261 118c 0197     		str	r7, [sp, #4]
 3262 118e 6022     		movs	r2, #96
 3263 1190 0021     		movs	r1, #0
 3264 1192 02A8     		add	r0, sp, #8
 3265 1194 FFF7FEFF 		bl	memset
 3266              	.LVL422:
 245:Src/cmd.c     **** 
 3267              		.loc 1 245 9 view .LVU517
 3268 1198 0E20     		movs	r0, #14
 3269 119a FFF7FEFF 		bl	Phase_u
 3270              	.LVL423:
 3271 119e 374A     		ldr	r2, .L54+28
 3272 11a0 0023     		movs	r3, #0
 3273 11a2 FFF7FEFF 		bl	__aeabi_uldivmod
 3274              	.LVL424:
 3275 11a6 5946     		mov	r1, fp
 3276 11a8 2000     		movs	r0, r4
 3277 11aa FFF7FEFF 		bl	sprintf
 3278              	.LVL425:
 245:Src/cmd.c     **** 
 3279              		.loc 1 245 9 view .LVU518
 3280 11ae 3300     		movs	r3, r6
 3281 11b0 0D22     		movs	r2, #13
 3282 11b2 2100     		movs	r1, r4
 3283 11b4 2800     		movs	r0, r5
 3284 11b6 FFF7FEFF 		bl	HAL_UART_Transmit
 3285              	.LVL426:
 3286              	.LBE99:
 245:Src/cmd.c     **** 
 3287              		.loc 1 245 77 view .LVU519
 3288              	.LBB100:
 247:Src/cmd.c     ****         SERIAL_WRITE("%3i.", Phase_u(ADC_PD4_Phase_CH) / 1000000);
 3289              		.loc 1 247 9 view .LVU520
 3290 11ba 6022     		movs	r2, #96
 3291 11bc 0021     		movs	r1, #0
 3292 11be 02A8     		add	r0, sp, #8
 3293 11c0 FFF7FEFF 		bl	memset
 3294              	.LVL427:
 247:Src/cmd.c     ****         SERIAL_WRITE("%3i.", Phase_u(ADC_PD4_Phase_CH) / 1000000);
 3295              		.loc 1 247 9 view .LVU521
 3296 11c4 364B     		ldr	r3, .L54+64
ARM GAS  C:\Users\matil\AppData\Local\Temp\cce1w2PW.s 			page 75


 3297 11c6 2200     		movs	r2, r4
 3298 11c8 83CB     		ldmia	r3!, {r0, r1, r7}
 3299 11ca 83C2     		stmia	r2!, {r0, r1, r7}
 3300 11cc 1B78     		ldrb	r3, [r3]
 3301 11ce 1370     		strb	r3, [r2]
 3302              	.LVL428:
 247:Src/cmd.c     ****         SERIAL_WRITE("%3i.", Phase_u(ADC_PD4_Phase_CH) / 1000000);
 3303              		.loc 1 247 9 view .LVU522
 3304 11d0 3300     		movs	r3, r6
 3305 11d2 0C22     		movs	r2, #12
 3306 11d4 2100     		movs	r1, r4
 3307 11d6 2800     		movs	r0, r5
 3308 11d8 FFF7FEFF 		bl	HAL_UART_Transmit
 3309              	.LVL429:
 3310              	.LBE100:
 247:Src/cmd.c     ****         SERIAL_WRITE("%3i.", Phase_u(ADC_PD4_Phase_CH) / 1000000);
 3311              		.loc 1 247 39 view .LVU523
 3312              	.LBB101:
 248:Src/cmd.c     ****         SERIAL_WRITE("%06li deg\t\t\n", Phase_u(ADC_PD4_Phase_CH) % 1000000);
 3313              		.loc 1 248 9 view .LVU524
 3314 11dc 0027     		movs	r7, #0
 3315 11de 0197     		str	r7, [sp, #4]
 3316 11e0 6022     		movs	r2, #96
 3317 11e2 0021     		movs	r1, #0
 3318 11e4 02A8     		add	r0, sp, #8
 3319 11e6 FFF7FEFF 		bl	memset
 3320              	.LVL430:
 248:Src/cmd.c     ****         SERIAL_WRITE("%06li deg\t\t\n", Phase_u(ADC_PD4_Phase_CH) % 1000000);
 3321              		.loc 1 248 9 view .LVU525
 3322 11ea 0220     		movs	r0, #2
 3323 11ec FFF7FEFF 		bl	Phase_u
 3324              	.LVL431:
 3325 11f0 224A     		ldr	r2, .L54+28
 3326 11f2 0023     		movs	r3, #0
 3327 11f4 FFF7FEFF 		bl	__aeabi_uldivmod
 3328              	.LVL432:
 3329 11f8 0200     		movs	r2, r0
 3330 11fa 0B00     		movs	r3, r1
 3331 11fc 4946     		mov	r1, r9
 3332 11fe 2000     		movs	r0, r4
 3333 1200 FFF7FEFF 		bl	sprintf
 3334              	.LVL433:
 248:Src/cmd.c     ****         SERIAL_WRITE("%06li deg\t\t\n", Phase_u(ADC_PD4_Phase_CH) % 1000000);
 3335              		.loc 1 248 9 view .LVU526
 3336 1204 82B2     		uxth	r2, r0
 3337 1206 3300     		movs	r3, r6
 3338 1208 2100     		movs	r1, r4
 3339 120a 2800     		movs	r0, r5
 3340              	.LVL434:
 248:Src/cmd.c     ****         SERIAL_WRITE("%06li deg\t\t\n", Phase_u(ADC_PD4_Phase_CH) % 1000000);
 3341              		.loc 1 248 9 is_stmt 0 view .LVU527
 3342 120c FFF7FEFF 		bl	HAL_UART_Transmit
 3343              	.LVL435:
 3344              	.LBE101:
 248:Src/cmd.c     ****         SERIAL_WRITE("%06li deg\t\t\n", Phase_u(ADC_PD4_Phase_CH) % 1000000);
 3345              		.loc 1 248 66 is_stmt 1 view .LVU528
 3346              	.LBB102:
ARM GAS  C:\Users\matil\AppData\Local\Temp\cce1w2PW.s 			page 76


 249:Src/cmd.c     ****         SERIAL_WRITE("\n")
 3347              		.loc 1 249 9 view .LVU529
 3348 1210 0197     		str	r7, [sp, #4]
 3349 1212 6022     		movs	r2, #96
 3350 1214 0021     		movs	r1, #0
 3351 1216 02A8     		add	r0, sp, #8
 3352 1218 FFF7FEFF 		bl	memset
 3353              	.LVL436:
 249:Src/cmd.c     ****         SERIAL_WRITE("\n")
 3354              		.loc 1 249 9 view .LVU530
 3355 121c 0220     		movs	r0, #2
 3356 121e FFF7FEFF 		bl	Phase_u
 3357              	.LVL437:
 3358 1222 164A     		ldr	r2, .L54+28
 3359 1224 0023     		movs	r3, #0
 3360 1226 FFF7FEFF 		bl	__aeabi_uldivmod
 3361              	.LVL438:
 3362 122a 5946     		mov	r1, fp
 3363 122c 2000     		movs	r0, r4
 3364 122e FFF7FEFF 		bl	sprintf
 3365              	.LVL439:
 249:Src/cmd.c     ****         SERIAL_WRITE("\n")
 3366              		.loc 1 249 9 view .LVU531
 3367 1232 3300     		movs	r3, r6
 3368 1234 0D22     		movs	r2, #13
 3369 1236 2100     		movs	r1, r4
 3370 1238 2800     		movs	r0, r5
 3371 123a FFF7FEFF 		bl	HAL_UART_Transmit
 3372              	.LVL440:
 3373              	.LBE102:
 249:Src/cmd.c     ****         SERIAL_WRITE("\n")
 3374              		.loc 1 249 77 view .LVU532
 3375              	.LBB103:
 250:Src/cmd.c     **** 
 3376              		.loc 1 250 9 view .LVU533
 3377 123e 0197     		str	r7, [sp, #4]
 3378 1240 6022     		movs	r2, #96
 3379 1242 0021     		movs	r1, #0
 3380 1244 02A8     		add	r0, sp, #8
 3381 1246 FFF7FEFF 		bl	memset
 3382              	.LVL441:
 250:Src/cmd.c     **** 
 3383              		.loc 1 250 9 view .LVU534
 3384 124a 0A23     		movs	r3, #10
 3385 124c 2380     		strh	r3, [r4]
 3386              	.LVL442:
 250:Src/cmd.c     **** 
 3387              		.loc 1 250 9 view .LVU535
 3388 124e 3300     		movs	r3, r6
 3389 1250 0122     		movs	r2, #1
 3390 1252 2100     		movs	r1, r4
 3391 1254 2800     		movs	r0, r5
 3392 1256 FFF7FEFF 		bl	HAL_UART_Transmit
 3393              	.LVL443:
 3394              	.LBE103:
 252:Src/cmd.c     ****     }
 3395              		.loc 1 252 9 view .LVU536
ARM GAS  C:\Users\matil\AppData\Local\Temp\cce1w2PW.s 			page 77


 3396 125a FFF7EAF8 		bl	.L1	@ far jump
 3397              	.L55:
 3398 125e C046     		.align	2
 3399              	.L54:
 3400 1260 00000000 		.word	State
 3401 1264 00000000 		.word	huart2
 3402 1268 C8020000 		.word	.LC84
 3403 126c 3C050000 		.word	1340
 3404 1270 E0020000 		.word	.LC86
 3405 1274 F8020000 		.word	.LC88
 3406 1278 AC010000 		.word	.LC48
 3407 127c 40420F00 		.word	1000000
 3408 1280 94010000 		.word	.LC44
 3409 1284 0C030000 		.word	.LC90
 3410 1288 BC010000 		.word	.LC50
 3411 128c 1C030000 		.word	.LC92
 3412 1290 2C030000 		.word	.LC94
 3413 1294 44030000 		.word	.LC96
 3414 1298 5C030000 		.word	.LC98
 3415 129c CC010000 		.word	.LC52
 3416 12a0 DC010000 		.word	.LC54
 3417              		.cfi_endproc
 3418              	.LFE284:
 3420              		.text
 3421              	.Letext0:
 3422              		.file 2 "c:\\gnu tools arm embedded\\arm-none-eabi\\include\\machine\\_default_types.h"
 3423              		.file 3 "c:\\gnu tools arm embedded\\arm-none-eabi\\include\\sys\\_stdint.h"
 3424              		.file 4 "Drivers/CMSIS/Device/ST/STM32G0xx/Include/system_stm32g0xx.h"
 3425              		.file 5 "Drivers/CMSIS/Device/ST/STM32G0xx/Include/stm32g071xx.h"
 3426              		.file 6 "Drivers/STM32G0xx_HAL_Driver/Inc/stm32g0xx_hal_def.h"
 3427              		.file 7 "Drivers/STM32G0xx_HAL_Driver/Inc/stm32g0xx_hal_dma.h"
 3428              		.file 8 "Drivers/STM32G0xx_HAL_Driver/Inc/stm32g0xx_hal_flash.h"
 3429              		.file 9 "Drivers/STM32G0xx_HAL_Driver/Inc/stm32g0xx_hal_spi.h"
 3430              		.file 10 "Drivers/STM32G0xx_HAL_Driver/Inc/stm32g0xx_hal_uart.h"
 3431              		.file 11 "Drivers/STM32G0xx_HAL_Driver/Inc/stm32g0xx_hal.h"
 3432              		.file 12 "c:\\gnu tools arm embedded\\arm-none-eabi\\include\\sys\\lock.h"
 3433              		.file 13 "c:\\gnu tools arm embedded\\arm-none-eabi\\include\\sys\\_types.h"
 3434              		.file 14 "c:\\gnu tools arm embedded\\lib\\gcc\\arm-none-eabi\\9.2.1\\include\\stddef.h"
 3435              		.file 15 "c:\\gnu tools arm embedded\\arm-none-eabi\\include\\sys\\reent.h"
 3436              		.file 16 "Inc/usart.h"
 3437              		.file 17 "Inc/state.h"
 3438              		.file 18 "Inc/spi.h"
 3439              		.file 19 "c:\\gnu tools arm embedded\\arm-none-eabi\\include\\stdlib.h"
 3440              		.file 20 "Drivers/STM32G0xx_HAL_Driver/Inc/stm32g0xx_hal_gpio.h"
 3441              		.file 21 "Inc/ADC.h"
 3442              		.file 22 "c:\\gnu tools arm embedded\\arm-none-eabi\\include\\stdio.h"
 3443              		.file 23 "Inc/PID.h"
 3444              		.file 24 "Inc/DAC.h"
 3445              		.file 25 "<built-in>"
ARM GAS  C:\Users\matil\AppData\Local\Temp\cce1w2PW.s 			page 78


DEFINED SYMBOLS
                            *ABS*:00000000 cmd.c
C:\Users\matil\AppData\Local\Temp\cce1w2PW.s:16     .rodata.cmd.str1.4:00000000 $d
C:\Users\matil\AppData\Local\Temp\cce1w2PW.s:168    .text.cmd:00000000 $t
C:\Users\matil\AppData\Local\Temp\cce1w2PW.s:176    .text.cmd:00000000 cmd
C:\Users\matil\AppData\Local\Temp\cce1w2PW.s:231    .rodata.cmd:00000000 $d
C:\Users\matil\AppData\Local\Temp\cce1w2PW.s:926    .text.cmd:0000038c $d
C:\Users\matil\AppData\Local\Temp\cce1w2PW.s:951    .text.cmd:000003d8 $t
C:\Users\matil\AppData\Local\Temp\cce1w2PW.s:1324   .text.cmd:000005b8 $d
C:\Users\matil\AppData\Local\Temp\cce1w2PW.s:1340   .text.cmd:000005e8 $t
C:\Users\matil\AppData\Local\Temp\cce1w2PW.s:2008   .text.cmd:000009f0 $d
C:\Users\matil\AppData\Local\Temp\cce1w2PW.s:2022   .text.cmd:00000a24 $t
C:\Users\matil\AppData\Local\Temp\cce1w2PW.s:2684   .text.cmd:00000e24 $d
C:\Users\matil\AppData\Local\Temp\cce1w2PW.s:2695   .text.cmd:00000e4c $t
C:\Users\matil\AppData\Local\Temp\cce1w2PW.s:2790   .text.cmd:00000ed0 $d
C:\Users\matil\AppData\Local\Temp\cce1w2PW.s:2800   .text.cmd:00000ee0 $t
C:\Users\matil\AppData\Local\Temp\cce1w2PW.s:3400   .text.cmd:00001260 $d

UNDEFINED SYMBOLS
__aeabi_lmul
__aeabi_uldivmod
__aeabi_ldivmod
__aeabi_idivmod
HAL_GPIO_TogglePin
memset
HAL_UART_Transmit
HAL_Delay
ADC_ID
sprintf
ADC_DATA_READY_EXTI_deInit
HAL_SPI_MspInit
ADC_CMD
ADC_SPI_READ_8
ADC_SPI_READ_16
ADC_SPI_READ_24
State
huart2
hspi2
HAL_SPI_MspDeInit
ADC_DATA_READY_EXTI_Init
Temperature
DAC_test
Phase
Relative_Power
RMS_Power
Phase_u
