ARM GAS  C:\Users\matil\AppData\Local\Temp\ccSoTFQW.s 			page 1


   1              		.cpu cortex-m0plus
   2              		.eabi_attribute 20, 1
   3              		.eabi_attribute 21, 1
   4              		.eabi_attribute 23, 3
   5              		.eabi_attribute 24, 1
   6              		.eabi_attribute 25, 1
   7              		.eabi_attribute 26, 1
   8              		.eabi_attribute 30, 1
   9              		.eabi_attribute 34, 0
  10              		.eabi_attribute 18, 4
  11              		.file	"cmd.c"
  12              		.text
  13              	.Ltext0:
  14              		.cfi_sections	.debug_frame
  15              		.section	.rodata.cmd.str1.4,"aMS",%progbits,1
  16              		.align	2
  17              	.LC3:
  18 0000 30782530 		.ascii	"0x%06x\012\000"
  18      36780A00 
  19              		.align	2
  20              	.LC6:
  21 0008 41444320 		.ascii	"ADC DEBUG:\012\012\000"
  21      44454255 
  21      473A0A0A 
  21      00
  22 0015 000000   		.align	2
  23              	.LC8:
  24 0018 09414443 		.ascii	"\011ADC_STATUS_REG:\011\0110x%02x\012\000"
  24      5F535441 
  24      5455535F 
  24      5245473A 
  24      09093078 
  25 0032 0000     		.align	2
  26              	.LC10:
  27 0034 09414443 		.ascii	"\011ADC_MODE_REG:\011\0110x%04x\012\000"
  27      5F4D4F44 
  27      455F5245 
  27      473A0909 
  27      30782530 
  28              		.align	2
  29              	.LC12:
  30 004c 09414443 		.ascii	"\011ADC_INTERFACE_REG:\0110x%04x\012\000"
  30      5F494E54 
  30      45524641 
  30      43455F52 
  30      45473A09 
  31              		.align	2
  32              	.LC14:
  33 0068 09414443 		.ascii	"\011ADC_CHECK_REG:\011\0110x%06x\012\000"
  33      5F434845 
  33      434B5F52 
  33      45473A09 
  33      09307825 
  34 0081 000000   		.align	2
  35              	.LC16:
  36 0084 09414443 		.ascii	"\011ADC_DATA_REG:\011\0110x%06x\012\000"
  36      5F444154 
ARM GAS  C:\Users\matil\AppData\Local\Temp\ccSoTFQW.s 			page 2


  36      415F5245 
  36      473A0909 
  36      30782530 
  37              		.align	2
  38              	.LC18:
  39 009c 09414443 		.ascii	"\011ADC_GPIO_REG:\011\0110x%04x\012\000"
  39      5F475049 
  39      4F5F5245 
  39      473A0909 
  39      30782530 
  40              		.align	2
  41              	.LC20:
  42 00b4 09414443 		.ascii	"\011ADC_ID_REG:\011\0110x%04x\012\000"
  42      5F49445F 
  42      5245473A 
  42      09093078 
  42      25303478 
  43 00ca 0000     		.align	2
  44              	.LC22:
  45 00cc 09414443 		.ascii	"\011ADC_CH%i_REG:\011\0110x%04x\012\000"
  45      5F434825 
  45      695F5245 
  45      473A0909 
  45      30782530 
  46              		.align	2
  47              	.LC24:
  48 00e4 09414443 		.ascii	"\011ADC_SETUPCON%i_REG:\0110x%04x\012\000"
  48      5F534554 
  48      5550434F 
  48      4E25695F 
  48      5245473A 
  49 0101 000000   		.align	2
  50              	.LC26:
  51 0104 09414443 		.ascii	"\011ADC_FILTCON%i_REG:\0110x%04x\012\000"
  51      5F46494C 
  51      54434F4E 
  51      25695F52 
  51      45473A09 
  52              		.align	2
  53              	.LC28:
  54 0120 09414443 		.ascii	"\011ADC_OFFSET%i_REG:\0110x%04x\012\000"
  54      5F4F4646 
  54      53455425 
  54      695F5245 
  54      473A0930 
  55 013b 00       		.align	2
  56              	.LC30:
  57 013c 09414443 		.ascii	"\011ADC_GAIN%i_REG:\011\0110x%04x\012\000"
  57      5F474149 
  57      4E25695F 
  57      5245473A 
  57      09093078 
  58              		.global	__aeabi_lmul
  59              		.global	__aeabi_uldivmod
  60 0156 0000     		.align	2
  61              	.LC32:
  62 0158 5B25695D 		.ascii	"[%i]\011\000"
ARM GAS  C:\Users\matil\AppData\Local\Temp\ccSoTFQW.s 			page 3


  62      0900
  63 015e 0000     		.align	2
  64              	.LC34:
  65 0160 25313069 		.ascii	"%10i uV\011\011\000"
  65      20755609 
  65      0900
  66              		.global	__aeabi_ldivmod
  67 016a 0000     		.align	2
  68              	.LC36:
  69 016c 25692E00 		.ascii	"%i.\000"
  70              		.align	2
  71              	.LC38:
  72 0170 25303375 		.ascii	"%03u *C\012\000"
  72      202A430A 
  72      00
  73 0179 000000   		.align	2
  74              	.LC40:
  75 017c 0A0A0A0A 		.ascii	"\012\012\012\012\012\000"
  75      0A00
  76 0182 0000     		.align	2
  77              	.LC42:
  78 0184 50443020 		.ascii	"PD0 Phase:\011\011\000"
  78      50686173 
  78      653A0909 
  78      00
  79 0191 000000   		.align	2
  80              	.LC44:
  81 0194 2533692E 		.ascii	"%3i.\000"
  81      00
  82 0199 000000   		.align	2
  83              	.LC46:
  84 019c 2530336C 		.ascii	"%03lu deg\011\011\012\000"
  84      75206465 
  84      6709090A 
  84      00
  85 01a9 000000   		.align	2
  86              	.LC48:
  87 01ac 50443120 		.ascii	"PD1 Phase:\011\011\000"
  87      50686173 
  87      653A0909 
  87      00
  88 01b9 000000   		.align	2
  89              	.LC50:
  90 01bc 50443220 		.ascii	"PD2 Phase:\011\011\000"
  90      50686173 
  90      653A0909 
  90      00
  91 01c9 000000   		.align	2
  92              	.LC52:
  93 01cc 50443320 		.ascii	"PD3 Phase:\011\011\000"
  93      50686173 
  93      653A0909 
  93      00
  94 01d9 000000   		.align	2
  95              	.LC54:
  96 01dc 50443420 		.ascii	"PD4 Phase:\011\011\000"
  96      50686173 
ARM GAS  C:\Users\matil\AppData\Local\Temp\ccSoTFQW.s 			page 4


  96      653A0909 
  96      00
  97 01e9 000000   		.align	2
  98              	.LC56:
  99 01ec 50443020 		.ascii	"PD0 Rel Power:\011\011\000"
  99      52656C20 
  99      506F7765 
  99      723A0909 
  99      00
 100 01fd 000000   		.align	2
 101              	.LC58:
 102 0200 25336C69 		.ascii	"%3li.\000"
 102      2E00
 103              		.global	__aeabi_idivmod
 104 0206 0000     		.align	2
 105              	.LC60:
 106 0208 25303375 		.ascii	"%03u dB\011\011\012\000"
 106      20644209 
 106      090A00
 107 0213 00       		.align	2
 108              	.LC62:
 109 0214 50443120 		.ascii	"PD1 Rel Power:\011\011\000"
 109      52656C20 
 109      506F7765 
 109      723A0909 
 109      00
 110 0225 000000   		.align	2
 111              	.LC64:
 112 0228 50443220 		.ascii	"PD2 Rel Power:\011\011\000"
 112      52656C20 
 112      506F7765 
 112      723A0909 
 112      00
 113 0239 000000   		.align	2
 114              	.LC66:
 115 023c 50443320 		.ascii	"PD3 Rel Power:\011\011\000"
 115      52656C20 
 115      506F7765 
 115      723A0909 
 115      00
 116 024d 000000   		.align	2
 117              	.LC68:
 118 0250 50443420 		.ascii	"PD4 Rel Power:\011\011\000"
 118      52656C20 
 118      506F7765 
 118      723A0909 
 118      00
 119 0261 000000   		.align	2
 120              	.LC70:
 121 0264 50574430 		.ascii	"PWD0 Power:\011\011\000"
 121      20506F77 
 121      65723A09 
 121      0900
 122 0272 0000     		.align	2
 123              	.LC72:
 124 0274 25303375 		.ascii	"%03u dBm\011\011\012\000"
 124      2064426D 
ARM GAS  C:\Users\matil\AppData\Local\Temp\ccSoTFQW.s 			page 5


 124      09090A00 
 125              		.align	2
 126              	.LC74:
 127 0280 50574431 		.ascii	"PWD1 Power:\011\011\000"
 127      20506F77 
 127      65723A09 
 127      0900
 128 028e 0000     		.align	2
 129              	.LC76:
 130 0290 50574432 		.ascii	"PWD2 Power:\011\011\000"
 130      20506F77 
 130      65723A09 
 130      0900
 131 029e 0000     		.align	2
 132              	.LC78:
 133 02a0 50574433 		.ascii	"PWD3 Power:\011\011\000"
 133      20506F77 
 133      65723A09 
 133      0900
 134 02ae 0000     		.align	2
 135              	.LC80:
 136 02b0 756E6465 		.ascii	"undefined\012\000"
 136      66696E65 
 136      640A00
 137              		.section	.text.cmd,"ax",%progbits
 138              		.align	1
 139              		.global	cmd
 140              		.arch armv6s-m
 141              		.syntax unified
 142              		.code	16
 143              		.thumb_func
 144              		.fpu softvfp
 146              	cmd:
 147              	.LFB284:
 148              		.file 1 "Src/cmd.c"
   1:Src/cmd.c     **** #include "usart.h"
   2:Src/cmd.c     **** #include <stdio.h>
   3:Src/cmd.c     **** #include "state.h"
   4:Src/cmd.c     **** #include "usart_utils.h"
   5:Src/cmd.c     **** #include "ADC.h"
   6:Src/cmd.c     **** #include "spi.h"
   7:Src/cmd.c     **** #include "DAC.h"
   8:Src/cmd.c     **** #include "PID.h"
   9:Src/cmd.c     **** #include <stdlib.h>
  10:Src/cmd.c     **** extern state State;
  11:Src/cmd.c     **** 
  12:Src/cmd.c     **** void cmd()
  13:Src/cmd.c     **** {
 149              		.loc 1 13 1 view -0
 150              		.cfi_startproc
 151              		@ args = 0, pretend = 0, frame = 104
 152              		@ frame_needed = 0, uses_anonymous_args = 0
 153 0000 F0B5     		push	{r4, r5, r6, r7, lr}
 154              	.LCFI0:
 155              		.cfi_def_cfa_offset 20
 156              		.cfi_offset 4, -20
 157              		.cfi_offset 5, -16
ARM GAS  C:\Users\matil\AppData\Local\Temp\ccSoTFQW.s 			page 6


 158              		.cfi_offset 6, -12
 159              		.cfi_offset 7, -8
 160              		.cfi_offset 14, -4
 161 0002 DE46     		mov	lr, fp
 162 0004 5746     		mov	r7, r10
 163 0006 4E46     		mov	r6, r9
 164 0008 4546     		mov	r5, r8
 165 000a E0B5     		push	{r5, r6, r7, lr}
 166              	.LCFI1:
 167              		.cfi_def_cfa_offset 36
 168              		.cfi_offset 8, -36
 169              		.cfi_offset 9, -32
 170              		.cfi_offset 10, -28
 171              		.cfi_offset 11, -24
 172 000c 9BB0     		sub	sp, sp, #108
 173              	.LCFI2:
 174              		.cfi_def_cfa_offset 144
  14:Src/cmd.c     ****     HAL_GPIO_TogglePin(LED_PHASE_GPIO_Port, LED_PHASE_Pin);
 175              		.loc 1 14 5 view .LVU1
 176 000e A020     		movs	r0, #160
 177 0010 0121     		movs	r1, #1
 178 0012 C005     		lsls	r0, r0, #23
 179 0014 FFF7FEFF 		bl	HAL_GPIO_TogglePin
 180              	.LVL0:
  15:Src/cmd.c     ****     switch (State.cmd)
 181              		.loc 1 15 5 view .LVU2
 182              		.loc 1 15 18 is_stmt 0 view .LVU3
 183 0018 D74B     		ldr	r3, .L40
 184 001a 5B7A     		ldrb	r3, [r3, #9]
 185              		.loc 1 15 5 view .LVU4
 186 001c 092B     		cmp	r3, #9
 187 001e 07D8     		bhi	.L2
 188 0020 002B     		cmp	r3, #0
 189 0022 55D0     		beq	.L1
 190 0024 092B     		cmp	r3, #9
 191 0026 53D8     		bhi	.L1
 192 0028 9B00     		lsls	r3, r3, #2
 193 002a D44A     		ldr	r2, .L40+4
 194 002c D358     		ldr	r3, [r2, r3]
 195 002e 9F46     		mov	pc, r3
 196              		.section	.rodata.cmd,"a",%progbits
 197              		.align	2
 198              	.L5:
 199 0000 D0000000 		.word	.L1
 200 0004 66000000 		.word	.L11
 201 0008 A2000000 		.word	.L10
 202 000c D0000000 		.word	.L1
 203 0010 DE000000 		.word	.L9
 204 0014 D0000000 		.word	.L1
 205 0018 20040000 		.word	.L30
 206 001c CC040000 		.word	.L7
 207 0020 42050000 		.word	.L6
 208 0024 A0050000 		.word	.L4
 209              		.section	.text.cmd
 210              	.L2:
 211 0030 FF2B     		cmp	r3, #255
 212 0032 4DD1     		bne	.L1
ARM GAS  C:\Users\matil\AppData\Local\Temp\ccSoTFQW.s 			page 7


  16:Src/cmd.c     ****     {
  17:Src/cmd.c     ****     case cmd_blink:
  18:Src/cmd.c     ****     {
  19:Src/cmd.c     ****         State.cmd = 0;
  20:Src/cmd.c     ****         SERIAL_WRITE("ok\n");
  21:Src/cmd.c     ****         for (int i = 0; i < 10; i++)
  22:Src/cmd.c     ****         {
  23:Src/cmd.c     ****             HAL_GPIO_TogglePin(LED_PHASE_GPIO_Port, LED_PHASE_Pin);
  24:Src/cmd.c     ****             HAL_Delay(100);
  25:Src/cmd.c     ****         }
  26:Src/cmd.c     ****         break;
  27:Src/cmd.c     ****     }
  28:Src/cmd.c     ****     case cmd_adc_id:
  29:Src/cmd.c     ****     {
  30:Src/cmd.c     ****         SERIAL_WRITE("0x%06x\n", ADC_ID());
  31:Src/cmd.c     ****         State.cmd = 0;
  32:Src/cmd.c     ****         break;
  33:Src/cmd.c     ****     }
  34:Src/cmd.c     ****     // case cmd_adc_data:
  35:Src/cmd.c     ****     // {
  36:Src/cmd.c     ****     //     ADC_CMD(ADC_READ, ADC_DATA_REG);
  37:Src/cmd.c     ****     //     SERIAL_WRITE("0x%06x\n", ADC_SPI_READ_24());
  38:Src/cmd.c     ****     //     State.cmd = 0;
  39:Src/cmd.c     ****     //     break;
  40:Src/cmd.c     ****     // }
  41:Src/cmd.c     ****     // case cmd_adc_reset:
  42:Src/cmd.c     ****     // {
  43:Src/cmd.c     ****     //     SERIAL_WRITE("ADC RESET\n");
  44:Src/cmd.c     ****     //     ADC_reset();
  45:Src/cmd.c     ****     //     State.cmd = 0;
  46:Src/cmd.c     ****     //     break;
  47:Src/cmd.c     ****     // }
  48:Src/cmd.c     ****     case cmd_adc_debug:
  49:Src/cmd.c     ****     {
  50:Src/cmd.c     ****         ADC_DATA_READY_EXTI_deInit();
  51:Src/cmd.c     ****         HAL_SPI_MspInit(&hspi2);
  52:Src/cmd.c     ****         SERIAL_WRITE("ADC DEBUG:\n\n");
  53:Src/cmd.c     ****         ADC_CMD(ADC_READ, ADC_STATUS_REG);
  54:Src/cmd.c     ****         SERIAL_WRITE("\tADC_STATUS_REG:\t\t0x%02x\n", ADC_SPI_READ_8());
  55:Src/cmd.c     ****         ADC_CMD(ADC_READ, ADC_MODE_REG);
  56:Src/cmd.c     ****         SERIAL_WRITE("\tADC_MODE_REG:\t\t0x%04x\n", ADC_SPI_READ_16());
  57:Src/cmd.c     ****         ADC_CMD(ADC_READ, ADC_INTERFACE_REG);
  58:Src/cmd.c     ****         SERIAL_WRITE("\tADC_INTERFACE_REG:\t0x%04x\n", ADC_SPI_READ_16());
  59:Src/cmd.c     ****         ADC_CMD(ADC_READ, ADC_CHECK_REG);
  60:Src/cmd.c     ****         SERIAL_WRITE("\tADC_CHECK_REG:\t\t0x%06x\n", ADC_SPI_READ_24());
  61:Src/cmd.c     ****         ADC_CMD(ADC_READ, ADC_DATA_REG);
  62:Src/cmd.c     ****         SERIAL_WRITE("\tADC_DATA_REG:\t\t0x%06x\n", ADC_SPI_READ_24());
  63:Src/cmd.c     ****         ADC_CMD(ADC_READ, ADC_GPIO_REG);
  64:Src/cmd.c     ****         SERIAL_WRITE("\tADC_GPIO_REG:\t\t0x%04x\n", ADC_SPI_READ_16());
  65:Src/cmd.c     ****         ADC_CMD(ADC_READ, ADC_ID_REG);
  66:Src/cmd.c     ****         SERIAL_WRITE("\tADC_ID_REG:\t\t0x%04x\n", ADC_SPI_READ_16());
  67:Src/cmd.c     ****         for (int i = 0; i < 15; i++)
  68:Src/cmd.c     ****         {
  69:Src/cmd.c     ****             ADC_CMD(ADC_READ, ADC_CHx_REG(i));
  70:Src/cmd.c     ****             SERIAL_WRITE("\tADC_CH%i_REG:\t\t0x%04x\n", i, ADC_SPI_READ_16());
  71:Src/cmd.c     ****         }
  72:Src/cmd.c     ****         for (int i = 0; i < 7; i++)
ARM GAS  C:\Users\matil\AppData\Local\Temp\ccSoTFQW.s 			page 8


  73:Src/cmd.c     ****         {
  74:Src/cmd.c     ****             ADC_CMD(ADC_READ, ADC_SETUPCONx_REG(i));
  75:Src/cmd.c     ****             SERIAL_WRITE("\tADC_SETUPCON%i_REG:\t0x%04x\n", i, ADC_SPI_READ_16());
  76:Src/cmd.c     ****         }
  77:Src/cmd.c     ****         for (int i = 0; i < 7; i++)
  78:Src/cmd.c     ****         {
  79:Src/cmd.c     ****             ADC_CMD(ADC_READ, ADC_FILTCONx_REG(i));
  80:Src/cmd.c     ****             SERIAL_WRITE("\tADC_FILTCON%i_REG:\t0x%04x\n", i, ADC_SPI_READ_16());
  81:Src/cmd.c     ****         }
  82:Src/cmd.c     ****         for (int i = 0; i < 7; i++)
  83:Src/cmd.c     ****         {
  84:Src/cmd.c     ****             ADC_CMD(ADC_READ, ADC_OFFSETx_REG(i));
  85:Src/cmd.c     ****             SERIAL_WRITE("\tADC_OFFSET%i_REG:\t0x%04x\n", i, ADC_SPI_READ_24());
  86:Src/cmd.c     ****         }
  87:Src/cmd.c     ****         for (int i = 0; i < 7; i++)
  88:Src/cmd.c     ****         {
  89:Src/cmd.c     ****             ADC_CMD(ADC_READ, ADC_GAINx_REG(i));
  90:Src/cmd.c     ****             SERIAL_WRITE("\tADC_GAIN%i_REG:\t\t0x%04x\n", i, ADC_SPI_READ_24());
  91:Src/cmd.c     ****         }
  92:Src/cmd.c     ****         State.cmd = 0;
  93:Src/cmd.c     ****         HAL_SPI_MspDeInit(&hspi2);
  94:Src/cmd.c     ****         ADC_DATA_READY_EXTI_Init();
  95:Src/cmd.c     ****         break;
  96:Src/cmd.c     ****     }
  97:Src/cmd.c     ****     case cmd_adc_values:
  98:Src/cmd.c     ****     {
  99:Src/cmd.c     ****         for (int i = 0; i < 16; i++)
 100:Src/cmd.c     ****         {
 101:Src/cmd.c     ****             uint64_t voltage_uV = (((uint64_t)State.ADC_Values[i] * 1800000) / 0xffffff);
 102:Src/cmd.c     ****             SERIAL_WRITE("[%i]\t", i);
 103:Src/cmd.c     ****             SERIAL_WRITE("%10i uV\t\t", voltage_uV);
 104:Src/cmd.c     ****             SERIAL_WRITE("0x%06x\n", State.ADC_Values[i]);
 105:Src/cmd.c     ****         }
 106:Src/cmd.c     ****         State.cmd = 0;
 107:Src/cmd.c     ****         break;
 108:Src/cmd.c     ****     }
 109:Src/cmd.c     ****     case cmd_temperature:
 110:Src/cmd.c     ****     {
 111:Src/cmd.c     ****         SERIAL_WRITE("%i.", Temperature() / 1000000);             //-66.875 to +52.443 C
 112:Src/cmd.c     ****         SERIAL_WRITE("%03u *C\n", (Temperature() / 1000) % 1000); //-66.875 to +52.443 C
 113:Src/cmd.c     ****         State.cmd = 0;
 114:Src/cmd.c     ****         break;
 115:Src/cmd.c     ****     }
 116:Src/cmd.c     ****     case cmd_dac_test:
 117:Src/cmd.c     ****     {
 118:Src/cmd.c     ****         SERIAL_WRITE("\n");
 119:Src/cmd.c     ****         DAC_test();
 120:Src/cmd.c     ****         State.cmd = 0;
 121:Src/cmd.c     ****         break;
 122:Src/cmd.c     ****     }
 123:Src/cmd.c     ****     case cmd_rf_state:
 124:Src/cmd.c     ****     {
 125:Src/cmd.c     ****         SERIAL_WRITE("\n\n\n\n\n")
 126:Src/cmd.c     ****         SERIAL_WRITE("PD0 Phase:\t\t");
 127:Src/cmd.c     ****         SERIAL_WRITE("%3i.", Phase(ADC_PD0_Phase_CH) / 1000);
 128:Src/cmd.c     ****         SERIAL_WRITE("%03lu deg\t\t\n", Phase(ADC_PD0_Phase_CH) % 1000);
 129:Src/cmd.c     **** 
ARM GAS  C:\Users\matil\AppData\Local\Temp\ccSoTFQW.s 			page 9


 130:Src/cmd.c     ****         SERIAL_WRITE("PD1 Phase:\t\t");
 131:Src/cmd.c     ****         SERIAL_WRITE("%3i.", Phase(ADC_PD1_Phase_CH) / 1000);
 132:Src/cmd.c     ****         SERIAL_WRITE("%03lu deg\t\t\n", Phase(ADC_PD1_Phase_CH) % 1000);
 133:Src/cmd.c     **** 
 134:Src/cmd.c     ****         SERIAL_WRITE("PD2 Phase:\t\t");
 135:Src/cmd.c     ****         SERIAL_WRITE("%3i.", Phase(ADC_PD2_Phase_CH) / 1000);
 136:Src/cmd.c     ****         SERIAL_WRITE("%03lu deg\t\t\n", Phase(ADC_PD2_Phase_CH) % 1000);
 137:Src/cmd.c     **** 
 138:Src/cmd.c     ****         SERIAL_WRITE("PD3 Phase:\t\t");
 139:Src/cmd.c     ****         SERIAL_WRITE("%3i.", Phase(ADC_PD3_Phase_CH) / 1000);
 140:Src/cmd.c     ****         SERIAL_WRITE("%03lu deg\t\t\n", Phase(ADC_PD3_Phase_CH) % 1000);
 141:Src/cmd.c     **** 
 142:Src/cmd.c     ****         SERIAL_WRITE("PD4 Phase:\t\t");
 143:Src/cmd.c     ****         SERIAL_WRITE("%3i.", Phase(ADC_PD4_Phase_CH) / 1000);
 144:Src/cmd.c     ****         SERIAL_WRITE("%03lu deg\t\t\n", Phase(ADC_PD4_Phase_CH) % 1000);
 145:Src/cmd.c     **** 
 146:Src/cmd.c     ****         SERIAL_WRITE("PD0 Rel Power:\t\t");
 147:Src/cmd.c     ****         SERIAL_WRITE("%3li.", Relative_Power(ADC_PD0_Power_CH) / 1000);
 148:Src/cmd.c     ****         SERIAL_WRITE("%03u dB\t\t\n", abs(Relative_Power(ADC_PD0_Power_CH)) % 1000);
 149:Src/cmd.c     **** 
 150:Src/cmd.c     ****         SERIAL_WRITE("PD1 Rel Power:\t\t");
 151:Src/cmd.c     ****         SERIAL_WRITE("%3li.", Relative_Power(ADC_PD1_Power_CH) / 1000);
 152:Src/cmd.c     ****         SERIAL_WRITE("%03u dB\t\t\n", abs(Relative_Power(ADC_PD1_Power_CH)) % 1000);
 153:Src/cmd.c     **** 
 154:Src/cmd.c     ****         SERIAL_WRITE("PD2 Rel Power:\t\t");
 155:Src/cmd.c     ****         SERIAL_WRITE("%3li.", Relative_Power(ADC_PD2_Power_CH) / 1000);
 156:Src/cmd.c     ****         SERIAL_WRITE("%03u dB\t\t\n", abs(Relative_Power(ADC_PD2_Power_CH)) % 1000);
 157:Src/cmd.c     **** 
 158:Src/cmd.c     ****         SERIAL_WRITE("PD3 Rel Power:\t\t");
 159:Src/cmd.c     ****         SERIAL_WRITE("%3li.", Relative_Power(ADC_PD3_Power_CH) / 1000);
 160:Src/cmd.c     ****         SERIAL_WRITE("%03u dB\t\t\n", abs(Relative_Power(ADC_PD3_Power_CH)) % 1000);
 161:Src/cmd.c     **** 
 162:Src/cmd.c     ****         SERIAL_WRITE("PD4 Rel Power:\t\t");
 163:Src/cmd.c     ****         SERIAL_WRITE("%3li.", Relative_Power(ADC_PD4_Power_CH) / 1000);
 164:Src/cmd.c     ****         SERIAL_WRITE("%03u dB\t\t\n", abs(Relative_Power(ADC_PD4_Power_CH)) % 1000);
 165:Src/cmd.c     **** 
 166:Src/cmd.c     ****         SERIAL_WRITE("PWD0 Power:\t\t");
 167:Src/cmd.c     ****         SERIAL_WRITE("%3li.", RMS_Power(ADC_PWD0_Power_CH) / 1000);
 168:Src/cmd.c     ****         SERIAL_WRITE("%03u dBm\t\t\n", abs(RMS_Power(ADC_PWD0_Power_CH)) % 1000);
 169:Src/cmd.c     **** 
 170:Src/cmd.c     ****         SERIAL_WRITE("PWD1 Power:\t\t");
 171:Src/cmd.c     ****         SERIAL_WRITE("%3li.", RMS_Power(ADC_PWD1_Power_CH) / 1000);
 172:Src/cmd.c     ****         SERIAL_WRITE("%03u dBm\t\t\n", abs(RMS_Power(ADC_PWD1_Power_CH)) % 1000);
 173:Src/cmd.c     **** 
 174:Src/cmd.c     ****         SERIAL_WRITE("PWD2 Power:\t\t");
 175:Src/cmd.c     ****         SERIAL_WRITE("%3li.", RMS_Power(ADC_PWD2_Power_CH) / 1000);
 176:Src/cmd.c     ****         SERIAL_WRITE("%03u dBm\t\t\n", abs(RMS_Power(ADC_PWD2_Power_CH)) % 1000);
 177:Src/cmd.c     **** 
 178:Src/cmd.c     ****         SERIAL_WRITE("PWD3 Power:\t\t");
 179:Src/cmd.c     ****         SERIAL_WRITE("%3li.", RMS_Power(ADC_PWD3_Power_CH) / 1000);
 180:Src/cmd.c     ****         SERIAL_WRITE("%03u dBm\t\t\n", abs(RMS_Power(ADC_PWD3_Power_CH)) % 1000);
 181:Src/cmd.c     ****         State.cmd = 0;
 182:Src/cmd.c     **** 
 183:Src/cmd.c     ****         break;
 184:Src/cmd.c     ****     }
 185:Src/cmd.c     ****     case cmd_undefined:
 186:Src/cmd.c     ****     {
ARM GAS  C:\Users\matil\AppData\Local\Temp\ccSoTFQW.s 			page 10


 187:Src/cmd.c     ****         State.cmd = 0;
 213              		.loc 1 187 9 is_stmt 1 view .LVU5
 214              		.loc 1 187 19 is_stmt 0 view .LVU6
 215 0034 D04B     		ldr	r3, .L40
 216 0036 0022     		movs	r2, #0
 217 0038 5A72     		strb	r2, [r3, #9]
 218              	.LBB2:
 188:Src/cmd.c     ****         SERIAL_WRITE("undefined\n");
 219              		.loc 1 188 9 is_stmt 1 view .LVU7
 220 003a 01AC     		add	r4, sp, #4
 221 003c 6032     		adds	r2, r2, #96
 222 003e 0021     		movs	r1, #0
 223 0040 02A8     		add	r0, sp, #8
 224 0042 FFF7FEFF 		bl	memset
 225              	.LVL1:
 226              		.loc 1 188 9 view .LVU8
 227 0046 CE4B     		ldr	r3, .L40+8
 228 0048 2200     		movs	r2, r4
 229 004a 03CB     		ldmia	r3!, {r0, r1}
 230 004c 03C2     		stmia	r2!, {r0, r1}
 231 004e 1988     		ldrh	r1, [r3]
 232 0050 1180     		strh	r1, [r2]
 233 0052 9B78     		ldrb	r3, [r3, #2]
 234 0054 9370     		strb	r3, [r2, #2]
 235              	.LVL2:
 236              		.loc 1 188 9 view .LVU9
 237 0056 FA23     		movs	r3, #250
 238 0058 9B00     		lsls	r3, r3, #2
 239 005a 0A22     		movs	r2, #10
 240 005c 2100     		movs	r1, r4
 241 005e C948     		ldr	r0, .L40+12
 242 0060 FFF7FEFF 		bl	HAL_UART_Transmit
 243              	.LVL3:
 244              	.LBE2:
 245              		.loc 1 188 36 view .LVU10
 189:Src/cmd.c     ****         break;
 246              		.loc 1 189 9 view .LVU11
 190:Src/cmd.c     ****     }
 191:Src/cmd.c     ****     default:
 192:Src/cmd.c     ****     {
 193:Src/cmd.c     ****         break;
 194:Src/cmd.c     ****     }
 195:Src/cmd.c     ****     }
 196:Src/cmd.c     **** }
 247              		.loc 1 196 1 is_stmt 0 view .LVU12
 248 0064 34E0     		b	.L1
 249              	.LVL4:
 250              	.L11:
  19:Src/cmd.c     ****         SERIAL_WRITE("ok\n");
 251              		.loc 1 19 9 is_stmt 1 view .LVU13
  19:Src/cmd.c     ****         SERIAL_WRITE("ok\n");
 252              		.loc 1 19 19 is_stmt 0 view .LVU14
 253 0066 C44B     		ldr	r3, .L40
 254 0068 0022     		movs	r2, #0
 255 006a 5A72     		strb	r2, [r3, #9]
 256              	.LBB3:
  20:Src/cmd.c     ****         for (int i = 0; i < 10; i++)
ARM GAS  C:\Users\matil\AppData\Local\Temp\ccSoTFQW.s 			page 11


 257              		.loc 1 20 9 is_stmt 1 view .LVU15
 258 006c 6032     		adds	r2, r2, #96
 259 006e 0021     		movs	r1, #0
 260 0070 02A8     		add	r0, sp, #8
 261 0072 FFF7FEFF 		bl	memset
 262              	.LVL5:
  20:Src/cmd.c     ****         for (int i = 0; i < 10; i++)
 263              		.loc 1 20 9 view .LVU16
 264 0076 C44B     		ldr	r3, .L40+16
 265 0078 0193     		str	r3, [sp, #4]
 266              	.LVL6:
  20:Src/cmd.c     ****         for (int i = 0; i < 10; i++)
 267              		.loc 1 20 9 view .LVU17
 268 007a FA23     		movs	r3, #250
 269 007c 9B00     		lsls	r3, r3, #2
 270 007e 0322     		movs	r2, #3
 271 0080 01A9     		add	r1, sp, #4
 272 0082 C048     		ldr	r0, .L40+12
 273 0084 FFF7FEFF 		bl	HAL_UART_Transmit
 274              	.LVL7:
 275              	.LBE3:
  20:Src/cmd.c     ****         for (int i = 0; i < 10; i++)
 276              		.loc 1 20 29 view .LVU18
  21:Src/cmd.c     ****         {
 277              		.loc 1 21 9 view .LVU19
 278              	.LBB4:
  21:Src/cmd.c     ****         {
 279              		.loc 1 21 14 view .LVU20
  21:Src/cmd.c     ****         {
 280              		.loc 1 21 18 is_stmt 0 view .LVU21
 281 0088 0024     		movs	r4, #0
 282              	.LVL8:
 283              	.L13:
  21:Src/cmd.c     ****         {
 284              		.loc 1 21 25 is_stmt 1 discriminator 1 view .LVU22
  21:Src/cmd.c     ****         {
 285              		.loc 1 21 9 is_stmt 0 discriminator 1 view .LVU23
 286 008a 092C     		cmp	r4, #9
 287 008c 20DC     		bgt	.L1
  23:Src/cmd.c     ****             HAL_Delay(100);
 288              		.loc 1 23 13 is_stmt 1 discriminator 3 view .LVU24
 289 008e A020     		movs	r0, #160
 290 0090 0121     		movs	r1, #1
 291 0092 C005     		lsls	r0, r0, #23
 292 0094 FFF7FEFF 		bl	HAL_GPIO_TogglePin
 293              	.LVL9:
  24:Src/cmd.c     ****         }
 294              		.loc 1 24 13 discriminator 3 view .LVU25
 295 0098 6420     		movs	r0, #100
 296 009a FFF7FEFF 		bl	HAL_Delay
 297              	.LVL10:
  21:Src/cmd.c     ****         {
 298              		.loc 1 21 33 discriminator 3 view .LVU26
  21:Src/cmd.c     ****         {
 299              		.loc 1 21 34 is_stmt 0 discriminator 3 view .LVU27
 300 009e 0134     		adds	r4, r4, #1
 301              	.LVL11:
ARM GAS  C:\Users\matil\AppData\Local\Temp\ccSoTFQW.s 			page 12


  21:Src/cmd.c     ****         {
 302              		.loc 1 21 34 discriminator 3 view .LVU28
 303 00a0 F3E7     		b	.L13
 304              	.LVL12:
 305              	.L10:
  21:Src/cmd.c     ****         {
 306              		.loc 1 21 34 discriminator 3 view .LVU29
 307              	.LBE4:
 308              	.LBB5:
  30:Src/cmd.c     ****         State.cmd = 0;
 309              		.loc 1 30 9 is_stmt 1 view .LVU30
 310 00a2 0024     		movs	r4, #0
 311 00a4 0194     		str	r4, [sp, #4]
 312 00a6 6022     		movs	r2, #96
 313 00a8 0021     		movs	r1, #0
 314 00aa 02A8     		add	r0, sp, #8
 315 00ac FFF7FEFF 		bl	memset
 316              	.LVL13:
  30:Src/cmd.c     ****         State.cmd = 0;
 317              		.loc 1 30 9 view .LVU31
 318 00b0 FFF7FEFF 		bl	ADC_ID
 319              	.LVL14:
 320 00b4 0200     		movs	r2, r0
 321 00b6 B549     		ldr	r1, .L40+20
 322 00b8 01A8     		add	r0, sp, #4
 323 00ba FFF7FEFF 		bl	sprintf
 324              	.LVL15:
  30:Src/cmd.c     ****         State.cmd = 0;
 325              		.loc 1 30 9 view .LVU32
 326 00be FA23     		movs	r3, #250
 327 00c0 9B00     		lsls	r3, r3, #2
 328 00c2 0922     		movs	r2, #9
 329 00c4 01A9     		add	r1, sp, #4
 330 00c6 AF48     		ldr	r0, .L40+12
 331 00c8 FFF7FEFF 		bl	HAL_UART_Transmit
 332              	.LVL16:
 333              	.LBE5:
  30:Src/cmd.c     ****         State.cmd = 0;
 334              		.loc 1 30 43 view .LVU33
  31:Src/cmd.c     ****         break;
 335              		.loc 1 31 9 view .LVU34
  31:Src/cmd.c     ****         break;
 336              		.loc 1 31 19 is_stmt 0 view .LVU35
 337 00cc AA4B     		ldr	r3, .L40
 338 00ce 5C72     		strb	r4, [r3, #9]
  32:Src/cmd.c     ****     }
 339              		.loc 1 32 9 is_stmt 1 view .LVU36
 340              	.LVL17:
 341              	.L1:
 342              		.loc 1 196 1 is_stmt 0 view .LVU37
 343 00d0 1BB0     		add	sp, sp, #108
 344              		@ sp needed
 345 00d2 3CBC     		pop	{r2, r3, r4, r5}
 346 00d4 9046     		mov	r8, r2
 347 00d6 9946     		mov	r9, r3
 348 00d8 A246     		mov	r10, r4
 349 00da AB46     		mov	fp, r5
ARM GAS  C:\Users\matil\AppData\Local\Temp\ccSoTFQW.s 			page 13


 350 00dc F0BD     		pop	{r4, r5, r6, r7, pc}
 351              	.L9:
  50:Src/cmd.c     ****         HAL_SPI_MspInit(&hspi2);
 352              		.loc 1 50 9 is_stmt 1 view .LVU38
 353 00de FFF7FEFF 		bl	ADC_DATA_READY_EXTI_deInit
 354              	.LVL18:
  51:Src/cmd.c     ****         SERIAL_WRITE("ADC DEBUG:\n\n");
 355              		.loc 1 51 9 view .LVU39
 356 00e2 AB48     		ldr	r0, .L40+24
 357 00e4 FFF7FEFF 		bl	HAL_SPI_MspInit
 358              	.LVL19:
 359              	.LBB6:
  52:Src/cmd.c     ****         ADC_CMD(ADC_READ, ADC_STATUS_REG);
 360              		.loc 1 52 9 view .LVU40
 361 00e8 01AC     		add	r4, sp, #4
 362 00ea 0027     		movs	r7, #0
 363 00ec 6022     		movs	r2, #96
 364 00ee 0021     		movs	r1, #0
 365 00f0 02A8     		add	r0, sp, #8
 366 00f2 FFF7FEFF 		bl	memset
 367              	.LVL20:
  52:Src/cmd.c     ****         ADC_CMD(ADC_READ, ADC_STATUS_REG);
 368              		.loc 1 52 9 view .LVU41
 369 00f6 A74B     		ldr	r3, .L40+28
 370 00f8 2200     		movs	r2, r4
 371 00fa 23CB     		ldmia	r3!, {r0, r1, r5}
 372 00fc 23C2     		stmia	r2!, {r0, r1, r5}
 373 00fe 1B78     		ldrb	r3, [r3]
 374 0100 1370     		strb	r3, [r2]
 375              	.LVL21:
  52:Src/cmd.c     ****         ADC_CMD(ADC_READ, ADC_STATUS_REG);
 376              		.loc 1 52 9 view .LVU42
 377 0102 FA26     		movs	r6, #250
 378 0104 B600     		lsls	r6, r6, #2
 379 0106 9F4D     		ldr	r5, .L40+12
 380 0108 3300     		movs	r3, r6
 381 010a 0C22     		movs	r2, #12
 382 010c 2100     		movs	r1, r4
 383 010e 2800     		movs	r0, r5
 384 0110 FFF7FEFF 		bl	HAL_UART_Transmit
 385              	.LVL22:
 386              	.LBE6:
  52:Src/cmd.c     ****         ADC_CMD(ADC_READ, ADC_STATUS_REG);
 387              		.loc 1 52 39 view .LVU43
  53:Src/cmd.c     ****         SERIAL_WRITE("\tADC_STATUS_REG:\t\t0x%02x\n", ADC_SPI_READ_8());
 388              		.loc 1 53 9 view .LVU44
 389 0114 0021     		movs	r1, #0
 390 0116 4020     		movs	r0, #64
 391 0118 FFF7FEFF 		bl	ADC_CMD
 392              	.LVL23:
 393              	.LBB7:
  54:Src/cmd.c     ****         ADC_CMD(ADC_READ, ADC_MODE_REG);
 394              		.loc 1 54 9 view .LVU45
 395 011c 0197     		str	r7, [sp, #4]
 396 011e 6022     		movs	r2, #96
 397 0120 0021     		movs	r1, #0
 398 0122 02A8     		add	r0, sp, #8
ARM GAS  C:\Users\matil\AppData\Local\Temp\ccSoTFQW.s 			page 14


 399 0124 FFF7FEFF 		bl	memset
 400              	.LVL24:
  54:Src/cmd.c     ****         ADC_CMD(ADC_READ, ADC_MODE_REG);
 401              		.loc 1 54 9 view .LVU46
 402 0128 FFF7FEFF 		bl	ADC_SPI_READ_8
 403              	.LVL25:
 404 012c 0200     		movs	r2, r0
 405 012e 9A49     		ldr	r1, .L40+32
 406 0130 2000     		movs	r0, r4
 407 0132 FFF7FEFF 		bl	sprintf
 408              	.LVL26:
  54:Src/cmd.c     ****         ADC_CMD(ADC_READ, ADC_MODE_REG);
 409              		.loc 1 54 9 view .LVU47
 410 0136 3300     		movs	r3, r6
 411 0138 1722     		movs	r2, #23
 412 013a 2100     		movs	r1, r4
 413 013c 2800     		movs	r0, r5
 414 013e FFF7FEFF 		bl	HAL_UART_Transmit
 415              	.LVL27:
 416              	.LBE7:
  54:Src/cmd.c     ****         ADC_CMD(ADC_READ, ADC_MODE_REG);
 417              		.loc 1 54 72 view .LVU48
  55:Src/cmd.c     ****         SERIAL_WRITE("\tADC_MODE_REG:\t\t0x%04x\n", ADC_SPI_READ_16());
 418              		.loc 1 55 9 view .LVU49
 419 0142 0121     		movs	r1, #1
 420 0144 4020     		movs	r0, #64
 421 0146 FFF7FEFF 		bl	ADC_CMD
 422              	.LVL28:
 423              	.LBB8:
  56:Src/cmd.c     ****         ADC_CMD(ADC_READ, ADC_INTERFACE_REG);
 424              		.loc 1 56 9 view .LVU50
 425 014a 0197     		str	r7, [sp, #4]
 426 014c 6022     		movs	r2, #96
 427 014e 0021     		movs	r1, #0
 428 0150 02A8     		add	r0, sp, #8
 429 0152 FFF7FEFF 		bl	memset
 430              	.LVL29:
  56:Src/cmd.c     ****         ADC_CMD(ADC_READ, ADC_INTERFACE_REG);
 431              		.loc 1 56 9 view .LVU51
 432 0156 FFF7FEFF 		bl	ADC_SPI_READ_16
 433              	.LVL30:
 434 015a 0200     		movs	r2, r0
 435 015c 8F49     		ldr	r1, .L40+36
 436 015e 2000     		movs	r0, r4
 437 0160 FFF7FEFF 		bl	sprintf
 438              	.LVL31:
  56:Src/cmd.c     ****         ADC_CMD(ADC_READ, ADC_INTERFACE_REG);
 439              		.loc 1 56 9 view .LVU52
 440 0164 3300     		movs	r3, r6
 441 0166 1722     		movs	r2, #23
 442 0168 2100     		movs	r1, r4
 443 016a 2800     		movs	r0, r5
 444 016c FFF7FEFF 		bl	HAL_UART_Transmit
 445              	.LVL32:
 446              	.LBE8:
  56:Src/cmd.c     ****         ADC_CMD(ADC_READ, ADC_INTERFACE_REG);
 447              		.loc 1 56 71 view .LVU53
ARM GAS  C:\Users\matil\AppData\Local\Temp\ccSoTFQW.s 			page 15


  57:Src/cmd.c     ****         SERIAL_WRITE("\tADC_INTERFACE_REG:\t0x%04x\n", ADC_SPI_READ_16());
 448              		.loc 1 57 9 view .LVU54
 449 0170 0221     		movs	r1, #2
 450 0172 4020     		movs	r0, #64
 451 0174 FFF7FEFF 		bl	ADC_CMD
 452              	.LVL33:
 453              	.LBB9:
  58:Src/cmd.c     ****         ADC_CMD(ADC_READ, ADC_CHECK_REG);
 454              		.loc 1 58 9 view .LVU55
 455 0178 0197     		str	r7, [sp, #4]
 456 017a 6022     		movs	r2, #96
 457 017c 0021     		movs	r1, #0
 458 017e 02A8     		add	r0, sp, #8
 459 0180 FFF7FEFF 		bl	memset
 460              	.LVL34:
  58:Src/cmd.c     ****         ADC_CMD(ADC_READ, ADC_CHECK_REG);
 461              		.loc 1 58 9 view .LVU56
 462 0184 FFF7FEFF 		bl	ADC_SPI_READ_16
 463              	.LVL35:
 464 0188 0200     		movs	r2, r0
 465 018a 8549     		ldr	r1, .L40+40
 466 018c 2000     		movs	r0, r4
 467 018e FFF7FEFF 		bl	sprintf
 468              	.LVL36:
  58:Src/cmd.c     ****         ADC_CMD(ADC_READ, ADC_CHECK_REG);
 469              		.loc 1 58 9 view .LVU57
 470 0192 3300     		movs	r3, r6
 471 0194 1B22     		movs	r2, #27
 472 0196 2100     		movs	r1, r4
 473 0198 2800     		movs	r0, r5
 474 019a FFF7FEFF 		bl	HAL_UART_Transmit
 475              	.LVL37:
 476              	.LBE9:
  58:Src/cmd.c     ****         ADC_CMD(ADC_READ, ADC_CHECK_REG);
 477              		.loc 1 58 74 view .LVU58
  59:Src/cmd.c     ****         SERIAL_WRITE("\tADC_CHECK_REG:\t\t0x%06x\n", ADC_SPI_READ_24());
 478              		.loc 1 59 9 view .LVU59
 479 019e 0321     		movs	r1, #3
 480 01a0 4020     		movs	r0, #64
 481 01a2 FFF7FEFF 		bl	ADC_CMD
 482              	.LVL38:
 483              	.LBB10:
  60:Src/cmd.c     ****         ADC_CMD(ADC_READ, ADC_DATA_REG);
 484              		.loc 1 60 9 view .LVU60
 485 01a6 0197     		str	r7, [sp, #4]
 486 01a8 6022     		movs	r2, #96
 487 01aa 0021     		movs	r1, #0
 488 01ac 02A8     		add	r0, sp, #8
 489 01ae FFF7FEFF 		bl	memset
 490              	.LVL39:
  60:Src/cmd.c     ****         ADC_CMD(ADC_READ, ADC_DATA_REG);
 491              		.loc 1 60 9 view .LVU61
 492 01b2 FFF7FEFF 		bl	ADC_SPI_READ_24
 493              	.LVL40:
 494 01b6 0200     		movs	r2, r0
 495 01b8 7A49     		ldr	r1, .L40+44
 496 01ba 2000     		movs	r0, r4
ARM GAS  C:\Users\matil\AppData\Local\Temp\ccSoTFQW.s 			page 16


 497 01bc FFF7FEFF 		bl	sprintf
 498              	.LVL41:
  60:Src/cmd.c     ****         ADC_CMD(ADC_READ, ADC_DATA_REG);
 499              		.loc 1 60 9 view .LVU62
 500 01c0 82B2     		uxth	r2, r0
 501 01c2 3300     		movs	r3, r6
 502 01c4 2100     		movs	r1, r4
 503 01c6 2800     		movs	r0, r5
 504              	.LVL42:
  60:Src/cmd.c     ****         ADC_CMD(ADC_READ, ADC_DATA_REG);
 505              		.loc 1 60 9 is_stmt 0 view .LVU63
 506 01c8 FFF7FEFF 		bl	HAL_UART_Transmit
 507              	.LVL43:
 508              	.LBE10:
  60:Src/cmd.c     ****         ADC_CMD(ADC_READ, ADC_DATA_REG);
 509              		.loc 1 60 72 is_stmt 1 view .LVU64
  61:Src/cmd.c     ****         SERIAL_WRITE("\tADC_DATA_REG:\t\t0x%06x\n", ADC_SPI_READ_24());
 510              		.loc 1 61 9 view .LVU65
 511 01cc 0421     		movs	r1, #4
 512 01ce 4020     		movs	r0, #64
 513 01d0 FFF7FEFF 		bl	ADC_CMD
 514              	.LVL44:
 515              	.LBB11:
  62:Src/cmd.c     ****         ADC_CMD(ADC_READ, ADC_GPIO_REG);
 516              		.loc 1 62 9 view .LVU66
 517 01d4 0197     		str	r7, [sp, #4]
 518 01d6 6022     		movs	r2, #96
 519 01d8 0021     		movs	r1, #0
 520 01da 02A8     		add	r0, sp, #8
 521 01dc FFF7FEFF 		bl	memset
 522              	.LVL45:
  62:Src/cmd.c     ****         ADC_CMD(ADC_READ, ADC_GPIO_REG);
 523              		.loc 1 62 9 view .LVU67
 524 01e0 FFF7FEFF 		bl	ADC_SPI_READ_24
 525              	.LVL46:
 526 01e4 0200     		movs	r2, r0
 527 01e6 7049     		ldr	r1, .L40+48
 528 01e8 2000     		movs	r0, r4
 529 01ea FFF7FEFF 		bl	sprintf
 530              	.LVL47:
  62:Src/cmd.c     ****         ADC_CMD(ADC_READ, ADC_GPIO_REG);
 531              		.loc 1 62 9 view .LVU68
 532 01ee 82B2     		uxth	r2, r0
 533 01f0 3300     		movs	r3, r6
 534 01f2 2100     		movs	r1, r4
 535 01f4 2800     		movs	r0, r5
 536              	.LVL48:
  62:Src/cmd.c     ****         ADC_CMD(ADC_READ, ADC_GPIO_REG);
 537              		.loc 1 62 9 is_stmt 0 view .LVU69
 538 01f6 FFF7FEFF 		bl	HAL_UART_Transmit
 539              	.LVL49:
 540              	.LBE11:
  62:Src/cmd.c     ****         ADC_CMD(ADC_READ, ADC_GPIO_REG);
 541              		.loc 1 62 71 is_stmt 1 view .LVU70
  63:Src/cmd.c     ****         SERIAL_WRITE("\tADC_GPIO_REG:\t\t0x%04x\n", ADC_SPI_READ_16());
 542              		.loc 1 63 9 view .LVU71
 543 01fa 0621     		movs	r1, #6
ARM GAS  C:\Users\matil\AppData\Local\Temp\ccSoTFQW.s 			page 17


 544 01fc 4020     		movs	r0, #64
 545 01fe FFF7FEFF 		bl	ADC_CMD
 546              	.LVL50:
 547              	.LBB12:
  64:Src/cmd.c     ****         ADC_CMD(ADC_READ, ADC_ID_REG);
 548              		.loc 1 64 9 view .LVU72
 549 0202 0197     		str	r7, [sp, #4]
 550 0204 6022     		movs	r2, #96
 551 0206 0021     		movs	r1, #0
 552 0208 02A8     		add	r0, sp, #8
 553 020a FFF7FEFF 		bl	memset
 554              	.LVL51:
  64:Src/cmd.c     ****         ADC_CMD(ADC_READ, ADC_ID_REG);
 555              		.loc 1 64 9 view .LVU73
 556 020e FFF7FEFF 		bl	ADC_SPI_READ_16
 557              	.LVL52:
 558 0212 0200     		movs	r2, r0
 559 0214 6549     		ldr	r1, .L40+52
 560 0216 2000     		movs	r0, r4
 561 0218 FFF7FEFF 		bl	sprintf
 562              	.LVL53:
  64:Src/cmd.c     ****         ADC_CMD(ADC_READ, ADC_ID_REG);
 563              		.loc 1 64 9 view .LVU74
 564 021c 3300     		movs	r3, r6
 565 021e 1722     		movs	r2, #23
 566 0220 2100     		movs	r1, r4
 567 0222 2800     		movs	r0, r5
 568 0224 FFF7FEFF 		bl	HAL_UART_Transmit
 569              	.LVL54:
 570              	.LBE12:
  64:Src/cmd.c     ****         ADC_CMD(ADC_READ, ADC_ID_REG);
 571              		.loc 1 64 71 view .LVU75
  65:Src/cmd.c     ****         SERIAL_WRITE("\tADC_ID_REG:\t\t0x%04x\n", ADC_SPI_READ_16());
 572              		.loc 1 65 9 view .LVU76
 573 0228 0721     		movs	r1, #7
 574 022a 4020     		movs	r0, #64
 575 022c FFF7FEFF 		bl	ADC_CMD
 576              	.LVL55:
 577              	.LBB13:
  66:Src/cmd.c     ****         for (int i = 0; i < 15; i++)
 578              		.loc 1 66 9 view .LVU77
 579 0230 0197     		str	r7, [sp, #4]
 580 0232 6022     		movs	r2, #96
 581 0234 0021     		movs	r1, #0
 582 0236 02A8     		add	r0, sp, #8
 583 0238 FFF7FEFF 		bl	memset
 584              	.LVL56:
  66:Src/cmd.c     ****         for (int i = 0; i < 15; i++)
 585              		.loc 1 66 9 view .LVU78
 586 023c FFF7FEFF 		bl	ADC_SPI_READ_16
 587              	.LVL57:
 588 0240 0200     		movs	r2, r0
 589 0242 5B49     		ldr	r1, .L40+56
 590 0244 2000     		movs	r0, r4
 591 0246 FFF7FEFF 		bl	sprintf
 592              	.LVL58:
  66:Src/cmd.c     ****         for (int i = 0; i < 15; i++)
ARM GAS  C:\Users\matil\AppData\Local\Temp\ccSoTFQW.s 			page 18


 593              		.loc 1 66 9 view .LVU79
 594 024a 3300     		movs	r3, r6
 595 024c 1522     		movs	r2, #21
 596 024e 2100     		movs	r1, r4
 597 0250 2800     		movs	r0, r5
 598 0252 FFF7FEFF 		bl	HAL_UART_Transmit
 599              	.LVL59:
 600              	.LBE13:
  66:Src/cmd.c     ****         for (int i = 0; i < 15; i++)
 601              		.loc 1 66 69 view .LVU80
  67:Src/cmd.c     ****         {
 602              		.loc 1 67 9 view .LVU81
 603              	.LBB14:
  67:Src/cmd.c     ****         {
 604              		.loc 1 67 14 view .LVU82
  67:Src/cmd.c     ****         {
 605              		.loc 1 67 18 is_stmt 0 view .LVU83
 606 0256 0024     		movs	r4, #0
  67:Src/cmd.c     ****         {
 607              		.loc 1 67 9 view .LVU84
 608 0258 1CE0     		b	.L15
 609              	.LVL60:
 610              	.L16:
  69:Src/cmd.c     ****             SERIAL_WRITE("\tADC_CH%i_REG:\t\t0x%04x\n", i, ADC_SPI_READ_16());
 611              		.loc 1 69 13 is_stmt 1 discriminator 3 view .LVU85
  69:Src/cmd.c     ****             SERIAL_WRITE("\tADC_CH%i_REG:\t\t0x%04x\n", i, ADC_SPI_READ_16());
 612              		.loc 1 69 31 is_stmt 0 discriminator 3 view .LVU86
 613 025a 2100     		movs	r1, r4
 614 025c 1031     		adds	r1, r1, #16
  69:Src/cmd.c     ****             SERIAL_WRITE("\tADC_CH%i_REG:\t\t0x%04x\n", i, ADC_SPI_READ_16());
 615              		.loc 1 69 13 discriminator 3 view .LVU87
 616 025e C9B2     		uxtb	r1, r1
 617 0260 4020     		movs	r0, #64
 618 0262 FFF7FEFF 		bl	ADC_CMD
 619              	.LVL61:
 620              	.LBB15:
  70:Src/cmd.c     ****         }
 621              		.loc 1 70 13 is_stmt 1 discriminator 3 view .LVU88
 622 0266 0023     		movs	r3, #0
 623 0268 0193     		str	r3, [sp, #4]
 624 026a 6022     		movs	r2, #96
 625 026c 0021     		movs	r1, #0
 626 026e 02A8     		add	r0, sp, #8
 627 0270 FFF7FEFF 		bl	memset
 628              	.LVL62:
  70:Src/cmd.c     ****         }
 629              		.loc 1 70 13 discriminator 3 view .LVU89
 630 0274 FFF7FEFF 		bl	ADC_SPI_READ_16
 631              	.LVL63:
 632 0278 0300     		movs	r3, r0
 633 027a 2200     		movs	r2, r4
 634 027c 4D49     		ldr	r1, .L40+60
 635 027e 01A8     		add	r0, sp, #4
 636 0280 FFF7FEFF 		bl	sprintf
 637              	.LVL64:
  70:Src/cmd.c     ****         }
 638              		.loc 1 70 13 discriminator 3 view .LVU90
ARM GAS  C:\Users\matil\AppData\Local\Temp\ccSoTFQW.s 			page 19


 639 0284 FA23     		movs	r3, #250
 640 0286 82B2     		uxth	r2, r0
 641 0288 9B00     		lsls	r3, r3, #2
 642 028a 01A9     		add	r1, sp, #4
 643 028c 3D48     		ldr	r0, .L40+12
 644              	.LVL65:
  70:Src/cmd.c     ****         }
 645              		.loc 1 70 13 is_stmt 0 discriminator 3 view .LVU91
 646 028e FFF7FEFF 		bl	HAL_UART_Transmit
 647              	.LVL66:
 648              	.LBE15:
  70:Src/cmd.c     ****         }
 649              		.loc 1 70 78 is_stmt 1 discriminator 3 view .LVU92
  67:Src/cmd.c     ****         {
 650              		.loc 1 67 33 discriminator 3 view .LVU93
  67:Src/cmd.c     ****         {
 651              		.loc 1 67 34 is_stmt 0 discriminator 3 view .LVU94
 652 0292 0134     		adds	r4, r4, #1
 653              	.LVL67:
 654              	.L15:
  67:Src/cmd.c     ****         {
 655              		.loc 1 67 25 is_stmt 1 discriminator 1 view .LVU95
  67:Src/cmd.c     ****         {
 656              		.loc 1 67 9 is_stmt 0 discriminator 1 view .LVU96
 657 0294 0E2C     		cmp	r4, #14
 658 0296 E0DD     		ble	.L16
 659              	.LBE14:
 660              	.LBB16:
  72:Src/cmd.c     ****         {
 661              		.loc 1 72 18 view .LVU97
 662 0298 0024     		movs	r4, #0
 663              	.LVL68:
 664              	.L17:
  72:Src/cmd.c     ****         {
 665              		.loc 1 72 25 is_stmt 1 discriminator 2 view .LVU98
  72:Src/cmd.c     ****         {
 666              		.loc 1 72 9 is_stmt 0 discriminator 2 view .LVU99
 667 029a 062C     		cmp	r4, #6
 668 029c 21DC     		bgt	.L35
  74:Src/cmd.c     ****             SERIAL_WRITE("\tADC_SETUPCON%i_REG:\t0x%04x\n", i, ADC_SPI_READ_16());
 669              		.loc 1 74 13 is_stmt 1 view .LVU100
 670 029e 072C     		cmp	r4, #7
 671 02a0 1DD8     		bhi	.L31
  74:Src/cmd.c     ****             SERIAL_WRITE("\tADC_SETUPCON%i_REG:\t0x%04x\n", i, ADC_SPI_READ_16());
 672              		.loc 1 74 31 is_stmt 0 discriminator 1 view .LVU101
 673 02a2 2100     		movs	r1, r4
 674 02a4 2031     		adds	r1, r1, #32
  74:Src/cmd.c     ****             SERIAL_WRITE("\tADC_SETUPCON%i_REG:\t0x%04x\n", i, ADC_SPI_READ_16());
 675              		.loc 1 74 13 discriminator 1 view .LVU102
 676 02a6 C9B2     		uxtb	r1, r1
 677              	.L18:
  74:Src/cmd.c     ****             SERIAL_WRITE("\tADC_SETUPCON%i_REG:\t0x%04x\n", i, ADC_SPI_READ_16());
 678              		.loc 1 74 13 discriminator 4 view .LVU103
 679 02a8 4020     		movs	r0, #64
 680 02aa FFF7FEFF 		bl	ADC_CMD
 681              	.LVL69:
 682              	.LBB17:
ARM GAS  C:\Users\matil\AppData\Local\Temp\ccSoTFQW.s 			page 20


  75:Src/cmd.c     ****         }
 683              		.loc 1 75 13 is_stmt 1 discriminator 4 view .LVU104
 684 02ae 0023     		movs	r3, #0
 685 02b0 0193     		str	r3, [sp, #4]
 686 02b2 6022     		movs	r2, #96
 687 02b4 0021     		movs	r1, #0
 688 02b6 02A8     		add	r0, sp, #8
 689 02b8 FFF7FEFF 		bl	memset
 690              	.LVL70:
  75:Src/cmd.c     ****         }
 691              		.loc 1 75 13 discriminator 4 view .LVU105
 692 02bc FFF7FEFF 		bl	ADC_SPI_READ_16
 693              	.LVL71:
 694 02c0 0300     		movs	r3, r0
 695 02c2 2200     		movs	r2, r4
 696 02c4 3C49     		ldr	r1, .L40+64
 697 02c6 01A8     		add	r0, sp, #4
 698 02c8 FFF7FEFF 		bl	sprintf
 699              	.LVL72:
  75:Src/cmd.c     ****         }
 700              		.loc 1 75 13 discriminator 4 view .LVU106
 701 02cc FA23     		movs	r3, #250
 702 02ce 9B00     		lsls	r3, r3, #2
 703 02d0 1B22     		movs	r2, #27
 704 02d2 01A9     		add	r1, sp, #4
 705 02d4 2B48     		ldr	r0, .L40+12
 706 02d6 FFF7FEFF 		bl	HAL_UART_Transmit
 707              	.LVL73:
 708              	.LBE17:
  75:Src/cmd.c     ****         }
 709              		.loc 1 75 82 discriminator 4 view .LVU107
  72:Src/cmd.c     ****         {
 710              		.loc 1 72 32 discriminator 4 view .LVU108
  72:Src/cmd.c     ****         {
 711              		.loc 1 72 33 is_stmt 0 discriminator 4 view .LVU109
 712 02da 0134     		adds	r4, r4, #1
 713              	.LVL74:
  72:Src/cmd.c     ****         {
 714              		.loc 1 72 33 discriminator 4 view .LVU110
 715 02dc DDE7     		b	.L17
 716              	.LVL75:
 717              	.L31:
  74:Src/cmd.c     ****             SERIAL_WRITE("\tADC_SETUPCON%i_REG:\t0x%04x\n", i, ADC_SPI_READ_16());
 718              		.loc 1 74 13 view .LVU111
 719 02de 0021     		movs	r1, #0
 720 02e0 E2E7     		b	.L18
 721              	.L35:
 722              	.LBE16:
 723              	.LBB18:
  77:Src/cmd.c     ****         {
 724              		.loc 1 77 18 view .LVU112
 725 02e2 0024     		movs	r4, #0
 726              	.LVL76:
 727              	.L20:
  77:Src/cmd.c     ****         {
 728              		.loc 1 77 25 is_stmt 1 discriminator 2 view .LVU113
  77:Src/cmd.c     ****         {
ARM GAS  C:\Users\matil\AppData\Local\Temp\ccSoTFQW.s 			page 21


 729              		.loc 1 77 9 is_stmt 0 discriminator 2 view .LVU114
 730 02e4 062C     		cmp	r4, #6
 731 02e6 21DC     		bgt	.L36
  79:Src/cmd.c     ****             SERIAL_WRITE("\tADC_FILTCON%i_REG:\t0x%04x\n", i, ADC_SPI_READ_16());
 732              		.loc 1 79 13 is_stmt 1 view .LVU115
 733 02e8 072C     		cmp	r4, #7
 734 02ea 1DD8     		bhi	.L32
  79:Src/cmd.c     ****             SERIAL_WRITE("\tADC_FILTCON%i_REG:\t0x%04x\n", i, ADC_SPI_READ_16());
 735              		.loc 1 79 31 is_stmt 0 discriminator 1 view .LVU116
 736 02ec 2100     		movs	r1, r4
 737 02ee 2831     		adds	r1, r1, #40
  79:Src/cmd.c     ****             SERIAL_WRITE("\tADC_FILTCON%i_REG:\t0x%04x\n", i, ADC_SPI_READ_16());
 738              		.loc 1 79 13 discriminator 1 view .LVU117
 739 02f0 C9B2     		uxtb	r1, r1
 740              	.L21:
  79:Src/cmd.c     ****             SERIAL_WRITE("\tADC_FILTCON%i_REG:\t0x%04x\n", i, ADC_SPI_READ_16());
 741              		.loc 1 79 13 discriminator 4 view .LVU118
 742 02f2 4020     		movs	r0, #64
 743 02f4 FFF7FEFF 		bl	ADC_CMD
 744              	.LVL77:
 745              	.LBB19:
  80:Src/cmd.c     ****         }
 746              		.loc 1 80 13 is_stmt 1 discriminator 4 view .LVU119
 747 02f8 0023     		movs	r3, #0
 748 02fa 0193     		str	r3, [sp, #4]
 749 02fc 6022     		movs	r2, #96
 750 02fe 0021     		movs	r1, #0
 751 0300 02A8     		add	r0, sp, #8
 752 0302 FFF7FEFF 		bl	memset
 753              	.LVL78:
  80:Src/cmd.c     ****         }
 754              		.loc 1 80 13 discriminator 4 view .LVU120
 755 0306 FFF7FEFF 		bl	ADC_SPI_READ_16
 756              	.LVL79:
 757 030a 0300     		movs	r3, r0
 758 030c 2200     		movs	r2, r4
 759 030e 2B49     		ldr	r1, .L40+68
 760 0310 01A8     		add	r0, sp, #4
 761 0312 FFF7FEFF 		bl	sprintf
 762              	.LVL80:
  80:Src/cmd.c     ****         }
 763              		.loc 1 80 13 discriminator 4 view .LVU121
 764 0316 FA23     		movs	r3, #250
 765 0318 9B00     		lsls	r3, r3, #2
 766 031a 1A22     		movs	r2, #26
 767 031c 01A9     		add	r1, sp, #4
 768 031e 1948     		ldr	r0, .L40+12
 769 0320 FFF7FEFF 		bl	HAL_UART_Transmit
 770              	.LVL81:
 771              	.LBE19:
  80:Src/cmd.c     ****         }
 772              		.loc 1 80 81 discriminator 4 view .LVU122
  77:Src/cmd.c     ****         {
 773              		.loc 1 77 32 discriminator 4 view .LVU123
  77:Src/cmd.c     ****         {
 774              		.loc 1 77 33 is_stmt 0 discriminator 4 view .LVU124
 775 0324 0134     		adds	r4, r4, #1
ARM GAS  C:\Users\matil\AppData\Local\Temp\ccSoTFQW.s 			page 22


 776              	.LVL82:
  77:Src/cmd.c     ****         {
 777              		.loc 1 77 33 discriminator 4 view .LVU125
 778 0326 DDE7     		b	.L20
 779              	.LVL83:
 780              	.L32:
  79:Src/cmd.c     ****             SERIAL_WRITE("\tADC_FILTCON%i_REG:\t0x%04x\n", i, ADC_SPI_READ_16());
 781              		.loc 1 79 13 view .LVU126
 782 0328 0021     		movs	r1, #0
 783 032a E2E7     		b	.L21
 784              	.L36:
 785              	.LBE18:
 786              	.LBB20:
  82:Src/cmd.c     ****         {
 787              		.loc 1 82 18 view .LVU127
 788 032c 0024     		movs	r4, #0
 789              	.LVL84:
 790              	.L23:
  82:Src/cmd.c     ****         {
 791              		.loc 1 82 25 is_stmt 1 discriminator 2 view .LVU128
  82:Src/cmd.c     ****         {
 792              		.loc 1 82 9 is_stmt 0 discriminator 2 view .LVU129
 793 032e 062C     		cmp	r4, #6
 794 0330 48DC     		bgt	.L37
  84:Src/cmd.c     ****             SERIAL_WRITE("\tADC_OFFSET%i_REG:\t0x%04x\n", i, ADC_SPI_READ_24());
 795              		.loc 1 84 13 is_stmt 1 view .LVU130
 796 0332 072C     		cmp	r4, #7
 797 0334 1DD8     		bhi	.L33
  84:Src/cmd.c     ****             SERIAL_WRITE("\tADC_OFFSET%i_REG:\t0x%04x\n", i, ADC_SPI_READ_24());
 798              		.loc 1 84 31 is_stmt 0 discriminator 1 view .LVU131
 799 0336 2100     		movs	r1, r4
 800 0338 3031     		adds	r1, r1, #48
  84:Src/cmd.c     ****             SERIAL_WRITE("\tADC_OFFSET%i_REG:\t0x%04x\n", i, ADC_SPI_READ_24());
 801              		.loc 1 84 13 discriminator 1 view .LVU132
 802 033a C9B2     		uxtb	r1, r1
 803              	.L24:
  84:Src/cmd.c     ****             SERIAL_WRITE("\tADC_OFFSET%i_REG:\t0x%04x\n", i, ADC_SPI_READ_24());
 804              		.loc 1 84 13 discriminator 4 view .LVU133
 805 033c 4020     		movs	r0, #64
 806 033e FFF7FEFF 		bl	ADC_CMD
 807              	.LVL85:
 808              	.LBB21:
  85:Src/cmd.c     ****         }
 809              		.loc 1 85 13 is_stmt 1 discriminator 4 view .LVU134
 810 0342 0023     		movs	r3, #0
 811 0344 0193     		str	r3, [sp, #4]
 812 0346 6022     		movs	r2, #96
 813 0348 0021     		movs	r1, #0
 814 034a 02A8     		add	r0, sp, #8
 815 034c FFF7FEFF 		bl	memset
 816              	.LVL86:
  85:Src/cmd.c     ****         }
 817              		.loc 1 85 13 discriminator 4 view .LVU135
 818 0350 FFF7FEFF 		bl	ADC_SPI_READ_24
 819              	.LVL87:
 820 0354 0300     		movs	r3, r0
 821 0356 2200     		movs	r2, r4
ARM GAS  C:\Users\matil\AppData\Local\Temp\ccSoTFQW.s 			page 23


 822 0358 1949     		ldr	r1, .L40+72
 823 035a 01A8     		add	r0, sp, #4
 824 035c FFF7FEFF 		bl	sprintf
 825              	.LVL88:
  85:Src/cmd.c     ****         }
 826              		.loc 1 85 13 discriminator 4 view .LVU136
 827 0360 FA23     		movs	r3, #250
 828 0362 82B2     		uxth	r2, r0
 829 0364 9B00     		lsls	r3, r3, #2
 830 0366 01A9     		add	r1, sp, #4
 831 0368 0648     		ldr	r0, .L40+12
 832              	.LVL89:
  85:Src/cmd.c     ****         }
 833              		.loc 1 85 13 is_stmt 0 discriminator 4 view .LVU137
 834 036a FFF7FEFF 		bl	HAL_UART_Transmit
 835              	.LVL90:
 836              	.LBE21:
  85:Src/cmd.c     ****         }
 837              		.loc 1 85 80 is_stmt 1 discriminator 4 view .LVU138
  82:Src/cmd.c     ****         {
 838              		.loc 1 82 32 discriminator 4 view .LVU139
  82:Src/cmd.c     ****         {
 839              		.loc 1 82 33 is_stmt 0 discriminator 4 view .LVU140
 840 036e 0134     		adds	r4, r4, #1
 841              	.LVL91:
  82:Src/cmd.c     ****         {
 842              		.loc 1 82 33 discriminator 4 view .LVU141
 843 0370 DDE7     		b	.L23
 844              	.L33:
  84:Src/cmd.c     ****             SERIAL_WRITE("\tADC_OFFSET%i_REG:\t0x%04x\n", i, ADC_SPI_READ_24());
 845              		.loc 1 84 13 view .LVU142
 846 0372 0021     		movs	r1, #0
 847 0374 E2E7     		b	.L24
 848              	.L41:
 849 0376 C046     		.align	2
 850              	.L40:
 851 0378 00000000 		.word	State
 852 037c 00000000 		.word	.L5
 853 0380 B0020000 		.word	.LC80
 854 0384 00000000 		.word	huart2
 855 0388 6F6B0A00 		.word	682863
 856 038c 00000000 		.word	.LC3
 857 0390 00000000 		.word	hspi2
 858 0394 08000000 		.word	.LC6
 859 0398 18000000 		.word	.LC8
 860 039c 34000000 		.word	.LC10
 861 03a0 4C000000 		.word	.LC12
 862 03a4 68000000 		.word	.LC14
 863 03a8 84000000 		.word	.LC16
 864 03ac 9C000000 		.word	.LC18
 865 03b0 B4000000 		.word	.LC20
 866 03b4 CC000000 		.word	.LC22
 867 03b8 E4000000 		.word	.LC24
 868 03bc 04010000 		.word	.LC26
 869 03c0 20010000 		.word	.LC28
 870              	.L37:
 871              	.LBE20:
ARM GAS  C:\Users\matil\AppData\Local\Temp\ccSoTFQW.s 			page 24


 872              	.LBB22:
  87:Src/cmd.c     ****         {
 873              		.loc 1 87 18 view .LVU143
 874 03c4 0024     		movs	r4, #0
 875              	.LVL92:
 876              	.L26:
  87:Src/cmd.c     ****         {
 877              		.loc 1 87 25 is_stmt 1 discriminator 2 view .LVU144
  87:Src/cmd.c     ****         {
 878              		.loc 1 87 9 is_stmt 0 discriminator 2 view .LVU145
 879 03c6 062C     		cmp	r4, #6
 880 03c8 21DC     		bgt	.L38
  89:Src/cmd.c     ****             SERIAL_WRITE("\tADC_GAIN%i_REG:\t\t0x%04x\n", i, ADC_SPI_READ_24());
 881              		.loc 1 89 13 is_stmt 1 view .LVU146
 882 03ca 072C     		cmp	r4, #7
 883 03cc 1DD8     		bhi	.L34
  89:Src/cmd.c     ****             SERIAL_WRITE("\tADC_GAIN%i_REG:\t\t0x%04x\n", i, ADC_SPI_READ_24());
 884              		.loc 1 89 31 is_stmt 0 discriminator 1 view .LVU147
 885 03ce 2100     		movs	r1, r4
 886 03d0 3831     		adds	r1, r1, #56
  89:Src/cmd.c     ****             SERIAL_WRITE("\tADC_GAIN%i_REG:\t\t0x%04x\n", i, ADC_SPI_READ_24());
 887              		.loc 1 89 13 discriminator 1 view .LVU148
 888 03d2 C9B2     		uxtb	r1, r1
 889              	.L27:
  89:Src/cmd.c     ****             SERIAL_WRITE("\tADC_GAIN%i_REG:\t\t0x%04x\n", i, ADC_SPI_READ_24());
 890              		.loc 1 89 13 discriminator 4 view .LVU149
 891 03d4 4020     		movs	r0, #64
 892 03d6 FFF7FEFF 		bl	ADC_CMD
 893              	.LVL93:
 894              	.LBB23:
  90:Src/cmd.c     ****         }
 895              		.loc 1 90 13 is_stmt 1 discriminator 4 view .LVU150
 896 03da 0023     		movs	r3, #0
 897 03dc 0193     		str	r3, [sp, #4]
 898 03de 6022     		movs	r2, #96
 899 03e0 0021     		movs	r1, #0
 900 03e2 02A8     		add	r0, sp, #8
 901 03e4 FFF7FEFF 		bl	memset
 902              	.LVL94:
  90:Src/cmd.c     ****         }
 903              		.loc 1 90 13 discriminator 4 view .LVU151
 904 03e8 FFF7FEFF 		bl	ADC_SPI_READ_24
 905              	.LVL95:
 906 03ec 0300     		movs	r3, r0
 907 03ee 2200     		movs	r2, r4
 908 03f0 5F49     		ldr	r1, .L42
 909 03f2 01A8     		add	r0, sp, #4
 910 03f4 FFF7FEFF 		bl	sprintf
 911              	.LVL96:
  90:Src/cmd.c     ****         }
 912              		.loc 1 90 13 discriminator 4 view .LVU152
 913 03f8 FA23     		movs	r3, #250
 914 03fa 82B2     		uxth	r2, r0
 915 03fc 9B00     		lsls	r3, r3, #2
 916 03fe 01A9     		add	r1, sp, #4
 917 0400 5C48     		ldr	r0, .L42+4
 918              	.LVL97:
ARM GAS  C:\Users\matil\AppData\Local\Temp\ccSoTFQW.s 			page 25


  90:Src/cmd.c     ****         }
 919              		.loc 1 90 13 is_stmt 0 discriminator 4 view .LVU153
 920 0402 FFF7FEFF 		bl	HAL_UART_Transmit
 921              	.LVL98:
 922              	.LBE23:
  90:Src/cmd.c     ****         }
 923              		.loc 1 90 80 is_stmt 1 discriminator 4 view .LVU154
  87:Src/cmd.c     ****         {
 924              		.loc 1 87 32 discriminator 4 view .LVU155
  87:Src/cmd.c     ****         {
 925              		.loc 1 87 33 is_stmt 0 discriminator 4 view .LVU156
 926 0406 0134     		adds	r4, r4, #1
 927              	.LVL99:
  87:Src/cmd.c     ****         {
 928              		.loc 1 87 33 discriminator 4 view .LVU157
 929 0408 DDE7     		b	.L26
 930              	.L34:
  89:Src/cmd.c     ****             SERIAL_WRITE("\tADC_GAIN%i_REG:\t\t0x%04x\n", i, ADC_SPI_READ_24());
 931              		.loc 1 89 13 view .LVU158
 932 040a 0021     		movs	r1, #0
 933 040c E2E7     		b	.L27
 934              	.L38:
 935              	.LBE22:
  92:Src/cmd.c     ****         HAL_SPI_MspDeInit(&hspi2);
 936              		.loc 1 92 9 is_stmt 1 view .LVU159
  92:Src/cmd.c     ****         HAL_SPI_MspDeInit(&hspi2);
 937              		.loc 1 92 19 is_stmt 0 view .LVU160
 938 040e 5A4B     		ldr	r3, .L42+8
 939 0410 0022     		movs	r2, #0
 940 0412 5A72     		strb	r2, [r3, #9]
  93:Src/cmd.c     ****         ADC_DATA_READY_EXTI_Init();
 941              		.loc 1 93 9 is_stmt 1 view .LVU161
 942 0414 5948     		ldr	r0, .L42+12
 943 0416 FFF7FEFF 		bl	HAL_SPI_MspDeInit
 944              	.LVL100:
  94:Src/cmd.c     ****         break;
 945              		.loc 1 94 9 view .LVU162
 946 041a FFF7FEFF 		bl	ADC_DATA_READY_EXTI_Init
 947              	.LVL101:
  95:Src/cmd.c     ****     }
 948              		.loc 1 95 9 view .LVU163
 949 041e 57E6     		b	.L1
 950              	.LVL102:
 951              	.L30:
  15:Src/cmd.c     ****     {
 952              		.loc 1 15 5 is_stmt 0 view .LVU164
 953 0420 0024     		movs	r4, #0
 954              	.L8:
 955              	.LVL103:
 956              	.LBB24:
  99:Src/cmd.c     ****         {
 957              		.loc 1 99 25 is_stmt 1 discriminator 1 view .LVU165
  99:Src/cmd.c     ****         {
 958              		.loc 1 99 9 is_stmt 0 discriminator 1 view .LVU166
 959 0422 0F2C     		cmp	r4, #15
 960 0424 4EDC     		bgt	.L39
 961              	.LBB25:
ARM GAS  C:\Users\matil\AppData\Local\Temp\ccSoTFQW.s 			page 26


 101:Src/cmd.c     ****             SERIAL_WRITE("[%i]\t", i);
 962              		.loc 1 101 13 is_stmt 1 discriminator 3 view .LVU167
 101:Src/cmd.c     ****             SERIAL_WRITE("[%i]\t", i);
 963              		.loc 1 101 63 is_stmt 0 discriminator 3 view .LVU168
 964 0426 2500     		movs	r5, r4
 965 0428 1235     		adds	r5, r5, #18
 966 042a AD00     		lsls	r5, r5, #2
 967 042c 524B     		ldr	r3, .L42+8
 968 042e 5D19     		adds	r5, r3, r5
 101:Src/cmd.c     ****             SERIAL_WRITE("[%i]\t", i);
 969              		.loc 1 101 37 discriminator 3 view .LVU169
 970 0430 0023     		movs	r3, #0
 971 0432 9846     		mov	r8, r3
 101:Src/cmd.c     ****             SERIAL_WRITE("[%i]\t", i);
 972              		.loc 1 101 67 discriminator 3 view .LVU170
 973 0434 524A     		ldr	r2, .L42+16
 974 0436 0023     		movs	r3, #0
 975 0438 6868     		ldr	r0, [r5, #4]
 976 043a 0021     		movs	r1, #0
 977 043c FFF7FEFF 		bl	__aeabi_lmul
 978              	.LVL104:
 101:Src/cmd.c     ****             SERIAL_WRITE("[%i]\t", i);
 979              		.loc 1 101 22 discriminator 3 view .LVU171
 980 0440 504A     		ldr	r2, .L42+20
 981 0442 0023     		movs	r3, #0
 982 0444 FFF7FEFF 		bl	__aeabi_uldivmod
 983              	.LVL105:
 984 0448 8246     		mov	r10, r0
 985 044a 8946     		mov	r9, r1
 986              	.LVL106:
 987              	.LBB26:
 102:Src/cmd.c     ****             SERIAL_WRITE("%10i uV\t\t", voltage_uV);
 988              		.loc 1 102 13 is_stmt 1 discriminator 3 view .LVU172
 989 044c 4346     		mov	r3, r8
 990 044e 0193     		str	r3, [sp, #4]
 991 0450 6022     		movs	r2, #96
 992 0452 0021     		movs	r1, #0
 993              	.LVL107:
 102:Src/cmd.c     ****             SERIAL_WRITE("%10i uV\t\t", voltage_uV);
 994              		.loc 1 102 13 is_stmt 0 discriminator 3 view .LVU173
 995 0454 02A8     		add	r0, sp, #8
 996              	.LVL108:
 102:Src/cmd.c     ****             SERIAL_WRITE("%10i uV\t\t", voltage_uV);
 997              		.loc 1 102 13 discriminator 3 view .LVU174
 998 0456 FFF7FEFF 		bl	memset
 999              	.LVL109:
 102:Src/cmd.c     ****             SERIAL_WRITE("%10i uV\t\t", voltage_uV);
 1000              		.loc 1 102 13 is_stmt 1 discriminator 3 view .LVU175
 1001 045a 2200     		movs	r2, r4
 1002 045c 4A49     		ldr	r1, .L42+24
 1003 045e 01A8     		add	r0, sp, #4
 1004 0460 FFF7FEFF 		bl	sprintf
 1005              	.LVL110:
 102:Src/cmd.c     ****             SERIAL_WRITE("%10i uV\t\t", voltage_uV);
 1006              		.loc 1 102 13 discriminator 3 view .LVU176
 1007 0464 FA27     		movs	r7, #250
 1008 0466 BF00     		lsls	r7, r7, #2
ARM GAS  C:\Users\matil\AppData\Local\Temp\ccSoTFQW.s 			page 27


 1009 0468 82B2     		uxth	r2, r0
 1010 046a 424E     		ldr	r6, .L42+4
 1011 046c 3B00     		movs	r3, r7
 1012 046e 01A9     		add	r1, sp, #4
 1013 0470 3000     		movs	r0, r6
 1014              	.LVL111:
 102:Src/cmd.c     ****             SERIAL_WRITE("%10i uV\t\t", voltage_uV);
 1015              		.loc 1 102 13 is_stmt 0 discriminator 3 view .LVU177
 1016 0472 FFF7FEFF 		bl	HAL_UART_Transmit
 1017              	.LVL112:
 1018              	.LBE26:
 102:Src/cmd.c     ****             SERIAL_WRITE("%10i uV\t\t", voltage_uV);
 1019              		.loc 1 102 38 is_stmt 1 discriminator 3 view .LVU178
 1020              	.LBB27:
 103:Src/cmd.c     ****             SERIAL_WRITE("0x%06x\n", State.ADC_Values[i]);
 1021              		.loc 1 103 13 discriminator 3 view .LVU179
 1022 0476 4346     		mov	r3, r8
 1023 0478 0193     		str	r3, [sp, #4]
 1024 047a 6022     		movs	r2, #96
 1025 047c 0021     		movs	r1, #0
 1026 047e 02A8     		add	r0, sp, #8
 1027 0480 FFF7FEFF 		bl	memset
 1028              	.LVL113:
 103:Src/cmd.c     ****             SERIAL_WRITE("0x%06x\n", State.ADC_Values[i]);
 1029              		.loc 1 103 13 discriminator 3 view .LVU180
 1030 0484 5246     		mov	r2, r10
 1031 0486 4B46     		mov	r3, r9
 1032 0488 4049     		ldr	r1, .L42+28
 1033 048a 01A8     		add	r0, sp, #4
 1034 048c FFF7FEFF 		bl	sprintf
 1035              	.LVL114:
 103:Src/cmd.c     ****             SERIAL_WRITE("0x%06x\n", State.ADC_Values[i]);
 1036              		.loc 1 103 13 discriminator 3 view .LVU181
 1037 0490 3B00     		movs	r3, r7
 1038 0492 0F22     		movs	r2, #15
 1039 0494 01A9     		add	r1, sp, #4
 1040 0496 3000     		movs	r0, r6
 1041 0498 FFF7FEFF 		bl	HAL_UART_Transmit
 1042              	.LVL115:
 1043              	.LBE27:
 103:Src/cmd.c     ****             SERIAL_WRITE("0x%06x\n", State.ADC_Values[i]);
 1044              		.loc 1 103 52 discriminator 3 view .LVU182
 1045              	.LBB28:
 104:Src/cmd.c     ****         }
 1046              		.loc 1 104 13 discriminator 3 view .LVU183
 1047 049c 4346     		mov	r3, r8
 1048 049e 0193     		str	r3, [sp, #4]
 1049 04a0 6022     		movs	r2, #96
 1050 04a2 0021     		movs	r1, #0
 1051 04a4 02A8     		add	r0, sp, #8
 1052 04a6 FFF7FEFF 		bl	memset
 1053              	.LVL116:
 104:Src/cmd.c     ****         }
 1054              		.loc 1 104 13 discriminator 3 view .LVU184
 1055 04aa 6A68     		ldr	r2, [r5, #4]
 1056 04ac 3849     		ldr	r1, .L42+32
 1057 04ae 01A8     		add	r0, sp, #4
ARM GAS  C:\Users\matil\AppData\Local\Temp\ccSoTFQW.s 			page 28


 1058 04b0 FFF7FEFF 		bl	sprintf
 1059              	.LVL117:
 104:Src/cmd.c     ****         }
 1060              		.loc 1 104 13 discriminator 3 view .LVU185
 1061 04b4 82B2     		uxth	r2, r0
 1062 04b6 3B00     		movs	r3, r7
 1063 04b8 01A9     		add	r1, sp, #4
 1064 04ba 3000     		movs	r0, r6
 1065              	.LVL118:
 104:Src/cmd.c     ****         }
 1066              		.loc 1 104 13 is_stmt 0 discriminator 3 view .LVU186
 1067 04bc FFF7FEFF 		bl	HAL_UART_Transmit
 1068              	.LVL119:
 1069              	.LBE28:
 104:Src/cmd.c     ****         }
 1070              		.loc 1 104 58 is_stmt 1 discriminator 3 view .LVU187
 1071              	.LBE25:
  99:Src/cmd.c     ****         {
 1072              		.loc 1 99 33 discriminator 3 view .LVU188
  99:Src/cmd.c     ****         {
 1073              		.loc 1 99 34 is_stmt 0 discriminator 3 view .LVU189
 1074 04c0 0134     		adds	r4, r4, #1
 1075              	.LVL120:
  99:Src/cmd.c     ****         {
 1076              		.loc 1 99 34 discriminator 3 view .LVU190
 1077 04c2 AEE7     		b	.L8
 1078              	.LVL121:
 1079              	.L39:
  99:Src/cmd.c     ****         {
 1080              		.loc 1 99 34 discriminator 3 view .LVU191
 1081              	.LBE24:
 106:Src/cmd.c     ****         break;
 1082              		.loc 1 106 9 is_stmt 1 view .LVU192
 106:Src/cmd.c     ****         break;
 1083              		.loc 1 106 19 is_stmt 0 view .LVU193
 1084 04c4 2C4B     		ldr	r3, .L42+8
 1085 04c6 0022     		movs	r2, #0
 1086 04c8 5A72     		strb	r2, [r3, #9]
 107:Src/cmd.c     ****     }
 1087              		.loc 1 107 9 is_stmt 1 view .LVU194
 1088 04ca 01E6     		b	.L1
 1089              	.LVL122:
 1090              	.L7:
 1091              	.LBB29:
 111:Src/cmd.c     ****         SERIAL_WRITE("%03u *C\n", (Temperature() / 1000) % 1000); //-66.875 to +52.443 C
 1092              		.loc 1 111 9 view .LVU195
 1093 04cc 0024     		movs	r4, #0
 1094 04ce 0194     		str	r4, [sp, #4]
 1095 04d0 6022     		movs	r2, #96
 1096 04d2 0021     		movs	r1, #0
 1097 04d4 02A8     		add	r0, sp, #8
 1098 04d6 FFF7FEFF 		bl	memset
 1099              	.LVL123:
 111:Src/cmd.c     ****         SERIAL_WRITE("%03u *C\n", (Temperature() / 1000) % 1000); //-66.875 to +52.443 C
 1100              		.loc 1 111 9 view .LVU196
 1101 04da FFF7FEFF 		bl	Temperature
 1102              	.LVL124:
ARM GAS  C:\Users\matil\AppData\Local\Temp\ccSoTFQW.s 			page 29


 1103 04de 2D4A     		ldr	r2, .L42+36
 1104 04e0 0023     		movs	r3, #0
 1105 04e2 FFF7FEFF 		bl	__aeabi_ldivmod
 1106              	.LVL125:
 1107 04e6 0200     		movs	r2, r0
 1108 04e8 0B00     		movs	r3, r1
 1109 04ea 2B49     		ldr	r1, .L42+40
 1110 04ec 01A8     		add	r0, sp, #4
 1111 04ee FFF7FEFF 		bl	sprintf
 1112              	.LVL126:
 111:Src/cmd.c     ****         SERIAL_WRITE("%03u *C\n", (Temperature() / 1000) % 1000); //-66.875 to +52.443 C
 1113              		.loc 1 111 9 view .LVU197
 1114 04f2 FA26     		movs	r6, #250
 1115 04f4 B600     		lsls	r6, r6, #2
 1116 04f6 82B2     		uxth	r2, r0
 1117 04f8 1E4D     		ldr	r5, .L42+4
 1118 04fa 3300     		movs	r3, r6
 1119 04fc 01A9     		add	r1, sp, #4
 1120 04fe 2800     		movs	r0, r5
 1121              	.LVL127:
 111:Src/cmd.c     ****         SERIAL_WRITE("%03u *C\n", (Temperature() / 1000) % 1000); //-66.875 to +52.443 C
 1122              		.loc 1 111 9 is_stmt 0 view .LVU198
 1123 0500 FFF7FEFF 		bl	HAL_UART_Transmit
 1124              	.LVL128:
 1125              	.LBE29:
 111:Src/cmd.c     ****         SERIAL_WRITE("%03u *C\n", (Temperature() / 1000) % 1000); //-66.875 to +52.443 C
 1126              		.loc 1 111 53 is_stmt 1 view .LVU199
 1127              	.LBB30:
 112:Src/cmd.c     ****         State.cmd = 0;
 1128              		.loc 1 112 9 view .LVU200
 1129 0504 0194     		str	r4, [sp, #4]
 1130 0506 6022     		movs	r2, #96
 1131 0508 0021     		movs	r1, #0
 1132 050a 02A8     		add	r0, sp, #8
 1133 050c FFF7FEFF 		bl	memset
 1134              	.LVL129:
 112:Src/cmd.c     ****         State.cmd = 0;
 1135              		.loc 1 112 9 view .LVU201
 1136 0510 FFF7FEFF 		bl	Temperature
 1137              	.LVL130:
 1138 0514 FA22     		movs	r2, #250
 1139 0516 9200     		lsls	r2, r2, #2
 1140 0518 0023     		movs	r3, #0
 1141 051a FFF7FEFF 		bl	__aeabi_ldivmod
 1142              	.LVL131:
 1143 051e FA22     		movs	r2, #250
 1144 0520 9200     		lsls	r2, r2, #2
 1145 0522 0023     		movs	r3, #0
 1146 0524 FFF7FEFF 		bl	__aeabi_ldivmod
 1147              	.LVL132:
 1148 0528 1C49     		ldr	r1, .L42+44
 1149 052a 01A8     		add	r0, sp, #4
 1150 052c FFF7FEFF 		bl	sprintf
 1151              	.LVL133:
 112:Src/cmd.c     ****         State.cmd = 0;
 1152              		.loc 1 112 9 view .LVU202
 1153 0530 82B2     		uxth	r2, r0
ARM GAS  C:\Users\matil\AppData\Local\Temp\ccSoTFQW.s 			page 30


 1154 0532 3300     		movs	r3, r6
 1155 0534 01A9     		add	r1, sp, #4
 1156 0536 2800     		movs	r0, r5
 1157              	.LVL134:
 112:Src/cmd.c     ****         State.cmd = 0;
 1158              		.loc 1 112 9 is_stmt 0 view .LVU203
 1159 0538 FFF7FEFF 		bl	HAL_UART_Transmit
 1160              	.LVL135:
 1161              	.LBE30:
 112:Src/cmd.c     ****         State.cmd = 0;
 1162              		.loc 1 112 65 is_stmt 1 view .LVU204
 113:Src/cmd.c     ****         break;
 1163              		.loc 1 113 9 view .LVU205
 113:Src/cmd.c     ****         break;
 1164              		.loc 1 113 19 is_stmt 0 view .LVU206
 1165 053c 0E4B     		ldr	r3, .L42+8
 1166 053e 5C72     		strb	r4, [r3, #9]
 114:Src/cmd.c     ****     }
 1167              		.loc 1 114 9 is_stmt 1 view .LVU207
 1168 0540 C6E5     		b	.L1
 1169              	.L6:
 1170              	.LBB31:
 118:Src/cmd.c     ****         DAC_test();
 1171              		.loc 1 118 9 view .LVU208
 1172 0542 01AD     		add	r5, sp, #4
 1173 0544 0024     		movs	r4, #0
 1174 0546 0194     		str	r4, [sp, #4]
 1175 0548 6022     		movs	r2, #96
 1176 054a 0021     		movs	r1, #0
 1177 054c 02A8     		add	r0, sp, #8
 1178 054e FFF7FEFF 		bl	memset
 1179              	.LVL136:
 118:Src/cmd.c     ****         DAC_test();
 1180              		.loc 1 118 9 view .LVU209
 1181 0552 0A23     		movs	r3, #10
 1182 0554 2B80     		strh	r3, [r5]
 1183              	.LVL137:
 118:Src/cmd.c     ****         DAC_test();
 1184              		.loc 1 118 9 view .LVU210
 1185 0556 F033     		adds	r3, r3, #240
 1186 0558 9B00     		lsls	r3, r3, #2
 1187 055a 0122     		movs	r2, #1
 1188 055c 2900     		movs	r1, r5
 1189 055e 0548     		ldr	r0, .L42+4
 1190 0560 FFF7FEFF 		bl	HAL_UART_Transmit
 1191              	.LVL138:
 1192              	.LBE31:
 118:Src/cmd.c     ****         DAC_test();
 1193              		.loc 1 118 27 view .LVU211
 119:Src/cmd.c     ****         State.cmd = 0;
 1194              		.loc 1 119 9 view .LVU212
 1195 0564 FFF7FEFF 		bl	DAC_test
 1196              	.LVL139:
 120:Src/cmd.c     ****         break;
 1197              		.loc 1 120 9 view .LVU213
 120:Src/cmd.c     ****         break;
 1198              		.loc 1 120 19 is_stmt 0 view .LVU214
ARM GAS  C:\Users\matil\AppData\Local\Temp\ccSoTFQW.s 			page 31


 1199 0568 034B     		ldr	r3, .L42+8
 1200 056a 5C72     		strb	r4, [r3, #9]
 121:Src/cmd.c     ****     }
 1201              		.loc 1 121 9 is_stmt 1 view .LVU215
 1202 056c B0E5     		b	.L1
 1203              	.L43:
 1204 056e C046     		.align	2
 1205              	.L42:
 1206 0570 3C010000 		.word	.LC30
 1207 0574 00000000 		.word	huart2
 1208 0578 00000000 		.word	State
 1209 057c 00000000 		.word	hspi2
 1210 0580 40771B00 		.word	1800000
 1211 0584 FFFFFF00 		.word	16777215
 1212 0588 58010000 		.word	.LC32
 1213 058c 60010000 		.word	.LC34
 1214 0590 00000000 		.word	.LC3
 1215 0594 40420F00 		.word	1000000
 1216 0598 6C010000 		.word	.LC36
 1217 059c 70010000 		.word	.LC38
 1218              	.LVL140:
 1219              	.L4:
 1220              	.LBB32:
 125:Src/cmd.c     ****         SERIAL_WRITE("PD0 Phase:\t\t");
 1221              		.loc 1 125 9 view .LVU216
 1222 05a0 01AC     		add	r4, sp, #4
 1223 05a2 0023     		movs	r3, #0
 1224 05a4 9B46     		mov	fp, r3
 1225 05a6 6022     		movs	r2, #96
 1226 05a8 0021     		movs	r1, #0
 1227 05aa 02A8     		add	r0, sp, #8
 1228 05ac FFF7FEFF 		bl	memset
 1229              	.LVL141:
 125:Src/cmd.c     ****         SERIAL_WRITE("PD0 Phase:\t\t");
 1230              		.loc 1 125 9 view .LVU217
 1231 05b0 FD4B     		ldr	r3, .L44
 1232 05b2 1A68     		ldr	r2, [r3]
 1233 05b4 0192     		str	r2, [sp, #4]
 1234 05b6 9B88     		ldrh	r3, [r3, #4]
 1235 05b8 A380     		strh	r3, [r4, #4]
 1236              	.LVL142:
 125:Src/cmd.c     ****         SERIAL_WRITE("PD0 Phase:\t\t");
 1237              		.loc 1 125 9 view .LVU218
 1238 05ba FA25     		movs	r5, #250
 1239 05bc AD00     		lsls	r5, r5, #2
 1240 05be FB4E     		ldr	r6, .L44+4
 1241 05c0 2B00     		movs	r3, r5
 1242 05c2 0522     		movs	r2, #5
 1243 05c4 2100     		movs	r1, r4
 1244 05c6 3000     		movs	r0, r6
 1245 05c8 FFF7FEFF 		bl	HAL_UART_Transmit
 1246              	.LVL143:
 1247              	.LBE32:
 1248              	.LBB33:
 126:Src/cmd.c     ****         SERIAL_WRITE("%3i.", Phase(ADC_PD0_Phase_CH) / 1000);
 1249              		.loc 1 126 9 view .LVU219
 1250 05cc 6022     		movs	r2, #96
ARM GAS  C:\Users\matil\AppData\Local\Temp\ccSoTFQW.s 			page 32


 1251 05ce 0021     		movs	r1, #0
 1252 05d0 02A8     		add	r0, sp, #8
 1253 05d2 FFF7FEFF 		bl	memset
 1254              	.LVL144:
 126:Src/cmd.c     ****         SERIAL_WRITE("%3i.", Phase(ADC_PD0_Phase_CH) / 1000);
 1255              		.loc 1 126 9 view .LVU220
 1256 05d6 F64B     		ldr	r3, .L44+8
 1257 05d8 2200     		movs	r2, r4
 1258 05da 83CB     		ldmia	r3!, {r0, r1, r7}
 1259 05dc 83C2     		stmia	r2!, {r0, r1, r7}
 1260 05de 1B78     		ldrb	r3, [r3]
 1261 05e0 1370     		strb	r3, [r2]
 1262              	.LVL145:
 126:Src/cmd.c     ****         SERIAL_WRITE("%3i.", Phase(ADC_PD0_Phase_CH) / 1000);
 1263              		.loc 1 126 9 view .LVU221
 1264 05e2 2B00     		movs	r3, r5
 1265 05e4 0C22     		movs	r2, #12
 1266 05e6 2100     		movs	r1, r4
 1267 05e8 3000     		movs	r0, r6
 1268 05ea FFF7FEFF 		bl	HAL_UART_Transmit
 1269              	.LVL146:
 1270              	.LBE33:
 126:Src/cmd.c     ****         SERIAL_WRITE("%3i.", Phase(ADC_PD0_Phase_CH) / 1000);
 1271              		.loc 1 126 39 view .LVU222
 1272              	.LBB34:
 127:Src/cmd.c     ****         SERIAL_WRITE("%03lu deg\t\t\n", Phase(ADC_PD0_Phase_CH) % 1000);
 1273              		.loc 1 127 9 view .LVU223
 1274 05ee 5B46     		mov	r3, fp
 1275 05f0 0193     		str	r3, [sp, #4]
 1276 05f2 6022     		movs	r2, #96
 1277 05f4 0021     		movs	r1, #0
 1278 05f6 02A8     		add	r0, sp, #8
 1279 05f8 FFF7FEFF 		bl	memset
 1280              	.LVL147:
 127:Src/cmd.c     ****         SERIAL_WRITE("%03lu deg\t\t\n", Phase(ADC_PD0_Phase_CH) % 1000);
 1281              		.loc 1 127 9 view .LVU224
 1282 05fc 0B20     		movs	r0, #11
 1283 05fe FFF7FEFF 		bl	Phase
 1284              	.LVL148:
 1285 0602 FA22     		movs	r2, #250
 1286 0604 9200     		lsls	r2, r2, #2
 1287 0606 0023     		movs	r3, #0
 1288 0608 FFF7FEFF 		bl	__aeabi_uldivmod
 1289              	.LVL149:
 1290 060c 0200     		movs	r2, r0
 1291 060e 0B00     		movs	r3, r1
 1292 0610 E849     		ldr	r1, .L44+12
 1293 0612 8A46     		mov	r10, r1
 1294 0614 2000     		movs	r0, r4
 1295 0616 FFF7FEFF 		bl	sprintf
 1296              	.LVL150:
 127:Src/cmd.c     ****         SERIAL_WRITE("%03lu deg\t\t\n", Phase(ADC_PD0_Phase_CH) % 1000);
 1297              		.loc 1 127 9 view .LVU225
 1298 061a 82B2     		uxth	r2, r0
 1299 061c 2B00     		movs	r3, r5
 1300 061e 2100     		movs	r1, r4
 1301 0620 3000     		movs	r0, r6
ARM GAS  C:\Users\matil\AppData\Local\Temp\ccSoTFQW.s 			page 33


 1302              	.LVL151:
 127:Src/cmd.c     ****         SERIAL_WRITE("%03lu deg\t\t\n", Phase(ADC_PD0_Phase_CH) % 1000);
 1303              		.loc 1 127 9 is_stmt 0 view .LVU226
 1304 0622 FFF7FEFF 		bl	HAL_UART_Transmit
 1305              	.LVL152:
 1306              	.LBE34:
 127:Src/cmd.c     ****         SERIAL_WRITE("%03lu deg\t\t\n", Phase(ADC_PD0_Phase_CH) % 1000);
 1307              		.loc 1 127 61 is_stmt 1 view .LVU227
 1308              	.LBB35:
 128:Src/cmd.c     **** 
 1309              		.loc 1 128 9 view .LVU228
 1310 0626 5B46     		mov	r3, fp
 1311 0628 0193     		str	r3, [sp, #4]
 1312 062a 6022     		movs	r2, #96
 1313 062c 0021     		movs	r1, #0
 1314 062e 02A8     		add	r0, sp, #8
 1315 0630 FFF7FEFF 		bl	memset
 1316              	.LVL153:
 128:Src/cmd.c     **** 
 1317              		.loc 1 128 9 view .LVU229
 1318 0634 0B20     		movs	r0, #11
 1319 0636 FFF7FEFF 		bl	Phase
 1320              	.LVL154:
 1321 063a FA22     		movs	r2, #250
 1322 063c 9200     		lsls	r2, r2, #2
 1323 063e 0023     		movs	r3, #0
 1324 0640 FFF7FEFF 		bl	__aeabi_uldivmod
 1325              	.LVL155:
 1326 0644 DC49     		ldr	r1, .L44+16
 1327 0646 8946     		mov	r9, r1
 1328 0648 2000     		movs	r0, r4
 1329 064a FFF7FEFF 		bl	sprintf
 1330              	.LVL156:
 128:Src/cmd.c     **** 
 1331              		.loc 1 128 9 view .LVU230
 1332 064e 2B00     		movs	r3, r5
 1333 0650 0A22     		movs	r2, #10
 1334 0652 2100     		movs	r1, r4
 1335 0654 3000     		movs	r0, r6
 1336 0656 FFF7FEFF 		bl	HAL_UART_Transmit
 1337              	.LVL157:
 1338              	.LBE35:
 128:Src/cmd.c     **** 
 1339              		.loc 1 128 72 view .LVU231
 1340              	.LBB36:
 130:Src/cmd.c     ****         SERIAL_WRITE("%3i.", Phase(ADC_PD1_Phase_CH) / 1000);
 1341              		.loc 1 130 9 view .LVU232
 1342 065a 6022     		movs	r2, #96
 1343 065c 0021     		movs	r1, #0
 1344 065e 02A8     		add	r0, sp, #8
 1345 0660 FFF7FEFF 		bl	memset
 1346              	.LVL158:
 130:Src/cmd.c     ****         SERIAL_WRITE("%3i.", Phase(ADC_PD1_Phase_CH) / 1000);
 1347              		.loc 1 130 9 view .LVU233
 1348 0664 D54B     		ldr	r3, .L44+20
 1349 0666 2200     		movs	r2, r4
 1350 0668 83CB     		ldmia	r3!, {r0, r1, r7}
ARM GAS  C:\Users\matil\AppData\Local\Temp\ccSoTFQW.s 			page 34


 1351 066a 83C2     		stmia	r2!, {r0, r1, r7}
 1352 066c 1B78     		ldrb	r3, [r3]
 1353 066e 1370     		strb	r3, [r2]
 1354              	.LVL159:
 130:Src/cmd.c     ****         SERIAL_WRITE("%3i.", Phase(ADC_PD1_Phase_CH) / 1000);
 1355              		.loc 1 130 9 view .LVU234
 1356 0670 2B00     		movs	r3, r5
 1357 0672 0C22     		movs	r2, #12
 1358 0674 2100     		movs	r1, r4
 1359 0676 3000     		movs	r0, r6
 1360 0678 FFF7FEFF 		bl	HAL_UART_Transmit
 1361              	.LVL160:
 1362              	.LBE36:
 130:Src/cmd.c     ****         SERIAL_WRITE("%3i.", Phase(ADC_PD1_Phase_CH) / 1000);
 1363              		.loc 1 130 39 view .LVU235
 1364              	.LBB37:
 131:Src/cmd.c     ****         SERIAL_WRITE("%03lu deg\t\t\n", Phase(ADC_PD1_Phase_CH) % 1000);
 1365              		.loc 1 131 9 view .LVU236
 1366 067c 5B46     		mov	r3, fp
 1367 067e 0193     		str	r3, [sp, #4]
 1368 0680 6022     		movs	r2, #96
 1369 0682 0021     		movs	r1, #0
 1370 0684 02A8     		add	r0, sp, #8
 1371 0686 FFF7FEFF 		bl	memset
 1372              	.LVL161:
 131:Src/cmd.c     ****         SERIAL_WRITE("%03lu deg\t\t\n", Phase(ADC_PD1_Phase_CH) % 1000);
 1373              		.loc 1 131 9 view .LVU237
 1374 068a 0620     		movs	r0, #6
 1375 068c FFF7FEFF 		bl	Phase
 1376              	.LVL162:
 1377 0690 FA22     		movs	r2, #250
 1378 0692 9200     		lsls	r2, r2, #2
 1379 0694 0023     		movs	r3, #0
 1380 0696 FFF7FEFF 		bl	__aeabi_uldivmod
 1381              	.LVL163:
 1382 069a 0200     		movs	r2, r0
 1383 069c 0B00     		movs	r3, r1
 1384 069e 5146     		mov	r1, r10
 1385 06a0 2000     		movs	r0, r4
 1386 06a2 FFF7FEFF 		bl	sprintf
 1387              	.LVL164:
 131:Src/cmd.c     ****         SERIAL_WRITE("%03lu deg\t\t\n", Phase(ADC_PD1_Phase_CH) % 1000);
 1388              		.loc 1 131 9 view .LVU238
 1389 06a6 82B2     		uxth	r2, r0
 1390 06a8 2B00     		movs	r3, r5
 1391 06aa 2100     		movs	r1, r4
 1392 06ac 3000     		movs	r0, r6
 1393              	.LVL165:
 131:Src/cmd.c     ****         SERIAL_WRITE("%03lu deg\t\t\n", Phase(ADC_PD1_Phase_CH) % 1000);
 1394              		.loc 1 131 9 is_stmt 0 view .LVU239
 1395 06ae FFF7FEFF 		bl	HAL_UART_Transmit
 1396              	.LVL166:
 1397              	.LBE37:
 131:Src/cmd.c     ****         SERIAL_WRITE("%03lu deg\t\t\n", Phase(ADC_PD1_Phase_CH) % 1000);
 1398              		.loc 1 131 61 is_stmt 1 view .LVU240
 1399              	.LBB38:
 132:Src/cmd.c     **** 
ARM GAS  C:\Users\matil\AppData\Local\Temp\ccSoTFQW.s 			page 35


 1400              		.loc 1 132 9 view .LVU241
 1401 06b2 5B46     		mov	r3, fp
 1402 06b4 0193     		str	r3, [sp, #4]
 1403 06b6 6022     		movs	r2, #96
 1404 06b8 0021     		movs	r1, #0
 1405 06ba 02A8     		add	r0, sp, #8
 1406 06bc FFF7FEFF 		bl	memset
 1407              	.LVL167:
 132:Src/cmd.c     **** 
 1408              		.loc 1 132 9 view .LVU242
 1409 06c0 0620     		movs	r0, #6
 1410 06c2 FFF7FEFF 		bl	Phase
 1411              	.LVL168:
 1412 06c6 FA22     		movs	r2, #250
 1413 06c8 9200     		lsls	r2, r2, #2
 1414 06ca 0023     		movs	r3, #0
 1415 06cc FFF7FEFF 		bl	__aeabi_uldivmod
 1416              	.LVL169:
 1417 06d0 4946     		mov	r1, r9
 1418 06d2 2000     		movs	r0, r4
 1419 06d4 FFF7FEFF 		bl	sprintf
 1420              	.LVL170:
 132:Src/cmd.c     **** 
 1421              		.loc 1 132 9 view .LVU243
 1422 06d8 2B00     		movs	r3, r5
 1423 06da 0A22     		movs	r2, #10
 1424 06dc 2100     		movs	r1, r4
 1425 06de 3000     		movs	r0, r6
 1426 06e0 FFF7FEFF 		bl	HAL_UART_Transmit
 1427              	.LVL171:
 1428              	.LBE38:
 132:Src/cmd.c     **** 
 1429              		.loc 1 132 72 view .LVU244
 1430              	.LBB39:
 134:Src/cmd.c     ****         SERIAL_WRITE("%3i.", Phase(ADC_PD2_Phase_CH) / 1000);
 1431              		.loc 1 134 9 view .LVU245
 1432 06e4 6022     		movs	r2, #96
 1433 06e6 0021     		movs	r1, #0
 1434 06e8 02A8     		add	r0, sp, #8
 1435 06ea FFF7FEFF 		bl	memset
 1436              	.LVL172:
 134:Src/cmd.c     ****         SERIAL_WRITE("%3i.", Phase(ADC_PD2_Phase_CH) / 1000);
 1437              		.loc 1 134 9 view .LVU246
 1438 06ee B44B     		ldr	r3, .L44+24
 1439 06f0 2200     		movs	r2, r4
 1440 06f2 83CB     		ldmia	r3!, {r0, r1, r7}
 1441 06f4 83C2     		stmia	r2!, {r0, r1, r7}
 1442 06f6 1B78     		ldrb	r3, [r3]
 1443 06f8 1370     		strb	r3, [r2]
 1444              	.LVL173:
 134:Src/cmd.c     ****         SERIAL_WRITE("%3i.", Phase(ADC_PD2_Phase_CH) / 1000);
 1445              		.loc 1 134 9 view .LVU247
 1446 06fa 2B00     		movs	r3, r5
 1447 06fc 0C22     		movs	r2, #12
 1448 06fe 2100     		movs	r1, r4
 1449 0700 3000     		movs	r0, r6
 1450 0702 FFF7FEFF 		bl	HAL_UART_Transmit
ARM GAS  C:\Users\matil\AppData\Local\Temp\ccSoTFQW.s 			page 36


 1451              	.LVL174:
 1452              	.LBE39:
 134:Src/cmd.c     ****         SERIAL_WRITE("%3i.", Phase(ADC_PD2_Phase_CH) / 1000);
 1453              		.loc 1 134 39 view .LVU248
 1454              	.LBB40:
 135:Src/cmd.c     ****         SERIAL_WRITE("%03lu deg\t\t\n", Phase(ADC_PD2_Phase_CH) % 1000);
 1455              		.loc 1 135 9 view .LVU249
 1456 0706 5B46     		mov	r3, fp
 1457 0708 0193     		str	r3, [sp, #4]
 1458 070a 6022     		movs	r2, #96
 1459 070c 0021     		movs	r1, #0
 1460 070e 02A8     		add	r0, sp, #8
 1461 0710 FFF7FEFF 		bl	memset
 1462              	.LVL175:
 135:Src/cmd.c     ****         SERIAL_WRITE("%03lu deg\t\t\n", Phase(ADC_PD2_Phase_CH) % 1000);
 1463              		.loc 1 135 9 view .LVU250
 1464 0714 0020     		movs	r0, #0
 1465 0716 FFF7FEFF 		bl	Phase
 1466              	.LVL176:
 1467 071a FA22     		movs	r2, #250
 1468 071c 9200     		lsls	r2, r2, #2
 1469 071e 0023     		movs	r3, #0
 1470 0720 FFF7FEFF 		bl	__aeabi_uldivmod
 1471              	.LVL177:
 1472 0724 0200     		movs	r2, r0
 1473 0726 0B00     		movs	r3, r1
 1474 0728 5146     		mov	r1, r10
 1475 072a 2000     		movs	r0, r4
 1476 072c FFF7FEFF 		bl	sprintf
 1477              	.LVL178:
 135:Src/cmd.c     ****         SERIAL_WRITE("%03lu deg\t\t\n", Phase(ADC_PD2_Phase_CH) % 1000);
 1478              		.loc 1 135 9 view .LVU251
 1479 0730 82B2     		uxth	r2, r0
 1480 0732 2B00     		movs	r3, r5
 1481 0734 2100     		movs	r1, r4
 1482 0736 3000     		movs	r0, r6
 1483              	.LVL179:
 135:Src/cmd.c     ****         SERIAL_WRITE("%03lu deg\t\t\n", Phase(ADC_PD2_Phase_CH) % 1000);
 1484              		.loc 1 135 9 is_stmt 0 view .LVU252
 1485 0738 FFF7FEFF 		bl	HAL_UART_Transmit
 1486              	.LVL180:
 1487              	.LBE40:
 135:Src/cmd.c     ****         SERIAL_WRITE("%03lu deg\t\t\n", Phase(ADC_PD2_Phase_CH) % 1000);
 1488              		.loc 1 135 61 is_stmt 1 view .LVU253
 1489              	.LBB41:
 136:Src/cmd.c     **** 
 1490              		.loc 1 136 9 view .LVU254
 1491 073c 5B46     		mov	r3, fp
 1492 073e 0193     		str	r3, [sp, #4]
 1493 0740 6022     		movs	r2, #96
 1494 0742 0021     		movs	r1, #0
 1495 0744 02A8     		add	r0, sp, #8
 1496 0746 FFF7FEFF 		bl	memset
 1497              	.LVL181:
 136:Src/cmd.c     **** 
 1498              		.loc 1 136 9 view .LVU255
 1499 074a 0020     		movs	r0, #0
ARM GAS  C:\Users\matil\AppData\Local\Temp\ccSoTFQW.s 			page 37


 1500 074c FFF7FEFF 		bl	Phase
 1501              	.LVL182:
 1502 0750 FA22     		movs	r2, #250
 1503 0752 9200     		lsls	r2, r2, #2
 1504 0754 0023     		movs	r3, #0
 1505 0756 FFF7FEFF 		bl	__aeabi_uldivmod
 1506              	.LVL183:
 1507 075a 4946     		mov	r1, r9
 1508 075c 2000     		movs	r0, r4
 1509 075e FFF7FEFF 		bl	sprintf
 1510              	.LVL184:
 136:Src/cmd.c     **** 
 1511              		.loc 1 136 9 view .LVU256
 1512 0762 2B00     		movs	r3, r5
 1513 0764 0A22     		movs	r2, #10
 1514 0766 2100     		movs	r1, r4
 1515 0768 3000     		movs	r0, r6
 1516 076a FFF7FEFF 		bl	HAL_UART_Transmit
 1517              	.LVL185:
 1518              	.LBE41:
 136:Src/cmd.c     **** 
 1519              		.loc 1 136 72 view .LVU257
 1520              	.LBB42:
 138:Src/cmd.c     ****         SERIAL_WRITE("%3i.", Phase(ADC_PD3_Phase_CH) / 1000);
 1521              		.loc 1 138 9 view .LVU258
 1522 076e 6022     		movs	r2, #96
 1523 0770 0021     		movs	r1, #0
 1524 0772 02A8     		add	r0, sp, #8
 1525 0774 FFF7FEFF 		bl	memset
 1526              	.LVL186:
 138:Src/cmd.c     ****         SERIAL_WRITE("%3i.", Phase(ADC_PD3_Phase_CH) / 1000);
 1527              		.loc 1 138 9 view .LVU259
 1528 0778 924B     		ldr	r3, .L44+28
 1529 077a 2200     		movs	r2, r4
 1530 077c 83CB     		ldmia	r3!, {r0, r1, r7}
 1531 077e 83C2     		stmia	r2!, {r0, r1, r7}
 1532 0780 1B78     		ldrb	r3, [r3]
 1533 0782 1370     		strb	r3, [r2]
 1534              	.LVL187:
 138:Src/cmd.c     ****         SERIAL_WRITE("%3i.", Phase(ADC_PD3_Phase_CH) / 1000);
 1535              		.loc 1 138 9 view .LVU260
 1536 0784 2B00     		movs	r3, r5
 1537 0786 0C22     		movs	r2, #12
 1538 0788 2100     		movs	r1, r4
 1539 078a 3000     		movs	r0, r6
 1540 078c FFF7FEFF 		bl	HAL_UART_Transmit
 1541              	.LVL188:
 1542              	.LBE42:
 138:Src/cmd.c     ****         SERIAL_WRITE("%3i.", Phase(ADC_PD3_Phase_CH) / 1000);
 1543              		.loc 1 138 39 view .LVU261
 1544              	.LBB43:
 139:Src/cmd.c     ****         SERIAL_WRITE("%03lu deg\t\t\n", Phase(ADC_PD3_Phase_CH) % 1000);
 1545              		.loc 1 139 9 view .LVU262
 1546 0790 5B46     		mov	r3, fp
 1547 0792 0193     		str	r3, [sp, #4]
 1548 0794 6022     		movs	r2, #96
 1549 0796 0021     		movs	r1, #0
ARM GAS  C:\Users\matil\AppData\Local\Temp\ccSoTFQW.s 			page 38


 1550 0798 02A8     		add	r0, sp, #8
 1551 079a FFF7FEFF 		bl	memset
 1552              	.LVL189:
 139:Src/cmd.c     ****         SERIAL_WRITE("%03lu deg\t\t\n", Phase(ADC_PD3_Phase_CH) % 1000);
 1553              		.loc 1 139 9 view .LVU263
 1554 079e 0E20     		movs	r0, #14
 1555 07a0 FFF7FEFF 		bl	Phase
 1556              	.LVL190:
 1557 07a4 FA22     		movs	r2, #250
 1558 07a6 9200     		lsls	r2, r2, #2
 1559 07a8 0023     		movs	r3, #0
 1560 07aa FFF7FEFF 		bl	__aeabi_uldivmod
 1561              	.LVL191:
 1562 07ae 0200     		movs	r2, r0
 1563 07b0 0B00     		movs	r3, r1
 1564 07b2 5146     		mov	r1, r10
 1565 07b4 2000     		movs	r0, r4
 1566 07b6 FFF7FEFF 		bl	sprintf
 1567              	.LVL192:
 139:Src/cmd.c     ****         SERIAL_WRITE("%03lu deg\t\t\n", Phase(ADC_PD3_Phase_CH) % 1000);
 1568              		.loc 1 139 9 view .LVU264
 1569 07ba 82B2     		uxth	r2, r0
 1570 07bc 2B00     		movs	r3, r5
 1571 07be 2100     		movs	r1, r4
 1572 07c0 3000     		movs	r0, r6
 1573              	.LVL193:
 139:Src/cmd.c     ****         SERIAL_WRITE("%03lu deg\t\t\n", Phase(ADC_PD3_Phase_CH) % 1000);
 1574              		.loc 1 139 9 is_stmt 0 view .LVU265
 1575 07c2 FFF7FEFF 		bl	HAL_UART_Transmit
 1576              	.LVL194:
 1577              	.LBE43:
 139:Src/cmd.c     ****         SERIAL_WRITE("%03lu deg\t\t\n", Phase(ADC_PD3_Phase_CH) % 1000);
 1578              		.loc 1 139 61 is_stmt 1 view .LVU266
 1579              	.LBB44:
 140:Src/cmd.c     **** 
 1580              		.loc 1 140 9 view .LVU267
 1581 07c6 5B46     		mov	r3, fp
 1582 07c8 0193     		str	r3, [sp, #4]
 1583 07ca 6022     		movs	r2, #96
 1584 07cc 0021     		movs	r1, #0
 1585 07ce 02A8     		add	r0, sp, #8
 1586 07d0 FFF7FEFF 		bl	memset
 1587              	.LVL195:
 140:Src/cmd.c     **** 
 1588              		.loc 1 140 9 view .LVU268
 1589 07d4 0E20     		movs	r0, #14
 1590 07d6 FFF7FEFF 		bl	Phase
 1591              	.LVL196:
 1592 07da FA22     		movs	r2, #250
 1593 07dc 9200     		lsls	r2, r2, #2
 1594 07de 0023     		movs	r3, #0
 1595 07e0 FFF7FEFF 		bl	__aeabi_uldivmod
 1596              	.LVL197:
 1597 07e4 4946     		mov	r1, r9
 1598 07e6 2000     		movs	r0, r4
 1599 07e8 FFF7FEFF 		bl	sprintf
 1600              	.LVL198:
ARM GAS  C:\Users\matil\AppData\Local\Temp\ccSoTFQW.s 			page 39


 140:Src/cmd.c     **** 
 1601              		.loc 1 140 9 view .LVU269
 1602 07ec 2B00     		movs	r3, r5
 1603 07ee 0A22     		movs	r2, #10
 1604 07f0 2100     		movs	r1, r4
 1605 07f2 3000     		movs	r0, r6
 1606 07f4 FFF7FEFF 		bl	HAL_UART_Transmit
 1607              	.LVL199:
 1608              	.LBE44:
 140:Src/cmd.c     **** 
 1609              		.loc 1 140 72 view .LVU270
 1610              	.LBB45:
 142:Src/cmd.c     ****         SERIAL_WRITE("%3i.", Phase(ADC_PD4_Phase_CH) / 1000);
 1611              		.loc 1 142 9 view .LVU271
 1612 07f8 6022     		movs	r2, #96
 1613 07fa 0021     		movs	r1, #0
 1614 07fc 02A8     		add	r0, sp, #8
 1615 07fe FFF7FEFF 		bl	memset
 1616              	.LVL200:
 142:Src/cmd.c     ****         SERIAL_WRITE("%3i.", Phase(ADC_PD4_Phase_CH) / 1000);
 1617              		.loc 1 142 9 view .LVU272
 1618 0802 714B     		ldr	r3, .L44+32
 1619 0804 2200     		movs	r2, r4
 1620 0806 83CB     		ldmia	r3!, {r0, r1, r7}
 1621 0808 83C2     		stmia	r2!, {r0, r1, r7}
 1622 080a 1B78     		ldrb	r3, [r3]
 1623 080c 1370     		strb	r3, [r2]
 1624              	.LVL201:
 142:Src/cmd.c     ****         SERIAL_WRITE("%3i.", Phase(ADC_PD4_Phase_CH) / 1000);
 1625              		.loc 1 142 9 view .LVU273
 1626 080e 2B00     		movs	r3, r5
 1627 0810 0C22     		movs	r2, #12
 1628 0812 2100     		movs	r1, r4
 1629 0814 3000     		movs	r0, r6
 1630 0816 FFF7FEFF 		bl	HAL_UART_Transmit
 1631              	.LVL202:
 1632              	.LBE45:
 142:Src/cmd.c     ****         SERIAL_WRITE("%3i.", Phase(ADC_PD4_Phase_CH) / 1000);
 1633              		.loc 1 142 39 view .LVU274
 1634              	.LBB46:
 143:Src/cmd.c     ****         SERIAL_WRITE("%03lu deg\t\t\n", Phase(ADC_PD4_Phase_CH) % 1000);
 1635              		.loc 1 143 9 view .LVU275
 1636 081a 5B46     		mov	r3, fp
 1637 081c 0193     		str	r3, [sp, #4]
 1638 081e 6022     		movs	r2, #96
 1639 0820 0021     		movs	r1, #0
 1640 0822 02A8     		add	r0, sp, #8
 1641 0824 FFF7FEFF 		bl	memset
 1642              	.LVL203:
 143:Src/cmd.c     ****         SERIAL_WRITE("%03lu deg\t\t\n", Phase(ADC_PD4_Phase_CH) % 1000);
 1643              		.loc 1 143 9 view .LVU276
 1644 0828 0220     		movs	r0, #2
 1645 082a FFF7FEFF 		bl	Phase
 1646              	.LVL204:
 1647 082e FA22     		movs	r2, #250
 1648 0830 9200     		lsls	r2, r2, #2
 1649 0832 0023     		movs	r3, #0
ARM GAS  C:\Users\matil\AppData\Local\Temp\ccSoTFQW.s 			page 40


 1650 0834 FFF7FEFF 		bl	__aeabi_uldivmod
 1651              	.LVL205:
 1652 0838 0200     		movs	r2, r0
 1653 083a 0B00     		movs	r3, r1
 1654 083c 5146     		mov	r1, r10
 1655 083e 2000     		movs	r0, r4
 1656 0840 FFF7FEFF 		bl	sprintf
 1657              	.LVL206:
 143:Src/cmd.c     ****         SERIAL_WRITE("%03lu deg\t\t\n", Phase(ADC_PD4_Phase_CH) % 1000);
 1658              		.loc 1 143 9 view .LVU277
 1659 0844 82B2     		uxth	r2, r0
 1660 0846 2B00     		movs	r3, r5
 1661 0848 2100     		movs	r1, r4
 1662 084a 3000     		movs	r0, r6
 1663              	.LVL207:
 143:Src/cmd.c     ****         SERIAL_WRITE("%03lu deg\t\t\n", Phase(ADC_PD4_Phase_CH) % 1000);
 1664              		.loc 1 143 9 is_stmt 0 view .LVU278
 1665 084c FFF7FEFF 		bl	HAL_UART_Transmit
 1666              	.LVL208:
 1667              	.LBE46:
 143:Src/cmd.c     ****         SERIAL_WRITE("%03lu deg\t\t\n", Phase(ADC_PD4_Phase_CH) % 1000);
 1668              		.loc 1 143 61 is_stmt 1 view .LVU279
 1669              	.LBB47:
 144:Src/cmd.c     **** 
 1670              		.loc 1 144 9 view .LVU280
 1671 0850 5B46     		mov	r3, fp
 1672 0852 0193     		str	r3, [sp, #4]
 1673 0854 6022     		movs	r2, #96
 1674 0856 0021     		movs	r1, #0
 1675 0858 02A8     		add	r0, sp, #8
 1676 085a FFF7FEFF 		bl	memset
 1677              	.LVL209:
 144:Src/cmd.c     **** 
 1678              		.loc 1 144 9 view .LVU281
 1679 085e 0220     		movs	r0, #2
 1680 0860 FFF7FEFF 		bl	Phase
 1681              	.LVL210:
 1682 0864 FA22     		movs	r2, #250
 1683 0866 9200     		lsls	r2, r2, #2
 1684 0868 0023     		movs	r3, #0
 1685 086a FFF7FEFF 		bl	__aeabi_uldivmod
 1686              	.LVL211:
 1687 086e 4946     		mov	r1, r9
 1688 0870 2000     		movs	r0, r4
 1689 0872 FFF7FEFF 		bl	sprintf
 1690              	.LVL212:
 144:Src/cmd.c     **** 
 1691              		.loc 1 144 9 view .LVU282
 1692 0876 2B00     		movs	r3, r5
 1693 0878 0A22     		movs	r2, #10
 1694 087a 2100     		movs	r1, r4
 1695 087c 3000     		movs	r0, r6
 1696 087e FFF7FEFF 		bl	HAL_UART_Transmit
 1697              	.LVL213:
 1698              	.LBE47:
 144:Src/cmd.c     **** 
 1699              		.loc 1 144 72 view .LVU283
ARM GAS  C:\Users\matil\AppData\Local\Temp\ccSoTFQW.s 			page 41


 1700              	.LBB48:
 146:Src/cmd.c     ****         SERIAL_WRITE("%3li.", Relative_Power(ADC_PD0_Power_CH) / 1000);
 1701              		.loc 1 146 9 view .LVU284
 1702 0882 6022     		movs	r2, #96
 1703 0884 0021     		movs	r1, #0
 1704 0886 02A8     		add	r0, sp, #8
 1705 0888 FFF7FEFF 		bl	memset
 1706              	.LVL214:
 146:Src/cmd.c     ****         SERIAL_WRITE("%3li.", Relative_Power(ADC_PD0_Power_CH) / 1000);
 1707              		.loc 1 146 9 view .LVU285
 1708 088c 4F4B     		ldr	r3, .L44+36
 1709 088e 2200     		movs	r2, r4
 1710 0890 83CB     		ldmia	r3!, {r0, r1, r7}
 1711 0892 83C2     		stmia	r2!, {r0, r1, r7}
 1712 0894 1968     		ldr	r1, [r3]
 1713 0896 1160     		str	r1, [r2]
 1714 0898 1B79     		ldrb	r3, [r3, #4]
 1715 089a 1371     		strb	r3, [r2, #4]
 1716              	.LVL215:
 146:Src/cmd.c     ****         SERIAL_WRITE("%3li.", Relative_Power(ADC_PD0_Power_CH) / 1000);
 1717              		.loc 1 146 9 view .LVU286
 1718 089c 2B00     		movs	r3, r5
 1719 089e 1022     		movs	r2, #16
 1720 08a0 2100     		movs	r1, r4
 1721 08a2 3000     		movs	r0, r6
 1722 08a4 FFF7FEFF 		bl	HAL_UART_Transmit
 1723              	.LVL216:
 1724              	.LBE48:
 146:Src/cmd.c     ****         SERIAL_WRITE("%3li.", Relative_Power(ADC_PD0_Power_CH) / 1000);
 1725              		.loc 1 146 43 view .LVU287
 1726              	.LBB49:
 147:Src/cmd.c     ****         SERIAL_WRITE("%03u dB\t\t\n", abs(Relative_Power(ADC_PD0_Power_CH)) % 1000);
 1727              		.loc 1 147 9 view .LVU288
 1728 08a8 5B46     		mov	r3, fp
 1729 08aa 0193     		str	r3, [sp, #4]
 1730 08ac 6022     		movs	r2, #96
 1731 08ae 0021     		movs	r1, #0
 1732 08b0 02A8     		add	r0, sp, #8
 1733 08b2 FFF7FEFF 		bl	memset
 1734              	.LVL217:
 147:Src/cmd.c     ****         SERIAL_WRITE("%03u dB\t\t\n", abs(Relative_Power(ADC_PD0_Power_CH)) % 1000);
 1735              		.loc 1 147 9 view .LVU289
 1736 08b6 0C20     		movs	r0, #12
 1737 08b8 FFF7FEFF 		bl	Relative_Power
 1738              	.LVL218:
 1739 08bc FA22     		movs	r2, #250
 1740 08be 9200     		lsls	r2, r2, #2
 1741 08c0 0023     		movs	r3, #0
 1742 08c2 FFF7FEFF 		bl	__aeabi_ldivmod
 1743              	.LVL219:
 1744 08c6 0200     		movs	r2, r0
 1745 08c8 0B00     		movs	r3, r1
 1746 08ca 4149     		ldr	r1, .L44+40
 1747 08cc 8946     		mov	r9, r1
 1748 08ce 2000     		movs	r0, r4
 1749 08d0 FFF7FEFF 		bl	sprintf
 1750              	.LVL220:
ARM GAS  C:\Users\matil\AppData\Local\Temp\ccSoTFQW.s 			page 42


 147:Src/cmd.c     ****         SERIAL_WRITE("%03u dB\t\t\n", abs(Relative_Power(ADC_PD0_Power_CH)) % 1000);
 1751              		.loc 1 147 9 view .LVU290
 1752 08d4 82B2     		uxth	r2, r0
 1753 08d6 2B00     		movs	r3, r5
 1754 08d8 2100     		movs	r1, r4
 1755 08da 3000     		movs	r0, r6
 1756              	.LVL221:
 147:Src/cmd.c     ****         SERIAL_WRITE("%03u dB\t\t\n", abs(Relative_Power(ADC_PD0_Power_CH)) % 1000);
 1757              		.loc 1 147 9 is_stmt 0 view .LVU291
 1758 08dc FFF7FEFF 		bl	HAL_UART_Transmit
 1759              	.LVL222:
 1760              	.LBE49:
 147:Src/cmd.c     ****         SERIAL_WRITE("%03u dB\t\t\n", abs(Relative_Power(ADC_PD0_Power_CH)) % 1000);
 1761              		.loc 1 147 71 is_stmt 1 view .LVU292
 1762              	.LBB50:
 148:Src/cmd.c     **** 
 1763              		.loc 1 148 9 view .LVU293
 1764 08e0 5B46     		mov	r3, fp
 1765 08e2 0193     		str	r3, [sp, #4]
 1766 08e4 6022     		movs	r2, #96
 1767 08e6 0021     		movs	r1, #0
 1768 08e8 02A8     		add	r0, sp, #8
 1769 08ea FFF7FEFF 		bl	memset
 1770              	.LVL223:
 148:Src/cmd.c     **** 
 1771              		.loc 1 148 9 view .LVU294
 1772 08ee 0C20     		movs	r0, #12
 1773 08f0 FFF7FEFF 		bl	Relative_Power
 1774              	.LVL224:
 1775 08f4 C317     		asrs	r3, r0, #31
 1776 08f6 C018     		adds	r0, r0, r3
 1777 08f8 5840     		eors	r0, r3
 1778 08fa 2900     		movs	r1, r5
 1779 08fc FFF7FEFF 		bl	__aeabi_idivmod
 1780              	.LVL225:
 1781 0900 0A00     		movs	r2, r1
 1782 0902 344B     		ldr	r3, .L44+44
 1783 0904 9A46     		mov	r10, r3
 1784 0906 1900     		movs	r1, r3
 1785 0908 2000     		movs	r0, r4
 1786 090a FFF7FEFF 		bl	sprintf
 1787              	.LVL226:
 148:Src/cmd.c     **** 
 1788              		.loc 1 148 9 view .LVU295
 1789 090e 2B00     		movs	r3, r5
 1790 0910 0922     		movs	r2, #9
 1791 0912 2100     		movs	r1, r4
 1792 0914 3000     		movs	r0, r6
 1793 0916 FFF7FEFF 		bl	HAL_UART_Transmit
 1794              	.LVL227:
 1795              	.LBE50:
 148:Src/cmd.c     **** 
 1796              		.loc 1 148 84 view .LVU296
 1797              	.LBB51:
 150:Src/cmd.c     ****         SERIAL_WRITE("%3li.", Relative_Power(ADC_PD1_Power_CH) / 1000);
 1798              		.loc 1 150 9 view .LVU297
 1799 091a 6022     		movs	r2, #96
ARM GAS  C:\Users\matil\AppData\Local\Temp\ccSoTFQW.s 			page 43


 1800 091c 0021     		movs	r1, #0
 1801 091e 02A8     		add	r0, sp, #8
 1802 0920 FFF7FEFF 		bl	memset
 1803              	.LVL228:
 150:Src/cmd.c     ****         SERIAL_WRITE("%3li.", Relative_Power(ADC_PD1_Power_CH) / 1000);
 1804              		.loc 1 150 9 view .LVU298
 1805 0924 2C4B     		ldr	r3, .L44+48
 1806 0926 2200     		movs	r2, r4
 1807 0928 83CB     		ldmia	r3!, {r0, r1, r7}
 1808 092a 83C2     		stmia	r2!, {r0, r1, r7}
 1809 092c 1968     		ldr	r1, [r3]
 1810 092e 1160     		str	r1, [r2]
 1811 0930 1B79     		ldrb	r3, [r3, #4]
 1812 0932 1371     		strb	r3, [r2, #4]
 1813              	.LVL229:
 150:Src/cmd.c     ****         SERIAL_WRITE("%3li.", Relative_Power(ADC_PD1_Power_CH) / 1000);
 1814              		.loc 1 150 9 view .LVU299
 1815 0934 2B00     		movs	r3, r5
 1816 0936 1022     		movs	r2, #16
 1817 0938 2100     		movs	r1, r4
 1818 093a 3000     		movs	r0, r6
 1819 093c FFF7FEFF 		bl	HAL_UART_Transmit
 1820              	.LVL230:
 1821              	.LBE51:
 150:Src/cmd.c     ****         SERIAL_WRITE("%3li.", Relative_Power(ADC_PD1_Power_CH) / 1000);
 1822              		.loc 1 150 43 view .LVU300
 1823              	.LBB52:
 151:Src/cmd.c     ****         SERIAL_WRITE("%03u dB\t\t\n", abs(Relative_Power(ADC_PD1_Power_CH)) % 1000);
 1824              		.loc 1 151 9 view .LVU301
 1825 0940 5B46     		mov	r3, fp
 1826 0942 0193     		str	r3, [sp, #4]
 1827 0944 6022     		movs	r2, #96
 1828 0946 0021     		movs	r1, #0
 1829 0948 02A8     		add	r0, sp, #8
 1830 094a FFF7FEFF 		bl	memset
 1831              	.LVL231:
 151:Src/cmd.c     ****         SERIAL_WRITE("%03u dB\t\t\n", abs(Relative_Power(ADC_PD1_Power_CH)) % 1000);
 1832              		.loc 1 151 9 view .LVU302
 1833 094e 0520     		movs	r0, #5
 1834 0950 FFF7FEFF 		bl	Relative_Power
 1835              	.LVL232:
 1836 0954 FA22     		movs	r2, #250
 1837 0956 9200     		lsls	r2, r2, #2
 1838 0958 0023     		movs	r3, #0
 1839 095a FFF7FEFF 		bl	__aeabi_ldivmod
 1840              	.LVL233:
 1841 095e 0200     		movs	r2, r0
 1842 0960 0B00     		movs	r3, r1
 1843 0962 4946     		mov	r1, r9
 1844 0964 2000     		movs	r0, r4
 1845 0966 FFF7FEFF 		bl	sprintf
 1846              	.LVL234:
 151:Src/cmd.c     ****         SERIAL_WRITE("%03u dB\t\t\n", abs(Relative_Power(ADC_PD1_Power_CH)) % 1000);
 1847              		.loc 1 151 9 view .LVU303
 1848 096a 82B2     		uxth	r2, r0
 1849 096c 2B00     		movs	r3, r5
 1850 096e 2100     		movs	r1, r4
ARM GAS  C:\Users\matil\AppData\Local\Temp\ccSoTFQW.s 			page 44


 1851 0970 3000     		movs	r0, r6
 1852              	.LVL235:
 151:Src/cmd.c     ****         SERIAL_WRITE("%03u dB\t\t\n", abs(Relative_Power(ADC_PD1_Power_CH)) % 1000);
 1853              		.loc 1 151 9 is_stmt 0 view .LVU304
 1854 0972 FFF7FEFF 		bl	HAL_UART_Transmit
 1855              	.LVL236:
 1856              	.LBE52:
 151:Src/cmd.c     ****         SERIAL_WRITE("%03u dB\t\t\n", abs(Relative_Power(ADC_PD1_Power_CH)) % 1000);
 1857              		.loc 1 151 71 is_stmt 1 view .LVU305
 1858              	.LBB53:
 152:Src/cmd.c     **** 
 1859              		.loc 1 152 9 view .LVU306
 1860 0976 5B46     		mov	r3, fp
 1861 0978 0193     		str	r3, [sp, #4]
 1862 097a 6022     		movs	r2, #96
 1863 097c 0021     		movs	r1, #0
 1864 097e 02A8     		add	r0, sp, #8
 1865 0980 FFF7FEFF 		bl	memset
 1866              	.LVL237:
 152:Src/cmd.c     **** 
 1867              		.loc 1 152 9 view .LVU307
 1868 0984 0520     		movs	r0, #5
 1869 0986 FFF7FEFF 		bl	Relative_Power
 1870              	.LVL238:
 1871 098a C317     		asrs	r3, r0, #31
 1872 098c C018     		adds	r0, r0, r3
 1873 098e 5840     		eors	r0, r3
 1874 0990 2900     		movs	r1, r5
 1875 0992 FFF7FEFF 		bl	__aeabi_idivmod
 1876              	.LVL239:
 1877 0996 0A00     		movs	r2, r1
 1878 0998 5146     		mov	r1, r10
 1879 099a 2000     		movs	r0, r4
 1880 099c FFF7FEFF 		bl	sprintf
 1881              	.LVL240:
 152:Src/cmd.c     **** 
 1882              		.loc 1 152 9 view .LVU308
 1883 09a0 2B00     		movs	r3, r5
 1884 09a2 0922     		movs	r2, #9
 1885 09a4 2100     		movs	r1, r4
 1886 09a6 19E0     		b	.L45
 1887              	.L46:
 1888              		.align	2
 1889              	.L44:
 1890 09a8 7C010000 		.word	.LC40
 1891 09ac 00000000 		.word	huart2
 1892 09b0 84010000 		.word	.LC42
 1893 09b4 94010000 		.word	.LC44
 1894 09b8 9C010000 		.word	.LC46
 1895 09bc AC010000 		.word	.LC48
 1896 09c0 BC010000 		.word	.LC50
 1897 09c4 CC010000 		.word	.LC52
 1898 09c8 DC010000 		.word	.LC54
 1899 09cc EC010000 		.word	.LC56
 1900 09d0 00020000 		.word	.LC58
 1901 09d4 08020000 		.word	.LC60
 1902 09d8 14020000 		.word	.LC62
ARM GAS  C:\Users\matil\AppData\Local\Temp\ccSoTFQW.s 			page 45


 1903              	.L45:
 1904 09dc 3000     		movs	r0, r6
 1905 09de FFF7FEFF 		bl	HAL_UART_Transmit
 1906              	.LVL241:
 1907              	.LBE53:
 152:Src/cmd.c     **** 
 1908              		.loc 1 152 84 view .LVU309
 1909              	.LBB54:
 154:Src/cmd.c     ****         SERIAL_WRITE("%3li.", Relative_Power(ADC_PD2_Power_CH) / 1000);
 1910              		.loc 1 154 9 view .LVU310
 1911 09e2 6022     		movs	r2, #96
 1912 09e4 0021     		movs	r1, #0
 1913 09e6 02A8     		add	r0, sp, #8
 1914 09e8 FFF7FEFF 		bl	memset
 1915              	.LVL242:
 154:Src/cmd.c     ****         SERIAL_WRITE("%3li.", Relative_Power(ADC_PD2_Power_CH) / 1000);
 1916              		.loc 1 154 9 view .LVU311
 1917 09ec FB4B     		ldr	r3, .L47
 1918 09ee 2200     		movs	r2, r4
 1919 09f0 83CB     		ldmia	r3!, {r0, r1, r7}
 1920 09f2 83C2     		stmia	r2!, {r0, r1, r7}
 1921 09f4 1968     		ldr	r1, [r3]
 1922 09f6 1160     		str	r1, [r2]
 1923 09f8 1B79     		ldrb	r3, [r3, #4]
 1924 09fa 1371     		strb	r3, [r2, #4]
 1925              	.LVL243:
 154:Src/cmd.c     ****         SERIAL_WRITE("%3li.", Relative_Power(ADC_PD2_Power_CH) / 1000);
 1926              		.loc 1 154 9 view .LVU312
 1927 09fc 2B00     		movs	r3, r5
 1928 09fe 1022     		movs	r2, #16
 1929 0a00 2100     		movs	r1, r4
 1930 0a02 3000     		movs	r0, r6
 1931 0a04 FFF7FEFF 		bl	HAL_UART_Transmit
 1932              	.LVL244:
 1933              	.LBE54:
 154:Src/cmd.c     ****         SERIAL_WRITE("%3li.", Relative_Power(ADC_PD2_Power_CH) / 1000);
 1934              		.loc 1 154 43 view .LVU313
 1935              	.LBB55:
 155:Src/cmd.c     ****         SERIAL_WRITE("%03u dB\t\t\n", abs(Relative_Power(ADC_PD2_Power_CH)) % 1000);
 1936              		.loc 1 155 9 view .LVU314
 1937 0a08 5B46     		mov	r3, fp
 1938 0a0a 0193     		str	r3, [sp, #4]
 1939 0a0c 6022     		movs	r2, #96
 1940 0a0e 0021     		movs	r1, #0
 1941 0a10 02A8     		add	r0, sp, #8
 1942 0a12 FFF7FEFF 		bl	memset
 1943              	.LVL245:
 155:Src/cmd.c     ****         SERIAL_WRITE("%03u dB\t\t\n", abs(Relative_Power(ADC_PD2_Power_CH)) % 1000);
 1944              		.loc 1 155 9 view .LVU315
 1945 0a16 0120     		movs	r0, #1
 1946 0a18 FFF7FEFF 		bl	Relative_Power
 1947              	.LVL246:
 1948 0a1c FA22     		movs	r2, #250
 1949 0a1e 9200     		lsls	r2, r2, #2
 1950 0a20 0023     		movs	r3, #0
 1951 0a22 FFF7FEFF 		bl	__aeabi_ldivmod
 1952              	.LVL247:
ARM GAS  C:\Users\matil\AppData\Local\Temp\ccSoTFQW.s 			page 46


 1953 0a26 0200     		movs	r2, r0
 1954 0a28 0B00     		movs	r3, r1
 1955 0a2a 4946     		mov	r1, r9
 1956 0a2c 2000     		movs	r0, r4
 1957 0a2e FFF7FEFF 		bl	sprintf
 1958              	.LVL248:
 155:Src/cmd.c     ****         SERIAL_WRITE("%03u dB\t\t\n", abs(Relative_Power(ADC_PD2_Power_CH)) % 1000);
 1959              		.loc 1 155 9 view .LVU316
 1960 0a32 82B2     		uxth	r2, r0
 1961 0a34 2B00     		movs	r3, r5
 1962 0a36 2100     		movs	r1, r4
 1963 0a38 3000     		movs	r0, r6
 1964              	.LVL249:
 155:Src/cmd.c     ****         SERIAL_WRITE("%03u dB\t\t\n", abs(Relative_Power(ADC_PD2_Power_CH)) % 1000);
 1965              		.loc 1 155 9 is_stmt 0 view .LVU317
 1966 0a3a FFF7FEFF 		bl	HAL_UART_Transmit
 1967              	.LVL250:
 1968              	.LBE55:
 155:Src/cmd.c     ****         SERIAL_WRITE("%03u dB\t\t\n", abs(Relative_Power(ADC_PD2_Power_CH)) % 1000);
 1969              		.loc 1 155 71 is_stmt 1 view .LVU318
 1970              	.LBB56:
 156:Src/cmd.c     **** 
 1971              		.loc 1 156 9 view .LVU319
 1972 0a3e 5B46     		mov	r3, fp
 1973 0a40 0193     		str	r3, [sp, #4]
 1974 0a42 6022     		movs	r2, #96
 1975 0a44 0021     		movs	r1, #0
 1976 0a46 02A8     		add	r0, sp, #8
 1977 0a48 FFF7FEFF 		bl	memset
 1978              	.LVL251:
 156:Src/cmd.c     **** 
 1979              		.loc 1 156 9 view .LVU320
 1980 0a4c 0120     		movs	r0, #1
 1981 0a4e FFF7FEFF 		bl	Relative_Power
 1982              	.LVL252:
 1983 0a52 C317     		asrs	r3, r0, #31
 1984 0a54 C018     		adds	r0, r0, r3
 1985 0a56 5840     		eors	r0, r3
 1986 0a58 2900     		movs	r1, r5
 1987 0a5a FFF7FEFF 		bl	__aeabi_idivmod
 1988              	.LVL253:
 1989 0a5e 0A00     		movs	r2, r1
 1990 0a60 5146     		mov	r1, r10
 1991 0a62 2000     		movs	r0, r4
 1992 0a64 FFF7FEFF 		bl	sprintf
 1993              	.LVL254:
 156:Src/cmd.c     **** 
 1994              		.loc 1 156 9 view .LVU321
 1995 0a68 2B00     		movs	r3, r5
 1996 0a6a 0922     		movs	r2, #9
 1997 0a6c 2100     		movs	r1, r4
 1998 0a6e 3000     		movs	r0, r6
 1999 0a70 FFF7FEFF 		bl	HAL_UART_Transmit
 2000              	.LVL255:
 2001              	.LBE56:
 156:Src/cmd.c     **** 
 2002              		.loc 1 156 84 view .LVU322
ARM GAS  C:\Users\matil\AppData\Local\Temp\ccSoTFQW.s 			page 47


 2003              	.LBB57:
 158:Src/cmd.c     ****         SERIAL_WRITE("%3li.", Relative_Power(ADC_PD3_Power_CH) / 1000);
 2004              		.loc 1 158 9 view .LVU323
 2005 0a74 6022     		movs	r2, #96
 2006 0a76 0021     		movs	r1, #0
 2007 0a78 02A8     		add	r0, sp, #8
 2008 0a7a FFF7FEFF 		bl	memset
 2009              	.LVL256:
 158:Src/cmd.c     ****         SERIAL_WRITE("%3li.", Relative_Power(ADC_PD3_Power_CH) / 1000);
 2010              		.loc 1 158 9 view .LVU324
 2011 0a7e D84B     		ldr	r3, .L47+4
 2012 0a80 2200     		movs	r2, r4
 2013 0a82 83CB     		ldmia	r3!, {r0, r1, r7}
 2014 0a84 83C2     		stmia	r2!, {r0, r1, r7}
 2015 0a86 1968     		ldr	r1, [r3]
 2016 0a88 1160     		str	r1, [r2]
 2017 0a8a 1B79     		ldrb	r3, [r3, #4]
 2018 0a8c 1371     		strb	r3, [r2, #4]
 2019              	.LVL257:
 158:Src/cmd.c     ****         SERIAL_WRITE("%3li.", Relative_Power(ADC_PD3_Power_CH) / 1000);
 2020              		.loc 1 158 9 view .LVU325
 2021 0a8e 2B00     		movs	r3, r5
 2022 0a90 1022     		movs	r2, #16
 2023 0a92 2100     		movs	r1, r4
 2024 0a94 3000     		movs	r0, r6
 2025 0a96 FFF7FEFF 		bl	HAL_UART_Transmit
 2026              	.LVL258:
 2027              	.LBE57:
 158:Src/cmd.c     ****         SERIAL_WRITE("%3li.", Relative_Power(ADC_PD3_Power_CH) / 1000);
 2028              		.loc 1 158 43 view .LVU326
 2029              	.LBB58:
 159:Src/cmd.c     ****         SERIAL_WRITE("%03u dB\t\t\n", abs(Relative_Power(ADC_PD3_Power_CH)) % 1000);
 2030              		.loc 1 159 9 view .LVU327
 2031 0a9a 5B46     		mov	r3, fp
 2032 0a9c 0193     		str	r3, [sp, #4]
 2033 0a9e 6022     		movs	r2, #96
 2034 0aa0 0021     		movs	r1, #0
 2035 0aa2 02A8     		add	r0, sp, #8
 2036 0aa4 FFF7FEFF 		bl	memset
 2037              	.LVL259:
 159:Src/cmd.c     ****         SERIAL_WRITE("%03u dB\t\t\n", abs(Relative_Power(ADC_PD3_Power_CH)) % 1000);
 2038              		.loc 1 159 9 view .LVU328
 2039 0aa8 0D20     		movs	r0, #13
 2040 0aaa FFF7FEFF 		bl	Relative_Power
 2041              	.LVL260:
 2042 0aae FA22     		movs	r2, #250
 2043 0ab0 9200     		lsls	r2, r2, #2
 2044 0ab2 0023     		movs	r3, #0
 2045 0ab4 FFF7FEFF 		bl	__aeabi_ldivmod
 2046              	.LVL261:
 2047 0ab8 0200     		movs	r2, r0
 2048 0aba 0B00     		movs	r3, r1
 2049 0abc 4946     		mov	r1, r9
 2050 0abe 2000     		movs	r0, r4
 2051 0ac0 FFF7FEFF 		bl	sprintf
 2052              	.LVL262:
 159:Src/cmd.c     ****         SERIAL_WRITE("%03u dB\t\t\n", abs(Relative_Power(ADC_PD3_Power_CH)) % 1000);
ARM GAS  C:\Users\matil\AppData\Local\Temp\ccSoTFQW.s 			page 48


 2053              		.loc 1 159 9 view .LVU329
 2054 0ac4 82B2     		uxth	r2, r0
 2055 0ac6 2B00     		movs	r3, r5
 2056 0ac8 2100     		movs	r1, r4
 2057 0aca 3000     		movs	r0, r6
 2058              	.LVL263:
 159:Src/cmd.c     ****         SERIAL_WRITE("%03u dB\t\t\n", abs(Relative_Power(ADC_PD3_Power_CH)) % 1000);
 2059              		.loc 1 159 9 is_stmt 0 view .LVU330
 2060 0acc FFF7FEFF 		bl	HAL_UART_Transmit
 2061              	.LVL264:
 2062              	.LBE58:
 159:Src/cmd.c     ****         SERIAL_WRITE("%03u dB\t\t\n", abs(Relative_Power(ADC_PD3_Power_CH)) % 1000);
 2063              		.loc 1 159 71 is_stmt 1 view .LVU331
 2064              	.LBB59:
 160:Src/cmd.c     **** 
 2065              		.loc 1 160 9 view .LVU332
 2066 0ad0 5B46     		mov	r3, fp
 2067 0ad2 0193     		str	r3, [sp, #4]
 2068 0ad4 6022     		movs	r2, #96
 2069 0ad6 0021     		movs	r1, #0
 2070 0ad8 02A8     		add	r0, sp, #8
 2071 0ada FFF7FEFF 		bl	memset
 2072              	.LVL265:
 160:Src/cmd.c     **** 
 2073              		.loc 1 160 9 view .LVU333
 2074 0ade 0D20     		movs	r0, #13
 2075 0ae0 FFF7FEFF 		bl	Relative_Power
 2076              	.LVL266:
 2077 0ae4 C317     		asrs	r3, r0, #31
 2078 0ae6 C018     		adds	r0, r0, r3
 2079 0ae8 5840     		eors	r0, r3
 2080 0aea 2900     		movs	r1, r5
 2081 0aec FFF7FEFF 		bl	__aeabi_idivmod
 2082              	.LVL267:
 2083 0af0 0A00     		movs	r2, r1
 2084 0af2 5146     		mov	r1, r10
 2085 0af4 2000     		movs	r0, r4
 2086 0af6 FFF7FEFF 		bl	sprintf
 2087              	.LVL268:
 160:Src/cmd.c     **** 
 2088              		.loc 1 160 9 view .LVU334
 2089 0afa 2B00     		movs	r3, r5
 2090 0afc 0922     		movs	r2, #9
 2091 0afe 2100     		movs	r1, r4
 2092 0b00 3000     		movs	r0, r6
 2093 0b02 FFF7FEFF 		bl	HAL_UART_Transmit
 2094              	.LVL269:
 2095              	.LBE59:
 160:Src/cmd.c     **** 
 2096              		.loc 1 160 84 view .LVU335
 2097              	.LBB60:
 162:Src/cmd.c     ****         SERIAL_WRITE("%3li.", Relative_Power(ADC_PD4_Power_CH) / 1000);
 2098              		.loc 1 162 9 view .LVU336
 2099 0b06 6022     		movs	r2, #96
 2100 0b08 0021     		movs	r1, #0
 2101 0b0a 02A8     		add	r0, sp, #8
 2102 0b0c FFF7FEFF 		bl	memset
ARM GAS  C:\Users\matil\AppData\Local\Temp\ccSoTFQW.s 			page 49


 2103              	.LVL270:
 162:Src/cmd.c     ****         SERIAL_WRITE("%3li.", Relative_Power(ADC_PD4_Power_CH) / 1000);
 2104              		.loc 1 162 9 view .LVU337
 2105 0b10 B44B     		ldr	r3, .L47+8
 2106 0b12 2200     		movs	r2, r4
 2107 0b14 83CB     		ldmia	r3!, {r0, r1, r7}
 2108 0b16 83C2     		stmia	r2!, {r0, r1, r7}
 2109 0b18 1968     		ldr	r1, [r3]
 2110 0b1a 1160     		str	r1, [r2]
 2111 0b1c 1B79     		ldrb	r3, [r3, #4]
 2112 0b1e 1371     		strb	r3, [r2, #4]
 2113              	.LVL271:
 162:Src/cmd.c     ****         SERIAL_WRITE("%3li.", Relative_Power(ADC_PD4_Power_CH) / 1000);
 2114              		.loc 1 162 9 view .LVU338
 2115 0b20 2B00     		movs	r3, r5
 2116 0b22 1022     		movs	r2, #16
 2117 0b24 2100     		movs	r1, r4
 2118 0b26 3000     		movs	r0, r6
 2119 0b28 FFF7FEFF 		bl	HAL_UART_Transmit
 2120              	.LVL272:
 2121              	.LBE60:
 162:Src/cmd.c     ****         SERIAL_WRITE("%3li.", Relative_Power(ADC_PD4_Power_CH) / 1000);
 2122              		.loc 1 162 43 view .LVU339
 2123              	.LBB61:
 163:Src/cmd.c     ****         SERIAL_WRITE("%03u dB\t\t\n", abs(Relative_Power(ADC_PD4_Power_CH)) % 1000);
 2124              		.loc 1 163 9 view .LVU340
 2125 0b2c 5B46     		mov	r3, fp
 2126 0b2e 0193     		str	r3, [sp, #4]
 2127 0b30 6022     		movs	r2, #96
 2128 0b32 0021     		movs	r1, #0
 2129 0b34 02A8     		add	r0, sp, #8
 2130 0b36 FFF7FEFF 		bl	memset
 2131              	.LVL273:
 163:Src/cmd.c     ****         SERIAL_WRITE("%03u dB\t\t\n", abs(Relative_Power(ADC_PD4_Power_CH)) % 1000);
 2132              		.loc 1 163 9 view .LVU341
 2133 0b3a 0320     		movs	r0, #3
 2134 0b3c FFF7FEFF 		bl	Relative_Power
 2135              	.LVL274:
 2136 0b40 FA22     		movs	r2, #250
 2137 0b42 9200     		lsls	r2, r2, #2
 2138 0b44 0023     		movs	r3, #0
 2139 0b46 FFF7FEFF 		bl	__aeabi_ldivmod
 2140              	.LVL275:
 2141 0b4a 0200     		movs	r2, r0
 2142 0b4c 0B00     		movs	r3, r1
 2143 0b4e 4946     		mov	r1, r9
 2144 0b50 2000     		movs	r0, r4
 2145 0b52 FFF7FEFF 		bl	sprintf
 2146              	.LVL276:
 163:Src/cmd.c     ****         SERIAL_WRITE("%03u dB\t\t\n", abs(Relative_Power(ADC_PD4_Power_CH)) % 1000);
 2147              		.loc 1 163 9 view .LVU342
 2148 0b56 82B2     		uxth	r2, r0
 2149 0b58 2B00     		movs	r3, r5
 2150 0b5a 2100     		movs	r1, r4
 2151 0b5c 3000     		movs	r0, r6
 2152              	.LVL277:
 163:Src/cmd.c     ****         SERIAL_WRITE("%03u dB\t\t\n", abs(Relative_Power(ADC_PD4_Power_CH)) % 1000);
ARM GAS  C:\Users\matil\AppData\Local\Temp\ccSoTFQW.s 			page 50


 2153              		.loc 1 163 9 is_stmt 0 view .LVU343
 2154 0b5e FFF7FEFF 		bl	HAL_UART_Transmit
 2155              	.LVL278:
 2156              	.LBE61:
 163:Src/cmd.c     ****         SERIAL_WRITE("%03u dB\t\t\n", abs(Relative_Power(ADC_PD4_Power_CH)) % 1000);
 2157              		.loc 1 163 71 is_stmt 1 view .LVU344
 2158              	.LBB62:
 164:Src/cmd.c     **** 
 2159              		.loc 1 164 9 view .LVU345
 2160 0b62 5B46     		mov	r3, fp
 2161 0b64 0193     		str	r3, [sp, #4]
 2162 0b66 6022     		movs	r2, #96
 2163 0b68 0021     		movs	r1, #0
 2164 0b6a 02A8     		add	r0, sp, #8
 2165 0b6c FFF7FEFF 		bl	memset
 2166              	.LVL279:
 164:Src/cmd.c     **** 
 2167              		.loc 1 164 9 view .LVU346
 2168 0b70 0320     		movs	r0, #3
 2169 0b72 FFF7FEFF 		bl	Relative_Power
 2170              	.LVL280:
 2171 0b76 C317     		asrs	r3, r0, #31
 2172 0b78 C018     		adds	r0, r0, r3
 2173 0b7a 5840     		eors	r0, r3
 2174 0b7c 2900     		movs	r1, r5
 2175 0b7e FFF7FEFF 		bl	__aeabi_idivmod
 2176              	.LVL281:
 2177 0b82 0A00     		movs	r2, r1
 2178 0b84 5146     		mov	r1, r10
 2179 0b86 2000     		movs	r0, r4
 2180 0b88 FFF7FEFF 		bl	sprintf
 2181              	.LVL282:
 164:Src/cmd.c     **** 
 2182              		.loc 1 164 9 view .LVU347
 2183 0b8c 2B00     		movs	r3, r5
 2184 0b8e 0922     		movs	r2, #9
 2185 0b90 2100     		movs	r1, r4
 2186 0b92 3000     		movs	r0, r6
 2187 0b94 FFF7FEFF 		bl	HAL_UART_Transmit
 2188              	.LVL283:
 2189              	.LBE62:
 164:Src/cmd.c     **** 
 2190              		.loc 1 164 84 view .LVU348
 2191              	.LBB63:
 166:Src/cmd.c     ****         SERIAL_WRITE("%3li.", RMS_Power(ADC_PWD0_Power_CH) / 1000);
 2192              		.loc 1 166 9 view .LVU349
 2193 0b98 6022     		movs	r2, #96
 2194 0b9a 0021     		movs	r1, #0
 2195 0b9c 02A8     		add	r0, sp, #8
 2196 0b9e FFF7FEFF 		bl	memset
 2197              	.LVL284:
 166:Src/cmd.c     ****         SERIAL_WRITE("%3li.", RMS_Power(ADC_PWD0_Power_CH) / 1000);
 2198              		.loc 1 166 9 view .LVU350
 2199 0ba2 914B     		ldr	r3, .L47+12
 2200 0ba4 2200     		movs	r2, r4
 2201 0ba6 83CB     		ldmia	r3!, {r0, r1, r7}
 2202 0ba8 83C2     		stmia	r2!, {r0, r1, r7}
ARM GAS  C:\Users\matil\AppData\Local\Temp\ccSoTFQW.s 			page 51


 2203 0baa 1B88     		ldrh	r3, [r3]
 2204 0bac 1380     		strh	r3, [r2]
 2205              	.LVL285:
 166:Src/cmd.c     ****         SERIAL_WRITE("%3li.", RMS_Power(ADC_PWD0_Power_CH) / 1000);
 2206              		.loc 1 166 9 view .LVU351
 2207 0bae 2B00     		movs	r3, r5
 2208 0bb0 0D22     		movs	r2, #13
 2209 0bb2 2100     		movs	r1, r4
 2210 0bb4 3000     		movs	r0, r6
 2211 0bb6 FFF7FEFF 		bl	HAL_UART_Transmit
 2212              	.LVL286:
 2213              	.LBE63:
 166:Src/cmd.c     ****         SERIAL_WRITE("%3li.", RMS_Power(ADC_PWD0_Power_CH) / 1000);
 2214              		.loc 1 166 40 view .LVU352
 2215              	.LBB64:
 167:Src/cmd.c     ****         SERIAL_WRITE("%03u dBm\t\t\n", abs(RMS_Power(ADC_PWD0_Power_CH)) % 1000);
 2216              		.loc 1 167 9 view .LVU353
 2217 0bba 5B46     		mov	r3, fp
 2218 0bbc 0193     		str	r3, [sp, #4]
 2219 0bbe 6022     		movs	r2, #96
 2220 0bc0 0021     		movs	r1, #0
 2221 0bc2 02A8     		add	r0, sp, #8
 2222 0bc4 FFF7FEFF 		bl	memset
 2223              	.LVL287:
 167:Src/cmd.c     ****         SERIAL_WRITE("%03u dBm\t\t\n", abs(RMS_Power(ADC_PWD0_Power_CH)) % 1000);
 2224              		.loc 1 167 9 view .LVU354
 2225 0bc8 0420     		movs	r0, #4
 2226 0bca FFF7FEFF 		bl	RMS_Power
 2227              	.LVL288:
 2228 0bce FA22     		movs	r2, #250
 2229 0bd0 9200     		lsls	r2, r2, #2
 2230 0bd2 0023     		movs	r3, #0
 2231 0bd4 FFF7FEFF 		bl	__aeabi_ldivmod
 2232              	.LVL289:
 2233 0bd8 0200     		movs	r2, r0
 2234 0bda 0B00     		movs	r3, r1
 2235 0bdc 4946     		mov	r1, r9
 2236 0bde 2000     		movs	r0, r4
 2237 0be0 FFF7FEFF 		bl	sprintf
 2238              	.LVL290:
 167:Src/cmd.c     ****         SERIAL_WRITE("%03u dBm\t\t\n", abs(RMS_Power(ADC_PWD0_Power_CH)) % 1000);
 2239              		.loc 1 167 9 view .LVU355
 2240 0be4 82B2     		uxth	r2, r0
 2241 0be6 2B00     		movs	r3, r5
 2242 0be8 2100     		movs	r1, r4
 2243 0bea 3000     		movs	r0, r6
 2244              	.LVL291:
 167:Src/cmd.c     ****         SERIAL_WRITE("%03u dBm\t\t\n", abs(RMS_Power(ADC_PWD0_Power_CH)) % 1000);
 2245              		.loc 1 167 9 is_stmt 0 view .LVU356
 2246 0bec FFF7FEFF 		bl	HAL_UART_Transmit
 2247              	.LVL292:
 2248              	.LBE64:
 167:Src/cmd.c     ****         SERIAL_WRITE("%03u dBm\t\t\n", abs(RMS_Power(ADC_PWD0_Power_CH)) % 1000);
 2249              		.loc 1 167 67 is_stmt 1 view .LVU357
 2250              	.LBB65:
 168:Src/cmd.c     **** 
 2251              		.loc 1 168 9 view .LVU358
ARM GAS  C:\Users\matil\AppData\Local\Temp\ccSoTFQW.s 			page 52


 2252 0bf0 5B46     		mov	r3, fp
 2253 0bf2 0193     		str	r3, [sp, #4]
 2254 0bf4 6022     		movs	r2, #96
 2255 0bf6 0021     		movs	r1, #0
 2256 0bf8 02A8     		add	r0, sp, #8
 2257 0bfa FFF7FEFF 		bl	memset
 2258              	.LVL293:
 168:Src/cmd.c     **** 
 2259              		.loc 1 168 9 view .LVU359
 2260 0bfe 0420     		movs	r0, #4
 2261 0c00 FFF7FEFF 		bl	RMS_Power
 2262              	.LVL294:
 2263 0c04 C317     		asrs	r3, r0, #31
 2264 0c06 C018     		adds	r0, r0, r3
 2265 0c08 5840     		eors	r0, r3
 2266 0c0a 2900     		movs	r1, r5
 2267 0c0c FFF7FEFF 		bl	__aeabi_idivmod
 2268              	.LVL295:
 2269 0c10 0A00     		movs	r2, r1
 2270 0c12 7649     		ldr	r1, .L47+16
 2271 0c14 2000     		movs	r0, r4
 2272 0c16 FFF7FEFF 		bl	sprintf
 2273              	.LVL296:
 168:Src/cmd.c     **** 
 2274              		.loc 1 168 9 view .LVU360
 2275 0c1a 2B00     		movs	r3, r5
 2276 0c1c 0A22     		movs	r2, #10
 2277 0c1e 2100     		movs	r1, r4
 2278 0c20 3000     		movs	r0, r6
 2279 0c22 FFF7FEFF 		bl	HAL_UART_Transmit
 2280              	.LVL297:
 2281              	.LBE65:
 168:Src/cmd.c     **** 
 2282              		.loc 1 168 81 view .LVU361
 2283              	.LBB66:
 170:Src/cmd.c     ****         SERIAL_WRITE("%3li.", RMS_Power(ADC_PWD1_Power_CH) / 1000);
 2284              		.loc 1 170 9 view .LVU362
 2285 0c26 201D     		adds	r0, r4, #4
 2286 0c28 6022     		movs	r2, #96
 2287 0c2a 0021     		movs	r1, #0
 2288 0c2c FFF7FEFF 		bl	memset
 2289              	.LVL298:
 170:Src/cmd.c     ****         SERIAL_WRITE("%3li.", RMS_Power(ADC_PWD1_Power_CH) / 1000);
 2290              		.loc 1 170 9 view .LVU363
 2291 0c30 01AC     		add	r4, sp, #4
 2292 0c32 6F4B     		ldr	r3, .L47+20
 2293 0c34 2200     		movs	r2, r4
 2294 0c36 23CB     		ldmia	r3!, {r0, r1, r5}
 2295 0c38 23C2     		stmia	r2!, {r0, r1, r5}
 2296 0c3a 1B88     		ldrh	r3, [r3]
 2297 0c3c 1380     		strh	r3, [r2]
 2298              	.LVL299:
 170:Src/cmd.c     ****         SERIAL_WRITE("%3li.", RMS_Power(ADC_PWD1_Power_CH) / 1000);
 2299              		.loc 1 170 9 view .LVU364
 2300 0c3e FA25     		movs	r5, #250
 2301 0c40 AD00     		lsls	r5, r5, #2
 2302 0c42 6C4E     		ldr	r6, .L47+24
ARM GAS  C:\Users\matil\AppData\Local\Temp\ccSoTFQW.s 			page 53


 2303 0c44 2B00     		movs	r3, r5
 2304 0c46 0D22     		movs	r2, #13
 2305 0c48 2100     		movs	r1, r4
 2306 0c4a 3000     		movs	r0, r6
 2307 0c4c FFF7FEFF 		bl	HAL_UART_Transmit
 2308              	.LVL300:
 2309              	.LBE66:
 170:Src/cmd.c     ****         SERIAL_WRITE("%3li.", RMS_Power(ADC_PWD1_Power_CH) / 1000);
 2310              		.loc 1 170 40 view .LVU365
 2311              	.LBB67:
 171:Src/cmd.c     ****         SERIAL_WRITE("%03u dBm\t\t\n", abs(RMS_Power(ADC_PWD1_Power_CH)) % 1000);
 2312              		.loc 1 171 9 view .LVU366
 2313 0c50 0023     		movs	r3, #0
 2314 0c52 0193     		str	r3, [sp, #4]
 2315 0c54 6022     		movs	r2, #96
 2316 0c56 0021     		movs	r1, #0
 2317 0c58 02A8     		add	r0, sp, #8
 2318 0c5a FFF7FEFF 		bl	memset
 2319              	.LVL301:
 171:Src/cmd.c     ****         SERIAL_WRITE("%03u dBm\t\t\n", abs(RMS_Power(ADC_PWD1_Power_CH)) % 1000);
 2320              		.loc 1 171 9 view .LVU367
 2321 0c5e 0A20     		movs	r0, #10
 2322 0c60 FFF7FEFF 		bl	RMS_Power
 2323              	.LVL302:
 2324 0c64 FA22     		movs	r2, #250
 2325 0c66 9200     		lsls	r2, r2, #2
 2326 0c68 0023     		movs	r3, #0
 2327 0c6a FFF7FEFF 		bl	__aeabi_ldivmod
 2328              	.LVL303:
 2329 0c6e 0200     		movs	r2, r0
 2330 0c70 0B00     		movs	r3, r1
 2331 0c72 6149     		ldr	r1, .L47+28
 2332 0c74 8946     		mov	r9, r1
 2333 0c76 2000     		movs	r0, r4
 2334 0c78 FFF7FEFF 		bl	sprintf
 2335              	.LVL304:
 171:Src/cmd.c     ****         SERIAL_WRITE("%03u dBm\t\t\n", abs(RMS_Power(ADC_PWD1_Power_CH)) % 1000);
 2336              		.loc 1 171 9 view .LVU368
 2337 0c7c 82B2     		uxth	r2, r0
 2338 0c7e 2B00     		movs	r3, r5
 2339 0c80 2100     		movs	r1, r4
 2340 0c82 3000     		movs	r0, r6
 2341              	.LVL305:
 171:Src/cmd.c     ****         SERIAL_WRITE("%03u dBm\t\t\n", abs(RMS_Power(ADC_PWD1_Power_CH)) % 1000);
 2342              		.loc 1 171 9 is_stmt 0 view .LVU369
 2343 0c84 FFF7FEFF 		bl	HAL_UART_Transmit
 2344              	.LVL306:
 2345              	.LBE67:
 171:Src/cmd.c     ****         SERIAL_WRITE("%03u dBm\t\t\n", abs(RMS_Power(ADC_PWD1_Power_CH)) % 1000);
 2346              		.loc 1 171 67 is_stmt 1 view .LVU370
 2347              	.LBB68:
 172:Src/cmd.c     **** 
 2348              		.loc 1 172 9 view .LVU371
 2349 0c88 5B46     		mov	r3, fp
 2350 0c8a 0193     		str	r3, [sp, #4]
 2351 0c8c 6022     		movs	r2, #96
 2352 0c8e 0021     		movs	r1, #0
ARM GAS  C:\Users\matil\AppData\Local\Temp\ccSoTFQW.s 			page 54


 2353 0c90 02A8     		add	r0, sp, #8
 2354 0c92 FFF7FEFF 		bl	memset
 2355              	.LVL307:
 172:Src/cmd.c     **** 
 2356              		.loc 1 172 9 view .LVU372
 2357 0c96 0A20     		movs	r0, #10
 2358 0c98 FFF7FEFF 		bl	RMS_Power
 2359              	.LVL308:
 2360 0c9c C317     		asrs	r3, r0, #31
 2361 0c9e C018     		adds	r0, r0, r3
 2362 0ca0 5840     		eors	r0, r3
 2363 0ca2 2900     		movs	r1, r5
 2364 0ca4 FFF7FEFF 		bl	__aeabi_idivmod
 2365              	.LVL309:
 2366 0ca8 0A00     		movs	r2, r1
 2367 0caa 504B     		ldr	r3, .L47+16
 2368 0cac 9846     		mov	r8, r3
 2369 0cae 1900     		movs	r1, r3
 2370 0cb0 2000     		movs	r0, r4
 2371 0cb2 FFF7FEFF 		bl	sprintf
 2372              	.LVL310:
 172:Src/cmd.c     **** 
 2373              		.loc 1 172 9 view .LVU373
 2374 0cb6 2B00     		movs	r3, r5
 2375 0cb8 0A22     		movs	r2, #10
 2376 0cba 2100     		movs	r1, r4
 2377 0cbc 3000     		movs	r0, r6
 2378 0cbe FFF7FEFF 		bl	HAL_UART_Transmit
 2379              	.LVL311:
 2380              	.LBE68:
 172:Src/cmd.c     **** 
 2381              		.loc 1 172 81 view .LVU374
 2382              	.LBB69:
 174:Src/cmd.c     ****         SERIAL_WRITE("%3li.", RMS_Power(ADC_PWD2_Power_CH) / 1000);
 2383              		.loc 1 174 9 view .LVU375
 2384 0cc2 6022     		movs	r2, #96
 2385 0cc4 0021     		movs	r1, #0
 2386 0cc6 02A8     		add	r0, sp, #8
 2387 0cc8 FFF7FEFF 		bl	memset
 2388              	.LVL312:
 174:Src/cmd.c     ****         SERIAL_WRITE("%3li.", RMS_Power(ADC_PWD2_Power_CH) / 1000);
 2389              		.loc 1 174 9 view .LVU376
 2390 0ccc 4B4B     		ldr	r3, .L47+32
 2391 0cce 2200     		movs	r2, r4
 2392 0cd0 83CB     		ldmia	r3!, {r0, r1, r7}
 2393 0cd2 83C2     		stmia	r2!, {r0, r1, r7}
 2394 0cd4 1B88     		ldrh	r3, [r3]
 2395 0cd6 1380     		strh	r3, [r2]
 2396              	.LVL313:
 174:Src/cmd.c     ****         SERIAL_WRITE("%3li.", RMS_Power(ADC_PWD2_Power_CH) / 1000);
 2397              		.loc 1 174 9 view .LVU377
 2398 0cd8 2B00     		movs	r3, r5
 2399 0cda 0D22     		movs	r2, #13
 2400 0cdc 2100     		movs	r1, r4
 2401 0cde 3000     		movs	r0, r6
 2402 0ce0 FFF7FEFF 		bl	HAL_UART_Transmit
 2403              	.LVL314:
ARM GAS  C:\Users\matil\AppData\Local\Temp\ccSoTFQW.s 			page 55


 2404              	.LBE69:
 174:Src/cmd.c     ****         SERIAL_WRITE("%3li.", RMS_Power(ADC_PWD2_Power_CH) / 1000);
 2405              		.loc 1 174 40 view .LVU378
 2406              	.LBB70:
 175:Src/cmd.c     ****         SERIAL_WRITE("%03u dBm\t\t\n", abs(RMS_Power(ADC_PWD2_Power_CH)) % 1000);
 2407              		.loc 1 175 9 view .LVU379
 2408 0ce4 5B46     		mov	r3, fp
 2409 0ce6 0193     		str	r3, [sp, #4]
 2410 0ce8 6022     		movs	r2, #96
 2411 0cea 0021     		movs	r1, #0
 2412 0cec 02A8     		add	r0, sp, #8
 2413 0cee FFF7FEFF 		bl	memset
 2414              	.LVL315:
 175:Src/cmd.c     ****         SERIAL_WRITE("%03u dBm\t\t\n", abs(RMS_Power(ADC_PWD2_Power_CH)) % 1000);
 2415              		.loc 1 175 9 view .LVU380
 2416 0cf2 0920     		movs	r0, #9
 2417 0cf4 FFF7FEFF 		bl	RMS_Power
 2418              	.LVL316:
 2419 0cf8 FA22     		movs	r2, #250
 2420 0cfa 9200     		lsls	r2, r2, #2
 2421 0cfc 0023     		movs	r3, #0
 2422 0cfe FFF7FEFF 		bl	__aeabi_ldivmod
 2423              	.LVL317:
 2424 0d02 0200     		movs	r2, r0
 2425 0d04 0B00     		movs	r3, r1
 2426 0d06 4946     		mov	r1, r9
 2427 0d08 2000     		movs	r0, r4
 2428 0d0a FFF7FEFF 		bl	sprintf
 2429              	.LVL318:
 175:Src/cmd.c     ****         SERIAL_WRITE("%03u dBm\t\t\n", abs(RMS_Power(ADC_PWD2_Power_CH)) % 1000);
 2430              		.loc 1 175 9 view .LVU381
 2431 0d0e 82B2     		uxth	r2, r0
 2432 0d10 2B00     		movs	r3, r5
 2433 0d12 2100     		movs	r1, r4
 2434 0d14 3000     		movs	r0, r6
 2435              	.LVL319:
 175:Src/cmd.c     ****         SERIAL_WRITE("%03u dBm\t\t\n", abs(RMS_Power(ADC_PWD2_Power_CH)) % 1000);
 2436              		.loc 1 175 9 is_stmt 0 view .LVU382
 2437 0d16 FFF7FEFF 		bl	HAL_UART_Transmit
 2438              	.LVL320:
 2439              	.LBE70:
 175:Src/cmd.c     ****         SERIAL_WRITE("%03u dBm\t\t\n", abs(RMS_Power(ADC_PWD2_Power_CH)) % 1000);
 2440              		.loc 1 175 67 is_stmt 1 view .LVU383
 2441              	.LBB71:
 176:Src/cmd.c     **** 
 2442              		.loc 1 176 9 view .LVU384
 2443 0d1a 5B46     		mov	r3, fp
 2444 0d1c 0193     		str	r3, [sp, #4]
 2445 0d1e 6022     		movs	r2, #96
 2446 0d20 0021     		movs	r1, #0
 2447 0d22 02A8     		add	r0, sp, #8
 2448 0d24 FFF7FEFF 		bl	memset
 2449              	.LVL321:
 176:Src/cmd.c     **** 
 2450              		.loc 1 176 9 view .LVU385
 2451 0d28 0920     		movs	r0, #9
 2452 0d2a FFF7FEFF 		bl	RMS_Power
ARM GAS  C:\Users\matil\AppData\Local\Temp\ccSoTFQW.s 			page 56


 2453              	.LVL322:
 2454 0d2e C317     		asrs	r3, r0, #31
 2455 0d30 C018     		adds	r0, r0, r3
 2456 0d32 5840     		eors	r0, r3
 2457 0d34 2900     		movs	r1, r5
 2458 0d36 FFF7FEFF 		bl	__aeabi_idivmod
 2459              	.LVL323:
 2460 0d3a 0A00     		movs	r2, r1
 2461 0d3c 4146     		mov	r1, r8
 2462 0d3e 2000     		movs	r0, r4
 2463 0d40 FFF7FEFF 		bl	sprintf
 2464              	.LVL324:
 176:Src/cmd.c     **** 
 2465              		.loc 1 176 9 view .LVU386
 2466 0d44 2B00     		movs	r3, r5
 2467 0d46 0A22     		movs	r2, #10
 2468 0d48 2100     		movs	r1, r4
 2469 0d4a 3000     		movs	r0, r6
 2470 0d4c FFF7FEFF 		bl	HAL_UART_Transmit
 2471              	.LVL325:
 2472              	.LBE71:
 176:Src/cmd.c     **** 
 2473              		.loc 1 176 81 view .LVU387
 2474              	.LBB72:
 178:Src/cmd.c     ****         SERIAL_WRITE("%3li.", RMS_Power(ADC_PWD3_Power_CH) / 1000);
 2475              		.loc 1 178 9 view .LVU388
 2476 0d50 6022     		movs	r2, #96
 2477 0d52 0021     		movs	r1, #0
 2478 0d54 02A8     		add	r0, sp, #8
 2479 0d56 FFF7FEFF 		bl	memset
 2480              	.LVL326:
 178:Src/cmd.c     ****         SERIAL_WRITE("%3li.", RMS_Power(ADC_PWD3_Power_CH) / 1000);
 2481              		.loc 1 178 9 view .LVU389
 2482 0d5a 294B     		ldr	r3, .L47+36
 2483 0d5c 2200     		movs	r2, r4
 2484 0d5e 83CB     		ldmia	r3!, {r0, r1, r7}
 2485 0d60 83C2     		stmia	r2!, {r0, r1, r7}
 2486 0d62 1B88     		ldrh	r3, [r3]
 2487 0d64 1380     		strh	r3, [r2]
 2488              	.LVL327:
 178:Src/cmd.c     ****         SERIAL_WRITE("%3li.", RMS_Power(ADC_PWD3_Power_CH) / 1000);
 2489              		.loc 1 178 9 view .LVU390
 2490 0d66 2B00     		movs	r3, r5
 2491 0d68 0D22     		movs	r2, #13
 2492 0d6a 2100     		movs	r1, r4
 2493 0d6c 3000     		movs	r0, r6
 2494 0d6e FFF7FEFF 		bl	HAL_UART_Transmit
 2495              	.LVL328:
 2496              	.LBE72:
 178:Src/cmd.c     ****         SERIAL_WRITE("%3li.", RMS_Power(ADC_PWD3_Power_CH) / 1000);
 2497              		.loc 1 178 40 view .LVU391
 2498              	.LBB73:
 179:Src/cmd.c     ****         SERIAL_WRITE("%03u dBm\t\t\n", abs(RMS_Power(ADC_PWD3_Power_CH)) % 1000);
 2499              		.loc 1 179 9 view .LVU392
 2500 0d72 5B46     		mov	r3, fp
 2501 0d74 0193     		str	r3, [sp, #4]
 2502 0d76 6022     		movs	r2, #96
ARM GAS  C:\Users\matil\AppData\Local\Temp\ccSoTFQW.s 			page 57


 2503 0d78 0021     		movs	r1, #0
 2504 0d7a 02A8     		add	r0, sp, #8
 2505 0d7c FFF7FEFF 		bl	memset
 2506              	.LVL329:
 179:Src/cmd.c     ****         SERIAL_WRITE("%03u dBm\t\t\n", abs(RMS_Power(ADC_PWD3_Power_CH)) % 1000);
 2507              		.loc 1 179 9 view .LVU393
 2508 0d80 0F20     		movs	r0, #15
 2509 0d82 FFF7FEFF 		bl	RMS_Power
 2510              	.LVL330:
 2511 0d86 FA22     		movs	r2, #250
 2512 0d88 9200     		lsls	r2, r2, #2
 2513 0d8a 0023     		movs	r3, #0
 2514 0d8c FFF7FEFF 		bl	__aeabi_ldivmod
 2515              	.LVL331:
 2516 0d90 0200     		movs	r2, r0
 2517 0d92 0B00     		movs	r3, r1
 2518 0d94 4946     		mov	r1, r9
 2519 0d96 2000     		movs	r0, r4
 2520 0d98 FFF7FEFF 		bl	sprintf
 2521              	.LVL332:
 179:Src/cmd.c     ****         SERIAL_WRITE("%03u dBm\t\t\n", abs(RMS_Power(ADC_PWD3_Power_CH)) % 1000);
 2522              		.loc 1 179 9 view .LVU394
 2523 0d9c 82B2     		uxth	r2, r0
 2524 0d9e 2B00     		movs	r3, r5
 2525 0da0 2100     		movs	r1, r4
 2526 0da2 3000     		movs	r0, r6
 2527              	.LVL333:
 179:Src/cmd.c     ****         SERIAL_WRITE("%03u dBm\t\t\n", abs(RMS_Power(ADC_PWD3_Power_CH)) % 1000);
 2528              		.loc 1 179 9 is_stmt 0 view .LVU395
 2529 0da4 FFF7FEFF 		bl	HAL_UART_Transmit
 2530              	.LVL334:
 2531              	.LBE73:
 179:Src/cmd.c     ****         SERIAL_WRITE("%03u dBm\t\t\n", abs(RMS_Power(ADC_PWD3_Power_CH)) % 1000);
 2532              		.loc 1 179 67 is_stmt 1 view .LVU396
 2533              	.LBB74:
 180:Src/cmd.c     ****         State.cmd = 0;
 2534              		.loc 1 180 9 view .LVU397
 2535 0da8 5B46     		mov	r3, fp
 2536 0daa 0193     		str	r3, [sp, #4]
 2537 0dac 6022     		movs	r2, #96
 2538 0dae 0021     		movs	r1, #0
 2539 0db0 02A8     		add	r0, sp, #8
 2540 0db2 FFF7FEFF 		bl	memset
 2541              	.LVL335:
 180:Src/cmd.c     ****         State.cmd = 0;
 2542              		.loc 1 180 9 view .LVU398
 2543 0db6 0F20     		movs	r0, #15
 2544 0db8 FFF7FEFF 		bl	RMS_Power
 2545              	.LVL336:
 2546 0dbc C317     		asrs	r3, r0, #31
 2547 0dbe C018     		adds	r0, r0, r3
 2548 0dc0 5840     		eors	r0, r3
 2549 0dc2 2900     		movs	r1, r5
 2550 0dc4 FFF7FEFF 		bl	__aeabi_idivmod
 2551              	.LVL337:
 2552 0dc8 0A00     		movs	r2, r1
 2553 0dca 4146     		mov	r1, r8
ARM GAS  C:\Users\matil\AppData\Local\Temp\ccSoTFQW.s 			page 58


 2554 0dcc 2000     		movs	r0, r4
 2555 0dce FFF7FEFF 		bl	sprintf
 2556              	.LVL338:
 180:Src/cmd.c     ****         State.cmd = 0;
 2557              		.loc 1 180 9 view .LVU399
 2558 0dd2 2B00     		movs	r3, r5
 2559 0dd4 0A22     		movs	r2, #10
 2560 0dd6 2100     		movs	r1, r4
 2561 0dd8 3000     		movs	r0, r6
 2562 0dda 13E0     		b	.L48
 2563              	.L49:
 2564              		.align	2
 2565              	.L47:
 2566 0ddc 28020000 		.word	.LC64
 2567 0de0 3C020000 		.word	.LC66
 2568 0de4 50020000 		.word	.LC68
 2569 0de8 64020000 		.word	.LC70
 2570 0dec 74020000 		.word	.LC72
 2571 0df0 80020000 		.word	.LC74
 2572 0df4 00000000 		.word	huart2
 2573 0df8 00020000 		.word	.LC58
 2574 0dfc 90020000 		.word	.LC76
 2575 0e00 A0020000 		.word	.LC78
 2576              	.L48:
 2577 0e04 FFF7FEFF 		bl	HAL_UART_Transmit
 2578              	.LVL339:
 2579              	.LBE74:
 180:Src/cmd.c     ****         State.cmd = 0;
 2580              		.loc 1 180 81 view .LVU400
 181:Src/cmd.c     **** 
 2581              		.loc 1 181 9 view .LVU401
 181:Src/cmd.c     **** 
 2582              		.loc 1 181 19 is_stmt 0 view .LVU402
 2583 0e08 024B     		ldr	r3, .L50
 2584 0e0a 5A46     		mov	r2, fp
 2585 0e0c 5A72     		strb	r2, [r3, #9]
 183:Src/cmd.c     ****     }
 2586              		.loc 1 183 9 is_stmt 1 view .LVU403
 2587 0e0e FFF75FF9 		bl	.L1	@ far jump
 2588              	.L51:
 2589 0e12 C046     		.align	2
 2590              	.L50:
 2591 0e14 00000000 		.word	State
 2592              		.cfi_endproc
 2593              	.LFE284:
 2595              		.text
 2596              	.Letext0:
 2597              		.file 2 "c:\\gnu tools arm embedded\\arm-none-eabi\\include\\machine\\_default_types.h"
 2598              		.file 3 "c:\\gnu tools arm embedded\\arm-none-eabi\\include\\sys\\_stdint.h"
 2599              		.file 4 "Drivers/CMSIS/Device/ST/STM32G0xx/Include/system_stm32g0xx.h"
 2600              		.file 5 "Drivers/CMSIS/Device/ST/STM32G0xx/Include/stm32g071xx.h"
 2601              		.file 6 "Drivers/STM32G0xx_HAL_Driver/Inc/stm32g0xx_hal_def.h"
 2602              		.file 7 "Drivers/STM32G0xx_HAL_Driver/Inc/stm32g0xx_hal_dma.h"
 2603              		.file 8 "Drivers/STM32G0xx_HAL_Driver/Inc/stm32g0xx_hal_flash.h"
 2604              		.file 9 "Drivers/STM32G0xx_HAL_Driver/Inc/stm32g0xx_hal_spi.h"
 2605              		.file 10 "Drivers/STM32G0xx_HAL_Driver/Inc/stm32g0xx_hal_uart.h"
 2606              		.file 11 "Drivers/STM32G0xx_HAL_Driver/Inc/stm32g0xx_hal.h"
ARM GAS  C:\Users\matil\AppData\Local\Temp\ccSoTFQW.s 			page 59


 2607              		.file 12 "c:\\gnu tools arm embedded\\arm-none-eabi\\include\\sys\\lock.h"
 2608              		.file 13 "c:\\gnu tools arm embedded\\arm-none-eabi\\include\\sys\\_types.h"
 2609              		.file 14 "c:\\gnu tools arm embedded\\lib\\gcc\\arm-none-eabi\\9.2.1\\include\\stddef.h"
 2610              		.file 15 "c:\\gnu tools arm embedded\\arm-none-eabi\\include\\sys\\reent.h"
 2611              		.file 16 "Inc/usart.h"
 2612              		.file 17 "Inc/state.h"
 2613              		.file 18 "Inc/spi.h"
 2614              		.file 19 "c:\\gnu tools arm embedded\\arm-none-eabi\\include\\stdlib.h"
 2615              		.file 20 "Drivers/STM32G0xx_HAL_Driver/Inc/stm32g0xx_hal_gpio.h"
 2616              		.file 21 "Inc/ADC.h"
 2617              		.file 22 "c:\\gnu tools arm embedded\\arm-none-eabi\\include\\stdio.h"
 2618              		.file 23 "Inc/PID.h"
 2619              		.file 24 "Inc/DAC.h"
 2620              		.file 25 "<built-in>"
ARM GAS  C:\Users\matil\AppData\Local\Temp\ccSoTFQW.s 			page 60


DEFINED SYMBOLS
                            *ABS*:00000000 cmd.c
C:\Users\matil\AppData\Local\Temp\ccSoTFQW.s:16     .rodata.cmd.str1.4:00000000 $d
C:\Users\matil\AppData\Local\Temp\ccSoTFQW.s:138    .text.cmd:00000000 $t
C:\Users\matil\AppData\Local\Temp\ccSoTFQW.s:146    .text.cmd:00000000 cmd
C:\Users\matil\AppData\Local\Temp\ccSoTFQW.s:197    .rodata.cmd:00000000 $d
C:\Users\matil\AppData\Local\Temp\ccSoTFQW.s:851    .text.cmd:00000378 $d
C:\Users\matil\AppData\Local\Temp\ccSoTFQW.s:874    .text.cmd:000003c4 $t
C:\Users\matil\AppData\Local\Temp\ccSoTFQW.s:1206   .text.cmd:00000570 $d
C:\Users\matil\AppData\Local\Temp\ccSoTFQW.s:1222   .text.cmd:000005a0 $t
C:\Users\matil\AppData\Local\Temp\ccSoTFQW.s:1890   .text.cmd:000009a8 $d
C:\Users\matil\AppData\Local\Temp\ccSoTFQW.s:1904   .text.cmd:000009dc $t
C:\Users\matil\AppData\Local\Temp\ccSoTFQW.s:2566   .text.cmd:00000ddc $d
C:\Users\matil\AppData\Local\Temp\ccSoTFQW.s:2577   .text.cmd:00000e04 $t
C:\Users\matil\AppData\Local\Temp\ccSoTFQW.s:2591   .text.cmd:00000e14 $d

UNDEFINED SYMBOLS
__aeabi_lmul
__aeabi_uldivmod
__aeabi_ldivmod
__aeabi_idivmod
HAL_GPIO_TogglePin
memset
HAL_UART_Transmit
HAL_Delay
ADC_ID
sprintf
ADC_DATA_READY_EXTI_deInit
HAL_SPI_MspInit
ADC_CMD
ADC_SPI_READ_8
ADC_SPI_READ_16
ADC_SPI_READ_24
State
huart2
hspi2
HAL_SPI_MspDeInit
ADC_DATA_READY_EXTI_Init
Temperature
DAC_test
Phase
Relative_Power
RMS_Power
