ARM GAS  C:\Users\matil\AppData\Local\Temp\ccsOks9N.s 			page 1


   1              		.cpu cortex-m0plus
   2              		.eabi_attribute 20, 1
   3              		.eabi_attribute 21, 1
   4              		.eabi_attribute 23, 3
   5              		.eabi_attribute 24, 1
   6              		.eabi_attribute 25, 1
   7              		.eabi_attribute 26, 1
   8              		.eabi_attribute 30, 1
   9              		.eabi_attribute 34, 0
  10              		.eabi_attribute 18, 4
  11              		.file	"cmd.c"
  12              		.text
  13              	.Ltext0:
  14              		.cfi_sections	.debug_frame
  15              		.section	.rodata.cmd.str1.4,"aMS",%progbits,1
  16              		.align	2
  17              	.LC3:
  18 0000 30782530 		.ascii	"0x%06x\012\000"
  18      36780A00 
  19              		.align	2
  20              	.LC5:
  21 0008 41444320 		.ascii	"ADC RESET\012\000"
  21      52455345 
  21      540A00
  22 0013 00       		.align	2
  23              	.LC7:
  24 0014 41444320 		.ascii	"ADC DEBUG:\012\012\000"
  24      44454255 
  24      473A0A0A 
  24      00
  25 0021 000000   		.align	2
  26              	.LC9:
  27 0024 09414443 		.ascii	"\011ADC_STATUS_REG:\011\0110x%02x\012\000"
  27      5F535441 
  27      5455535F 
  27      5245473A 
  27      09093078 
  28 003e 0000     		.align	2
  29              	.LC11:
  30 0040 09414443 		.ascii	"\011ADC_MODE_REG:\011\0110x%04x\012\000"
  30      5F4D4F44 
  30      455F5245 
  30      473A0909 
  30      30782530 
  31              		.align	2
  32              	.LC13:
  33 0058 09414443 		.ascii	"\011ADC_INTERFACE_REG:\0110x%04x\012\000"
  33      5F494E54 
  33      45524641 
  33      43455F52 
  33      45473A09 
  34              		.align	2
  35              	.LC15:
  36 0074 09414443 		.ascii	"\011ADC_CHECK_REG:\011\0110x%06x\012\000"
  36      5F434845 
  36      434B5F52 
  36      45473A09 
ARM GAS  C:\Users\matil\AppData\Local\Temp\ccsOks9N.s 			page 2


  36      09307825 
  37 008d 000000   		.align	2
  38              	.LC17:
  39 0090 09414443 		.ascii	"\011ADC_DATA_REG:\011\0110x%06x\012\000"
  39      5F444154 
  39      415F5245 
  39      473A0909 
  39      30782530 
  40              		.align	2
  41              	.LC19:
  42 00a8 09414443 		.ascii	"\011ADC_GPIO_REG:\011\0110x%04x\012\000"
  42      5F475049 
  42      4F5F5245 
  42      473A0909 
  42      30782530 
  43              		.align	2
  44              	.LC21:
  45 00c0 09414443 		.ascii	"\011ADC_ID_REG:\011\0110x%04x\012\000"
  45      5F49445F 
  45      5245473A 
  45      09093078 
  45      25303478 
  46 00d6 0000     		.align	2
  47              	.LC23:
  48 00d8 09414443 		.ascii	"\011ADC_CH%i_REG:\011\0110x%04x\012\000"
  48      5F434825 
  48      695F5245 
  48      473A0909 
  48      30782530 
  49              		.align	2
  50              	.LC25:
  51 00f0 09414443 		.ascii	"\011ADC_SETUPCON%i_REG:\0110x%04x\012\000"
  51      5F534554 
  51      5550434F 
  51      4E25695F 
  51      5245473A 
  52 010d 000000   		.align	2
  53              	.LC27:
  54 0110 09414443 		.ascii	"\011ADC_FILTCON%i_REG:\0110x%04x\012\000"
  54      5F46494C 
  54      54434F4E 
  54      25695F52 
  54      45473A09 
  55              		.align	2
  56              	.LC29:
  57 012c 09414443 		.ascii	"\011ADC_OFFSET%i_REG:\0110x%04x\012\000"
  57      5F4F4646 
  57      53455425 
  57      695F5245 
  57      473A0930 
  58 0147 00       		.align	2
  59              	.LC31:
  60 0148 09414443 		.ascii	"\011ADC_GAIN%i_REG:\011\0110x%04x\012\000"
  60      5F474149 
  60      4E25695F 
  60      5245473A 
  60      09093078 
ARM GAS  C:\Users\matil\AppData\Local\Temp\ccsOks9N.s 			page 3


  61              		.global	__aeabi_lmul
  62              		.global	__aeabi_uldivmod
  63 0162 0000     		.align	2
  64              	.LC33:
  65 0164 5B25695D 		.ascii	"[%i]\011\000"
  65      0900
  66 016a 0000     		.align	2
  67              	.LC35:
  68 016c 25313069 		.ascii	"%10i uV\011\011\000"
  68      20755609 
  68      0900
  69              		.global	__aeabi_idiv
  70 0176 0000     		.align	2
  71              	.LC37:
  72 0178 25692E00 		.ascii	"%i.\000"
  73              		.global	__aeabi_idivmod
  74              		.align	2
  75              	.LC39:
  76 017c 25303375 		.ascii	"%03u *C\012\000"
  76      202A430A 
  76      00
  77 0185 000000   		.align	2
  78              	.LC41:
  79 0188 756E6465 		.ascii	"undefined\012\000"
  79      66696E65 
  79      640A00
  80              		.section	.text.cmd,"ax",%progbits
  81              		.align	1
  82              		.global	cmd
  83              		.arch armv6s-m
  84              		.syntax unified
  85              		.code	16
  86              		.thumb_func
  87              		.fpu softvfp
  89              	cmd:
  90              	.LFB284:
  91              		.file 1 "Src/cmd.c"
   1:Src/cmd.c     **** #include "usart.h"
   2:Src/cmd.c     **** #include <stdio.h>
   3:Src/cmd.c     **** #include "state.h"
   4:Src/cmd.c     **** #include "usart_utils.h"
   5:Src/cmd.c     **** #include "ADC.h"
   6:Src/cmd.c     **** #include "DAC.h"
   7:Src/cmd.c     **** extern state State;
   8:Src/cmd.c     **** 
   9:Src/cmd.c     **** uint8_t cmd()
  10:Src/cmd.c     **** {
  92              		.loc 1 10 1 view -0
  93              		.cfi_startproc
  94              		@ args = 0, pretend = 0, frame = 104
  95              		@ frame_needed = 0, uses_anonymous_args = 0
  96 0000 F0B5     		push	{r4, r5, r6, r7, lr}
  97              	.LCFI0:
  98              		.cfi_def_cfa_offset 20
  99              		.cfi_offset 4, -20
 100              		.cfi_offset 5, -16
 101              		.cfi_offset 6, -12
ARM GAS  C:\Users\matil\AppData\Local\Temp\ccsOks9N.s 			page 4


 102              		.cfi_offset 7, -8
 103              		.cfi_offset 14, -4
 104 0002 D646     		mov	lr, r10
 105 0004 4F46     		mov	r7, r9
 106 0006 4646     		mov	r6, r8
 107 0008 C0B5     		push	{r6, r7, lr}
 108              	.LCFI1:
 109              		.cfi_def_cfa_offset 32
 110              		.cfi_offset 8, -32
 111              		.cfi_offset 9, -28
 112              		.cfi_offset 10, -24
 113 000a 9AB0     		sub	sp, sp, #104
 114              	.LCFI2:
 115              		.cfi_def_cfa_offset 136
  11:Src/cmd.c     ****     if (State.cmd)
 116              		.loc 1 11 5 view .LVU1
 117              		.loc 1 11 14 is_stmt 0 view .LVU2
 118 000c E14A     		ldr	r2, .L31
 119 000e 4D23     		movs	r3, #77
 120 0010 D35C     		ldrb	r3, [r2, r3]
 121              		.loc 1 11 8 view .LVU3
 122 0012 002B     		cmp	r3, #0
 123 0014 0CD1     		bne	.L29
 124              	.L2:
  12:Src/cmd.c     ****     {
  13:Src/cmd.c     ****         HAL_GPIO_TogglePin(LED_PHASE_GPIO_Port, LED_PHASE_Pin);
  14:Src/cmd.c     ****     }
  15:Src/cmd.c     ****     switch (State.cmd)
 125              		.loc 1 15 5 is_stmt 1 view .LVU4
 126              		.loc 1 15 18 is_stmt 0 view .LVU5
 127 0016 DF4A     		ldr	r2, .L31
 128 0018 4D23     		movs	r3, #77
 129 001a D35C     		ldrb	r3, [r2, r3]
 130              		.loc 1 15 5 view .LVU6
 131 001c 082B     		cmp	r3, #8
 132 001e 0DD8     		bhi	.L3
 133 0020 002B     		cmp	r3, #0
 134 0022 5CD0     		beq	.L4
 135 0024 082B     		cmp	r3, #8
 136 0026 5AD8     		bhi	.L4
 137 0028 9B00     		lsls	r3, r3, #2
 138 002a DB4A     		ldr	r2, .L31+4
 139 002c D358     		ldr	r3, [r2, r3]
 140 002e 9F46     		mov	pc, r3
 141              		.section	.rodata.cmd,"a",%progbits
 142              		.align	2
 143              	.L6:
 144 0000 DE000000 		.word	.L4
 145 0004 72000000 		.word	.L13
 146 0008 AE000000 		.word	.L12
 147 000c 24010000 		.word	.L11
 148 0010 5C010000 		.word	.L10
 149 0014 EA000000 		.word	.L9
 150 0018 66040000 		.word	.L28
 151 001c 12050000 		.word	.L7
 152 0020 7C050000 		.word	.L5
 153              		.section	.text.cmd
ARM GAS  C:\Users\matil\AppData\Local\Temp\ccsOks9N.s 			page 5


 154              	.L29:
  13:Src/cmd.c     ****     }
 155              		.loc 1 13 9 is_stmt 1 view .LVU7
 156 0030 A020     		movs	r0, #160
 157 0032 0121     		movs	r1, #1
 158 0034 C005     		lsls	r0, r0, #23
 159 0036 FFF7FEFF 		bl	HAL_GPIO_TogglePin
 160              	.LVL0:
 161 003a ECE7     		b	.L2
 162              	.L3:
 163              		.loc 1 15 5 is_stmt 0 view .LVU8
 164 003c FF2B     		cmp	r3, #255
 165 003e 4ED1     		bne	.L4
  16:Src/cmd.c     ****     {
  17:Src/cmd.c     ****     case cmd_blink:
  18:Src/cmd.c     ****     {
  19:Src/cmd.c     ****         State.cmd = 0;
  20:Src/cmd.c     ****         SERIAL_WRITE("ok\n");
  21:Src/cmd.c     ****         for (int i = 0; i < 10; i++)
  22:Src/cmd.c     ****         {
  23:Src/cmd.c     ****             HAL_GPIO_TogglePin(LED_PHASE_GPIO_Port, LED_PHASE_Pin);
  24:Src/cmd.c     ****             HAL_Delay(100);
  25:Src/cmd.c     ****         }
  26:Src/cmd.c     ****         break;
  27:Src/cmd.c     ****     }
  28:Src/cmd.c     ****     case cmd_adc_id:
  29:Src/cmd.c     ****     {
  30:Src/cmd.c     ****         SERIAL_WRITE("0x%06x\n", ADC_ID());
  31:Src/cmd.c     ****         State.cmd = 0;
  32:Src/cmd.c     ****         break;
  33:Src/cmd.c     ****     }
  34:Src/cmd.c     ****     case cmd_adc_data:
  35:Src/cmd.c     ****     {
  36:Src/cmd.c     ****         ADC_CMD(ADC_READ, ADC_DATA_REG);
  37:Src/cmd.c     ****         SERIAL_WRITE("0x%06x\n", ADC_SPI_READ_24());
  38:Src/cmd.c     ****         State.cmd = 0;
  39:Src/cmd.c     ****         break;
  40:Src/cmd.c     ****     }
  41:Src/cmd.c     ****     case cmd_adc_reset:
  42:Src/cmd.c     ****     {
  43:Src/cmd.c     ****         SERIAL_WRITE("ADC RESET\n");
  44:Src/cmd.c     ****         ADC_reset();
  45:Src/cmd.c     ****         State.cmd = 0;
  46:Src/cmd.c     ****         break;
  47:Src/cmd.c     ****     }
  48:Src/cmd.c     ****     case cmd_adc_debug:
  49:Src/cmd.c     ****     {
  50:Src/cmd.c     ****         SERIAL_WRITE("ADC DEBUG:\n\n");
  51:Src/cmd.c     ****         ADC_CMD(ADC_READ, ADC_STATUS_REG);
  52:Src/cmd.c     ****         SERIAL_WRITE("\tADC_STATUS_REG:\t\t0x%02x\n", ADC_SPI_READ_8());
  53:Src/cmd.c     ****         ADC_CMD(ADC_READ, ADC_MODE_REG);
  54:Src/cmd.c     ****         SERIAL_WRITE("\tADC_MODE_REG:\t\t0x%04x\n", ADC_SPI_READ_16());
  55:Src/cmd.c     ****         ADC_CMD(ADC_READ, ADC_INTERFACE_REG);
  56:Src/cmd.c     ****         SERIAL_WRITE("\tADC_INTERFACE_REG:\t0x%04x\n", ADC_SPI_READ_16());
  57:Src/cmd.c     ****         ADC_CMD(ADC_READ, ADC_CHECK_REG);
  58:Src/cmd.c     ****         SERIAL_WRITE("\tADC_CHECK_REG:\t\t0x%06x\n", ADC_SPI_READ_24());
  59:Src/cmd.c     ****         ADC_CMD(ADC_READ, ADC_DATA_REG);
ARM GAS  C:\Users\matil\AppData\Local\Temp\ccsOks9N.s 			page 6


  60:Src/cmd.c     ****         SERIAL_WRITE("\tADC_DATA_REG:\t\t0x%06x\n", ADC_SPI_READ_24());
  61:Src/cmd.c     ****         ADC_CMD(ADC_READ, ADC_GPIO_REG);
  62:Src/cmd.c     ****         SERIAL_WRITE("\tADC_GPIO_REG:\t\t0x%04x\n", ADC_SPI_READ_16());
  63:Src/cmd.c     ****         ADC_CMD(ADC_READ, ADC_ID_REG);
  64:Src/cmd.c     ****         SERIAL_WRITE("\tADC_ID_REG:\t\t0x%04x\n", ADC_SPI_READ_16());
  65:Src/cmd.c     ****         for (int i = 0; i < 15; i++)
  66:Src/cmd.c     ****         {
  67:Src/cmd.c     ****             ADC_CMD(ADC_READ, ADC_CHx_REG(i));
  68:Src/cmd.c     ****             SERIAL_WRITE("\tADC_CH%i_REG:\t\t0x%04x\n", i, ADC_SPI_READ_16());
  69:Src/cmd.c     ****         }
  70:Src/cmd.c     ****         for (int i = 0; i < 7; i++)
  71:Src/cmd.c     ****         {
  72:Src/cmd.c     ****             ADC_CMD(ADC_READ, ADC_SETUPCONx_REG(i));
  73:Src/cmd.c     ****             SERIAL_WRITE("\tADC_SETUPCON%i_REG:\t0x%04x\n", i, ADC_SPI_READ_16());
  74:Src/cmd.c     ****         }
  75:Src/cmd.c     ****         for (int i = 0; i < 7; i++)
  76:Src/cmd.c     ****         {
  77:Src/cmd.c     ****             ADC_CMD(ADC_READ, ADC_FILTCONx_REG(i));
  78:Src/cmd.c     ****             SERIAL_WRITE("\tADC_FILTCON%i_REG:\t0x%04x\n", i, ADC_SPI_READ_16());
  79:Src/cmd.c     ****         }
  80:Src/cmd.c     ****         for (int i = 0; i < 7; i++)
  81:Src/cmd.c     ****         {
  82:Src/cmd.c     ****             ADC_CMD(ADC_READ, ADC_OFFSETx_REG(i));
  83:Src/cmd.c     ****             SERIAL_WRITE("\tADC_OFFSET%i_REG:\t0x%04x\n", i, ADC_SPI_READ_24());
  84:Src/cmd.c     ****         }
  85:Src/cmd.c     ****         for (int i = 0; i < 7; i++)
  86:Src/cmd.c     ****         {
  87:Src/cmd.c     ****             ADC_CMD(ADC_READ, ADC_GAINx_REG(i));
  88:Src/cmd.c     ****             SERIAL_WRITE("\tADC_GAIN%i_REG:\t\t0x%04x\n", i, ADC_SPI_READ_24());
  89:Src/cmd.c     ****         }
  90:Src/cmd.c     ****         State.cmd = 0;
  91:Src/cmd.c     ****         break;
  92:Src/cmd.c     ****     }
  93:Src/cmd.c     ****     case cmd_adc_values:
  94:Src/cmd.c     ****     {
  95:Src/cmd.c     ****         for (int i = 0; i < 16; i++)
  96:Src/cmd.c     ****         {
  97:Src/cmd.c     ****             uint64_t voltage_uV = (((uint64_t)State.ADC_Values[i] * 1800000) / 0xffffff);
  98:Src/cmd.c     ****             SERIAL_WRITE("[%i]\t", i);
  99:Src/cmd.c     ****             SERIAL_WRITE("%10i uV\t\t", voltage_uV);
 100:Src/cmd.c     ****             SERIAL_WRITE("0x%06x\n", State.ADC_Values[i]);
 101:Src/cmd.c     ****         }
 102:Src/cmd.c     ****         State.cmd = 0;
 103:Src/cmd.c     ****         break;
 104:Src/cmd.c     ****     }
 105:Src/cmd.c     ****     case cmd_temperature:
 106:Src/cmd.c     ****     {
 107:Src/cmd.c     ****         SERIAL_WRITE("%i.", State.temperature / 1000000);             //-66.875 to +52.443 C
 108:Src/cmd.c     ****         SERIAL_WRITE("%03u *C\n", (State.temperature / 1000) % 1000); //-66.875 to +52.443 C
 109:Src/cmd.c     ****         State.cmd = 0;
 110:Src/cmd.c     ****         break;
 111:Src/cmd.c     ****     }
 112:Src/cmd.c     ****     case cmd_dac_test:
 113:Src/cmd.c     ****     {
 114:Src/cmd.c     ****         SERIAL_WRITE("\n");
 115:Src/cmd.c     ****         DAC_test();
 116:Src/cmd.c     ****         State.cmd = 0;
ARM GAS  C:\Users\matil\AppData\Local\Temp\ccsOks9N.s 			page 7


 117:Src/cmd.c     ****         break;
 118:Src/cmd.c     ****     }
 119:Src/cmd.c     ****     case cmd_undefined:
 120:Src/cmd.c     ****     {
 121:Src/cmd.c     ****         State.cmd = 0;
 166              		.loc 1 121 9 is_stmt 1 view .LVU9
 167              		.loc 1 121 19 is_stmt 0 view .LVU10
 168 0040 D44A     		ldr	r2, .L31
 169 0042 4D23     		movs	r3, #77
 170 0044 0021     		movs	r1, #0
 171 0046 D154     		strb	r1, [r2, r3]
 172              	.LBB2:
 122:Src/cmd.c     ****         SERIAL_WRITE("undefined\n");
 173              		.loc 1 122 9 is_stmt 1 view .LVU11
 174 0048 01AC     		add	r4, sp, #4
 175 004a 6022     		movs	r2, #96
 176 004c 02A8     		add	r0, sp, #8
 177 004e FFF7FEFF 		bl	memset
 178              	.LVL1:
 179              		.loc 1 122 9 view .LVU12
 180 0052 D24B     		ldr	r3, .L31+8
 181 0054 2200     		movs	r2, r4
 182 0056 03CB     		ldmia	r3!, {r0, r1}
 183 0058 03C2     		stmia	r2!, {r0, r1}
 184 005a 1988     		ldrh	r1, [r3]
 185 005c 1180     		strh	r1, [r2]
 186 005e 9B78     		ldrb	r3, [r3, #2]
 187 0060 9370     		strb	r3, [r2, #2]
 188              	.LVL2:
 189              		.loc 1 122 9 view .LVU13
 190 0062 FA23     		movs	r3, #250
 191 0064 9B00     		lsls	r3, r3, #2
 192 0066 0A22     		movs	r2, #10
 193 0068 2100     		movs	r1, r4
 194 006a CD48     		ldr	r0, .L31+12
 195 006c FFF7FEFF 		bl	HAL_UART_Transmit
 196              	.LVL3:
 197              	.LBE2:
 198              		.loc 1 122 36 view .LVU14
 123:Src/cmd.c     ****         break;
 199              		.loc 1 123 9 view .LVU15
 200 0070 35E0     		b	.L4
 201              	.LVL4:
 202              	.L13:
  19:Src/cmd.c     ****         SERIAL_WRITE("ok\n");
 203              		.loc 1 19 9 view .LVU16
  19:Src/cmd.c     ****         SERIAL_WRITE("ok\n");
 204              		.loc 1 19 19 is_stmt 0 view .LVU17
 205 0072 C84A     		ldr	r2, .L31
 206 0074 4D23     		movs	r3, #77
 207 0076 0021     		movs	r1, #0
 208 0078 D154     		strb	r1, [r2, r3]
 209              	.LBB3:
  20:Src/cmd.c     ****         for (int i = 0; i < 10; i++)
 210              		.loc 1 20 9 is_stmt 1 view .LVU18
 211 007a 6022     		movs	r2, #96
 212 007c 02A8     		add	r0, sp, #8
ARM GAS  C:\Users\matil\AppData\Local\Temp\ccsOks9N.s 			page 8


 213 007e FFF7FEFF 		bl	memset
 214              	.LVL5:
  20:Src/cmd.c     ****         for (int i = 0; i < 10; i++)
 215              		.loc 1 20 9 view .LVU19
 216 0082 C84B     		ldr	r3, .L31+16
 217 0084 0193     		str	r3, [sp, #4]
 218              	.LVL6:
  20:Src/cmd.c     ****         for (int i = 0; i < 10; i++)
 219              		.loc 1 20 9 view .LVU20
 220 0086 FA23     		movs	r3, #250
 221 0088 9B00     		lsls	r3, r3, #2
 222 008a 0322     		movs	r2, #3
 223 008c 01A9     		add	r1, sp, #4
 224 008e C448     		ldr	r0, .L31+12
 225 0090 FFF7FEFF 		bl	HAL_UART_Transmit
 226              	.LVL7:
 227              	.LBE3:
  20:Src/cmd.c     ****         for (int i = 0; i < 10; i++)
 228              		.loc 1 20 29 view .LVU21
  21:Src/cmd.c     ****         {
 229              		.loc 1 21 9 view .LVU22
 230              	.LBB4:
  21:Src/cmd.c     ****         {
 231              		.loc 1 21 14 view .LVU23
  21:Src/cmd.c     ****         {
 232              		.loc 1 21 18 is_stmt 0 view .LVU24
 233 0094 0024     		movs	r4, #0
 234              	.LVL8:
 235              	.L15:
  21:Src/cmd.c     ****         {
 236              		.loc 1 21 25 is_stmt 1 discriminator 1 view .LVU25
  21:Src/cmd.c     ****         {
 237              		.loc 1 21 9 is_stmt 0 discriminator 1 view .LVU26
 238 0096 092C     		cmp	r4, #9
 239 0098 21DC     		bgt	.L4
  23:Src/cmd.c     ****             HAL_Delay(100);
 240              		.loc 1 23 13 is_stmt 1 discriminator 3 view .LVU27
 241 009a A020     		movs	r0, #160
 242 009c 0121     		movs	r1, #1
 243 009e C005     		lsls	r0, r0, #23
 244 00a0 FFF7FEFF 		bl	HAL_GPIO_TogglePin
 245              	.LVL9:
  24:Src/cmd.c     ****         }
 246              		.loc 1 24 13 discriminator 3 view .LVU28
 247 00a4 6420     		movs	r0, #100
 248 00a6 FFF7FEFF 		bl	HAL_Delay
 249              	.LVL10:
  21:Src/cmd.c     ****         {
 250              		.loc 1 21 33 discriminator 3 view .LVU29
  21:Src/cmd.c     ****         {
 251              		.loc 1 21 34 is_stmt 0 discriminator 3 view .LVU30
 252 00aa 0134     		adds	r4, r4, #1
 253              	.LVL11:
  21:Src/cmd.c     ****         {
 254              		.loc 1 21 34 discriminator 3 view .LVU31
 255 00ac F3E7     		b	.L15
 256              	.LVL12:
ARM GAS  C:\Users\matil\AppData\Local\Temp\ccsOks9N.s 			page 9


 257              	.L12:
  21:Src/cmd.c     ****         {
 258              		.loc 1 21 34 discriminator 3 view .LVU32
 259              	.LBE4:
 260              	.LBB5:
  30:Src/cmd.c     ****         State.cmd = 0;
 261              		.loc 1 30 9 is_stmt 1 view .LVU33
 262 00ae 0024     		movs	r4, #0
 263 00b0 0194     		str	r4, [sp, #4]
 264 00b2 6022     		movs	r2, #96
 265 00b4 0021     		movs	r1, #0
 266 00b6 02A8     		add	r0, sp, #8
 267 00b8 FFF7FEFF 		bl	memset
 268              	.LVL13:
  30:Src/cmd.c     ****         State.cmd = 0;
 269              		.loc 1 30 9 view .LVU34
 270 00bc FFF7FEFF 		bl	ADC_ID
 271              	.LVL14:
 272 00c0 0200     		movs	r2, r0
 273 00c2 B949     		ldr	r1, .L31+20
 274 00c4 01A8     		add	r0, sp, #4
 275 00c6 FFF7FEFF 		bl	sprintf
 276              	.LVL15:
  30:Src/cmd.c     ****         State.cmd = 0;
 277              		.loc 1 30 9 view .LVU35
 278 00ca FA23     		movs	r3, #250
 279 00cc 9B00     		lsls	r3, r3, #2
 280 00ce 0922     		movs	r2, #9
 281 00d0 01A9     		add	r1, sp, #4
 282 00d2 B348     		ldr	r0, .L31+12
 283 00d4 FFF7FEFF 		bl	HAL_UART_Transmit
 284              	.LVL16:
 285              	.LBE5:
  30:Src/cmd.c     ****         State.cmd = 0;
 286              		.loc 1 30 43 view .LVU36
  31:Src/cmd.c     ****         break;
 287              		.loc 1 31 9 view .LVU37
  31:Src/cmd.c     ****         break;
 288              		.loc 1 31 19 is_stmt 0 view .LVU38
 289 00d8 AE4A     		ldr	r2, .L31
 290 00da 4D23     		movs	r3, #77
 291 00dc D454     		strb	r4, [r2, r3]
  32:Src/cmd.c     ****     }
 292              		.loc 1 32 9 is_stmt 1 view .LVU39
 293              	.LVL17:
 294              	.L4:
 124:Src/cmd.c     ****     }
 125:Src/cmd.c     ****     default:
 126:Src/cmd.c     ****     {
 127:Src/cmd.c     ****         break;
 128:Src/cmd.c     ****     }
 129:Src/cmd.c     ****     }
 130:Src/cmd.c     **** }
 295              		.loc 1 130 1 is_stmt 0 view .LVU40
 296 00de 1AB0     		add	sp, sp, #104
 297              		@ sp needed
 298 00e0 1CBC     		pop	{r2, r3, r4}
ARM GAS  C:\Users\matil\AppData\Local\Temp\ccsOks9N.s 			page 10


 299 00e2 9046     		mov	r8, r2
 300 00e4 9946     		mov	r9, r3
 301 00e6 A246     		mov	r10, r4
 302 00e8 F0BD     		pop	{r4, r5, r6, r7, pc}
 303              	.L9:
  36:Src/cmd.c     ****         SERIAL_WRITE("0x%06x\n", ADC_SPI_READ_24());
 304              		.loc 1 36 9 is_stmt 1 view .LVU41
 305 00ea 0421     		movs	r1, #4
 306 00ec 4020     		movs	r0, #64
 307 00ee FFF7FEFF 		bl	ADC_CMD
 308              	.LVL18:
 309              	.LBB6:
  37:Src/cmd.c     ****         State.cmd = 0;
 310              		.loc 1 37 9 view .LVU42
 311 00f2 0024     		movs	r4, #0
 312 00f4 0194     		str	r4, [sp, #4]
 313 00f6 6022     		movs	r2, #96
 314 00f8 0021     		movs	r1, #0
 315 00fa 02A8     		add	r0, sp, #8
 316 00fc FFF7FEFF 		bl	memset
 317              	.LVL19:
  37:Src/cmd.c     ****         State.cmd = 0;
 318              		.loc 1 37 9 view .LVU43
 319 0100 FFF7FEFF 		bl	ADC_SPI_READ_24
 320              	.LVL20:
 321 0104 0200     		movs	r2, r0
 322 0106 A849     		ldr	r1, .L31+20
 323 0108 01A8     		add	r0, sp, #4
 324 010a FFF7FEFF 		bl	sprintf
 325              	.LVL21:
  37:Src/cmd.c     ****         State.cmd = 0;
 326              		.loc 1 37 9 view .LVU44
 327 010e FA23     		movs	r3, #250
 328 0110 82B2     		uxth	r2, r0
 329 0112 9B00     		lsls	r3, r3, #2
 330 0114 01A9     		add	r1, sp, #4
 331 0116 A248     		ldr	r0, .L31+12
 332              	.LVL22:
  37:Src/cmd.c     ****         State.cmd = 0;
 333              		.loc 1 37 9 is_stmt 0 view .LVU45
 334 0118 FFF7FEFF 		bl	HAL_UART_Transmit
 335              	.LVL23:
 336              	.LBE6:
  37:Src/cmd.c     ****         State.cmd = 0;
 337              		.loc 1 37 52 is_stmt 1 view .LVU46
  38:Src/cmd.c     ****         break;
 338              		.loc 1 38 9 view .LVU47
  38:Src/cmd.c     ****         break;
 339              		.loc 1 38 19 is_stmt 0 view .LVU48
 340 011c 9D4A     		ldr	r2, .L31
 341 011e 4D23     		movs	r3, #77
 342 0120 D454     		strb	r4, [r2, r3]
  39:Src/cmd.c     ****     }
 343              		.loc 1 39 9 is_stmt 1 view .LVU49
 344 0122 DCE7     		b	.L4
 345              	.L11:
 346              	.LBB7:
ARM GAS  C:\Users\matil\AppData\Local\Temp\ccsOks9N.s 			page 11


  43:Src/cmd.c     ****         ADC_reset();
 347              		.loc 1 43 9 view .LVU50
 348 0124 01AC     		add	r4, sp, #4
 349 0126 6022     		movs	r2, #96
 350 0128 0021     		movs	r1, #0
 351 012a 02A8     		add	r0, sp, #8
 352 012c FFF7FEFF 		bl	memset
 353              	.LVL24:
  43:Src/cmd.c     ****         ADC_reset();
 354              		.loc 1 43 9 view .LVU51
 355 0130 9E4B     		ldr	r3, .L31+24
 356 0132 2200     		movs	r2, r4
 357 0134 03CB     		ldmia	r3!, {r0, r1}
 358 0136 03C2     		stmia	r2!, {r0, r1}
 359 0138 1988     		ldrh	r1, [r3]
 360 013a 1180     		strh	r1, [r2]
 361 013c 9B78     		ldrb	r3, [r3, #2]
 362 013e 9370     		strb	r3, [r2, #2]
 363              	.LVL25:
  43:Src/cmd.c     ****         ADC_reset();
 364              		.loc 1 43 9 view .LVU52
 365 0140 FA23     		movs	r3, #250
 366 0142 9B00     		lsls	r3, r3, #2
 367 0144 0A22     		movs	r2, #10
 368 0146 2100     		movs	r1, r4
 369 0148 9548     		ldr	r0, .L31+12
 370 014a FFF7FEFF 		bl	HAL_UART_Transmit
 371              	.LVL26:
 372              	.LBE7:
  43:Src/cmd.c     ****         ADC_reset();
 373              		.loc 1 43 36 view .LVU53
  44:Src/cmd.c     ****         State.cmd = 0;
 374              		.loc 1 44 9 view .LVU54
 375 014e FFF7FEFF 		bl	ADC_reset
 376              	.LVL27:
  45:Src/cmd.c     ****         break;
 377              		.loc 1 45 9 view .LVU55
  45:Src/cmd.c     ****         break;
 378              		.loc 1 45 19 is_stmt 0 view .LVU56
 379 0152 0021     		movs	r1, #0
 380 0154 8F4A     		ldr	r2, .L31
 381 0156 4D23     		movs	r3, #77
 382 0158 D154     		strb	r1, [r2, r3]
  46:Src/cmd.c     ****     }
 383              		.loc 1 46 9 is_stmt 1 view .LVU57
 384 015a C0E7     		b	.L4
 385              	.LVL28:
 386              	.L10:
 387              	.LBB8:
  50:Src/cmd.c     ****         ADC_CMD(ADC_READ, ADC_STATUS_REG);
 388              		.loc 1 50 9 view .LVU58
 389 015c 01AC     		add	r4, sp, #4
 390 015e 0027     		movs	r7, #0
 391 0160 6022     		movs	r2, #96
 392 0162 0021     		movs	r1, #0
 393 0164 02A8     		add	r0, sp, #8
 394 0166 FFF7FEFF 		bl	memset
ARM GAS  C:\Users\matil\AppData\Local\Temp\ccsOks9N.s 			page 12


 395              	.LVL29:
  50:Src/cmd.c     ****         ADC_CMD(ADC_READ, ADC_STATUS_REG);
 396              		.loc 1 50 9 view .LVU59
 397 016a 914B     		ldr	r3, .L31+28
 398 016c 2200     		movs	r2, r4
 399 016e 23CB     		ldmia	r3!, {r0, r1, r5}
 400 0170 23C2     		stmia	r2!, {r0, r1, r5}
 401 0172 1B78     		ldrb	r3, [r3]
 402 0174 1370     		strb	r3, [r2]
 403              	.LVL30:
  50:Src/cmd.c     ****         ADC_CMD(ADC_READ, ADC_STATUS_REG);
 404              		.loc 1 50 9 view .LVU60
 405 0176 FA26     		movs	r6, #250
 406 0178 B600     		lsls	r6, r6, #2
 407 017a 894D     		ldr	r5, .L31+12
 408 017c 3300     		movs	r3, r6
 409 017e 0C22     		movs	r2, #12
 410 0180 2100     		movs	r1, r4
 411 0182 2800     		movs	r0, r5
 412 0184 FFF7FEFF 		bl	HAL_UART_Transmit
 413              	.LVL31:
 414              	.LBE8:
  50:Src/cmd.c     ****         ADC_CMD(ADC_READ, ADC_STATUS_REG);
 415              		.loc 1 50 39 view .LVU61
  51:Src/cmd.c     ****         SERIAL_WRITE("\tADC_STATUS_REG:\t\t0x%02x\n", ADC_SPI_READ_8());
 416              		.loc 1 51 9 view .LVU62
 417 0188 0021     		movs	r1, #0
 418 018a 4020     		movs	r0, #64
 419 018c FFF7FEFF 		bl	ADC_CMD
 420              	.LVL32:
 421              	.LBB9:
  52:Src/cmd.c     ****         ADC_CMD(ADC_READ, ADC_MODE_REG);
 422              		.loc 1 52 9 view .LVU63
 423 0190 0197     		str	r7, [sp, #4]
 424 0192 6022     		movs	r2, #96
 425 0194 0021     		movs	r1, #0
 426 0196 02A8     		add	r0, sp, #8
 427 0198 FFF7FEFF 		bl	memset
 428              	.LVL33:
  52:Src/cmd.c     ****         ADC_CMD(ADC_READ, ADC_MODE_REG);
 429              		.loc 1 52 9 view .LVU64
 430 019c FFF7FEFF 		bl	ADC_SPI_READ_8
 431              	.LVL34:
 432 01a0 0200     		movs	r2, r0
 433 01a2 8449     		ldr	r1, .L31+32
 434 01a4 2000     		movs	r0, r4
 435 01a6 FFF7FEFF 		bl	sprintf
 436              	.LVL35:
  52:Src/cmd.c     ****         ADC_CMD(ADC_READ, ADC_MODE_REG);
 437              		.loc 1 52 9 view .LVU65
 438 01aa 3300     		movs	r3, r6
 439 01ac 1722     		movs	r2, #23
 440 01ae 2100     		movs	r1, r4
 441 01b0 2800     		movs	r0, r5
 442 01b2 FFF7FEFF 		bl	HAL_UART_Transmit
 443              	.LVL36:
 444              	.LBE9:
ARM GAS  C:\Users\matil\AppData\Local\Temp\ccsOks9N.s 			page 13


  52:Src/cmd.c     ****         ADC_CMD(ADC_READ, ADC_MODE_REG);
 445              		.loc 1 52 72 view .LVU66
  53:Src/cmd.c     ****         SERIAL_WRITE("\tADC_MODE_REG:\t\t0x%04x\n", ADC_SPI_READ_16());
 446              		.loc 1 53 9 view .LVU67
 447 01b6 0121     		movs	r1, #1
 448 01b8 4020     		movs	r0, #64
 449 01ba FFF7FEFF 		bl	ADC_CMD
 450              	.LVL37:
 451              	.LBB10:
  54:Src/cmd.c     ****         ADC_CMD(ADC_READ, ADC_INTERFACE_REG);
 452              		.loc 1 54 9 view .LVU68
 453 01be 0197     		str	r7, [sp, #4]
 454 01c0 6022     		movs	r2, #96
 455 01c2 0021     		movs	r1, #0
 456 01c4 02A8     		add	r0, sp, #8
 457 01c6 FFF7FEFF 		bl	memset
 458              	.LVL38:
  54:Src/cmd.c     ****         ADC_CMD(ADC_READ, ADC_INTERFACE_REG);
 459              		.loc 1 54 9 view .LVU69
 460 01ca FFF7FEFF 		bl	ADC_SPI_READ_16
 461              	.LVL39:
 462 01ce 0200     		movs	r2, r0
 463 01d0 7949     		ldr	r1, .L31+36
 464 01d2 2000     		movs	r0, r4
 465 01d4 FFF7FEFF 		bl	sprintf
 466              	.LVL40:
  54:Src/cmd.c     ****         ADC_CMD(ADC_READ, ADC_INTERFACE_REG);
 467              		.loc 1 54 9 view .LVU70
 468 01d8 3300     		movs	r3, r6
 469 01da 1722     		movs	r2, #23
 470 01dc 2100     		movs	r1, r4
 471 01de 2800     		movs	r0, r5
 472 01e0 FFF7FEFF 		bl	HAL_UART_Transmit
 473              	.LVL41:
 474              	.LBE10:
  54:Src/cmd.c     ****         ADC_CMD(ADC_READ, ADC_INTERFACE_REG);
 475              		.loc 1 54 71 view .LVU71
  55:Src/cmd.c     ****         SERIAL_WRITE("\tADC_INTERFACE_REG:\t0x%04x\n", ADC_SPI_READ_16());
 476              		.loc 1 55 9 view .LVU72
 477 01e4 0221     		movs	r1, #2
 478 01e6 4020     		movs	r0, #64
 479 01e8 FFF7FEFF 		bl	ADC_CMD
 480              	.LVL42:
 481              	.LBB11:
  56:Src/cmd.c     ****         ADC_CMD(ADC_READ, ADC_CHECK_REG);
 482              		.loc 1 56 9 view .LVU73
 483 01ec 0197     		str	r7, [sp, #4]
 484 01ee 6022     		movs	r2, #96
 485 01f0 0021     		movs	r1, #0
 486 01f2 02A8     		add	r0, sp, #8
 487 01f4 FFF7FEFF 		bl	memset
 488              	.LVL43:
  56:Src/cmd.c     ****         ADC_CMD(ADC_READ, ADC_CHECK_REG);
 489              		.loc 1 56 9 view .LVU74
 490 01f8 FFF7FEFF 		bl	ADC_SPI_READ_16
 491              	.LVL44:
 492 01fc 0200     		movs	r2, r0
ARM GAS  C:\Users\matil\AppData\Local\Temp\ccsOks9N.s 			page 14


 493 01fe 6F49     		ldr	r1, .L31+40
 494 0200 2000     		movs	r0, r4
 495 0202 FFF7FEFF 		bl	sprintf
 496              	.LVL45:
  56:Src/cmd.c     ****         ADC_CMD(ADC_READ, ADC_CHECK_REG);
 497              		.loc 1 56 9 view .LVU75
 498 0206 3300     		movs	r3, r6
 499 0208 1B22     		movs	r2, #27
 500 020a 2100     		movs	r1, r4
 501 020c 2800     		movs	r0, r5
 502 020e FFF7FEFF 		bl	HAL_UART_Transmit
 503              	.LVL46:
 504              	.LBE11:
  56:Src/cmd.c     ****         ADC_CMD(ADC_READ, ADC_CHECK_REG);
 505              		.loc 1 56 74 view .LVU76
  57:Src/cmd.c     ****         SERIAL_WRITE("\tADC_CHECK_REG:\t\t0x%06x\n", ADC_SPI_READ_24());
 506              		.loc 1 57 9 view .LVU77
 507 0212 0321     		movs	r1, #3
 508 0214 4020     		movs	r0, #64
 509 0216 FFF7FEFF 		bl	ADC_CMD
 510              	.LVL47:
 511              	.LBB12:
  58:Src/cmd.c     ****         ADC_CMD(ADC_READ, ADC_DATA_REG);
 512              		.loc 1 58 9 view .LVU78
 513 021a 0197     		str	r7, [sp, #4]
 514 021c 6022     		movs	r2, #96
 515 021e 0021     		movs	r1, #0
 516 0220 02A8     		add	r0, sp, #8
 517 0222 FFF7FEFF 		bl	memset
 518              	.LVL48:
  58:Src/cmd.c     ****         ADC_CMD(ADC_READ, ADC_DATA_REG);
 519              		.loc 1 58 9 view .LVU79
 520 0226 FFF7FEFF 		bl	ADC_SPI_READ_24
 521              	.LVL49:
 522 022a 0200     		movs	r2, r0
 523 022c 6449     		ldr	r1, .L31+44
 524 022e 2000     		movs	r0, r4
 525 0230 FFF7FEFF 		bl	sprintf
 526              	.LVL50:
  58:Src/cmd.c     ****         ADC_CMD(ADC_READ, ADC_DATA_REG);
 527              		.loc 1 58 9 view .LVU80
 528 0234 82B2     		uxth	r2, r0
 529 0236 3300     		movs	r3, r6
 530 0238 2100     		movs	r1, r4
 531 023a 2800     		movs	r0, r5
 532              	.LVL51:
  58:Src/cmd.c     ****         ADC_CMD(ADC_READ, ADC_DATA_REG);
 533              		.loc 1 58 9 is_stmt 0 view .LVU81
 534 023c FFF7FEFF 		bl	HAL_UART_Transmit
 535              	.LVL52:
 536              	.LBE12:
  58:Src/cmd.c     ****         ADC_CMD(ADC_READ, ADC_DATA_REG);
 537              		.loc 1 58 72 is_stmt 1 view .LVU82
  59:Src/cmd.c     ****         SERIAL_WRITE("\tADC_DATA_REG:\t\t0x%06x\n", ADC_SPI_READ_24());
 538              		.loc 1 59 9 view .LVU83
 539 0240 0421     		movs	r1, #4
 540 0242 4020     		movs	r0, #64
ARM GAS  C:\Users\matil\AppData\Local\Temp\ccsOks9N.s 			page 15


 541 0244 FFF7FEFF 		bl	ADC_CMD
 542              	.LVL53:
 543              	.LBB13:
  60:Src/cmd.c     ****         ADC_CMD(ADC_READ, ADC_GPIO_REG);
 544              		.loc 1 60 9 view .LVU84
 545 0248 0197     		str	r7, [sp, #4]
 546 024a 6022     		movs	r2, #96
 547 024c 0021     		movs	r1, #0
 548 024e 02A8     		add	r0, sp, #8
 549 0250 FFF7FEFF 		bl	memset
 550              	.LVL54:
  60:Src/cmd.c     ****         ADC_CMD(ADC_READ, ADC_GPIO_REG);
 551              		.loc 1 60 9 view .LVU85
 552 0254 FFF7FEFF 		bl	ADC_SPI_READ_24
 553              	.LVL55:
 554 0258 0200     		movs	r2, r0
 555 025a 5A49     		ldr	r1, .L31+48
 556 025c 2000     		movs	r0, r4
 557 025e FFF7FEFF 		bl	sprintf
 558              	.LVL56:
  60:Src/cmd.c     ****         ADC_CMD(ADC_READ, ADC_GPIO_REG);
 559              		.loc 1 60 9 view .LVU86
 560 0262 82B2     		uxth	r2, r0
 561 0264 3300     		movs	r3, r6
 562 0266 2100     		movs	r1, r4
 563 0268 2800     		movs	r0, r5
 564              	.LVL57:
  60:Src/cmd.c     ****         ADC_CMD(ADC_READ, ADC_GPIO_REG);
 565              		.loc 1 60 9 is_stmt 0 view .LVU87
 566 026a FFF7FEFF 		bl	HAL_UART_Transmit
 567              	.LVL58:
 568              	.LBE13:
  60:Src/cmd.c     ****         ADC_CMD(ADC_READ, ADC_GPIO_REG);
 569              		.loc 1 60 71 is_stmt 1 view .LVU88
  61:Src/cmd.c     ****         SERIAL_WRITE("\tADC_GPIO_REG:\t\t0x%04x\n", ADC_SPI_READ_16());
 570              		.loc 1 61 9 view .LVU89
 571 026e 0621     		movs	r1, #6
 572 0270 4020     		movs	r0, #64
 573 0272 FFF7FEFF 		bl	ADC_CMD
 574              	.LVL59:
 575              	.LBB14:
  62:Src/cmd.c     ****         ADC_CMD(ADC_READ, ADC_ID_REG);
 576              		.loc 1 62 9 view .LVU90
 577 0276 0197     		str	r7, [sp, #4]
 578 0278 6022     		movs	r2, #96
 579 027a 0021     		movs	r1, #0
 580 027c 02A8     		add	r0, sp, #8
 581 027e FFF7FEFF 		bl	memset
 582              	.LVL60:
  62:Src/cmd.c     ****         ADC_CMD(ADC_READ, ADC_ID_REG);
 583              		.loc 1 62 9 view .LVU91
 584 0282 FFF7FEFF 		bl	ADC_SPI_READ_16
 585              	.LVL61:
 586 0286 0200     		movs	r2, r0
 587 0288 4F49     		ldr	r1, .L31+52
 588 028a 2000     		movs	r0, r4
 589 028c FFF7FEFF 		bl	sprintf
ARM GAS  C:\Users\matil\AppData\Local\Temp\ccsOks9N.s 			page 16


 590              	.LVL62:
  62:Src/cmd.c     ****         ADC_CMD(ADC_READ, ADC_ID_REG);
 591              		.loc 1 62 9 view .LVU92
 592 0290 3300     		movs	r3, r6
 593 0292 1722     		movs	r2, #23
 594 0294 2100     		movs	r1, r4
 595 0296 2800     		movs	r0, r5
 596 0298 FFF7FEFF 		bl	HAL_UART_Transmit
 597              	.LVL63:
 598              	.LBE14:
  62:Src/cmd.c     ****         ADC_CMD(ADC_READ, ADC_ID_REG);
 599              		.loc 1 62 71 view .LVU93
  63:Src/cmd.c     ****         SERIAL_WRITE("\tADC_ID_REG:\t\t0x%04x\n", ADC_SPI_READ_16());
 600              		.loc 1 63 9 view .LVU94
 601 029c 0721     		movs	r1, #7
 602 029e 4020     		movs	r0, #64
 603 02a0 FFF7FEFF 		bl	ADC_CMD
 604              	.LVL64:
 605              	.LBB15:
  64:Src/cmd.c     ****         for (int i = 0; i < 15; i++)
 606              		.loc 1 64 9 view .LVU95
 607 02a4 0197     		str	r7, [sp, #4]
 608 02a6 6022     		movs	r2, #96
 609 02a8 0021     		movs	r1, #0
 610 02aa 02A8     		add	r0, sp, #8
 611 02ac FFF7FEFF 		bl	memset
 612              	.LVL65:
  64:Src/cmd.c     ****         for (int i = 0; i < 15; i++)
 613              		.loc 1 64 9 view .LVU96
 614 02b0 FFF7FEFF 		bl	ADC_SPI_READ_16
 615              	.LVL66:
 616 02b4 0200     		movs	r2, r0
 617 02b6 4549     		ldr	r1, .L31+56
 618 02b8 2000     		movs	r0, r4
 619 02ba FFF7FEFF 		bl	sprintf
 620              	.LVL67:
  64:Src/cmd.c     ****         for (int i = 0; i < 15; i++)
 621              		.loc 1 64 9 view .LVU97
 622 02be 3300     		movs	r3, r6
 623 02c0 1522     		movs	r2, #21
 624 02c2 2100     		movs	r1, r4
 625 02c4 2800     		movs	r0, r5
 626 02c6 FFF7FEFF 		bl	HAL_UART_Transmit
 627              	.LVL68:
 628              	.LBE15:
  64:Src/cmd.c     ****         for (int i = 0; i < 15; i++)
 629              		.loc 1 64 69 view .LVU98
  65:Src/cmd.c     ****         {
 630              		.loc 1 65 9 view .LVU99
 631              	.LBB16:
  65:Src/cmd.c     ****         {
 632              		.loc 1 65 14 view .LVU100
  65:Src/cmd.c     ****         {
 633              		.loc 1 65 18 is_stmt 0 view .LVU101
 634 02ca 0024     		movs	r4, #0
  65:Src/cmd.c     ****         {
 635              		.loc 1 65 9 view .LVU102
ARM GAS  C:\Users\matil\AppData\Local\Temp\ccsOks9N.s 			page 17


 636 02cc 1CE0     		b	.L17
 637              	.LVL69:
 638              	.L18:
  67:Src/cmd.c     ****             SERIAL_WRITE("\tADC_CH%i_REG:\t\t0x%04x\n", i, ADC_SPI_READ_16());
 639              		.loc 1 67 13 is_stmt 1 discriminator 3 view .LVU103
  67:Src/cmd.c     ****             SERIAL_WRITE("\tADC_CH%i_REG:\t\t0x%04x\n", i, ADC_SPI_READ_16());
 640              		.loc 1 67 31 is_stmt 0 discriminator 3 view .LVU104
 641 02ce 2100     		movs	r1, r4
 642 02d0 1031     		adds	r1, r1, #16
  67:Src/cmd.c     ****             SERIAL_WRITE("\tADC_CH%i_REG:\t\t0x%04x\n", i, ADC_SPI_READ_16());
 643              		.loc 1 67 13 discriminator 3 view .LVU105
 644 02d2 C9B2     		uxtb	r1, r1
 645 02d4 4020     		movs	r0, #64
 646 02d6 FFF7FEFF 		bl	ADC_CMD
 647              	.LVL70:
 648              	.LBB17:
  68:Src/cmd.c     ****         }
 649              		.loc 1 68 13 is_stmt 1 discriminator 3 view .LVU106
 650 02da 0023     		movs	r3, #0
 651 02dc 0193     		str	r3, [sp, #4]
 652 02de 6022     		movs	r2, #96
 653 02e0 0021     		movs	r1, #0
 654 02e2 02A8     		add	r0, sp, #8
 655 02e4 FFF7FEFF 		bl	memset
 656              	.LVL71:
  68:Src/cmd.c     ****         }
 657              		.loc 1 68 13 discriminator 3 view .LVU107
 658 02e8 FFF7FEFF 		bl	ADC_SPI_READ_16
 659              	.LVL72:
 660 02ec 0300     		movs	r3, r0
 661 02ee 2200     		movs	r2, r4
 662 02f0 3749     		ldr	r1, .L31+60
 663 02f2 01A8     		add	r0, sp, #4
 664 02f4 FFF7FEFF 		bl	sprintf
 665              	.LVL73:
  68:Src/cmd.c     ****         }
 666              		.loc 1 68 13 discriminator 3 view .LVU108
 667 02f8 FA23     		movs	r3, #250
 668 02fa 82B2     		uxth	r2, r0
 669 02fc 9B00     		lsls	r3, r3, #2
 670 02fe 01A9     		add	r1, sp, #4
 671 0300 2748     		ldr	r0, .L31+12
 672              	.LVL74:
  68:Src/cmd.c     ****         }
 673              		.loc 1 68 13 is_stmt 0 discriminator 3 view .LVU109
 674 0302 FFF7FEFF 		bl	HAL_UART_Transmit
 675              	.LVL75:
 676              	.LBE17:
  68:Src/cmd.c     ****         }
 677              		.loc 1 68 78 is_stmt 1 discriminator 3 view .LVU110
  65:Src/cmd.c     ****         {
 678              		.loc 1 65 33 discriminator 3 view .LVU111
  65:Src/cmd.c     ****         {
 679              		.loc 1 65 34 is_stmt 0 discriminator 3 view .LVU112
 680 0306 0134     		adds	r4, r4, #1
 681              	.LVL76:
 682              	.L17:
ARM GAS  C:\Users\matil\AppData\Local\Temp\ccsOks9N.s 			page 18


  65:Src/cmd.c     ****         {
 683              		.loc 1 65 25 is_stmt 1 discriminator 1 view .LVU113
  65:Src/cmd.c     ****         {
 684              		.loc 1 65 9 is_stmt 0 discriminator 1 view .LVU114
 685 0308 0E2C     		cmp	r4, #14
 686 030a E0DD     		ble	.L18
 687              	.LBE16:
 688              	.LBB18:
  70:Src/cmd.c     ****         {
 689              		.loc 1 70 18 view .LVU115
 690 030c 0024     		movs	r4, #0
 691              	.LVL77:
  70:Src/cmd.c     ****         {
 692              		.loc 1 70 18 view .LVU116
 693 030e 1CE0     		b	.L19
 694              	.LVL78:
 695              	.L20:
  72:Src/cmd.c     ****             SERIAL_WRITE("\tADC_SETUPCON%i_REG:\t0x%04x\n", i, ADC_SPI_READ_16());
 696              		.loc 1 72 13 is_stmt 1 discriminator 3 view .LVU117
  72:Src/cmd.c     ****             SERIAL_WRITE("\tADC_SETUPCON%i_REG:\t0x%04x\n", i, ADC_SPI_READ_16());
 697              		.loc 1 72 31 is_stmt 0 discriminator 3 view .LVU118
 698 0310 2100     		movs	r1, r4
 699 0312 2031     		adds	r1, r1, #32
  72:Src/cmd.c     ****             SERIAL_WRITE("\tADC_SETUPCON%i_REG:\t0x%04x\n", i, ADC_SPI_READ_16());
 700              		.loc 1 72 13 discriminator 3 view .LVU119
 701 0314 C9B2     		uxtb	r1, r1
 702 0316 4020     		movs	r0, #64
 703 0318 FFF7FEFF 		bl	ADC_CMD
 704              	.LVL79:
 705              	.LBB19:
  73:Src/cmd.c     ****         }
 706              		.loc 1 73 13 is_stmt 1 discriminator 3 view .LVU120
 707 031c 0023     		movs	r3, #0
 708 031e 0193     		str	r3, [sp, #4]
 709 0320 6022     		movs	r2, #96
 710 0322 0021     		movs	r1, #0
 711 0324 02A8     		add	r0, sp, #8
 712 0326 FFF7FEFF 		bl	memset
 713              	.LVL80:
  73:Src/cmd.c     ****         }
 714              		.loc 1 73 13 discriminator 3 view .LVU121
 715 032a FFF7FEFF 		bl	ADC_SPI_READ_16
 716              	.LVL81:
 717 032e 0300     		movs	r3, r0
 718 0330 2200     		movs	r2, r4
 719 0332 2849     		ldr	r1, .L31+64
 720 0334 01A8     		add	r0, sp, #4
 721 0336 FFF7FEFF 		bl	sprintf
 722              	.LVL82:
  73:Src/cmd.c     ****         }
 723              		.loc 1 73 13 discriminator 3 view .LVU122
 724 033a FA23     		movs	r3, #250
 725 033c 9B00     		lsls	r3, r3, #2
 726 033e 1B22     		movs	r2, #27
 727 0340 01A9     		add	r1, sp, #4
 728 0342 1748     		ldr	r0, .L31+12
 729 0344 FFF7FEFF 		bl	HAL_UART_Transmit
ARM GAS  C:\Users\matil\AppData\Local\Temp\ccsOks9N.s 			page 19


 730              	.LVL83:
 731              	.LBE19:
  73:Src/cmd.c     ****         }
 732              		.loc 1 73 82 discriminator 3 view .LVU123
  70:Src/cmd.c     ****         {
 733              		.loc 1 70 32 discriminator 3 view .LVU124
  70:Src/cmd.c     ****         {
 734              		.loc 1 70 33 is_stmt 0 discriminator 3 view .LVU125
 735 0348 0134     		adds	r4, r4, #1
 736              	.LVL84:
 737              	.L19:
  70:Src/cmd.c     ****         {
 738              		.loc 1 70 25 is_stmt 1 discriminator 1 view .LVU126
  70:Src/cmd.c     ****         {
 739              		.loc 1 70 9 is_stmt 0 discriminator 1 view .LVU127
 740 034a 062C     		cmp	r4, #6
 741 034c E0DD     		ble	.L20
 742              	.LBE18:
 743              	.LBB20:
  75:Src/cmd.c     ****         {
 744              		.loc 1 75 18 view .LVU128
 745 034e 0024     		movs	r4, #0
 746              	.LVL85:
  75:Src/cmd.c     ****         {
 747              		.loc 1 75 18 view .LVU129
 748 0350 1CE0     		b	.L21
 749              	.LVL86:
 750              	.L22:
  77:Src/cmd.c     ****             SERIAL_WRITE("\tADC_FILTCON%i_REG:\t0x%04x\n", i, ADC_SPI_READ_16());
 751              		.loc 1 77 13 is_stmt 1 discriminator 3 view .LVU130
  77:Src/cmd.c     ****             SERIAL_WRITE("\tADC_FILTCON%i_REG:\t0x%04x\n", i, ADC_SPI_READ_16());
 752              		.loc 1 77 31 is_stmt 0 discriminator 3 view .LVU131
 753 0352 2100     		movs	r1, r4
 754 0354 2831     		adds	r1, r1, #40
  77:Src/cmd.c     ****             SERIAL_WRITE("\tADC_FILTCON%i_REG:\t0x%04x\n", i, ADC_SPI_READ_16());
 755              		.loc 1 77 13 discriminator 3 view .LVU132
 756 0356 C9B2     		uxtb	r1, r1
 757 0358 4020     		movs	r0, #64
 758 035a FFF7FEFF 		bl	ADC_CMD
 759              	.LVL87:
 760              	.LBB21:
  78:Src/cmd.c     ****         }
 761              		.loc 1 78 13 is_stmt 1 discriminator 3 view .LVU133
 762 035e 0023     		movs	r3, #0
 763 0360 0193     		str	r3, [sp, #4]
 764 0362 6022     		movs	r2, #96
 765 0364 0021     		movs	r1, #0
 766 0366 02A8     		add	r0, sp, #8
 767 0368 FFF7FEFF 		bl	memset
 768              	.LVL88:
  78:Src/cmd.c     ****         }
 769              		.loc 1 78 13 discriminator 3 view .LVU134
 770 036c FFF7FEFF 		bl	ADC_SPI_READ_16
 771              	.LVL89:
 772 0370 0300     		movs	r3, r0
 773 0372 2200     		movs	r2, r4
 774 0374 1849     		ldr	r1, .L31+68
ARM GAS  C:\Users\matil\AppData\Local\Temp\ccsOks9N.s 			page 20


 775 0376 01A8     		add	r0, sp, #4
 776 0378 FFF7FEFF 		bl	sprintf
 777              	.LVL90:
  78:Src/cmd.c     ****         }
 778              		.loc 1 78 13 discriminator 3 view .LVU135
 779 037c FA23     		movs	r3, #250
 780 037e 9B00     		lsls	r3, r3, #2
 781 0380 1A22     		movs	r2, #26
 782 0382 01A9     		add	r1, sp, #4
 783 0384 0648     		ldr	r0, .L31+12
 784 0386 FFF7FEFF 		bl	HAL_UART_Transmit
 785              	.LVL91:
 786              	.LBE21:
  78:Src/cmd.c     ****         }
 787              		.loc 1 78 81 discriminator 3 view .LVU136
  75:Src/cmd.c     ****         {
 788              		.loc 1 75 32 discriminator 3 view .LVU137
  75:Src/cmd.c     ****         {
 789              		.loc 1 75 33 is_stmt 0 discriminator 3 view .LVU138
 790 038a 0134     		adds	r4, r4, #1
 791              	.LVL92:
 792              	.L21:
  75:Src/cmd.c     ****         {
 793              		.loc 1 75 25 is_stmt 1 discriminator 1 view .LVU139
  75:Src/cmd.c     ****         {
 794              		.loc 1 75 9 is_stmt 0 discriminator 1 view .LVU140
 795 038c 062C     		cmp	r4, #6
 796 038e E0DD     		ble	.L22
 797              	.LBE20:
 798              	.LBB22:
  80:Src/cmd.c     ****         {
 799              		.loc 1 80 18 view .LVU141
 800 0390 0024     		movs	r4, #0
 801              	.LVL93:
  80:Src/cmd.c     ****         {
 802              		.loc 1 80 18 view .LVU142
 803 0392 40E0     		b	.L23
 804              	.L32:
 805              		.align	2
 806              	.L31:
 807 0394 00000000 		.word	State
 808 0398 00000000 		.word	.L6
 809 039c 88010000 		.word	.LC41
 810 03a0 00000000 		.word	huart2
 811 03a4 6F6B0A00 		.word	682863
 812 03a8 00000000 		.word	.LC3
 813 03ac 08000000 		.word	.LC5
 814 03b0 14000000 		.word	.LC7
 815 03b4 24000000 		.word	.LC9
 816 03b8 40000000 		.word	.LC11
 817 03bc 58000000 		.word	.LC13
 818 03c0 74000000 		.word	.LC15
 819 03c4 90000000 		.word	.LC17
 820 03c8 A8000000 		.word	.LC19
 821 03cc C0000000 		.word	.LC21
 822 03d0 D8000000 		.word	.LC23
 823 03d4 F0000000 		.word	.LC25
ARM GAS  C:\Users\matil\AppData\Local\Temp\ccsOks9N.s 			page 21


 824 03d8 10010000 		.word	.LC27
 825              	.LVL94:
 826              	.L24:
  82:Src/cmd.c     ****             SERIAL_WRITE("\tADC_OFFSET%i_REG:\t0x%04x\n", i, ADC_SPI_READ_24());
 827              		.loc 1 82 13 is_stmt 1 discriminator 3 view .LVU143
  82:Src/cmd.c     ****             SERIAL_WRITE("\tADC_OFFSET%i_REG:\t0x%04x\n", i, ADC_SPI_READ_24());
 828              		.loc 1 82 31 is_stmt 0 discriminator 3 view .LVU144
 829 03dc 2100     		movs	r1, r4
 830 03de 3031     		adds	r1, r1, #48
  82:Src/cmd.c     ****             SERIAL_WRITE("\tADC_OFFSET%i_REG:\t0x%04x\n", i, ADC_SPI_READ_24());
 831              		.loc 1 82 13 discriminator 3 view .LVU145
 832 03e0 C9B2     		uxtb	r1, r1
 833 03e2 4020     		movs	r0, #64
 834 03e4 FFF7FEFF 		bl	ADC_CMD
 835              	.LVL95:
 836              	.LBB23:
  83:Src/cmd.c     ****         }
 837              		.loc 1 83 13 is_stmt 1 discriminator 3 view .LVU146
 838 03e8 0023     		movs	r3, #0
 839 03ea 0193     		str	r3, [sp, #4]
 840 03ec 6022     		movs	r2, #96
 841 03ee 0021     		movs	r1, #0
 842 03f0 02A8     		add	r0, sp, #8
 843 03f2 FFF7FEFF 		bl	memset
 844              	.LVL96:
  83:Src/cmd.c     ****         }
 845              		.loc 1 83 13 discriminator 3 view .LVU147
 846 03f6 FFF7FEFF 		bl	ADC_SPI_READ_24
 847              	.LVL97:
 848 03fa 0300     		movs	r3, r0
 849 03fc 2200     		movs	r2, r4
 850 03fe 6B49     		ldr	r1, .L33
 851 0400 01A8     		add	r0, sp, #4
 852 0402 FFF7FEFF 		bl	sprintf
 853              	.LVL98:
  83:Src/cmd.c     ****         }
 854              		.loc 1 83 13 discriminator 3 view .LVU148
 855 0406 FA23     		movs	r3, #250
 856 0408 82B2     		uxth	r2, r0
 857 040a 9B00     		lsls	r3, r3, #2
 858 040c 01A9     		add	r1, sp, #4
 859 040e 6848     		ldr	r0, .L33+4
 860              	.LVL99:
  83:Src/cmd.c     ****         }
 861              		.loc 1 83 13 is_stmt 0 discriminator 3 view .LVU149
 862 0410 FFF7FEFF 		bl	HAL_UART_Transmit
 863              	.LVL100:
 864              	.LBE23:
  83:Src/cmd.c     ****         }
 865              		.loc 1 83 80 is_stmt 1 discriminator 3 view .LVU150
  80:Src/cmd.c     ****         {
 866              		.loc 1 80 32 discriminator 3 view .LVU151
  80:Src/cmd.c     ****         {
 867              		.loc 1 80 33 is_stmt 0 discriminator 3 view .LVU152
 868 0414 0134     		adds	r4, r4, #1
 869              	.LVL101:
 870              	.L23:
ARM GAS  C:\Users\matil\AppData\Local\Temp\ccsOks9N.s 			page 22


  80:Src/cmd.c     ****         {
 871              		.loc 1 80 25 is_stmt 1 discriminator 1 view .LVU153
  80:Src/cmd.c     ****         {
 872              		.loc 1 80 9 is_stmt 0 discriminator 1 view .LVU154
 873 0416 062C     		cmp	r4, #6
 874 0418 E0DD     		ble	.L24
 875              	.LBE22:
 876              	.LBB24:
  85:Src/cmd.c     ****         {
 877              		.loc 1 85 18 view .LVU155
 878 041a 0024     		movs	r4, #0
 879              	.LVL102:
  85:Src/cmd.c     ****         {
 880              		.loc 1 85 18 view .LVU156
 881 041c 1CE0     		b	.L25
 882              	.LVL103:
 883              	.L26:
  87:Src/cmd.c     ****             SERIAL_WRITE("\tADC_GAIN%i_REG:\t\t0x%04x\n", i, ADC_SPI_READ_24());
 884              		.loc 1 87 13 is_stmt 1 discriminator 3 view .LVU157
  87:Src/cmd.c     ****             SERIAL_WRITE("\tADC_GAIN%i_REG:\t\t0x%04x\n", i, ADC_SPI_READ_24());
 885              		.loc 1 87 31 is_stmt 0 discriminator 3 view .LVU158
 886 041e 2100     		movs	r1, r4
 887 0420 3831     		adds	r1, r1, #56
  87:Src/cmd.c     ****             SERIAL_WRITE("\tADC_GAIN%i_REG:\t\t0x%04x\n", i, ADC_SPI_READ_24());
 888              		.loc 1 87 13 discriminator 3 view .LVU159
 889 0422 C9B2     		uxtb	r1, r1
 890 0424 4020     		movs	r0, #64
 891 0426 FFF7FEFF 		bl	ADC_CMD
 892              	.LVL104:
 893              	.LBB25:
  88:Src/cmd.c     ****         }
 894              		.loc 1 88 13 is_stmt 1 discriminator 3 view .LVU160
 895 042a 0023     		movs	r3, #0
 896 042c 0193     		str	r3, [sp, #4]
 897 042e 6022     		movs	r2, #96
 898 0430 0021     		movs	r1, #0
 899 0432 02A8     		add	r0, sp, #8
 900 0434 FFF7FEFF 		bl	memset
 901              	.LVL105:
  88:Src/cmd.c     ****         }
 902              		.loc 1 88 13 discriminator 3 view .LVU161
 903 0438 FFF7FEFF 		bl	ADC_SPI_READ_24
 904              	.LVL106:
 905 043c 0300     		movs	r3, r0
 906 043e 2200     		movs	r2, r4
 907 0440 5C49     		ldr	r1, .L33+8
 908 0442 01A8     		add	r0, sp, #4
 909 0444 FFF7FEFF 		bl	sprintf
 910              	.LVL107:
  88:Src/cmd.c     ****         }
 911              		.loc 1 88 13 discriminator 3 view .LVU162
 912 0448 FA23     		movs	r3, #250
 913 044a 82B2     		uxth	r2, r0
 914 044c 9B00     		lsls	r3, r3, #2
 915 044e 01A9     		add	r1, sp, #4
 916 0450 5748     		ldr	r0, .L33+4
 917              	.LVL108:
ARM GAS  C:\Users\matil\AppData\Local\Temp\ccsOks9N.s 			page 23


  88:Src/cmd.c     ****         }
 918              		.loc 1 88 13 is_stmt 0 discriminator 3 view .LVU163
 919 0452 FFF7FEFF 		bl	HAL_UART_Transmit
 920              	.LVL109:
 921              	.LBE25:
  88:Src/cmd.c     ****         }
 922              		.loc 1 88 80 is_stmt 1 discriminator 3 view .LVU164
  85:Src/cmd.c     ****         {
 923              		.loc 1 85 32 discriminator 3 view .LVU165
  85:Src/cmd.c     ****         {
 924              		.loc 1 85 33 is_stmt 0 discriminator 3 view .LVU166
 925 0456 0134     		adds	r4, r4, #1
 926              	.LVL110:
 927              	.L25:
  85:Src/cmd.c     ****         {
 928              		.loc 1 85 25 is_stmt 1 discriminator 1 view .LVU167
  85:Src/cmd.c     ****         {
 929              		.loc 1 85 9 is_stmt 0 discriminator 1 view .LVU168
 930 0458 062C     		cmp	r4, #6
 931 045a E0DD     		ble	.L26
 932              	.LBE24:
  90:Src/cmd.c     ****         break;
 933              		.loc 1 90 9 is_stmt 1 view .LVU169
  90:Src/cmd.c     ****         break;
 934              		.loc 1 90 19 is_stmt 0 view .LVU170
 935 045c 564A     		ldr	r2, .L33+12
 936 045e 4D23     		movs	r3, #77
 937 0460 0021     		movs	r1, #0
 938 0462 D154     		strb	r1, [r2, r3]
  91:Src/cmd.c     ****     }
 939              		.loc 1 91 9 is_stmt 1 view .LVU171
 940 0464 3BE6     		b	.L4
 941              	.LVL111:
 942              	.L28:
  15:Src/cmd.c     ****     {
 943              		.loc 1 15 5 is_stmt 0 view .LVU172
 944 0466 0024     		movs	r4, #0
 945              	.L8:
 946              	.LVL112:
 947              	.LBB26:
  95:Src/cmd.c     ****         {
 948              		.loc 1 95 25 is_stmt 1 discriminator 1 view .LVU173
  95:Src/cmd.c     ****         {
 949              		.loc 1 95 9 is_stmt 0 discriminator 1 view .LVU174
 950 0468 0F2C     		cmp	r4, #15
 951 046a 4DDC     		bgt	.L30
 952              	.LBB27:
  97:Src/cmd.c     ****             SERIAL_WRITE("[%i]\t", i);
 953              		.loc 1 97 13 is_stmt 1 discriminator 3 view .LVU175
  97:Src/cmd.c     ****             SERIAL_WRITE("[%i]\t", i);
 954              		.loc 1 97 63 is_stmt 0 discriminator 3 view .LVU176
 955 046c A51C     		adds	r5, r4, #2
 956 046e AD00     		lsls	r5, r5, #2
 957 0470 514B     		ldr	r3, .L33+12
 958 0472 5D19     		adds	r5, r3, r5
  97:Src/cmd.c     ****             SERIAL_WRITE("[%i]\t", i);
 959              		.loc 1 97 37 discriminator 3 view .LVU177
ARM GAS  C:\Users\matil\AppData\Local\Temp\ccsOks9N.s 			page 24


 960 0474 0023     		movs	r3, #0
 961 0476 9846     		mov	r8, r3
  97:Src/cmd.c     ****             SERIAL_WRITE("[%i]\t", i);
 962              		.loc 1 97 67 discriminator 3 view .LVU178
 963 0478 504A     		ldr	r2, .L33+16
 964 047a 0023     		movs	r3, #0
 965 047c 6868     		ldr	r0, [r5, #4]
 966 047e 0021     		movs	r1, #0
 967 0480 FFF7FEFF 		bl	__aeabi_lmul
 968              	.LVL113:
  97:Src/cmd.c     ****             SERIAL_WRITE("[%i]\t", i);
 969              		.loc 1 97 22 discriminator 3 view .LVU179
 970 0484 4E4A     		ldr	r2, .L33+20
 971 0486 0023     		movs	r3, #0
 972 0488 FFF7FEFF 		bl	__aeabi_uldivmod
 973              	.LVL114:
 974 048c 8246     		mov	r10, r0
 975 048e 8946     		mov	r9, r1
 976              	.LVL115:
 977              	.LBB28:
  98:Src/cmd.c     ****             SERIAL_WRITE("%10i uV\t\t", voltage_uV);
 978              		.loc 1 98 13 is_stmt 1 discriminator 3 view .LVU180
 979 0490 4346     		mov	r3, r8
 980 0492 0193     		str	r3, [sp, #4]
 981 0494 6022     		movs	r2, #96
 982 0496 0021     		movs	r1, #0
 983              	.LVL116:
  98:Src/cmd.c     ****             SERIAL_WRITE("%10i uV\t\t", voltage_uV);
 984              		.loc 1 98 13 is_stmt 0 discriminator 3 view .LVU181
 985 0498 02A8     		add	r0, sp, #8
 986              	.LVL117:
  98:Src/cmd.c     ****             SERIAL_WRITE("%10i uV\t\t", voltage_uV);
 987              		.loc 1 98 13 discriminator 3 view .LVU182
 988 049a FFF7FEFF 		bl	memset
 989              	.LVL118:
  98:Src/cmd.c     ****             SERIAL_WRITE("%10i uV\t\t", voltage_uV);
 990              		.loc 1 98 13 is_stmt 1 discriminator 3 view .LVU183
 991 049e 2200     		movs	r2, r4
 992 04a0 4849     		ldr	r1, .L33+24
 993 04a2 01A8     		add	r0, sp, #4
 994 04a4 FFF7FEFF 		bl	sprintf
 995              	.LVL119:
  98:Src/cmd.c     ****             SERIAL_WRITE("%10i uV\t\t", voltage_uV);
 996              		.loc 1 98 13 discriminator 3 view .LVU184
 997 04a8 FA27     		movs	r7, #250
 998 04aa BF00     		lsls	r7, r7, #2
 999 04ac 82B2     		uxth	r2, r0
 1000 04ae 404E     		ldr	r6, .L33+4
 1001 04b0 3B00     		movs	r3, r7
 1002 04b2 01A9     		add	r1, sp, #4
 1003 04b4 3000     		movs	r0, r6
 1004              	.LVL120:
  98:Src/cmd.c     ****             SERIAL_WRITE("%10i uV\t\t", voltage_uV);
 1005              		.loc 1 98 13 is_stmt 0 discriminator 3 view .LVU185
 1006 04b6 FFF7FEFF 		bl	HAL_UART_Transmit
 1007              	.LVL121:
 1008              	.LBE28:
ARM GAS  C:\Users\matil\AppData\Local\Temp\ccsOks9N.s 			page 25


  98:Src/cmd.c     ****             SERIAL_WRITE("%10i uV\t\t", voltage_uV);
 1009              		.loc 1 98 38 is_stmt 1 discriminator 3 view .LVU186
 1010              	.LBB29:
  99:Src/cmd.c     ****             SERIAL_WRITE("0x%06x\n", State.ADC_Values[i]);
 1011              		.loc 1 99 13 discriminator 3 view .LVU187
 1012 04ba 4346     		mov	r3, r8
 1013 04bc 0193     		str	r3, [sp, #4]
 1014 04be 6022     		movs	r2, #96
 1015 04c0 0021     		movs	r1, #0
 1016 04c2 02A8     		add	r0, sp, #8
 1017 04c4 FFF7FEFF 		bl	memset
 1018              	.LVL122:
  99:Src/cmd.c     ****             SERIAL_WRITE("0x%06x\n", State.ADC_Values[i]);
 1019              		.loc 1 99 13 discriminator 3 view .LVU188
 1020 04c8 5246     		mov	r2, r10
 1021 04ca 4B46     		mov	r3, r9
 1022 04cc 3E49     		ldr	r1, .L33+28
 1023 04ce 01A8     		add	r0, sp, #4
 1024 04d0 FFF7FEFF 		bl	sprintf
 1025              	.LVL123:
  99:Src/cmd.c     ****             SERIAL_WRITE("0x%06x\n", State.ADC_Values[i]);
 1026              		.loc 1 99 13 discriminator 3 view .LVU189
 1027 04d4 3B00     		movs	r3, r7
 1028 04d6 0F22     		movs	r2, #15
 1029 04d8 01A9     		add	r1, sp, #4
 1030 04da 3000     		movs	r0, r6
 1031 04dc FFF7FEFF 		bl	HAL_UART_Transmit
 1032              	.LVL124:
 1033              	.LBE29:
  99:Src/cmd.c     ****             SERIAL_WRITE("0x%06x\n", State.ADC_Values[i]);
 1034              		.loc 1 99 52 discriminator 3 view .LVU190
 1035              	.LBB30:
 100:Src/cmd.c     ****         }
 1036              		.loc 1 100 13 discriminator 3 view .LVU191
 1037 04e0 4346     		mov	r3, r8
 1038 04e2 0193     		str	r3, [sp, #4]
 1039 04e4 6022     		movs	r2, #96
 1040 04e6 0021     		movs	r1, #0
 1041 04e8 02A8     		add	r0, sp, #8
 1042 04ea FFF7FEFF 		bl	memset
 1043              	.LVL125:
 100:Src/cmd.c     ****         }
 1044              		.loc 1 100 13 discriminator 3 view .LVU192
 1045 04ee 6A68     		ldr	r2, [r5, #4]
 1046 04f0 3649     		ldr	r1, .L33+32
 1047 04f2 01A8     		add	r0, sp, #4
 1048 04f4 FFF7FEFF 		bl	sprintf
 1049              	.LVL126:
 100:Src/cmd.c     ****         }
 1050              		.loc 1 100 13 discriminator 3 view .LVU193
 1051 04f8 82B2     		uxth	r2, r0
 1052 04fa 3B00     		movs	r3, r7
 1053 04fc 01A9     		add	r1, sp, #4
 1054 04fe 3000     		movs	r0, r6
 1055              	.LVL127:
 100:Src/cmd.c     ****         }
 1056              		.loc 1 100 13 is_stmt 0 discriminator 3 view .LVU194
ARM GAS  C:\Users\matil\AppData\Local\Temp\ccsOks9N.s 			page 26


 1057 0500 FFF7FEFF 		bl	HAL_UART_Transmit
 1058              	.LVL128:
 1059              	.LBE30:
 100:Src/cmd.c     ****         }
 1060              		.loc 1 100 58 is_stmt 1 discriminator 3 view .LVU195
 1061              	.LBE27:
  95:Src/cmd.c     ****         {
 1062              		.loc 1 95 33 discriminator 3 view .LVU196
  95:Src/cmd.c     ****         {
 1063              		.loc 1 95 34 is_stmt 0 discriminator 3 view .LVU197
 1064 0504 0134     		adds	r4, r4, #1
 1065              	.LVL129:
  95:Src/cmd.c     ****         {
 1066              		.loc 1 95 34 discriminator 3 view .LVU198
 1067 0506 AFE7     		b	.L8
 1068              	.LVL130:
 1069              	.L30:
  95:Src/cmd.c     ****         {
 1070              		.loc 1 95 34 discriminator 3 view .LVU199
 1071              	.LBE26:
 102:Src/cmd.c     ****         break;
 1072              		.loc 1 102 9 is_stmt 1 view .LVU200
 102:Src/cmd.c     ****         break;
 1073              		.loc 1 102 19 is_stmt 0 view .LVU201
 1074 0508 2B4A     		ldr	r2, .L33+12
 1075 050a 4D23     		movs	r3, #77
 1076 050c 0021     		movs	r1, #0
 1077 050e D154     		strb	r1, [r2, r3]
 103:Src/cmd.c     ****     }
 1078              		.loc 1 103 9 is_stmt 1 view .LVU202
 1079 0510 E5E5     		b	.L4
 1080              	.LVL131:
 1081              	.L7:
 1082              	.LBB31:
 107:Src/cmd.c     ****         SERIAL_WRITE("%03u *C\n", (State.temperature / 1000) % 1000); //-66.875 to +52.443 C
 1083              		.loc 1 107 9 view .LVU203
 1084 0512 0026     		movs	r6, #0
 1085 0514 0196     		str	r6, [sp, #4]
 1086 0516 6022     		movs	r2, #96
 1087 0518 0021     		movs	r1, #0
 1088 051a 02A8     		add	r0, sp, #8
 1089 051c FFF7FEFF 		bl	memset
 1090              	.LVL132:
 107:Src/cmd.c     ****         SERIAL_WRITE("%03u *C\n", (State.temperature / 1000) % 1000); //-66.875 to +52.443 C
 1091              		.loc 1 107 9 view .LVU204
 1092 0520 254D     		ldr	r5, .L33+12
 1093 0522 2B49     		ldr	r1, .L33+36
 1094 0524 6868     		ldr	r0, [r5, #4]
 1095 0526 FFF7FEFF 		bl	__aeabi_idiv
 1096              	.LVL133:
 1097 052a 0200     		movs	r2, r0
 1098 052c 2949     		ldr	r1, .L33+40
 1099 052e 01A8     		add	r0, sp, #4
 1100 0530 FFF7FEFF 		bl	sprintf
 1101              	.LVL134:
 107:Src/cmd.c     ****         SERIAL_WRITE("%03u *C\n", (State.temperature / 1000) % 1000); //-66.875 to +52.443 C
 1102              		.loc 1 107 9 view .LVU205
ARM GAS  C:\Users\matil\AppData\Local\Temp\ccsOks9N.s 			page 27


 1103 0534 FA24     		movs	r4, #250
 1104 0536 A400     		lsls	r4, r4, #2
 1105 0538 82B2     		uxth	r2, r0
 1106 053a 1D4F     		ldr	r7, .L33+4
 1107 053c 2300     		movs	r3, r4
 1108 053e 01A9     		add	r1, sp, #4
 1109 0540 3800     		movs	r0, r7
 1110              	.LVL135:
 107:Src/cmd.c     ****         SERIAL_WRITE("%03u *C\n", (State.temperature / 1000) % 1000); //-66.875 to +52.443 C
 1111              		.loc 1 107 9 is_stmt 0 view .LVU206
 1112 0542 FFF7FEFF 		bl	HAL_UART_Transmit
 1113              	.LVL136:
 1114              	.LBE31:
 107:Src/cmd.c     ****         SERIAL_WRITE("%03u *C\n", (State.temperature / 1000) % 1000); //-66.875 to +52.443 C
 1115              		.loc 1 107 57 is_stmt 1 view .LVU207
 1116              	.LBB32:
 108:Src/cmd.c     ****         State.cmd = 0;
 1117              		.loc 1 108 9 view .LVU208
 1118 0546 0196     		str	r6, [sp, #4]
 1119 0548 6022     		movs	r2, #96
 1120 054a 0021     		movs	r1, #0
 1121 054c 02A8     		add	r0, sp, #8
 1122 054e FFF7FEFF 		bl	memset
 1123              	.LVL137:
 108:Src/cmd.c     ****         State.cmd = 0;
 1124              		.loc 1 108 9 view .LVU209
 1125 0552 2100     		movs	r1, r4
 1126 0554 6868     		ldr	r0, [r5, #4]
 1127 0556 FFF7FEFF 		bl	__aeabi_idiv
 1128              	.LVL138:
 1129 055a 2100     		movs	r1, r4
 1130 055c FFF7FEFF 		bl	__aeabi_idivmod
 1131              	.LVL139:
 1132 0560 0A00     		movs	r2, r1
 1133 0562 1D49     		ldr	r1, .L33+44
 1134 0564 01A8     		add	r0, sp, #4
 1135 0566 FFF7FEFF 		bl	sprintf
 1136              	.LVL140:
 108:Src/cmd.c     ****         State.cmd = 0;
 1137              		.loc 1 108 9 view .LVU210
 1138 056a 82B2     		uxth	r2, r0
 1139 056c 2300     		movs	r3, r4
 1140 056e 01A9     		add	r1, sp, #4
 1141 0570 3800     		movs	r0, r7
 1142              	.LVL141:
 108:Src/cmd.c     ****         State.cmd = 0;
 1143              		.loc 1 108 9 is_stmt 0 view .LVU211
 1144 0572 FFF7FEFF 		bl	HAL_UART_Transmit
 1145              	.LVL142:
 1146              	.LBE32:
 108:Src/cmd.c     ****         State.cmd = 0;
 1147              		.loc 1 108 69 is_stmt 1 view .LVU212
 109:Src/cmd.c     ****         break;
 1148              		.loc 1 109 9 view .LVU213
 109:Src/cmd.c     ****         break;
 1149              		.loc 1 109 19 is_stmt 0 view .LVU214
 1150 0576 4D23     		movs	r3, #77
ARM GAS  C:\Users\matil\AppData\Local\Temp\ccsOks9N.s 			page 28


 1151 0578 EE54     		strb	r6, [r5, r3]
 110:Src/cmd.c     ****     }
 1152              		.loc 1 110 9 is_stmt 1 view .LVU215
 1153 057a B0E5     		b	.L4
 1154              	.L5:
 1155              	.LBB33:
 114:Src/cmd.c     ****         DAC_test();
 1156              		.loc 1 114 9 view .LVU216
 1157 057c 01AD     		add	r5, sp, #4
 1158 057e 0024     		movs	r4, #0
 1159 0580 0194     		str	r4, [sp, #4]
 1160 0582 6022     		movs	r2, #96
 1161 0584 0021     		movs	r1, #0
 1162 0586 02A8     		add	r0, sp, #8
 1163 0588 FFF7FEFF 		bl	memset
 1164              	.LVL143:
 114:Src/cmd.c     ****         DAC_test();
 1165              		.loc 1 114 9 view .LVU217
 1166 058c 0A23     		movs	r3, #10
 1167 058e 2B80     		strh	r3, [r5]
 1168              	.LVL144:
 114:Src/cmd.c     ****         DAC_test();
 1169              		.loc 1 114 9 view .LVU218
 1170 0590 F033     		adds	r3, r3, #240
 1171 0592 9B00     		lsls	r3, r3, #2
 1172 0594 0122     		movs	r2, #1
 1173 0596 2900     		movs	r1, r5
 1174 0598 0548     		ldr	r0, .L33+4
 1175 059a FFF7FEFF 		bl	HAL_UART_Transmit
 1176              	.LVL145:
 1177              	.LBE33:
 114:Src/cmd.c     ****         DAC_test();
 1178              		.loc 1 114 27 view .LVU219
 115:Src/cmd.c     ****         State.cmd = 0;
 1179              		.loc 1 115 9 view .LVU220
 1180 059e FFF7FEFF 		bl	DAC_test
 1181              	.LVL146:
 116:Src/cmd.c     ****         break;
 1182              		.loc 1 116 9 view .LVU221
 116:Src/cmd.c     ****         break;
 1183              		.loc 1 116 19 is_stmt 0 view .LVU222
 1184 05a2 054A     		ldr	r2, .L33+12
 1185 05a4 4D23     		movs	r3, #77
 1186 05a6 D454     		strb	r4, [r2, r3]
 117:Src/cmd.c     ****     }
 1187              		.loc 1 117 9 is_stmt 1 view .LVU223
 1188 05a8 99E5     		b	.L4
 1189              	.L34:
 1190 05aa C046     		.align	2
 1191              	.L33:
 1192 05ac 2C010000 		.word	.LC29
 1193 05b0 00000000 		.word	huart2
 1194 05b4 48010000 		.word	.LC31
 1195 05b8 00000000 		.word	State
 1196 05bc 40771B00 		.word	1800000
 1197 05c0 FFFFFF00 		.word	16777215
 1198 05c4 64010000 		.word	.LC33
ARM GAS  C:\Users\matil\AppData\Local\Temp\ccsOks9N.s 			page 29


 1199 05c8 6C010000 		.word	.LC35
 1200 05cc 00000000 		.word	.LC3
 1201 05d0 40420F00 		.word	1000000
 1202 05d4 78010000 		.word	.LC37
 1203 05d8 7C010000 		.word	.LC39
 1204              		.cfi_endproc
 1205              	.LFE284:
 1207              		.text
 1208              	.Letext0:
 1209              		.file 2 "c:\\gnu tools arm embedded\\arm-none-eabi\\include\\machine\\_default_types.h"
 1210              		.file 3 "c:\\gnu tools arm embedded\\arm-none-eabi\\include\\sys\\_stdint.h"
 1211              		.file 4 "Drivers/CMSIS/Device/ST/STM32G0xx/Include/system_stm32g0xx.h"
 1212              		.file 5 "Drivers/CMSIS/Device/ST/STM32G0xx/Include/stm32g071xx.h"
 1213              		.file 6 "Drivers/STM32G0xx_HAL_Driver/Inc/stm32g0xx_hal_def.h"
 1214              		.file 7 "Drivers/STM32G0xx_HAL_Driver/Inc/stm32g0xx_hal_dma.h"
 1215              		.file 8 "Drivers/STM32G0xx_HAL_Driver/Inc/stm32g0xx_hal_flash.h"
 1216              		.file 9 "Drivers/STM32G0xx_HAL_Driver/Inc/stm32g0xx_hal_uart.h"
 1217              		.file 10 "Drivers/STM32G0xx_HAL_Driver/Inc/stm32g0xx_hal.h"
 1218              		.file 11 "c:\\gnu tools arm embedded\\arm-none-eabi\\include\\sys\\lock.h"
 1219              		.file 12 "c:\\gnu tools arm embedded\\arm-none-eabi\\include\\sys\\_types.h"
 1220              		.file 13 "c:\\gnu tools arm embedded\\lib\\gcc\\arm-none-eabi\\9.2.1\\include\\stddef.h"
 1221              		.file 14 "c:\\gnu tools arm embedded\\arm-none-eabi\\include\\sys\\reent.h"
 1222              		.file 15 "Inc/usart.h"
 1223              		.file 16 "Inc/state.h"
 1224              		.file 17 "Drivers/STM32G0xx_HAL_Driver/Inc/stm32g0xx_hal_gpio.h"
 1225              		.file 18 "Inc/ADC.h"
 1226              		.file 19 "c:\\gnu tools arm embedded\\arm-none-eabi\\include\\stdio.h"
 1227              		.file 20 "Inc/DAC.h"
 1228              		.file 21 "<built-in>"
ARM GAS  C:\Users\matil\AppData\Local\Temp\ccsOks9N.s 			page 30

