ARM GAS  C:\Users\Mateusz\AppData\Local\Temp\cc2bjCs1.s 			page 1


   1              		.cpu cortex-m0plus
   2              		.eabi_attribute 20, 1
   3              		.eabi_attribute 21, 1
   4              		.eabi_attribute 23, 3
   5              		.eabi_attribute 24, 1
   6              		.eabi_attribute 25, 1
   7              		.eabi_attribute 26, 1
   8              		.eabi_attribute 30, 1
   9              		.eabi_attribute 34, 0
  10              		.eabi_attribute 18, 4
  11              		.file	"DAC.c"
  12              		.text
  13              	.Ltext0:
  14              		.cfi_sections	.debug_frame
  15              		.section	.text.DAC_SPI_WRITE_24,"ax",%progbits
  16              		.align	1
  17              		.global	DAC_SPI_WRITE_24
  18              		.arch armv6s-m
  19              		.syntax unified
  20              		.code	16
  21              		.thumb_func
  22              		.fpu softvfp
  24              	DAC_SPI_WRITE_24:
  25              	.LVL0:
  26              	.LFB284:
  27              		.file 1 "Src/DAC.c"
   1:Src/DAC.c     **** #include "usart.h"
   2:Src/DAC.c     **** #include <stdio.h>
   3:Src/DAC.c     **** #include "state.h"
   4:Src/DAC.c     **** #include "spi.h"
   5:Src/DAC.c     **** #include "DAC.h"
   6:Src/DAC.c     **** #include "usart_utils.h"
   7:Src/DAC.c     **** #include "main.h"
   8:Src/DAC.c     **** 
   9:Src/DAC.c     **** extern state State;
  10:Src/DAC.c     **** 
  11:Src/DAC.c     **** void DAC_SPI_WRITE_24(uint32_t data)
  12:Src/DAC.c     **** {
  28              		.loc 1 12 1 view -0
  29              		.cfi_startproc
  30              		@ args = 0, pretend = 0, frame = 8
  31              		@ frame_needed = 0, uses_anonymous_args = 0
  32              		.loc 1 12 1 is_stmt 0 view .LVU1
  33 0000 00B5     		push	{lr}
  34              	.LCFI0:
  35              		.cfi_def_cfa_offset 4
  36              		.cfi_offset 14, -4
  37 0002 83B0     		sub	sp, sp, #12
  38              	.LCFI1:
  39              		.cfi_def_cfa_offset 16
  13:Src/DAC.c     ****     uint8_t txbuffer[3] = {
  40              		.loc 1 13 5 is_stmt 1 view .LVU2
  14:Src/DAC.c     ****         (uint8_t)((data & 0xff0000) >> 16),
  41              		.loc 1 14 37 is_stmt 0 view .LVU3
  42 0004 030C     		lsrs	r3, r0, #16
  13:Src/DAC.c     ****     uint8_t txbuffer[3] = {
  43              		.loc 1 13 13 view .LVU4
ARM GAS  C:\Users\Mateusz\AppData\Local\Temp\cc2bjCs1.s 			page 2


  44 0006 01A9     		add	r1, sp, #4
  45 0008 0B70     		strb	r3, [r1]
  15:Src/DAC.c     ****         (uint8_t)((data & 0xff00) >> 8),
  46              		.loc 1 15 35 view .LVU5
  47 000a 030A     		lsrs	r3, r0, #8
  13:Src/DAC.c     ****     uint8_t txbuffer[3] = {
  48              		.loc 1 13 13 view .LVU6
  49 000c 4B70     		strb	r3, [r1, #1]
  50 000e 8870     		strb	r0, [r1, #2]
  16:Src/DAC.c     ****         (uint8_t)((data & 0xff))};
  17:Src/DAC.c     ****     HAL_SPI_Transmit(&hspi1, txbuffer, 3, HAL_MAX_DELAY);
  51              		.loc 1 17 5 is_stmt 1 view .LVU7
  52 0010 0123     		movs	r3, #1
  53 0012 5B42     		rsbs	r3, r3, #0
  54 0014 0322     		movs	r2, #3
  55 0016 0248     		ldr	r0, .L2
  56              	.LVL1:
  57              		.loc 1 17 5 is_stmt 0 view .LVU8
  58 0018 FFF7FEFF 		bl	HAL_SPI_Transmit
  59              	.LVL2:
  18:Src/DAC.c     **** }
  60              		.loc 1 18 1 view .LVU9
  61 001c 03B0     		add	sp, sp, #12
  62              		@ sp needed
  63 001e 00BD     		pop	{pc}
  64              	.L3:
  65              		.align	2
  66              	.L2:
  67 0020 00000000 		.word	hspi1
  68              		.cfi_endproc
  69              	.LFE284:
  71              		.section	.text.DAC_reset,"ax",%progbits
  72              		.align	1
  73              		.global	DAC_reset
  74              		.syntax unified
  75              		.code	16
  76              		.thumb_func
  77              		.fpu softvfp
  79              	DAC_reset:
  80              	.LFB285:
  19:Src/DAC.c     **** 
  20:Src/DAC.c     **** void DAC_reset()
  21:Src/DAC.c     **** {
  81              		.loc 1 21 1 is_stmt 1 view -0
  82              		.cfi_startproc
  83              		@ args = 0, pretend = 0, frame = 0
  84              		@ frame_needed = 0, uses_anonymous_args = 0
  85 0000 10B5     		push	{r4, lr}
  86              	.LCFI2:
  87              		.cfi_def_cfa_offset 8
  88              		.cfi_offset 4, -8
  89              		.cfi_offset 14, -4
  22:Src/DAC.c     ****     HAL_GPIO_WritePin(DAC_nSYNC_GPIO_Port, DAC_nSYNC_Pin, 1);
  90              		.loc 1 22 5 view .LVU11
  91 0002 8021     		movs	r1, #128
  92 0004 A020     		movs	r0, #160
  93 0006 0122     		movs	r2, #1
ARM GAS  C:\Users\Mateusz\AppData\Local\Temp\cc2bjCs1.s 			page 3


  94 0008 0902     		lsls	r1, r1, #8
  95 000a C005     		lsls	r0, r0, #23
  96 000c FFF7FEFF 		bl	HAL_GPIO_WritePin
  97              	.LVL3:
  23:Src/DAC.c     ****     HAL_GPIO_WritePin(DAC_nLOAD_GPIO_Port, DAC_nLOAD_Pin, 1);
  98              		.loc 1 23 5 view .LVU12
  99 0010 0122     		movs	r2, #1
 100 0012 0121     		movs	r1, #1
 101 0014 0848     		ldr	r0, .L5
 102 0016 FFF7FEFF 		bl	HAL_GPIO_WritePin
 103              	.LVL4:
  24:Src/DAC.c     ****     HAL_GPIO_WritePin(DAC_nRESET_GPIO_Port, DAC_nRESET_Pin, 0);
 104              		.loc 1 24 5 view .LVU13
 105 001a 084C     		ldr	r4, .L5+4
 106 001c 0022     		movs	r2, #0
 107 001e 4021     		movs	r1, #64
 108 0020 2000     		movs	r0, r4
 109 0022 FFF7FEFF 		bl	HAL_GPIO_WritePin
 110              	.LVL5:
  25:Src/DAC.c     ****     HAL_Delay(10);
 111              		.loc 1 25 5 view .LVU14
 112 0026 0A20     		movs	r0, #10
 113 0028 FFF7FEFF 		bl	HAL_Delay
 114              	.LVL6:
  26:Src/DAC.c     ****     HAL_GPIO_WritePin(DAC_nRESET_GPIO_Port, DAC_nRESET_Pin, 1);
 115              		.loc 1 26 5 view .LVU15
 116 002c 0122     		movs	r2, #1
 117 002e 4021     		movs	r1, #64
 118 0030 2000     		movs	r0, r4
 119 0032 FFF7FEFF 		bl	HAL_GPIO_WritePin
 120              	.LVL7:
  27:Src/DAC.c     **** }
 121              		.loc 1 27 1 is_stmt 0 view .LVU16
 122              		@ sp needed
 123 0036 10BD     		pop	{r4, pc}
 124              	.L6:
 125              		.align	2
 126              	.L5:
 127 0038 00040050 		.word	1342178304
 128 003c 00080050 		.word	1342179328
 129              		.cfi_endproc
 130              	.LFE285:
 132              		.section	.text.DAC_cmd,"ax",%progbits
 133              		.align	1
 134              		.global	DAC_cmd
 135              		.syntax unified
 136              		.code	16
 137              		.thumb_func
 138              		.fpu softvfp
 140              	DAC_cmd:
 141              	.LVL8:
 142              	.LFB286:
  28:Src/DAC.c     **** 
  29:Src/DAC.c     **** void DAC_cmd(uint32_t data)
  30:Src/DAC.c     **** {
 143              		.loc 1 30 1 is_stmt 1 view -0
 144              		.cfi_startproc
ARM GAS  C:\Users\Mateusz\AppData\Local\Temp\cc2bjCs1.s 			page 4


 145              		@ args = 0, pretend = 0, frame = 0
 146              		@ frame_needed = 0, uses_anonymous_args = 0
 147              		.loc 1 30 1 is_stmt 0 view .LVU18
 148 0000 70B5     		push	{r4, r5, r6, lr}
 149              	.LCFI3:
 150              		.cfi_def_cfa_offset 16
 151              		.cfi_offset 4, -16
 152              		.cfi_offset 5, -12
 153              		.cfi_offset 6, -8
 154              		.cfi_offset 14, -4
 155 0002 0400     		movs	r4, r0
  31:Src/DAC.c     ****     HAL_GPIO_WritePin(DAC_nSYNC_GPIO_Port, DAC_nSYNC_Pin, 0);
 156              		.loc 1 31 5 is_stmt 1 view .LVU19
 157 0004 8026     		movs	r6, #128
 158 0006 3602     		lsls	r6, r6, #8
 159 0008 A025     		movs	r5, #160
 160 000a ED05     		lsls	r5, r5, #23
 161 000c 0022     		movs	r2, #0
 162 000e 3100     		movs	r1, r6
 163 0010 2800     		movs	r0, r5
 164              	.LVL9:
 165              		.loc 1 31 5 is_stmt 0 view .LVU20
 166 0012 FFF7FEFF 		bl	HAL_GPIO_WritePin
 167              	.LVL10:
  32:Src/DAC.c     ****     DAC_SPI_WRITE_24(data);
 168              		.loc 1 32 5 is_stmt 1 view .LVU21
 169 0016 2000     		movs	r0, r4
 170 0018 FFF7FEFF 		bl	DAC_SPI_WRITE_24
 171              	.LVL11:
  33:Src/DAC.c     ****     HAL_GPIO_WritePin(DAC_nSYNC_GPIO_Port, DAC_nSYNC_Pin, 1);
 172              		.loc 1 33 5 view .LVU22
 173 001c 0122     		movs	r2, #1
 174 001e 3100     		movs	r1, r6
 175 0020 2800     		movs	r0, r5
 176 0022 FFF7FEFF 		bl	HAL_GPIO_WritePin
 177              	.LVL12:
  34:Src/DAC.c     ****     HAL_Delay(1);
 178              		.loc 1 34 5 view .LVU23
 179 0026 0120     		movs	r0, #1
 180 0028 FFF7FEFF 		bl	HAL_Delay
 181              	.LVL13:
  35:Src/DAC.c     ****     HAL_GPIO_WritePin(DAC_nLOAD_GPIO_Port, DAC_nLOAD_Pin, 0);
 182              		.loc 1 35 5 view .LVU24
 183 002c 074C     		ldr	r4, .L8
 184              	.LVL14:
 185              		.loc 1 35 5 is_stmt 0 view .LVU25
 186 002e 0022     		movs	r2, #0
 187 0030 0121     		movs	r1, #1
 188 0032 2000     		movs	r0, r4
 189 0034 FFF7FEFF 		bl	HAL_GPIO_WritePin
 190              	.LVL15:
  36:Src/DAC.c     ****     HAL_Delay(1);
 191              		.loc 1 36 5 is_stmt 1 view .LVU26
 192 0038 0120     		movs	r0, #1
 193 003a FFF7FEFF 		bl	HAL_Delay
 194              	.LVL16:
  37:Src/DAC.c     ****     HAL_GPIO_WritePin(DAC_nLOAD_GPIO_Port, DAC_nLOAD_Pin, 1);
ARM GAS  C:\Users\Mateusz\AppData\Local\Temp\cc2bjCs1.s 			page 5


 195              		.loc 1 37 5 view .LVU27
 196 003e 0122     		movs	r2, #1
 197 0040 0121     		movs	r1, #1
 198 0042 2000     		movs	r0, r4
 199 0044 FFF7FEFF 		bl	HAL_GPIO_WritePin
 200              	.LVL17:
  38:Src/DAC.c     **** }
 201              		.loc 1 38 1 is_stmt 0 view .LVU28
 202              		@ sp needed
 203 0048 70BD     		pop	{r4, r5, r6, pc}
 204              	.L9:
 205 004a C046     		.align	2
 206              	.L8:
 207 004c 00040050 		.word	1342178304
 208              		.cfi_endproc
 209              	.LFE286:
 211              		.section	.rodata.DAC_test.str1.4,"aMS",%progbits,1
 212              		.align	2
 213              	.LC1:
 214 0000 5B315D09 		.ascii	"[1]\011%i mV\011\011\000"
 214      2569206D 
 214      56090900 
 215              		.align	2
 216              	.LC4:
 217 000c 30782530 		.ascii	"0x%04x\012\000"
 217      34780A00 
 218              		.section	.text.DAC_test,"ax",%progbits
 219              		.align	1
 220              		.global	DAC_test
 221              		.syntax unified
 222              		.code	16
 223              		.thumb_func
 224              		.fpu softvfp
 226              	DAC_test:
 227              	.LFB287:
  39:Src/DAC.c     **** 
  40:Src/DAC.c     **** void DAC_test()
  41:Src/DAC.c     **** {
 228              		.loc 1 41 1 is_stmt 1 view -0
 229              		.cfi_startproc
 230              		@ args = 0, pretend = 0, frame = 104
 231              		@ frame_needed = 0, uses_anonymous_args = 0
 232 0000 F0B5     		push	{r4, r5, r6, r7, lr}
 233              	.LCFI4:
 234              		.cfi_def_cfa_offset 20
 235              		.cfi_offset 4, -20
 236              		.cfi_offset 5, -16
 237              		.cfi_offset 6, -12
 238              		.cfi_offset 7, -8
 239              		.cfi_offset 14, -4
 240 0002 C646     		mov	lr, r8
 241 0004 00B5     		push	{lr}
 242              	.LCFI5:
 243              		.cfi_def_cfa_offset 24
 244              		.cfi_offset 8, -24
 245 0006 9AB0     		sub	sp, sp, #104
 246              	.LCFI6:
ARM GAS  C:\Users\Mateusz\AppData\Local\Temp\cc2bjCs1.s 			page 6


 247              		.cfi_def_cfa_offset 128
  42:Src/DAC.c     ****     for (int i = 0; i <= 5; i++)
 248              		.loc 1 42 5 view .LVU30
 249              	.LBB2:
 250              		.loc 1 42 10 view .LVU31
 251              	.LVL18:
 252              		.loc 1 42 14 is_stmt 0 view .LVU32
 253 0008 0025     		movs	r5, #0
 254              	.LVL19:
 255              	.L11:
 256              		.loc 1 42 21 is_stmt 1 discriminator 1 view .LVU33
 257              		.loc 1 42 5 is_stmt 0 discriminator 1 view .LVU34
 258 000a 052D     		cmp	r5, #5
 259 000c 3ADC     		bgt	.L13
  43:Src/DAC.c     ****     {
  44:Src/DAC.c     ****         DAC_cmd(DAC_CH(1) + DAC_WRITE + 26214 * i / 2);
 260              		.loc 1 44 9 is_stmt 1 discriminator 3 view .LVU35
 261              		.loc 1 44 51 is_stmt 0 discriminator 3 view .LVU36
 262 000e 6C00     		lsls	r4, r5, #1
 263 0010 6419     		adds	r4, r4, r5
 264 0012 2301     		lsls	r3, r4, #4
 265 0014 E418     		adds	r4, r4, r3
 266 0016 2302     		lsls	r3, r4, #8
 267 0018 E418     		adds	r4, r4, r3
 268              		.loc 1 44 39 discriminator 3 view .LVU37
 269 001a 8823     		movs	r3, #136
 270 001c 5B03     		lsls	r3, r3, #13
 271 001e E018     		adds	r0, r4, r3
 272              		.loc 1 44 9 discriminator 3 view .LVU38
 273 0020 FFF7FEFF 		bl	DAC_cmd
 274              	.LVL20:
 275              	.LBB3:
  45:Src/DAC.c     ****         SERIAL_WRITE("[1]\t%i mV\t\t", 2500 * 26214 * i / 2 / 0xffff);
 276              		.loc 1 45 9 is_stmt 1 discriminator 3 view .LVU39
 277 0024 0026     		movs	r6, #0
 278 0026 0196     		str	r6, [sp, #4]
 279 0028 6022     		movs	r2, #96
 280 002a 0021     		movs	r1, #0
 281 002c 02A8     		add	r0, sp, #8
 282 002e FFF7FEFF 		bl	memset
 283              	.LVL21:
 284              		.loc 1 45 9 discriminator 3 view .LVU40
 285 0032 6A01     		lsls	r2, r5, #5
 286 0034 521B     		subs	r2, r2, r5
 287 0036 9200     		lsls	r2, r2, #2
 288 0038 5219     		adds	r2, r2, r5
 289 003a 9200     		lsls	r2, r2, #2
 290 003c 1349     		ldr	r1, .L14
 291 003e 01A8     		add	r0, sp, #4
 292 0040 FFF7FEFF 		bl	sprintf
 293              	.LVL22:
 294              		.loc 1 45 9 discriminator 3 view .LVU41
 295 0044 FA23     		movs	r3, #250
 296 0046 9B00     		lsls	r3, r3, #2
 297 0048 9846     		mov	r8, r3
 298 004a 82B2     		uxth	r2, r0
 299 004c 104F     		ldr	r7, .L14+4
ARM GAS  C:\Users\Mateusz\AppData\Local\Temp\cc2bjCs1.s 			page 7


 300 004e 01A9     		add	r1, sp, #4
 301 0050 3800     		movs	r0, r7
 302              	.LVL23:
 303              		.loc 1 45 9 is_stmt 0 discriminator 3 view .LVU42
 304 0052 FFF7FEFF 		bl	HAL_UART_Transmit
 305              	.LVL24:
 306              	.LBE3:
 307              		.loc 1 45 70 is_stmt 1 discriminator 3 view .LVU43
 308              	.LBB4:
  46:Src/DAC.c     ****         SERIAL_WRITE("0x%04x\n", 26214 * i / 2);
 309              		.loc 1 46 9 discriminator 3 view .LVU44
 310 0056 0196     		str	r6, [sp, #4]
 311 0058 6022     		movs	r2, #96
 312 005a 0021     		movs	r1, #0
 313 005c 02A8     		add	r0, sp, #8
 314 005e FFF7FEFF 		bl	memset
 315              	.LVL25:
 316              		.loc 1 46 9 discriminator 3 view .LVU45
 317 0062 2200     		movs	r2, r4
 318 0064 0B49     		ldr	r1, .L14+8
 319 0066 01A8     		add	r0, sp, #4
 320 0068 FFF7FEFF 		bl	sprintf
 321              	.LVL26:
 322              		.loc 1 46 9 discriminator 3 view .LVU46
 323 006c 4346     		mov	r3, r8
 324 006e 0722     		movs	r2, #7
 325 0070 01A9     		add	r1, sp, #4
 326 0072 3800     		movs	r0, r7
 327 0074 FFF7FEFF 		bl	HAL_UART_Transmit
 328              	.LVL27:
 329              	.LBE4:
 330              		.loc 1 46 48 discriminator 3 view .LVU47
  47:Src/DAC.c     ****         HAL_Delay(500);
 331              		.loc 1 47 9 discriminator 3 view .LVU48
 332 0078 FA20     		movs	r0, #250
 333 007a 4000     		lsls	r0, r0, #1
 334 007c FFF7FEFF 		bl	HAL_Delay
 335              	.LVL28:
  42:Src/DAC.c     ****     {
 336              		.loc 1 42 29 discriminator 3 view .LVU49
  42:Src/DAC.c     ****     {
 337              		.loc 1 42 30 is_stmt 0 discriminator 3 view .LVU50
 338 0080 0135     		adds	r5, r5, #1
 339              	.LVL29:
  42:Src/DAC.c     ****     {
 340              		.loc 1 42 30 discriminator 3 view .LVU51
 341 0082 C2E7     		b	.L11
 342              	.LVL30:
 343              	.L13:
  42:Src/DAC.c     ****     {
 344              		.loc 1 42 30 discriminator 3 view .LVU52
 345              	.LBE2:
  48:Src/DAC.c     ****     }
  49:Src/DAC.c     **** }...
 346              		.loc 1 49 1 view .LVU53
 347 0084 1AB0     		add	sp, sp, #104
 348              		@ sp needed
ARM GAS  C:\Users\Mateusz\AppData\Local\Temp\cc2bjCs1.s 			page 8


 349              	.LVL31:
 350              		.loc 1 49 1 view .LVU54
 351 0086 04BC     		pop	{r2}
 352 0088 9046     		mov	r8, r2
 353 008a F0BD     		pop	{r4, r5, r6, r7, pc}
 354              	.L15:
 355              		.align	2
 356              	.L14:
 357 008c 00000000 		.word	.LC1
 358 0090 00000000 		.word	huart2
 359 0094 0C000000 		.word	.LC4
 360              		.cfi_endproc
 361              	.LFE287:
 363              		.text
 364              	.Letext0:
 365              		.file 2 "c:\\gnu tools arm embedded\\9 2019-q4-major\\arm-none-eabi\\include\\machine\\_default_ty
 366              		.file 3 "c:\\gnu tools arm embedded\\9 2019-q4-major\\arm-none-eabi\\include\\sys\\_stdint.h"
 367              		.file 4 "Drivers/CMSIS/Device/ST/STM32G0xx/Include/system_stm32g0xx.h"
 368              		.file 5 "Drivers/CMSIS/Device/ST/STM32G0xx/Include/stm32g071xx.h"
 369              		.file 6 "Drivers/STM32G0xx_HAL_Driver/Inc/stm32g0xx_hal_def.h"
 370              		.file 7 "Drivers/STM32G0xx_HAL_Driver/Inc/stm32g0xx_hal_dma.h"
 371              		.file 8 "Drivers/STM32G0xx_HAL_Driver/Inc/stm32g0xx_hal_flash.h"
 372              		.file 9 "Drivers/STM32G0xx_HAL_Driver/Inc/stm32g0xx_hal_spi.h"
 373              		.file 10 "Drivers/STM32G0xx_HAL_Driver/Inc/stm32g0xx_hal_uart.h"
 374              		.file 11 "Drivers/STM32G0xx_HAL_Driver/Inc/stm32g0xx_hal.h"
 375              		.file 12 "c:\\gnu tools arm embedded\\9 2019-q4-major\\arm-none-eabi\\include\\sys\\lock.h"
 376              		.file 13 "c:\\gnu tools arm embedded\\9 2019-q4-major\\arm-none-eabi\\include\\sys\\_types.h"
 377              		.file 14 "c:\\gnu tools arm embedded\\9 2019-q4-major\\lib\\gcc\\arm-none-eabi\\9.2.1\\include\\st
 378              		.file 15 "c:\\gnu tools arm embedded\\9 2019-q4-major\\arm-none-eabi\\include\\sys\\reent.h"
 379              		.file 16 "Inc/usart.h"
 380              		.file 17 "Inc/state.h"
 381              		.file 18 "Inc/spi.h"
 382              		.file 19 "c:\\gnu tools arm embedded\\9 2019-q4-major\\arm-none-eabi\\include\\stdio.h"
 383              		.file 20 "Drivers/STM32G0xx_HAL_Driver/Inc/stm32g0xx_hal_gpio.h"
 384              		.file 21 "<built-in>"
ARM GAS  C:\Users\Mateusz\AppData\Local\Temp\cc2bjCs1.s 			page 9

