ARM GAS  C:\Users\Mateusz\AppData\Local\Temp\cc5mnnBb.s 			page 1


   1              		.cpu cortex-m0plus
   2              		.eabi_attribute 20, 1
   3              		.eabi_attribute 21, 1
   4              		.eabi_attribute 23, 3
   5              		.eabi_attribute 24, 1
   6              		.eabi_attribute 25, 1
   7              		.eabi_attribute 26, 1
   8              		.eabi_attribute 30, 1
   9              		.eabi_attribute 34, 0
  10              		.eabi_attribute 18, 4
  11              		.file	"dma.c"
  12              		.text
  13              	.Ltext0:
  14              		.cfi_sections	.debug_frame
  15              		.section	.text.MX_DMA_Init,"ax",%progbits
  16              		.align	1
  17              		.global	MX_DMA_Init
  18              		.arch armv6s-m
  19              		.syntax unified
  20              		.code	16
  21              		.thumb_func
  22              		.fpu softvfp
  24              	MX_DMA_Init:
  25              	.LFB284:
  26              		.file 1 "Src/dma.c"
   1:Src/dma.c     **** /**
   2:Src/dma.c     ****   ******************************************************************************
   3:Src/dma.c     ****   * File Name          : dma.c
   4:Src/dma.c     ****   * Description        : This file provides code for the configuration
   5:Src/dma.c     ****   *                      of all the requested memory to memory DMA transfers.
   6:Src/dma.c     ****   ******************************************************************************
   7:Src/dma.c     ****   * @attention
   8:Src/dma.c     ****   *
   9:Src/dma.c     ****   * <h2><center>&copy; Copyright (c) 2020 STMicroelectronics.
  10:Src/dma.c     ****   * All rights reserved.</center></h2>
  11:Src/dma.c     ****   *
  12:Src/dma.c     ****   * This software component is licensed by ST under BSD 3-Clause license,
  13:Src/dma.c     ****   * the "License"; You may not use this file except in compliance with the
  14:Src/dma.c     ****   * License. You may obtain a copy of the License at:
  15:Src/dma.c     ****   *                        opensource.org/licenses/BSD-3-Clause
  16:Src/dma.c     ****   *
  17:Src/dma.c     ****   ******************************************************************************
  18:Src/dma.c     ****   */
  19:Src/dma.c     **** 
  20:Src/dma.c     **** /* Includes ------------------------------------------------------------------*/
  21:Src/dma.c     **** #include "dma.h"
  22:Src/dma.c     **** 
  23:Src/dma.c     **** /* USER CODE BEGIN 0 */
  24:Src/dma.c     **** #include "main.h"
  25:Src/dma.c     **** #include "usart_utils.h"
  26:Src/dma.c     **** /* USER CODE END 0 */
  27:Src/dma.c     **** 
  28:Src/dma.c     **** /*----------------------------------------------------------------------------*/
  29:Src/dma.c     **** /* Configure DMA                                                              */
  30:Src/dma.c     **** /*----------------------------------------------------------------------------*/
  31:Src/dma.c     **** 
  32:Src/dma.c     **** /* USER CODE BEGIN 1 */
ARM GAS  C:\Users\Mateusz\AppData\Local\Temp\cc5mnnBb.s 			page 2


  33:Src/dma.c     **** extern uint8_t UART_RX_BUFF[10];
  34:Src/dma.c     **** /* USER CODE END 1 */
  35:Src/dma.c     **** 
  36:Src/dma.c     **** /** 
  37:Src/dma.c     ****   * Enable DMA controller clock
  38:Src/dma.c     ****   */
  39:Src/dma.c     **** void MX_DMA_Init(void)
  40:Src/dma.c     **** {
  27              		.loc 1 40 1 view -0
  28              		.cfi_startproc
  29              		@ args = 0, pretend = 0, frame = 8
  30              		@ frame_needed = 0, uses_anonymous_args = 0
  31 0000 00B5     		push	{lr}
  32              	.LCFI0:
  33              		.cfi_def_cfa_offset 4
  34              		.cfi_offset 14, -4
  35 0002 83B0     		sub	sp, sp, #12
  36              	.LCFI1:
  37              		.cfi_def_cfa_offset 16
  41:Src/dma.c     **** 
  42:Src/dma.c     ****   /* DMA controller clock enable */
  43:Src/dma.c     ****   __HAL_RCC_DMA1_CLK_ENABLE();
  38              		.loc 1 43 3 view .LVU1
  39              	.LBB2:
  40              		.loc 1 43 3 view .LVU2
  41              		.loc 1 43 3 view .LVU3
  42 0004 094A     		ldr	r2, .L2
  43 0006 916B     		ldr	r1, [r2, #56]
  44 0008 0123     		movs	r3, #1
  45 000a 1943     		orrs	r1, r3
  46 000c 9163     		str	r1, [r2, #56]
  47              		.loc 1 43 3 view .LVU4
  48 000e 926B     		ldr	r2, [r2, #56]
  49 0010 1340     		ands	r3, r2
  50 0012 0193     		str	r3, [sp, #4]
  51              		.loc 1 43 3 view .LVU5
  52 0014 019B     		ldr	r3, [sp, #4]
  53              	.LBE2:
  54              		.loc 1 43 3 view .LVU6
  44:Src/dma.c     **** 
  45:Src/dma.c     ****   /* DMA interrupt init */
  46:Src/dma.c     ****   /* DMA1_Channel1_IRQn interrupt configuration */
  47:Src/dma.c     ****   HAL_NVIC_SetPriority(DMA1_Channel1_IRQn, 0, 0);
  55              		.loc 1 47 3 view .LVU7
  56 0016 0022     		movs	r2, #0
  57 0018 0021     		movs	r1, #0
  58 001a 0920     		movs	r0, #9
  59 001c FFF7FEFF 		bl	HAL_NVIC_SetPriority
  60              	.LVL0:
  48:Src/dma.c     ****   HAL_NVIC_EnableIRQ(DMA1_Channel1_IRQn);
  61              		.loc 1 48 3 view .LVU8
  62 0020 0920     		movs	r0, #9
  63 0022 FFF7FEFF 		bl	HAL_NVIC_EnableIRQ
  64              	.LVL1:
  49:Src/dma.c     **** }
  65              		.loc 1 49 1 is_stmt 0 view .LVU9
  66 0026 03B0     		add	sp, sp, #12
ARM GAS  C:\Users\Mateusz\AppData\Local\Temp\cc5mnnBb.s 			page 3


  67              		@ sp needed
  68 0028 00BD     		pop	{pc}
  69              	.L3:
  70 002a C046     		.align	2
  71              	.L2:
  72 002c 00100240 		.word	1073876992
  73              		.cfi_endproc
  74              	.LFE284:
  76              		.section	.text.HAL_UART_RxCpltCallback,"ax",%progbits
  77              		.align	1
  78              		.global	HAL_UART_RxCpltCallback
  79              		.syntax unified
  80              		.code	16
  81              		.thumb_func
  82              		.fpu softvfp
  84              	HAL_UART_RxCpltCallback:
  85              	.LFB285:
  50:Src/dma.c     **** 
  51:Src/dma.c     **** /* USER CODE BEGIN 2 */
  52:Src/dma.c     **** HAL_UART_RxCpltCallback()
  53:Src/dma.c     **** {
  86              		.loc 1 53 1 is_stmt 1 view -0
  87              		.cfi_startproc
  88              		@ args = 0, pretend = 0, frame = 0
  89              		@ frame_needed = 0, uses_anonymous_args = 0
  90 0000 10B5     		push	{r4, lr}
  91              	.LCFI2:
  92              		.cfi_def_cfa_offset 8
  93              		.cfi_offset 4, -8
  94              		.cfi_offset 14, -4
  54:Src/dma.c     ****   RX();
  95              		.loc 1 54 3 view .LVU11
  96 0002 FFF7FEFF 		bl	RX
  97              	.LVL2:
  55:Src/dma.c     ****   for (int i = UART_RX_BUFFER_LENGTH; i >= 0; i--)
  98              		.loc 1 55 3 view .LVU12
  99              	.LBB3:
 100              		.loc 1 55 8 view .LVU13
 101              		.loc 1 55 12 is_stmt 0 view .LVU14
 102 0006 4023     		movs	r3, #64
 103              	.LVL3:
 104              	.L5:
 105              		.loc 1 55 39 is_stmt 1 discriminator 1 view .LVU15
 106              		.loc 1 55 3 is_stmt 0 discriminator 1 view .LVU16
 107 0008 002B     		cmp	r3, #0
 108 000a 04DB     		blt	.L7
  56:Src/dma.c     ****   {
  57:Src/dma.c     ****     UART_RX_BUFF[i] = '\0';
 109              		.loc 1 57 5 is_stmt 1 discriminator 3 view .LVU17
 110              		.loc 1 57 21 is_stmt 0 discriminator 3 view .LVU18
 111 000c 024A     		ldr	r2, .L8
 112 000e 0021     		movs	r1, #0
 113 0010 D154     		strb	r1, [r2, r3]
  55:Src/dma.c     ****   for (int i = UART_RX_BUFFER_LENGTH; i >= 0; i--)
 114              		.loc 1 55 47 is_stmt 1 discriminator 3 view .LVU19
  55:Src/dma.c     ****   for (int i = UART_RX_BUFFER_LENGTH; i >= 0; i--)
 115              		.loc 1 55 48 is_stmt 0 discriminator 3 view .LVU20
ARM GAS  C:\Users\Mateusz\AppData\Local\Temp\cc5mnnBb.s 			page 4


 116 0012 013B     		subs	r3, r3, #1
 117              	.LVL4:
  55:Src/dma.c     ****   for (int i = UART_RX_BUFFER_LENGTH; i >= 0; i--)
 118              		.loc 1 55 48 discriminator 3 view .LVU21
 119 0014 F8E7     		b	.L5
 120              	.L7:
  55:Src/dma.c     ****   for (int i = UART_RX_BUFFER_LENGTH; i >= 0; i--)
 121              		.loc 1 55 48 discriminator 3 view .LVU22
 122              	.LBE3:
  58:Src/dma.c     ****   }
  59:Src/dma.c     **** }
 123              		.loc 1 59 1 view .LVU23
 124              		@ sp needed
 125 0016 10BD     		pop	{r4, pc}
 126              	.L9:
 127              		.align	2
 128              	.L8:
 129 0018 00000000 		.word	UART_RX_BUFF
 130              		.cfi_endproc
 131              	.LFE285:
 133              		.text
 134              	.Letext0:
 135              		.file 2 "c:\\gnu tools arm embedded\\9 2019-q4-major\\arm-none-eabi\\include\\machine\\_default_ty
 136              		.file 3 "c:\\gnu tools arm embedded\\9 2019-q4-major\\arm-none-eabi\\include\\sys\\_stdint.h"
 137              		.file 4 "Drivers/CMSIS/Device/ST/STM32G0xx/Include/system_stm32g0xx.h"
 138              		.file 5 "Drivers/CMSIS/Device/ST/STM32G0xx/Include/stm32g071xx.h"
 139              		.file 6 "Drivers/STM32G0xx_HAL_Driver/Inc/stm32g0xx_hal_def.h"
 140              		.file 7 "Drivers/STM32G0xx_HAL_Driver/Inc/stm32g0xx_hal_dma.h"
 141              		.file 8 "Drivers/STM32G0xx_HAL_Driver/Inc/stm32g0xx_hal_flash.h"
 142              		.file 9 "Drivers/STM32G0xx_HAL_Driver/Inc/stm32g0xx_hal_uart.h"
 143              		.file 10 "Drivers/STM32G0xx_HAL_Driver/Inc/stm32g0xx_hal.h"
 144              		.file 11 "c:\\gnu tools arm embedded\\9 2019-q4-major\\arm-none-eabi\\include\\sys\\lock.h"
 145              		.file 12 "c:\\gnu tools arm embedded\\9 2019-q4-major\\arm-none-eabi\\include\\sys\\_types.h"
 146              		.file 13 "c:\\gnu tools arm embedded\\9 2019-q4-major\\lib\\gcc\\arm-none-eabi\\9.2.1\\include\\st
 147              		.file 14 "c:\\gnu tools arm embedded\\9 2019-q4-major\\arm-none-eabi\\include\\sys\\reent.h"
 148              		.file 15 "Inc/usart.h"
 149              		.file 16 "Drivers/STM32G0xx_HAL_Driver/Inc/stm32g0xx_hal_cortex.h"
 150              		.file 17 "Inc/usart_utils.h"
ARM GAS  C:\Users\Mateusz\AppData\Local\Temp\cc5mnnBb.s 			page 5


DEFINED SYMBOLS
                            *ABS*:00000000 dma.c
C:\Users\Mateusz\AppData\Local\Temp\cc5mnnBb.s:16     .text.MX_DMA_Init:00000000 $t
C:\Users\Mateusz\AppData\Local\Temp\cc5mnnBb.s:24     .text.MX_DMA_Init:00000000 MX_DMA_Init
C:\Users\Mateusz\AppData\Local\Temp\cc5mnnBb.s:72     .text.MX_DMA_Init:0000002c $d
C:\Users\Mateusz\AppData\Local\Temp\cc5mnnBb.s:77     .text.HAL_UART_RxCpltCallback:00000000 $t
C:\Users\Mateusz\AppData\Local\Temp\cc5mnnBb.s:84     .text.HAL_UART_RxCpltCallback:00000000 HAL_UART_RxCpltCallback
C:\Users\Mateusz\AppData\Local\Temp\cc5mnnBb.s:129    .text.HAL_UART_RxCpltCallback:00000018 $d

UNDEFINED SYMBOLS
HAL_NVIC_SetPriority
HAL_NVIC_EnableIRQ
RX
UART_RX_BUFF
