ARM GAS  C:\Users\matil\AppData\Local\Temp\ccX3jRkK.s 			page 1


   1              		.cpu cortex-m0plus
   2              		.eabi_attribute 20, 1
   3              		.eabi_attribute 21, 1
   4              		.eabi_attribute 23, 3
   5              		.eabi_attribute 24, 1
   6              		.eabi_attribute 25, 1
   7              		.eabi_attribute 26, 1
   8              		.eabi_attribute 30, 1
   9              		.eabi_attribute 34, 0
  10              		.eabi_attribute 18, 4
  11              		.file	"main.c"
  12              		.text
  13              	.Ltext0:
  14              		.cfi_sections	.debug_frame
  15              		.section	.text.Error_Handler,"ax",%progbits
  16              		.align	1
  17              		.global	Error_Handler
  18              		.arch armv6s-m
  19              		.syntax unified
  20              		.code	16
  21              		.thumb_func
  22              		.fpu softvfp
  24              	Error_Handler:
  25              	.LFB286:
  26              		.file 1 "Src/main.c"
   1:Src/main.c    **** /* USER CODE BEGIN Header */
   2:Src/main.c    **** /**
   3:Src/main.c    **** 	******************************************************************************
   4:Src/main.c    **** 	* @file           : main.c
   5:Src/main.c    **** 	* @brief          : Main program body
   6:Src/main.c    **** 	******************************************************************************
   7:Src/main.c    **** 	* @attention
   8:Src/main.c    **** 	*
   9:Src/main.c    **** 	* <h2><center>&copy; Copyright (c) 2020 STMicroelectronics.
  10:Src/main.c    **** 	* All rights reserved.</center></h2>
  11:Src/main.c    **** 	*
  12:Src/main.c    **** 	* This software component is licensed by ST under BSD 3-Clause license,
  13:Src/main.c    **** 	* the "License"; You may not use this file except in compliance with the
  14:Src/main.c    **** 	* License. You may obtain a copy of the License at:
  15:Src/main.c    **** 	*                        opensource.org/licenses/BSD-3-Clause
  16:Src/main.c    **** 	*
  17:Src/main.c    **** 	******************************************************************************
  18:Src/main.c    **** 	*/
  19:Src/main.c    **** /* USER CODE END Header */
  20:Src/main.c    **** 
  21:Src/main.c    **** /* Includes ------------------------------------------------------------------*/
  22:Src/main.c    **** #include "main.h"
  23:Src/main.c    **** #include "dma.h"
  24:Src/main.c    **** #include "lptim.h"
  25:Src/main.c    **** #include "spi.h"
  26:Src/main.c    **** #include "usart.h"
  27:Src/main.c    **** #include "gpio.h"
  28:Src/main.c    **** 
  29:Src/main.c    **** /* Private includes ----------------------------------------------------------*/
  30:Src/main.c    **** /* USER CODE BEGIN Includes */
  31:Src/main.c    **** #include "ADC.h"
  32:Src/main.c    **** #include "DAC.h"
ARM GAS  C:\Users\matil\AppData\Local\Temp\ccX3jRkK.s 			page 2


  33:Src/main.c    **** #include "state.h"
  34:Src/main.c    **** #include "usart_utils.h"
  35:Src/main.c    **** #include "cmd.h"
  36:Src/main.c    **** #include "Filter.h"
  37:Src/main.c    **** /* USER CODE END Includes */
  38:Src/main.c    **** 
  39:Src/main.c    **** /* Private typedef -----------------------------------------------------------*/
  40:Src/main.c    **** /* USER CODE BEGIN PTD */
  41:Src/main.c    **** 
  42:Src/main.c    **** /* USER CODE END PTD */
  43:Src/main.c    **** 
  44:Src/main.c    **** /* Private define ------------------------------------------------------------*/
  45:Src/main.c    **** /* USER CODE BEGIN PD */
  46:Src/main.c    **** /* USER CODE END PD */
  47:Src/main.c    **** 
  48:Src/main.c    **** /* Private macro -------------------------------------------------------------*/
  49:Src/main.c    **** /* USER CODE BEGIN PM */
  50:Src/main.c    **** 
  51:Src/main.c    **** /* USER CODE END PM */
  52:Src/main.c    **** 
  53:Src/main.c    **** /* Private variables ---------------------------------------------------------*/
  54:Src/main.c    **** 
  55:Src/main.c    **** /* USER CODE BEGIN PV */
  56:Src/main.c    **** state State = {0};
  57:Src/main.c    **** /* USER CODE END PV */
  58:Src/main.c    **** 
  59:Src/main.c    **** /* Private function prototypes -----------------------------------------------*/
  60:Src/main.c    **** void SystemClock_Config(void);
  61:Src/main.c    **** /* USER CODE BEGIN PFP */
  62:Src/main.c    **** 
  63:Src/main.c    **** /* USER CODE END PFP */
  64:Src/main.c    **** 
  65:Src/main.c    **** /* Private user code ---------------------------------------------------------*/
  66:Src/main.c    **** /* USER CODE BEGIN 0 */
  67:Src/main.c    **** 
  68:Src/main.c    **** /* USER CODE END 0 */
  69:Src/main.c    **** 
  70:Src/main.c    **** /**
  71:Src/main.c    ****   * @brief  The application entry point.
  72:Src/main.c    ****   * @retval int
  73:Src/main.c    ****   */
  74:Src/main.c    **** int main(void)
  75:Src/main.c    **** {
  76:Src/main.c    ****   /* USER CODE BEGIN 1 */
  77:Src/main.c    **** 
  78:Src/main.c    ****   /* USER CODE END 1 */
  79:Src/main.c    **** 
  80:Src/main.c    ****   /* MCU Configuration--------------------------------------------------------*/
  81:Src/main.c    **** 
  82:Src/main.c    ****   /* Reset of all peripherals, Initializes the Flash interface and the Systick. */
  83:Src/main.c    ****   HAL_Init();
  84:Src/main.c    **** 
  85:Src/main.c    ****   /* USER CODE BEGIN Init */
  86:Src/main.c    **** 
  87:Src/main.c    ****   /* USER CODE END Init */
  88:Src/main.c    **** 
  89:Src/main.c    ****   /* Configure the system clock */
ARM GAS  C:\Users\matil\AppData\Local\Temp\ccX3jRkK.s 			page 3


  90:Src/main.c    ****   SystemClock_Config();
  91:Src/main.c    **** 
  92:Src/main.c    ****   /* USER CODE BEGIN SysInit */
  93:Src/main.c    ****   /* USER CODE END SysInit */
  94:Src/main.c    **** 
  95:Src/main.c    ****   /* Initialize all configured peripherals */
  96:Src/main.c    ****   MX_GPIO_Init();
  97:Src/main.c    ****   MX_DMA_Init();
  98:Src/main.c    ****   MX_LPTIM1_Init();
  99:Src/main.c    ****   MX_USART2_UART_Init();
 100:Src/main.c    ****   MX_SPI2_Init();
 101:Src/main.c    ****   MX_SPI1_Init();
 102:Src/main.c    ****   /* USER CODE BEGIN 2 */
 103:Src/main.c    **** 
 104:Src/main.c    ****   HAL_LPTIM_MspInit(&hlptim1);
 105:Src/main.c    ****   HAL_LPTIM_Counter_Start_IT(&hlptim1, LPTIM_PRESCALER_1s_LSI);
 106:Src/main.c    ****   HAL_SPI_MspInit(&hspi2);
 107:Src/main.c    ****   HAL_SPI_MspInit(&hspi1);
 108:Src/main.c    **** 
 109:Src/main.c    ****   SERIAL_WRITE(RESET);
 110:Src/main.c    **** 
 111:Src/main.c    ****   ADC_reset();
 112:Src/main.c    ****   ADC_config();
 113:Src/main.c    ****   HAL_UART_Receive_DMA(&huart2, State.UART_RX_BUFF, UART_RX_BUFFER_LENGTH);
 114:Src/main.c    **** 
 115:Src/main.c    ****   DAC_reset();
 116:Src/main.c    **** 
 117:Src/main.c    ****   //PRIORITY OVERRIDES:
 118:Src/main.c    ****   HAL_InitTick(0);
 119:Src/main.c    ****   HAL_NVIC_SetPriority(EXTI4_15_IRQn, 1, 0);
 120:Src/main.c    ****   HAL_NVIC_SetPriority(DMA1_Channel1_IRQn, 2, 0);
 121:Src/main.c    ****   HAL_NVIC_SetPriority(TIM6_DAC_LPTIM1_IRQn, 2, 0);
 122:Src/main.c    ****   HAL_NVIC_SetPriority(SPI2_IRQn, 2, 0);
 123:Src/main.c    ****   HAL_NVIC_SetPriority(USART2_IRQn, 2, 0);
 124:Src/main.c    **** 
 125:Src/main.c    ****   /* USER CODE END 2 */
 126:Src/main.c    **** 
 127:Src/main.c    ****   /* Infinite loop */
 128:Src/main.c    ****   /* USER CODE BEGIN WHILE */
 129:Src/main.c    ****   DAC_cmd(RF_PS_704_OFFSET + DAC_WRITE + 0xffff);
 130:Src/main.c    ****   ADC_update();
 131:Src/main.c    ****   while (1)
 132:Src/main.c    ****   {
 133:Src/main.c    ****     if (State.cmd)
 134:Src/main.c    ****     {
 135:Src/main.c    ****       cmd();
 136:Src/main.c    ****     };
 137:Src/main.c    ****     if (State.ADC_Updated)
 138:Src/main.c    ****     {
 139:Src/main.c    ****       Filter();
 140:Src/main.c    ****     };
 141:Src/main.c    ****     /* USER CODE END WHILE */
 142:Src/main.c    **** 
 143:Src/main.c    ****     /* USER CODE BEGIN 3 */
 144:Src/main.c    ****   }
 145:Src/main.c    ****   /* USER CODE END 3 */
 146:Src/main.c    **** }
ARM GAS  C:\Users\matil\AppData\Local\Temp\ccX3jRkK.s 			page 4


 147:Src/main.c    **** 
 148:Src/main.c    **** /**
 149:Src/main.c    ****   * @brief System Clock Configuration
 150:Src/main.c    ****   * @retval None
 151:Src/main.c    ****   */
 152:Src/main.c    **** void SystemClock_Config(void)
 153:Src/main.c    **** {
 154:Src/main.c    ****   RCC_OscInitTypeDef RCC_OscInitStruct = {0};
 155:Src/main.c    ****   RCC_ClkInitTypeDef RCC_ClkInitStruct = {0};
 156:Src/main.c    ****   RCC_PeriphCLKInitTypeDef PeriphClkInit = {0};
 157:Src/main.c    **** 
 158:Src/main.c    ****   /** Configure the main internal regulator output voltage 
 159:Src/main.c    ****   */
 160:Src/main.c    ****   HAL_PWREx_ControlVoltageScaling(PWR_REGULATOR_VOLTAGE_SCALE1);
 161:Src/main.c    ****   /** Initializes the CPU, AHB and APB busses clocks 
 162:Src/main.c    ****   */
 163:Src/main.c    ****   RCC_OscInitStruct.OscillatorType = RCC_OSCILLATORTYPE_HSI | RCC_OSCILLATORTYPE_LSI;
 164:Src/main.c    ****   RCC_OscInitStruct.HSIState = RCC_HSI_ON;
 165:Src/main.c    ****   RCC_OscInitStruct.HSIDiv = RCC_HSI_DIV1;
 166:Src/main.c    ****   RCC_OscInitStruct.HSICalibrationValue = RCC_HSICALIBRATION_DEFAULT;
 167:Src/main.c    ****   RCC_OscInitStruct.LSIState = RCC_LSI_ON;
 168:Src/main.c    ****   RCC_OscInitStruct.PLL.PLLState = RCC_PLL_ON;
 169:Src/main.c    ****   RCC_OscInitStruct.PLL.PLLSource = RCC_PLLSOURCE_HSI;
 170:Src/main.c    ****   RCC_OscInitStruct.PLL.PLLM = RCC_PLLM_DIV1;
 171:Src/main.c    ****   RCC_OscInitStruct.PLL.PLLN = 8;
 172:Src/main.c    ****   RCC_OscInitStruct.PLL.PLLP = RCC_PLLP_DIV2;
 173:Src/main.c    ****   RCC_OscInitStruct.PLL.PLLQ = RCC_PLLQ_DIV2;
 174:Src/main.c    ****   RCC_OscInitStruct.PLL.PLLR = RCC_PLLR_DIV2;
 175:Src/main.c    ****   if (HAL_RCC_OscConfig(&RCC_OscInitStruct) != HAL_OK)
 176:Src/main.c    ****   {
 177:Src/main.c    ****     Error_Handler();
 178:Src/main.c    ****   }
 179:Src/main.c    ****   /** Initializes the CPU, AHB and APB busses clocks 
 180:Src/main.c    ****   */
 181:Src/main.c    ****   RCC_ClkInitStruct.ClockType = RCC_CLOCKTYPE_HCLK | RCC_CLOCKTYPE_SYSCLK | RCC_CLOCKTYPE_PCLK1;
 182:Src/main.c    ****   RCC_ClkInitStruct.SYSCLKSource = RCC_SYSCLKSOURCE_PLLCLK;
 183:Src/main.c    ****   RCC_ClkInitStruct.AHBCLKDivider = RCC_SYSCLK_DIV1;
 184:Src/main.c    ****   RCC_ClkInitStruct.APB1CLKDivider = RCC_HCLK_DIV1;
 185:Src/main.c    **** 
 186:Src/main.c    ****   if (HAL_RCC_ClockConfig(&RCC_ClkInitStruct, FLASH_LATENCY_2) != HAL_OK)
 187:Src/main.c    ****   {
 188:Src/main.c    ****     Error_Handler();
 189:Src/main.c    ****   }
 190:Src/main.c    ****   /** Initializes the peripherals clocks 
 191:Src/main.c    ****   */
 192:Src/main.c    ****   PeriphClkInit.PeriphClockSelection = RCC_PERIPHCLK_USART2 | RCC_PERIPHCLK_LPTIM1;
 193:Src/main.c    ****   PeriphClkInit.Usart2ClockSelection = RCC_USART2CLKSOURCE_PCLK1;
 194:Src/main.c    ****   PeriphClkInit.Lptim1ClockSelection = RCC_LPTIM1CLKSOURCE_LSI;
 195:Src/main.c    ****   if (HAL_RCCEx_PeriphCLKConfig(&PeriphClkInit) != HAL_OK)
 196:Src/main.c    ****   {
 197:Src/main.c    ****     Error_Handler();
 198:Src/main.c    ****   }
 199:Src/main.c    **** }
 200:Src/main.c    **** 
 201:Src/main.c    **** /* USER CODE BEGIN 4 */
 202:Src/main.c    **** 
 203:Src/main.c    **** /* USER CODE END 4 */
ARM GAS  C:\Users\matil\AppData\Local\Temp\ccX3jRkK.s 			page 5


 204:Src/main.c    **** 
 205:Src/main.c    **** /**
 206:Src/main.c    ****   * @brief  This function is executed in case of error occurrence.
 207:Src/main.c    ****   * @retval None
 208:Src/main.c    ****   */
 209:Src/main.c    **** void Error_Handler(void)
 210:Src/main.c    **** {
  27              		.loc 1 210 1 view -0
  28              		.cfi_startproc
  29              		@ args = 0, pretend = 0, frame = 0
  30              		@ frame_needed = 0, uses_anonymous_args = 0
  31 0000 10B5     		push	{r4, lr}
  32              	.LCFI0:
  33              		.cfi_def_cfa_offset 8
  34              		.cfi_offset 4, -8
  35              		.cfi_offset 14, -4
 211:Src/main.c    ****   /* USER CODE BEGIN Error_Handler_Debug */
 212:Src/main.c    ****   for (int i = 0; i < 10; i++)
  36              		.loc 1 212 3 view .LVU1
  37              	.LBB2:
  38              		.loc 1 212 8 view .LVU2
  39              	.LVL0:
  40              		.loc 1 212 12 is_stmt 0 view .LVU3
  41 0002 0024     		movs	r4, #0
  42              	.LVL1:
  43              	.L2:
  44              		.loc 1 212 19 is_stmt 1 discriminator 1 view .LVU4
  45              		.loc 1 212 3 is_stmt 0 discriminator 1 view .LVU5
  46 0004 092C     		cmp	r4, #9
  47 0006 09DC     		bgt	.L4
 213:Src/main.c    ****   {
 214:Src/main.c    ****     HAL_GPIO_TogglePin(LED_PHASE_GPIO_Port, LED_PHASE_Pin);
  48              		.loc 1 214 5 is_stmt 1 discriminator 3 view .LVU6
  49 0008 A020     		movs	r0, #160
  50 000a 0121     		movs	r1, #1
  51 000c C005     		lsls	r0, r0, #23
  52 000e FFF7FEFF 		bl	HAL_GPIO_TogglePin
  53              	.LVL2:
 215:Src/main.c    ****     HAL_Delay(100);
  54              		.loc 1 215 5 discriminator 3 view .LVU7
  55 0012 6420     		movs	r0, #100
  56 0014 FFF7FEFF 		bl	HAL_Delay
  57              	.LVL3:
 212:Src/main.c    ****   {
  58              		.loc 1 212 27 discriminator 3 view .LVU8
 212:Src/main.c    ****   {
  59              		.loc 1 212 28 is_stmt 0 discriminator 3 view .LVU9
  60 0018 0134     		adds	r4, r4, #1
  61              	.LVL4:
 212:Src/main.c    ****   {
  62              		.loc 1 212 28 discriminator 3 view .LVU10
  63 001a F3E7     		b	.L2
  64              	.L4:
 212:Src/main.c    ****   {
  65              		.loc 1 212 28 discriminator 3 view .LVU11
  66              	.LBE2:
 216:Src/main.c    ****   }
ARM GAS  C:\Users\matil\AppData\Local\Temp\ccX3jRkK.s 			page 6


 217:Src/main.c    ****   HAL_GPIO_WritePin(LED_PHASE_GPIO_Port, LED_PHASE_Pin, 0);
  67              		.loc 1 217 3 is_stmt 1 view .LVU12
  68 001c A020     		movs	r0, #160
  69 001e 0022     		movs	r2, #0
  70 0020 0121     		movs	r1, #1
  71 0022 C005     		lsls	r0, r0, #23
  72 0024 FFF7FEFF 		bl	HAL_GPIO_WritePin
  73              	.LVL5:
 218:Src/main.c    **** 
 219:Src/main.c    ****   /* User can add his own implementation to report the HAL error return state */
 220:Src/main.c    **** 
 221:Src/main.c    ****   /* USER CODE END Error_Handler_Debug */
 222:Src/main.c    **** }
  74              		.loc 1 222 1 is_stmt 0 view .LVU13
  75              		@ sp needed
  76              	.LVL6:
  77              		.loc 1 222 1 view .LVU14
  78 0028 10BD     		pop	{r4, pc}
  79              		.cfi_endproc
  80              	.LFE286:
  82              		.section	.text.SystemClock_Config,"ax",%progbits
  83              		.align	1
  84              		.global	SystemClock_Config
  85              		.syntax unified
  86              		.code	16
  87              		.thumb_func
  88              		.fpu softvfp
  90              	SystemClock_Config:
  91              	.LFB285:
 153:Src/main.c    ****   RCC_OscInitTypeDef RCC_OscInitStruct = {0};
  92              		.loc 1 153 1 is_stmt 1 view -0
  93              		.cfi_startproc
  94              		@ args = 0, pretend = 0, frame = 128
  95              		@ frame_needed = 0, uses_anonymous_args = 0
  96 0000 00B5     		push	{lr}
  97              	.LCFI1:
  98              		.cfi_def_cfa_offset 4
  99              		.cfi_offset 14, -4
 100 0002 A1B0     		sub	sp, sp, #132
 101              	.LCFI2:
 102              		.cfi_def_cfa_offset 136
 154:Src/main.c    ****   RCC_ClkInitTypeDef RCC_ClkInitStruct = {0};
 103              		.loc 1 154 3 view .LVU16
 154:Src/main.c    ****   RCC_ClkInitTypeDef RCC_ClkInitStruct = {0};
 104              		.loc 1 154 22 is_stmt 0 view .LVU17
 105 0004 3822     		movs	r2, #56
 106 0006 0021     		movs	r1, #0
 107 0008 12A8     		add	r0, sp, #72
 108 000a FFF7FEFF 		bl	memset
 109              	.LVL7:
 155:Src/main.c    ****   RCC_PeriphCLKInitTypeDef PeriphClkInit = {0};
 110              		.loc 1 155 3 is_stmt 1 view .LVU18
 155:Src/main.c    ****   RCC_PeriphCLKInitTypeDef PeriphClkInit = {0};
 111              		.loc 1 155 22 is_stmt 0 view .LVU19
 112 000e 1022     		movs	r2, #16
 113 0010 0021     		movs	r1, #0
 114 0012 0EA8     		add	r0, sp, #56
ARM GAS  C:\Users\matil\AppData\Local\Temp\ccX3jRkK.s 			page 7


 115 0014 FFF7FEFF 		bl	memset
 116              	.LVL8:
 156:Src/main.c    **** 
 117              		.loc 1 156 3 is_stmt 1 view .LVU20
 156:Src/main.c    **** 
 118              		.loc 1 156 28 is_stmt 0 view .LVU21
 119 0018 3422     		movs	r2, #52
 120 001a 0021     		movs	r1, #0
 121 001c 01A8     		add	r0, sp, #4
 122 001e FFF7FEFF 		bl	memset
 123              	.LVL9:
 160:Src/main.c    ****   /** Initializes the CPU, AHB and APB busses clocks 
 124              		.loc 1 160 3 is_stmt 1 view .LVU22
 125 0022 8020     		movs	r0, #128
 126 0024 8000     		lsls	r0, r0, #2
 127 0026 FFF7FEFF 		bl	HAL_PWREx_ControlVoltageScaling
 128              	.LVL10:
 163:Src/main.c    ****   RCC_OscInitStruct.HSIState = RCC_HSI_ON;
 129              		.loc 1 163 3 view .LVU23
 163:Src/main.c    ****   RCC_OscInitStruct.HSIState = RCC_HSI_ON;
 130              		.loc 1 163 36 is_stmt 0 view .LVU24
 131 002a 0A23     		movs	r3, #10
 132 002c 1293     		str	r3, [sp, #72]
 164:Src/main.c    ****   RCC_OscInitStruct.HSIDiv = RCC_HSI_DIV1;
 133              		.loc 1 164 3 is_stmt 1 view .LVU25
 164:Src/main.c    ****   RCC_OscInitStruct.HSIDiv = RCC_HSI_DIV1;
 134              		.loc 1 164 30 is_stmt 0 view .LVU26
 135 002e F633     		adds	r3, r3, #246
 136 0030 1593     		str	r3, [sp, #84]
 165:Src/main.c    ****   RCC_OscInitStruct.HSICalibrationValue = RCC_HSICALIBRATION_DEFAULT;
 137              		.loc 1 165 3 is_stmt 1 view .LVU27
 165:Src/main.c    ****   RCC_OscInitStruct.HSICalibrationValue = RCC_HSICALIBRATION_DEFAULT;
 138              		.loc 1 165 28 is_stmt 0 view .LVU28
 139 0032 0023     		movs	r3, #0
 140 0034 1693     		str	r3, [sp, #88]
 166:Src/main.c    ****   RCC_OscInitStruct.LSIState = RCC_LSI_ON;
 141              		.loc 1 166 3 is_stmt 1 view .LVU29
 166:Src/main.c    ****   RCC_OscInitStruct.LSIState = RCC_LSI_ON;
 142              		.loc 1 166 41 is_stmt 0 view .LVU30
 143 0036 4022     		movs	r2, #64
 144 0038 1792     		str	r2, [sp, #92]
 167:Src/main.c    ****   RCC_OscInitStruct.PLL.PLLState = RCC_PLL_ON;
 145              		.loc 1 167 3 is_stmt 1 view .LVU31
 167:Src/main.c    ****   RCC_OscInitStruct.PLL.PLLState = RCC_PLL_ON;
 146              		.loc 1 167 30 is_stmt 0 view .LVU32
 147 003a 3F3A     		subs	r2, r2, #63
 148 003c 1892     		str	r2, [sp, #96]
 168:Src/main.c    ****   RCC_OscInitStruct.PLL.PLLSource = RCC_PLLSOURCE_HSI;
 149              		.loc 1 168 3 is_stmt 1 view .LVU33
 168:Src/main.c    ****   RCC_OscInitStruct.PLL.PLLSource = RCC_PLLSOURCE_HSI;
 150              		.loc 1 168 34 is_stmt 0 view .LVU34
 151 003e 0132     		adds	r2, r2, #1
 152 0040 1992     		str	r2, [sp, #100]
 169:Src/main.c    ****   RCC_OscInitStruct.PLL.PLLM = RCC_PLLM_DIV1;
 153              		.loc 1 169 3 is_stmt 1 view .LVU35
 169:Src/main.c    ****   RCC_OscInitStruct.PLL.PLLM = RCC_PLLM_DIV1;
 154              		.loc 1 169 35 is_stmt 0 view .LVU36
ARM GAS  C:\Users\matil\AppData\Local\Temp\ccX3jRkK.s 			page 8


 155 0042 1A92     		str	r2, [sp, #104]
 170:Src/main.c    ****   RCC_OscInitStruct.PLL.PLLN = 8;
 156              		.loc 1 170 3 is_stmt 1 view .LVU37
 170:Src/main.c    ****   RCC_OscInitStruct.PLL.PLLN = 8;
 157              		.loc 1 170 30 is_stmt 0 view .LVU38
 158 0044 1B93     		str	r3, [sp, #108]
 171:Src/main.c    ****   RCC_OscInitStruct.PLL.PLLP = RCC_PLLP_DIV2;
 159              		.loc 1 171 3 is_stmt 1 view .LVU39
 171:Src/main.c    ****   RCC_OscInitStruct.PLL.PLLP = RCC_PLLP_DIV2;
 160              		.loc 1 171 30 is_stmt 0 view .LVU40
 161 0046 0833     		adds	r3, r3, #8
 162 0048 1C93     		str	r3, [sp, #112]
 172:Src/main.c    ****   RCC_OscInitStruct.PLL.PLLQ = RCC_PLLQ_DIV2;
 163              		.loc 1 172 3 is_stmt 1 view .LVU41
 172:Src/main.c    ****   RCC_OscInitStruct.PLL.PLLQ = RCC_PLLQ_DIV2;
 164              		.loc 1 172 30 is_stmt 0 view .LVU42
 165 004a 8023     		movs	r3, #128
 166 004c 9B02     		lsls	r3, r3, #10
 167 004e 1D93     		str	r3, [sp, #116]
 173:Src/main.c    ****   RCC_OscInitStruct.PLL.PLLR = RCC_PLLR_DIV2;
 168              		.loc 1 173 3 is_stmt 1 view .LVU43
 173:Src/main.c    ****   RCC_OscInitStruct.PLL.PLLR = RCC_PLLR_DIV2;
 169              		.loc 1 173 30 is_stmt 0 view .LVU44
 170 0050 8023     		movs	r3, #128
 171 0052 9B04     		lsls	r3, r3, #18
 172 0054 1E93     		str	r3, [sp, #120]
 174:Src/main.c    ****   if (HAL_RCC_OscConfig(&RCC_OscInitStruct) != HAL_OK)
 173              		.loc 1 174 3 is_stmt 1 view .LVU45
 174:Src/main.c    ****   if (HAL_RCC_OscConfig(&RCC_OscInitStruct) != HAL_OK)
 174              		.loc 1 174 30 is_stmt 0 view .LVU46
 175 0056 8023     		movs	r3, #128
 176 0058 9B05     		lsls	r3, r3, #22
 177 005a 1F93     		str	r3, [sp, #124]
 175:Src/main.c    ****   {
 178              		.loc 1 175 3 is_stmt 1 view .LVU47
 175:Src/main.c    ****   {
 179              		.loc 1 175 7 is_stmt 0 view .LVU48
 180 005c 12A8     		add	r0, sp, #72
 181 005e FFF7FEFF 		bl	HAL_RCC_OscConfig
 182              	.LVL11:
 175:Src/main.c    ****   {
 183              		.loc 1 175 6 view .LVU49
 184 0062 0028     		cmp	r0, #0
 185 0064 1AD1     		bne	.L9
 186              	.L6:
 181:Src/main.c    ****   RCC_ClkInitStruct.SYSCLKSource = RCC_SYSCLKSOURCE_PLLCLK;
 187              		.loc 1 181 3 is_stmt 1 view .LVU50
 181:Src/main.c    ****   RCC_ClkInitStruct.SYSCLKSource = RCC_SYSCLKSOURCE_PLLCLK;
 188              		.loc 1 181 31 is_stmt 0 view .LVU51
 189 0066 0723     		movs	r3, #7
 190 0068 0E93     		str	r3, [sp, #56]
 182:Src/main.c    ****   RCC_ClkInitStruct.AHBCLKDivider = RCC_SYSCLK_DIV1;
 191              		.loc 1 182 3 is_stmt 1 view .LVU52
 182:Src/main.c    ****   RCC_ClkInitStruct.AHBCLKDivider = RCC_SYSCLK_DIV1;
 192              		.loc 1 182 34 is_stmt 0 view .LVU53
 193 006a 053B     		subs	r3, r3, #5
 194 006c 0F93     		str	r3, [sp, #60]
ARM GAS  C:\Users\matil\AppData\Local\Temp\ccX3jRkK.s 			page 9


 183:Src/main.c    ****   RCC_ClkInitStruct.APB1CLKDivider = RCC_HCLK_DIV1;
 195              		.loc 1 183 3 is_stmt 1 view .LVU54
 183:Src/main.c    ****   RCC_ClkInitStruct.APB1CLKDivider = RCC_HCLK_DIV1;
 196              		.loc 1 183 35 is_stmt 0 view .LVU55
 197 006e 0023     		movs	r3, #0
 198 0070 1093     		str	r3, [sp, #64]
 184:Src/main.c    **** 
 199              		.loc 1 184 3 is_stmt 1 view .LVU56
 184:Src/main.c    **** 
 200              		.loc 1 184 36 is_stmt 0 view .LVU57
 201 0072 1193     		str	r3, [sp, #68]
 186:Src/main.c    ****   {
 202              		.loc 1 186 3 is_stmt 1 view .LVU58
 186:Src/main.c    ****   {
 203              		.loc 1 186 7 is_stmt 0 view .LVU59
 204 0074 0221     		movs	r1, #2
 205 0076 0EA8     		add	r0, sp, #56
 206 0078 FFF7FEFF 		bl	HAL_RCC_ClockConfig
 207              	.LVL12:
 186:Src/main.c    ****   {
 208              		.loc 1 186 6 view .LVU60
 209 007c 0028     		cmp	r0, #0
 210 007e 10D1     		bne	.L10
 211              	.L7:
 192:Src/main.c    ****   PeriphClkInit.Usart2ClockSelection = RCC_USART2CLKSOURCE_PCLK1;
 212              		.loc 1 192 3 is_stmt 1 view .LVU61
 192:Src/main.c    ****   PeriphClkInit.Usart2ClockSelection = RCC_USART2CLKSOURCE_PCLK1;
 213              		.loc 1 192 38 is_stmt 0 view .LVU62
 214 0080 0B4B     		ldr	r3, .L12
 215 0082 0193     		str	r3, [sp, #4]
 193:Src/main.c    ****   PeriphClkInit.Lptim1ClockSelection = RCC_LPTIM1CLKSOURCE_LSI;
 216              		.loc 1 193 3 is_stmt 1 view .LVU63
 193:Src/main.c    ****   PeriphClkInit.Lptim1ClockSelection = RCC_LPTIM1CLKSOURCE_LSI;
 217              		.loc 1 193 38 is_stmt 0 view .LVU64
 218 0084 0023     		movs	r3, #0
 219 0086 0393     		str	r3, [sp, #12]
 194:Src/main.c    ****   if (HAL_RCCEx_PeriphCLKConfig(&PeriphClkInit) != HAL_OK)
 220              		.loc 1 194 3 is_stmt 1 view .LVU65
 194:Src/main.c    ****   if (HAL_RCCEx_PeriphCLKConfig(&PeriphClkInit) != HAL_OK)
 221              		.loc 1 194 38 is_stmt 0 view .LVU66
 222 0088 8023     		movs	r3, #128
 223 008a DB02     		lsls	r3, r3, #11
 224 008c 0793     		str	r3, [sp, #28]
 195:Src/main.c    ****   {
 225              		.loc 1 195 3 is_stmt 1 view .LVU67
 195:Src/main.c    ****   {
 226              		.loc 1 195 7 is_stmt 0 view .LVU68
 227 008e 01A8     		add	r0, sp, #4
 228 0090 FFF7FEFF 		bl	HAL_RCCEx_PeriphCLKConfig
 229              	.LVL13:
 195:Src/main.c    ****   {
 230              		.loc 1 195 6 view .LVU69
 231 0094 0028     		cmp	r0, #0
 232 0096 07D1     		bne	.L11
 233              	.L5:
 199:Src/main.c    **** 
 234              		.loc 1 199 1 view .LVU70
ARM GAS  C:\Users\matil\AppData\Local\Temp\ccX3jRkK.s 			page 10


 235 0098 21B0     		add	sp, sp, #132
 236              		@ sp needed
 237 009a 00BD     		pop	{pc}
 238              	.L9:
 177:Src/main.c    ****   }
 239              		.loc 1 177 5 is_stmt 1 view .LVU71
 240 009c FFF7FEFF 		bl	Error_Handler
 241              	.LVL14:
 242 00a0 E1E7     		b	.L6
 243              	.L10:
 188:Src/main.c    ****   }
 244              		.loc 1 188 5 view .LVU72
 245 00a2 FFF7FEFF 		bl	Error_Handler
 246              	.LVL15:
 247 00a6 EBE7     		b	.L7
 248              	.L11:
 197:Src/main.c    ****   }
 249              		.loc 1 197 5 view .LVU73
 250 00a8 FFF7FEFF 		bl	Error_Handler
 251              	.LVL16:
 199:Src/main.c    **** 
 252              		.loc 1 199 1 is_stmt 0 view .LVU74
 253 00ac F4E7     		b	.L5
 254              	.L13:
 255 00ae C046     		.align	2
 256              	.L12:
 257 00b0 02020000 		.word	514
 258              		.cfi_endproc
 259              	.LFE285:
 261              		.section	.rodata.main.str1.4,"aMS",%progbits,1
 262              		.align	2
 263              	.LC3:
 264 0000 0D3C3C3C 		.ascii	"\015<<<<<<<<<<RESET>>>>>>>>\012\000"
 264      3C3C3C3C 
 264      3C3C3C52 
 264      45534554 
 264      3E3E3E3E 
 265              		.section	.text.main,"ax",%progbits
 266              		.align	1
 267              		.global	main
 268              		.syntax unified
 269              		.code	16
 270              		.thumb_func
 271              		.fpu softvfp
 273              	main:
 274              	.LFB284:
  75:Src/main.c    ****   /* USER CODE BEGIN 1 */
 275              		.loc 1 75 1 is_stmt 1 view -0
 276              		.cfi_startproc
 277              		@ args = 0, pretend = 0, frame = 104
 278              		@ frame_needed = 0, uses_anonymous_args = 0
 279 0000 30B5     		push	{r4, r5, lr}
 280              	.LCFI3:
 281              		.cfi_def_cfa_offset 12
 282              		.cfi_offset 4, -12
 283              		.cfi_offset 5, -8
 284              		.cfi_offset 14, -4
ARM GAS  C:\Users\matil\AppData\Local\Temp\ccX3jRkK.s 			page 11


 285 0002 9BB0     		sub	sp, sp, #108
 286              	.LCFI4:
 287              		.cfi_def_cfa_offset 120
  83:Src/main.c    **** 
 288              		.loc 1 83 3 view .LVU76
 289 0004 FFF7FEFF 		bl	HAL_Init
 290              	.LVL17:
  90:Src/main.c    **** 
 291              		.loc 1 90 3 view .LVU77
 292 0008 FFF7FEFF 		bl	SystemClock_Config
 293              	.LVL18:
  96:Src/main.c    ****   MX_DMA_Init();
 294              		.loc 1 96 3 view .LVU78
 295 000c FFF7FEFF 		bl	MX_GPIO_Init
 296              	.LVL19:
  97:Src/main.c    ****   MX_LPTIM1_Init();
 297              		.loc 1 97 3 view .LVU79
 298 0010 FFF7FEFF 		bl	MX_DMA_Init
 299              	.LVL20:
  98:Src/main.c    ****   MX_USART2_UART_Init();
 300              		.loc 1 98 3 view .LVU80
 301 0014 FFF7FEFF 		bl	MX_LPTIM1_Init
 302              	.LVL21:
  99:Src/main.c    ****   MX_SPI2_Init();
 303              		.loc 1 99 3 view .LVU81
 304 0018 FFF7FEFF 		bl	MX_USART2_UART_Init
 305              	.LVL22:
 100:Src/main.c    ****   MX_SPI1_Init();
 306              		.loc 1 100 3 view .LVU82
 307 001c FFF7FEFF 		bl	MX_SPI2_Init
 308              	.LVL23:
 101:Src/main.c    ****   /* USER CODE BEGIN 2 */
 309              		.loc 1 101 3 view .LVU83
 310 0020 FFF7FEFF 		bl	MX_SPI1_Init
 311              	.LVL24:
 104:Src/main.c    ****   HAL_LPTIM_Counter_Start_IT(&hlptim1, LPTIM_PRESCALER_1s_LSI);
 312              		.loc 1 104 3 view .LVU84
 313 0024 2F4C     		ldr	r4, .L20
 314 0026 2000     		movs	r0, r4
 315 0028 FFF7FEFF 		bl	HAL_LPTIM_MspInit
 316              	.LVL25:
 105:Src/main.c    ****   HAL_SPI_MspInit(&hspi2);
 317              		.loc 1 105 3 view .LVU85
 318 002c FA21     		movs	r1, #250
 319 002e 2000     		movs	r0, r4
 320 0030 FFF7FEFF 		bl	HAL_LPTIM_Counter_Start_IT
 321              	.LVL26:
 106:Src/main.c    ****   HAL_SPI_MspInit(&hspi1);
 322              		.loc 1 106 3 view .LVU86
 323 0034 2C48     		ldr	r0, .L20+4
 324 0036 FFF7FEFF 		bl	HAL_SPI_MspInit
 325              	.LVL27:
 107:Src/main.c    **** 
 326              		.loc 1 107 3 view .LVU87
 327 003a 2C48     		ldr	r0, .L20+8
 328 003c FFF7FEFF 		bl	HAL_SPI_MspInit
 329              	.LVL28:
ARM GAS  C:\Users\matil\AppData\Local\Temp\ccX3jRkK.s 			page 12


 330              	.LBB3:
 109:Src/main.c    **** 
 331              		.loc 1 109 3 view .LVU88
 332 0040 01AC     		add	r4, sp, #4
 333 0042 6022     		movs	r2, #96
 334 0044 0021     		movs	r1, #0
 335 0046 02A8     		add	r0, sp, #8
 336 0048 FFF7FEFF 		bl	memset
 337              	.LVL29:
 109:Src/main.c    **** 
 338              		.loc 1 109 3 view .LVU89
 339 004c 284B     		ldr	r3, .L20+12
 340 004e 2200     		movs	r2, r4
 341 0050 23CB     		ldmia	r3!, {r0, r1, r5}
 342 0052 23C2     		stmia	r2!, {r0, r1, r5}
 343 0054 23CB     		ldmia	r3!, {r0, r1, r5}
 344 0056 23C2     		stmia	r2!, {r0, r1, r5}
 345 0058 1B88     		ldrh	r3, [r3]
 346 005a 1380     		strh	r3, [r2]
 347              	.LVL30:
 109:Src/main.c    **** 
 348              		.loc 1 109 3 view .LVU90
 349 005c FA23     		movs	r3, #250
 350 005e 254D     		ldr	r5, .L20+16
 351 0060 9B00     		lsls	r3, r3, #2
 352 0062 1922     		movs	r2, #25
 353 0064 2100     		movs	r1, r4
 354 0066 2800     		movs	r0, r5
 355 0068 FFF7FEFF 		bl	HAL_UART_Transmit
 356              	.LVL31:
 357              	.LBE3:
 109:Src/main.c    **** 
 358              		.loc 1 109 22 view .LVU91
 111:Src/main.c    ****   ADC_config();
 359              		.loc 1 111 3 view .LVU92
 360 006c FFF7FEFF 		bl	ADC_reset
 361              	.LVL32:
 112:Src/main.c    ****   HAL_UART_Receive_DMA(&huart2, State.UART_RX_BUFF, UART_RX_BUFFER_LENGTH);
 362              		.loc 1 112 3 view .LVU93
 363 0070 FFF7FEFF 		bl	ADC_config
 364              	.LVL33:
 113:Src/main.c    **** 
 365              		.loc 1 113 3 view .LVU94
 366 0074 4022     		movs	r2, #64
 367 0076 2049     		ldr	r1, .L20+20
 368 0078 2800     		movs	r0, r5
 369 007a FFF7FEFF 		bl	HAL_UART_Receive_DMA
 370              	.LVL34:
 115:Src/main.c    **** 
 371              		.loc 1 115 3 view .LVU95
 372 007e FFF7FEFF 		bl	DAC_reset
 373              	.LVL35:
 118:Src/main.c    ****   HAL_NVIC_SetPriority(EXTI4_15_IRQn, 1, 0);
 374              		.loc 1 118 3 view .LVU96
 375 0082 0020     		movs	r0, #0
 376 0084 FFF7FEFF 		bl	HAL_InitTick
 377              	.LVL36:
ARM GAS  C:\Users\matil\AppData\Local\Temp\ccX3jRkK.s 			page 13


 119:Src/main.c    ****   HAL_NVIC_SetPriority(DMA1_Channel1_IRQn, 2, 0);
 378              		.loc 1 119 3 view .LVU97
 379 0088 0022     		movs	r2, #0
 380 008a 0121     		movs	r1, #1
 381 008c 0720     		movs	r0, #7
 382 008e FFF7FEFF 		bl	HAL_NVIC_SetPriority
 383              	.LVL37:
 120:Src/main.c    ****   HAL_NVIC_SetPriority(TIM6_DAC_LPTIM1_IRQn, 2, 0);
 384              		.loc 1 120 3 view .LVU98
 385 0092 0022     		movs	r2, #0
 386 0094 0221     		movs	r1, #2
 387 0096 0920     		movs	r0, #9
 388 0098 FFF7FEFF 		bl	HAL_NVIC_SetPriority
 389              	.LVL38:
 121:Src/main.c    ****   HAL_NVIC_SetPriority(SPI2_IRQn, 2, 0);
 390              		.loc 1 121 3 view .LVU99
 391 009c 0022     		movs	r2, #0
 392 009e 0221     		movs	r1, #2
 393 00a0 1120     		movs	r0, #17
 394 00a2 FFF7FEFF 		bl	HAL_NVIC_SetPriority
 395              	.LVL39:
 122:Src/main.c    ****   HAL_NVIC_SetPriority(USART2_IRQn, 2, 0);
 396              		.loc 1 122 3 view .LVU100
 397 00a6 0022     		movs	r2, #0
 398 00a8 0221     		movs	r1, #2
 399 00aa 1A20     		movs	r0, #26
 400 00ac FFF7FEFF 		bl	HAL_NVIC_SetPriority
 401              	.LVL40:
 123:Src/main.c    **** 
 402              		.loc 1 123 3 view .LVU101
 403 00b0 0022     		movs	r2, #0
 404 00b2 0221     		movs	r1, #2
 405 00b4 1C20     		movs	r0, #28
 406 00b6 FFF7FEFF 		bl	HAL_NVIC_SetPriority
 407              	.LVL41:
 129:Src/main.c    ****   ADC_update();
 408              		.loc 1 129 3 view .LVU102
 409 00ba 1048     		ldr	r0, .L20+24
 410 00bc FFF7FEFF 		bl	DAC_cmd
 411              	.LVL42:
 130:Src/main.c    ****   while (1)
 412              		.loc 1 130 3 view .LVU103
 413 00c0 FFF7FEFF 		bl	ADC_update
 414              	.LVL43:
 415 00c4 04E0     		b	.L16
 416              	.L18:
 135:Src/main.c    ****     };
 417              		.loc 1 135 7 view .LVU104
 418 00c6 FFF7FEFF 		bl	cmd
 419              	.LVL44:
 420 00ca 06E0     		b	.L15
 421              	.L19:
 139:Src/main.c    ****     };
 422              		.loc 1 139 7 view .LVU105
 423 00cc FFF7FEFF 		bl	Filter
 424              	.LVL45:
 425              	.L16:
ARM GAS  C:\Users\matil\AppData\Local\Temp\ccX3jRkK.s 			page 14


 131:Src/main.c    ****   {
 426              		.loc 1 131 3 view .LVU106
 133:Src/main.c    ****     {
 427              		.loc 1 133 5 view .LVU107
 133:Src/main.c    ****     {
 428              		.loc 1 133 14 is_stmt 0 view .LVU108
 429 00d0 0B4A     		ldr	r2, .L20+28
 430 00d2 0C4B     		ldr	r3, .L20+32
 431 00d4 D35C     		ldrb	r3, [r2, r3]
 133:Src/main.c    ****     {
 432              		.loc 1 133 8 view .LVU109
 433 00d6 002B     		cmp	r3, #0
 434 00d8 F5D1     		bne	.L18
 435              	.L15:
 136:Src/main.c    ****     if (State.ADC_Updated)
 436              		.loc 1 136 6 is_stmt 1 view .LVU110
 137:Src/main.c    ****     {
 437              		.loc 1 137 5 view .LVU111
 137:Src/main.c    ****     {
 438              		.loc 1 137 14 is_stmt 0 view .LVU112
 439 00da 094B     		ldr	r3, .L20+28
 440 00dc 5B7A     		ldrb	r3, [r3, #9]
 137:Src/main.c    ****     {
 441              		.loc 1 137 8 view .LVU113
 442 00de 002B     		cmp	r3, #0
 443 00e0 F6D0     		beq	.L16
 444 00e2 F3E7     		b	.L19
 445              	.L21:
 446              		.align	2
 447              	.L20:
 448 00e4 00000000 		.word	hlptim1
 449 00e8 00000000 		.word	hspi2
 450 00ec 00000000 		.word	hspi1
 451 00f0 00000000 		.word	.LC3
 452 00f4 00000000 		.word	huart2
 453 00f8 90040000 		.word	State+1168
 454 00fc FFFF1600 		.word	1507327
 455 0100 00000000 		.word	State
 456 0104 8F040000 		.word	1167
 457              		.cfi_endproc
 458              	.LFE284:
 460              		.global	State
 461              		.section	.bss.State,"aw",%nobits
 462              		.align	2
 465              	State:
 466 0000 00000000 		.space	1232
 466      00000000 
 466      00000000 
 466      00000000 
 466      00000000 
 467              		.text
 468              	.Letext0:
 469              		.file 2 "c:\\gnu tools arm embedded\\arm-none-eabi\\include\\machine\\_default_types.h"
 470              		.file 3 "c:\\gnu tools arm embedded\\arm-none-eabi\\include\\sys\\_stdint.h"
 471              		.file 4 "Drivers/CMSIS/Device/ST/STM32G0xx/Include/system_stm32g0xx.h"
 472              		.file 5 "Drivers/CMSIS/Device/ST/STM32G0xx/Include/stm32g071xx.h"
 473              		.file 6 "Drivers/STM32G0xx_HAL_Driver/Inc/stm32g0xx_hal_def.h"
ARM GAS  C:\Users\matil\AppData\Local\Temp\ccX3jRkK.s 			page 15


 474              		.file 7 "Drivers/STM32G0xx_HAL_Driver/Inc/stm32g0xx_hal_rcc.h"
 475              		.file 8 "Drivers/STM32G0xx_HAL_Driver/Inc/stm32g0xx_hal_rcc_ex.h"
 476              		.file 9 "Drivers/STM32G0xx_HAL_Driver/Inc/stm32g0xx_hal_dma.h"
 477              		.file 10 "Drivers/STM32G0xx_HAL_Driver/Inc/stm32g0xx_hal_flash.h"
 478              		.file 11 "Drivers/STM32G0xx_HAL_Driver/Inc/stm32g0xx_hal_lptim.h"
 479              		.file 12 "Drivers/STM32G0xx_HAL_Driver/Inc/stm32g0xx_hal_spi.h"
 480              		.file 13 "Drivers/STM32G0xx_HAL_Driver/Inc/stm32g0xx_hal_uart.h"
 481              		.file 14 "Drivers/STM32G0xx_HAL_Driver/Inc/stm32g0xx_hal.h"
 482              		.file 15 "c:\\gnu tools arm embedded\\arm-none-eabi\\include\\sys\\lock.h"
 483              		.file 16 "c:\\gnu tools arm embedded\\arm-none-eabi\\include\\sys\\_types.h"
 484              		.file 17 "c:\\gnu tools arm embedded\\lib\\gcc\\arm-none-eabi\\9.2.1\\include\\stddef.h"
 485              		.file 18 "c:\\gnu tools arm embedded\\arm-none-eabi\\include\\sys\\reent.h"
 486              		.file 19 "Inc/usart.h"
 487              		.file 20 "Inc/lptim.h"
 488              		.file 21 "Inc/spi.h"
 489              		.file 22 "Inc/state.h"
 490              		.file 23 "Drivers/STM32G0xx_HAL_Driver/Inc/stm32g0xx_hal_gpio.h"
 491              		.file 24 "Drivers/STM32G0xx_HAL_Driver/Inc/stm32g0xx_hal_pwr_ex.h"
 492              		.file 25 "Inc/gpio.h"
 493              		.file 26 "Inc/dma.h"
 494              		.file 27 "Inc/ADC.h"
 495              		.file 28 "Inc/DAC.h"
 496              		.file 29 "Drivers/STM32G0xx_HAL_Driver/Inc/stm32g0xx_hal_cortex.h"
 497              		.file 30 "Inc/Filter.h"
 498              		.file 31 "<built-in>"
 499              		.file 32 "Inc/cmd.h"
ARM GAS  C:\Users\matil\AppData\Local\Temp\ccX3jRkK.s 			page 16


DEFINED SYMBOLS
                            *ABS*:00000000 main.c
C:\Users\matil\AppData\Local\Temp\ccX3jRkK.s:16     .text.Error_Handler:00000000 $t
C:\Users\matil\AppData\Local\Temp\ccX3jRkK.s:24     .text.Error_Handler:00000000 Error_Handler
C:\Users\matil\AppData\Local\Temp\ccX3jRkK.s:83     .text.SystemClock_Config:00000000 $t
C:\Users\matil\AppData\Local\Temp\ccX3jRkK.s:90     .text.SystemClock_Config:00000000 SystemClock_Config
C:\Users\matil\AppData\Local\Temp\ccX3jRkK.s:257    .text.SystemClock_Config:000000b0 $d
C:\Users\matil\AppData\Local\Temp\ccX3jRkK.s:262    .rodata.main.str1.4:00000000 $d
C:\Users\matil\AppData\Local\Temp\ccX3jRkK.s:266    .text.main:00000000 $t
C:\Users\matil\AppData\Local\Temp\ccX3jRkK.s:273    .text.main:00000000 main
C:\Users\matil\AppData\Local\Temp\ccX3jRkK.s:448    .text.main:000000e4 $d
C:\Users\matil\AppData\Local\Temp\ccX3jRkK.s:465    .bss.State:00000000 State
C:\Users\matil\AppData\Local\Temp\ccX3jRkK.s:462    .bss.State:00000000 $d

UNDEFINED SYMBOLS
HAL_GPIO_TogglePin
HAL_Delay
HAL_GPIO_WritePin
memset
HAL_PWREx_ControlVoltageScaling
HAL_RCC_OscConfig
HAL_RCC_ClockConfig
HAL_RCCEx_PeriphCLKConfig
HAL_Init
MX_GPIO_Init
MX_DMA_Init
MX_LPTIM1_Init
MX_USART2_UART_Init
MX_SPI2_Init
MX_SPI1_Init
HAL_LPTIM_MspInit
HAL_LPTIM_Counter_Start_IT
HAL_SPI_MspInit
HAL_UART_Transmit
ADC_reset
ADC_config
HAL_UART_Receive_DMA
DAC_reset
HAL_InitTick
HAL_NVIC_SetPriority
DAC_cmd
ADC_update
cmd
Filter
hlptim1
hspi2
hspi1
huart2
