ARM GAS  C:\Users\matil\AppData\Local\Temp\ccTX79Z3.s 			page 1


   1              		.cpu cortex-m0plus
   2              		.eabi_attribute 20, 1
   3              		.eabi_attribute 21, 1
   4              		.eabi_attribute 23, 3
   5              		.eabi_attribute 24, 1
   6              		.eabi_attribute 25, 1
   7              		.eabi_attribute 26, 1
   8              		.eabi_attribute 30, 1
   9              		.eabi_attribute 34, 0
  10              		.eabi_attribute 18, 4
  11              		.file	"PID.c"
  12              		.text
  13              	.Ltext0:
  14              		.cfi_sections	.debug_frame
  15              		.global	__aeabi_lmul
  16              		.global	__aeabi_uldivmod
  17              		.section	.text.Voltage_nV,"ax",%progbits
  18              		.align	1
  19              		.global	Voltage_nV
  20              		.arch armv6s-m
  21              		.syntax unified
  22              		.code	16
  23              		.thumb_func
  24              		.fpu softvfp
  26              	Voltage_nV:
  27              	.LVL0:
  28              	.LFB284:
  29              		.file 1 "Src/PID.c"
   1:Src/PID.c     **** #include "usart.h"
   2:Src/PID.c     **** #include <stdio.h>
   3:Src/PID.c     **** #include "state.h"
   4:Src/PID.c     **** #include "usart_utils.h"
   5:Src/PID.c     **** #include "ADC.h"
   6:Src/PID.c     **** #include "spi.h"
   7:Src/PID.c     **** #include "DAC.h"
   8:Src/PID.c     **** 
   9:Src/PID.c     **** extern state State;
  10:Src/PID.c     **** 
  11:Src/PID.c     **** //Returns voltage in [nV] measured by adc channel ADC_CH.
  12:Src/PID.c     **** uint64_t Voltage_nV(uint8_t ADC_CH)
  13:Src/PID.c     **** {
  30              		.loc 1 13 1 view -0
  31              		.cfi_startproc
  32              		@ args = 0, pretend = 0, frame = 0
  33              		@ frame_needed = 0, uses_anonymous_args = 0
  34              		.loc 1 13 1 is_stmt 0 view .LVU1
  35 0000 10B5     		push	{r4, lr}
  36              	.LCFI0:
  37              		.cfi_def_cfa_offset 8
  38              		.cfi_offset 4, -8
  39              		.cfi_offset 14, -4
  14:Src/PID.c     ****     return (((uint64_t)State.ADC_ValuesFiltered[ADC_CH] * 1800000000) / 0xffffff);
  40              		.loc 1 14 5 is_stmt 1 view .LVU2
  41              		.loc 1 14 48 is_stmt 0 view .LVU3
  42 0002 2530     		adds	r0, r0, #37
  43              	.LVL1:
  44              		.loc 1 14 48 view .LVU4
ARM GAS  C:\Users\matil\AppData\Local\Temp\ccTX79Z3.s 			page 2


  45 0004 FF30     		adds	r0, r0, #255
  46 0006 8000     		lsls	r0, r0, #2
  47 0008 054B     		ldr	r3, .L2
  48 000a C058     		ldr	r0, [r0, r3]
  49              		.loc 1 14 57 view .LVU5
  50 000c 054A     		ldr	r2, .L2+4
  51 000e 0023     		movs	r3, #0
  52 0010 0021     		movs	r1, #0
  53 0012 FFF7FEFF 		bl	__aeabi_lmul
  54              	.LVL2:
  55              		.loc 1 14 71 view .LVU6
  56 0016 044A     		ldr	r2, .L2+8
  57 0018 0023     		movs	r3, #0
  58 001a FFF7FEFF 		bl	__aeabi_uldivmod
  59              	.LVL3:
  15:Src/PID.c     **** };
  60              		.loc 1 15 1 view .LVU7
  61              		@ sp needed
  62 001e 10BD     		pop	{r4, pc}
  63              	.L3:
  64              		.align	2
  65              	.L2:
  66 0020 00000000 		.word	State
  67 0024 00D2496B 		.word	1800000000
  68 0028 FFFFFF00 		.word	16777215
  69              		.cfi_endproc
  70              	.LFE284:
  72              		.section	.text.Voltage,"ax",%progbits
  73              		.align	1
  74              		.global	Voltage
  75              		.syntax unified
  76              		.code	16
  77              		.thumb_func
  78              		.fpu softvfp
  80              	Voltage:
  81              	.LVL4:
  82              	.LFB285:
  16:Src/PID.c     **** 
  17:Src/PID.c     **** //Returns voltage in [uV] measured by adc channel ADC_CH.
  18:Src/PID.c     **** uint64_t Voltage(uint8_t ADC_CH)
  19:Src/PID.c     **** {
  83              		.loc 1 19 1 is_stmt 1 view -0
  84              		.cfi_startproc
  85              		@ args = 0, pretend = 0, frame = 0
  86              		@ frame_needed = 0, uses_anonymous_args = 0
  87              		.loc 1 19 1 is_stmt 0 view .LVU9
  88 0000 10B5     		push	{r4, lr}
  89              	.LCFI1:
  90              		.cfi_def_cfa_offset 8
  91              		.cfi_offset 4, -8
  92              		.cfi_offset 14, -4
  20:Src/PID.c     ****     return (((uint64_t)State.ADC_ValuesFiltered[ADC_CH] * 1800000) / 0xffffff);
  93              		.loc 1 20 5 is_stmt 1 view .LVU10
  94              		.loc 1 20 48 is_stmt 0 view .LVU11
  95 0002 2530     		adds	r0, r0, #37
  96              	.LVL5:
  97              		.loc 1 20 48 view .LVU12
ARM GAS  C:\Users\matil\AppData\Local\Temp\ccTX79Z3.s 			page 3


  98 0004 FF30     		adds	r0, r0, #255
  99 0006 8000     		lsls	r0, r0, #2
 100 0008 054B     		ldr	r3, .L5
 101 000a C058     		ldr	r0, [r0, r3]
 102              		.loc 1 20 57 view .LVU13
 103 000c 054A     		ldr	r2, .L5+4
 104 000e 0023     		movs	r3, #0
 105 0010 0021     		movs	r1, #0
 106 0012 FFF7FEFF 		bl	__aeabi_lmul
 107              	.LVL6:
 108              		.loc 1 20 68 view .LVU14
 109 0016 044A     		ldr	r2, .L5+8
 110 0018 0023     		movs	r3, #0
 111 001a FFF7FEFF 		bl	__aeabi_uldivmod
 112              	.LVL7:
  21:Src/PID.c     **** };
 113              		.loc 1 21 1 view .LVU15
 114              		@ sp needed
 115 001e 10BD     		pop	{r4, pc}
 116              	.L6:
 117              		.align	2
 118              	.L5:
 119 0020 00000000 		.word	State
 120 0024 40771B00 		.word	1800000
 121 0028 FFFFFF00 		.word	16777215
 122              		.cfi_endproc
 123              	.LFE285:
 125              		.section	.text.Phase,"ax",%progbits
 126              		.align	1
 127              		.global	Phase
 128              		.syntax unified
 129              		.code	16
 130              		.thumb_func
 131              		.fpu softvfp
 133              	Phase:
 134              	.LVL8:
 135              	.LFB286:
  22:Src/PID.c     **** 
  23:Src/PID.c     **** //Returns Phase absolute value in [deg e-3] measured by adc channel ADC_CH.
  24:Src/PID.c     **** uint64_t Phase(uint8_t ADC_CH)
  25:Src/PID.c     **** {
 136              		.loc 1 25 1 is_stmt 1 view -0
 137              		.cfi_startproc
 138              		@ args = 0, pretend = 0, frame = 0
 139              		@ frame_needed = 0, uses_anonymous_args = 0
 140              		.loc 1 25 1 is_stmt 0 view .LVU17
 141 0000 10B5     		push	{r4, lr}
 142              	.LCFI2:
 143              		.cfi_def_cfa_offset 8
 144              		.cfi_offset 4, -8
 145              		.cfi_offset 14, -4
  26:Src/PID.c     ****     return (1800000000 - Voltage_nV(ADC_CH)) / 10000;
 146              		.loc 1 26 5 is_stmt 1 view .LVU18
 147              		.loc 1 26 26 is_stmt 0 view .LVU19
 148 0002 FFF7FEFF 		bl	Voltage_nV
 149              	.LVL9:
 150              		.loc 1 26 24 view .LVU20
ARM GAS  C:\Users\matil\AppData\Local\Temp\ccTX79Z3.s 			page 4


 151 0006 054A     		ldr	r2, .L8
 152 0008 0023     		movs	r3, #0
 153 000a 121A     		subs	r2, r2, r0
 154 000c 8B41     		sbcs	r3, r3, r1
 155 000e 1000     		movs	r0, r2
 156 0010 1900     		movs	r1, r3
 157              		.loc 1 26 46 view .LVU21
 158 0012 034A     		ldr	r2, .L8+4
 159 0014 0023     		movs	r3, #0
 160 0016 FFF7FEFF 		bl	__aeabi_uldivmod
 161              	.LVL10:
  27:Src/PID.c     **** };
 162              		.loc 1 27 1 view .LVU22
 163              		@ sp needed
 164 001a 10BD     		pop	{r4, pc}
 165              	.L9:
 166              		.align	2
 167              	.L8:
 168 001c 00D2496B 		.word	1800000000
 169 0020 10270000 		.word	10000
 170              		.cfi_endproc
 171              	.LFE286:
 173              		.section	.text.Phase_u,"ax",%progbits
 174              		.align	1
 175              		.global	Phase_u
 176              		.syntax unified
 177              		.code	16
 178              		.thumb_func
 179              		.fpu softvfp
 181              	Phase_u:
 182              	.LVL11:
 183              	.LFB287:
  28:Src/PID.c     **** 
  29:Src/PID.c     **** //Returns Phase absolute value in [deg e-6] measured by adc channel ADC_CH.
  30:Src/PID.c     **** uint64_t Phase_u(uint8_t ADC_CH)
  31:Src/PID.c     **** {
 184              		.loc 1 31 1 is_stmt 1 view -0
 185              		.cfi_startproc
 186              		@ args = 0, pretend = 0, frame = 0
 187              		@ frame_needed = 0, uses_anonymous_args = 0
 188              		.loc 1 31 1 is_stmt 0 view .LVU24
 189 0000 10B5     		push	{r4, lr}
 190              	.LCFI3:
 191              		.cfi_def_cfa_offset 8
 192              		.cfi_offset 4, -8
 193              		.cfi_offset 14, -4
  32:Src/PID.c     ****     return (1800000000 - Voltage_nV(ADC_CH)) / 10;
 194              		.loc 1 32 5 is_stmt 1 view .LVU25
 195              		.loc 1 32 26 is_stmt 0 view .LVU26
 196 0002 FFF7FEFF 		bl	Voltage_nV
 197              	.LVL12:
 198              		.loc 1 32 24 view .LVU27
 199 0006 054A     		ldr	r2, .L11
 200 0008 0023     		movs	r3, #0
 201 000a 121A     		subs	r2, r2, r0
 202 000c 8B41     		sbcs	r3, r3, r1
 203 000e 1000     		movs	r0, r2
ARM GAS  C:\Users\matil\AppData\Local\Temp\ccTX79Z3.s 			page 5


 204 0010 1900     		movs	r1, r3
 205              		.loc 1 32 46 view .LVU28
 206 0012 0A22     		movs	r2, #10
 207 0014 0023     		movs	r3, #0
 208 0016 FFF7FEFF 		bl	__aeabi_uldivmod
 209              	.LVL13:
  33:Src/PID.c     **** };
 210              		.loc 1 33 1 view .LVU29
 211              		@ sp needed
 212 001a 10BD     		pop	{r4, pc}
 213              	.L12:
 214              		.align	2
 215              	.L11:
 216 001c 00D2496B 		.word	1800000000
 217              		.cfi_endproc
 218              	.LFE287:
 220              		.section	.text.Temperature,"ax",%progbits
 221              		.align	1
 222              		.global	Temperature
 223              		.syntax unified
 224              		.code	16
 225              		.thumb_func
 226              		.fpu softvfp
 228              	Temperature:
 229              	.LFB288:
  34:Src/PID.c     **** 
  35:Src/PID.c     **** //Returns Temperature in [deg C e-3] measured by adc thermometer channel.
  36:Src/PID.c     **** int64_t Temperature()
  37:Src/PID.c     **** {
 230              		.loc 1 37 1 is_stmt 1 view -0
 231              		.cfi_startproc
 232              		@ args = 0, pretend = 0, frame = 0
 233              		@ frame_needed = 0, uses_anonymous_args = 0
 234 0000 10B5     		push	{r4, lr}
 235              	.LCFI4:
 236              		.cfi_def_cfa_offset 8
 237              		.cfi_offset 4, -8
 238              		.cfi_offset 14, -4
  38:Src/PID.c     ****     return (-45000000 - 175000000 / 8 + 17500 * Voltage(ADC_T_CH) / 264);
 239              		.loc 1 38 5 view .LVU31
 240              		.loc 1 38 49 is_stmt 0 view .LVU32
 241 0002 0720     		movs	r0, #7
 242 0004 FFF7FEFF 		bl	Voltage
 243              	.LVL14:
 244              		.loc 1 38 47 view .LVU33
 245 0008 074A     		ldr	r2, .L14
 246 000a 0023     		movs	r3, #0
 247 000c FFF7FEFF 		bl	__aeabi_lmul
 248              	.LVL15:
 249              		.loc 1 38 67 view .LVU34
 250 0010 8422     		movs	r2, #132
 251 0012 5200     		lsls	r2, r2, #1
 252 0014 0023     		movs	r3, #0
 253 0016 FFF7FEFF 		bl	__aeabi_uldivmod
 254              	.LVL16:
 255              		.loc 1 38 39 view .LVU35
 256 001a 044A     		ldr	r2, .L14+4
ARM GAS  C:\Users\matil\AppData\Local\Temp\ccTX79Z3.s 			page 6


 257 001c 0123     		movs	r3, #1
 258 001e 5B42     		rsbs	r3, r3, #0
 259 0020 8018     		adds	r0, r0, r2
 260 0022 5941     		adcs	r1, r1, r3
  39:Src/PID.c     **** };
 261              		.loc 1 39 1 view .LVU36
 262              		@ sp needed
 263 0024 10BD     		pop	{r4, pc}
 264              	.L15:
 265 0026 C046     		.align	2
 266              	.L14:
 267 0028 5C440000 		.word	17500
 268 002c 889103FC 		.word	-66875000
 269              		.cfi_endproc
 270              	.LFE288:
 272              		.section	.text.Relative_Power,"ax",%progbits
 273              		.align	1
 274              		.global	Relative_Power
 275              		.syntax unified
 276              		.code	16
 277              		.thumb_func
 278              		.fpu softvfp
 280              	Relative_Power:
 281              	.LVL17:
 282              	.LFB289:
  40:Src/PID.c     **** 
  41:Src/PID.c     **** //Returns Relative Power in [dB e-3] measured by adc channel ADC_CH.
  42:Src/PID.c     **** int64_t Relative_Power(uint8_t ADC_CH)
  43:Src/PID.c     **** {
 283              		.loc 1 43 1 is_stmt 1 view -0
 284              		.cfi_startproc
 285              		@ args = 0, pretend = 0, frame = 0
 286              		@ frame_needed = 0, uses_anonymous_args = 0
 287              		.loc 1 43 1 is_stmt 0 view .LVU38
 288 0000 10B5     		push	{r4, lr}
 289              	.LCFI5:
 290              		.cfi_def_cfa_offset 8
 291              		.cfi_offset 4, -8
 292              		.cfi_offset 14, -4
  44:Src/PID.c     ****     return ((Voltage(ADC_CH) / 30) - 30000);
 293              		.loc 1 44 5 is_stmt 1 view .LVU39
 294              		.loc 1 44 14 is_stmt 0 view .LVU40
 295 0002 FFF7FEFF 		bl	Voltage
 296              	.LVL18:
 297              		.loc 1 44 30 view .LVU41
 298 0006 1E22     		movs	r2, #30
 299 0008 0023     		movs	r3, #0
 300 000a FFF7FEFF 		bl	__aeabi_uldivmod
 301              	.LVL19:
 302              		.loc 1 44 36 view .LVU42
 303 000e 034A     		ldr	r2, .L17
 304 0010 0123     		movs	r3, #1
 305 0012 5B42     		rsbs	r3, r3, #0
 306 0014 8018     		adds	r0, r0, r2
 307 0016 5941     		adcs	r1, r1, r3
  45:Src/PID.c     **** };
 308              		.loc 1 45 1 view .LVU43
ARM GAS  C:\Users\matil\AppData\Local\Temp\ccTX79Z3.s 			page 7


 309              		@ sp needed
 310 0018 10BD     		pop	{r4, pc}
 311              	.L18:
 312 001a C046     		.align	2
 313              	.L17:
 314 001c D08AFFFF 		.word	-30000
 315              		.cfi_endproc
 316              	.LFE289:
 318              		.global	__aeabi_ldivmod
 319              		.section	.text.RMS_Power,"ax",%progbits
 320              		.align	1
 321              		.global	RMS_Power
 322              		.syntax unified
 323              		.code	16
 324              		.thumb_func
 325              		.fpu softvfp
 327              	RMS_Power:
 328              	.LVL20:
 329              	.LFB290:
  46:Src/PID.c     **** //Returns Power in [dBm  e-3] measured by adc channel ADC_CH.
  47:Src/PID.c     **** int64_t RMS_Power(uint8_t ADC_CH)
  48:Src/PID.c     **** {
 330              		.loc 1 48 1 is_stmt 1 view -0
 331              		.cfi_startproc
 332              		@ args = 0, pretend = 0, frame = 128
 333              		@ frame_needed = 0, uses_anonymous_args = 0
 334              		.loc 1 48 1 is_stmt 0 view .LVU45
 335 0000 10B5     		push	{r4, lr}
 336              	.LCFI6:
 337              		.cfi_def_cfa_offset 8
 338              		.cfi_offset 4, -8
 339              		.cfi_offset 14, -4
 340 0002 A0B0     		sub	sp, sp, #128
 341              	.LCFI7:
 342              		.cfi_def_cfa_offset 136
 343 0004 0400     		movs	r4, r0
  49:Src/PID.c     ****     const int64_t cal[16] = {0, 0, 0, 0, 399874, 0, 0, 0, 0, 448454, 427524, 0, 0, 0, 0, 408285}; /
 344              		.loc 1 49 5 is_stmt 1 view .LVU46
 345              		.loc 1 49 19 is_stmt 0 view .LVU47
 346 0006 8022     		movs	r2, #128
 347 0008 0B49     		ldr	r1, .L20
 348 000a 6846     		mov	r0, sp
 349              	.LVL21:
 350              		.loc 1 49 19 view .LVU48
 351 000c FFF7FEFF 		bl	memcpy
 352              	.LVL22:
  50:Src/PID.c     ****     return (int64_t)(Voltage(ADC_CH) - cal[ADC_CH]) / 20 - 65000;
 353              		.loc 1 50 5 is_stmt 1 view .LVU49
 354              		.loc 1 50 22 is_stmt 0 view .LVU50
 355 0010 2000     		movs	r0, r4
 356 0012 FFF7FEFF 		bl	Voltage
 357              	.LVL23:
 358              		.loc 1 50 43 view .LVU51
 359 0016 E400     		lsls	r4, r4, #3
 360 0018 6C44     		add	r4, r4, sp
 361 001a 2268     		ldr	r2, [r4]
 362 001c 6368     		ldr	r3, [r4, #4]
ARM GAS  C:\Users\matil\AppData\Local\Temp\ccTX79Z3.s 			page 8


 363              		.loc 1 50 38 view .LVU52
 364 001e 801A     		subs	r0, r0, r2
 365 0020 9941     		sbcs	r1, r1, r3
 366              		.loc 1 50 53 view .LVU53
 367 0022 1422     		movs	r2, #20
 368 0024 0023     		movs	r3, #0
 369 0026 FFF7FEFF 		bl	__aeabi_ldivmod
 370              	.LVL24:
 371              		.loc 1 50 58 view .LVU54
 372 002a 044A     		ldr	r2, .L20+4
 373 002c 0123     		movs	r3, #1
 374 002e 5B42     		rsbs	r3, r3, #0
 375 0030 8018     		adds	r0, r0, r2
 376 0032 5941     		adcs	r1, r1, r3
  51:Src/PID.c     **** };
 377              		.loc 1 51 1 view .LVU55
 378 0034 20B0     		add	sp, sp, #128
 379              		@ sp needed
 380 0036 10BD     		pop	{r4, pc}
 381              	.L21:
 382              		.align	2
 383              	.L20:
 384 0038 00000000 		.word	.LC0
 385 003c 1802FFFF 		.word	-65000
 386              		.cfi_endproc
 387              	.LFE290:
 389              		.section	.rodata.Calib.str1.4,"aMS",%progbits,1
 390              		.align	2
 391              	.LC4:
 392 0000 1B5B303B 		.ascii	"\033[0;33m\000"
 392      33336D00 
 393              		.align	2
 394              	.LC7:
 395 0008 5B43414C 		.ascii	"[CALIBRATION] ...\000"
 395      49425241 
 395      54494F4E 
 395      5D202E2E 
 395      2E00
 396 001a 0000     		.align	2
 397              	.LC10:
 398 001c 08080850 		.ascii	"\010\010\010PD1+PD2 SETPOINT: %li\012\000"
 398      44312B50 
 398      44322053 
 398      4554504F 
 398      494E543A 
 399 0036 0000     		.align	2
 400              	.LC12:
 401 0038 5B43414C 		.ascii	"[CALIBRATION] PD1 SLOPE: %i\012\000"
 401      49425241 
 401      54494F4E 
 401      5D205044 
 401      3120534C 
 402 0055 000000   		.align	2
 403              	.LC14:
 404 0058 5B43414C 		.ascii	"[CALIBRATION] PD2 SLOPE: %i\012\000"
 404      49425241 
 404      54494F4E 
ARM GAS  C:\Users\matil\AppData\Local\Temp\ccTX79Z3.s 			page 9


 404      5D205044 
 404      3220534C 
 405 0075 000000   		.align	2
 406              	.LC16:
 407 0078 5B43414C 		.ascii	"[CALIBRATION] PS704 OFFSET: %u\012\000"
 407      49425241 
 407      54494F4E 
 407      5D205053 
 407      37303420 
 408              		.align	2
 409              	.LC18:
 410 0098 08080850 		.ascii	"\010\010\010PD3+PD4 SETPOINT: %li\012\000"
 410      44332B50 
 410      44342053 
 410      4554504F 
 410      494E543A 
 411 00b2 0000     		.align	2
 412              	.LC20:
 413 00b4 5B43414C 		.ascii	"[CALIBRATION] PD3 SLOPE: %i\012\000"
 413      49425241 
 413      54494F4E 
 413      5D205044 
 413      3320534C 
 414 00d1 000000   		.align	2
 415              	.LC22:
 416 00d4 5B43414C 		.ascii	"[CALIBRATION] PD4 SLOPE: %i\012\000"
 416      49425241 
 416      54494F4E 
 416      5D205044 
 416      3420534C 
 417 00f1 000000   		.align	2
 418              	.LC24:
 419 00f4 5B43414C 		.ascii	"[CALIBRATION] PS352 OFFSET: %u\012\000"
 419      49425241 
 419      54494F4E 
 419      5D205053 
 419      33353220 
 420              		.align	2
 421              	.LC26:
 422 0114 1B5B306D 		.ascii	"\033[0m\000"
 422      00
 423              		.section	.text.Calib,"ax",%progbits
 424              		.align	1
 425              		.global	Calib
 426              		.syntax unified
 427              		.code	16
 428              		.thumb_func
 429              		.fpu softvfp
 431              	Calib:
 432              	.LFB291:
  52:Src/PID.c     **** 
  53:Src/PID.c     **** //Determines optimal setpoints of Phase shifters and detectors slope.
  54:Src/PID.c     **** void Calib()
  55:Src/PID.c     **** {
 433              		.loc 1 55 1 is_stmt 1 view -0
 434              		.cfi_startproc
 435              		@ args = 0, pretend = 0, frame = 128
ARM GAS  C:\Users\matil\AppData\Local\Temp\ccTX79Z3.s 			page 10


 436              		@ frame_needed = 0, uses_anonymous_args = 0
 437 0000 F0B5     		push	{r4, r5, r6, r7, lr}
 438              	.LCFI8:
 439              		.cfi_def_cfa_offset 20
 440              		.cfi_offset 4, -20
 441              		.cfi_offset 5, -16
 442              		.cfi_offset 6, -12
 443              		.cfi_offset 7, -8
 444              		.cfi_offset 14, -4
 445 0002 DE46     		mov	lr, fp
 446 0004 5746     		mov	r7, r10
 447 0006 4E46     		mov	r6, r9
 448 0008 4546     		mov	r5, r8
 449 000a E0B5     		push	{r5, r6, r7, lr}
 450              	.LCFI9:
 451              		.cfi_def_cfa_offset 36
 452              		.cfi_offset 8, -36
 453              		.cfi_offset 9, -32
 454              		.cfi_offset 10, -28
 455              		.cfi_offset 11, -24
 456 000c A1B0     		sub	sp, sp, #132
 457              	.LCFI10:
 458              		.cfi_def_cfa_offset 168
 459              	.LBB2:
  56:Src/PID.c     ****     SERIAL_WRITE(SERIAL_YELLOW);
 460              		.loc 1 56 5 view .LVU57
 461 000e 07AC     		add	r4, sp, #28
 462 0010 6022     		movs	r2, #96
 463 0012 0021     		movs	r1, #0
 464 0014 08A8     		add	r0, sp, #32
 465 0016 FFF7FEFF 		bl	memset
 466              	.LVL25:
 467              		.loc 1 56 5 view .LVU58
 468 001a B94B     		ldr	r3, .L51
 469 001c 2200     		movs	r2, r4
 470 001e 03CB     		ldmia	r3!, {r0, r1}
 471 0020 03C2     		stmia	r2!, {r0, r1}
 472              	.LVL26:
 473              		.loc 1 56 5 view .LVU59
 474 0022 FA26     		movs	r6, #250
 475 0024 B600     		lsls	r6, r6, #2
 476 0026 B74D     		ldr	r5, .L51+4
 477 0028 3300     		movs	r3, r6
 478 002a 0722     		movs	r2, #7
 479 002c 2100     		movs	r1, r4
 480 002e 2800     		movs	r0, r5
 481 0030 FFF7FEFF 		bl	HAL_UART_Transmit
 482              	.LVL27:
 483              	.LBE2:
 484              		.loc 1 56 32 view .LVU60
 485              	.LBB3:
  57:Src/PID.c     ****     SERIAL_WRITE("[CALIBRATION] ...")
 486              		.loc 1 57 5 view .LVU61
 487 0034 6022     		movs	r2, #96
 488 0036 0021     		movs	r1, #0
 489 0038 08A8     		add	r0, sp, #32
 490 003a FFF7FEFF 		bl	memset
ARM GAS  C:\Users\matil\AppData\Local\Temp\ccTX79Z3.s 			page 11


 491              	.LVL28:
 492              		.loc 1 57 5 view .LVU62
 493 003e B24B     		ldr	r3, .L51+8
 494 0040 2200     		movs	r2, r4
 495 0042 83CB     		ldmia	r3!, {r0, r1, r7}
 496 0044 83C2     		stmia	r2!, {r0, r1, r7}
 497 0046 1968     		ldr	r1, [r3]
 498 0048 1160     		str	r1, [r2]
 499 004a 9B88     		ldrh	r3, [r3, #4]
 500 004c 9380     		strh	r3, [r2, #4]
 501              	.LVL29:
 502              		.loc 1 57 5 view .LVU63
 503 004e 3300     		movs	r3, r6
 504 0050 1122     		movs	r2, #17
 505 0052 2100     		movs	r1, r4
 506 0054 2800     		movs	r0, r5
 507 0056 FFF7FEFF 		bl	HAL_UART_Transmit
 508              	.LVL30:
 509              	.LBE3:
  58:Src/PID.c     ****     //704
  59:Src/PID.c     ****     DAC_cmd(RF_PS_704_OFFSET + DAC_WRITE + 0);
 510              		.loc 1 59 5 view .LVU64
 511 005a B020     		movs	r0, #176
 512 005c 4003     		lsls	r0, r0, #13
 513 005e FFF7FEFF 		bl	DAC_cmd
 514              	.LVL31:
  60:Src/PID.c     ****     DAC_cmd(RF_PS_704_FINE + DAC_WRITE + 0x7fff);
 515              		.loc 1 60 5 view .LVU65
 516 0062 AA48     		ldr	r0, .L51+12
 517 0064 FFF7FEFF 		bl	DAC_cmd
 518              	.LVL32:
  61:Src/PID.c     ****     State.PD1_PD2_MSE = 16200000000;
 519              		.loc 1 61 5 view .LVU66
 520              		.loc 1 61 23 is_stmt 0 view .LVU67
 521 0068 A94B     		ldr	r3, .L51+16
 522 006a 9D22     		movs	r2, #157
 523 006c D200     		lsls	r2, r2, #3
 524 006e 9446     		mov	ip, r2
 525 0070 6344     		add	r3, r3, ip
 526 0072 A848     		ldr	r0, .L51+20
 527 0074 0321     		movs	r1, #3
 528 0076 1860     		str	r0, [r3]
 529 0078 5960     		str	r1, [r3, #4]
  62:Src/PID.c     ****     uint64_t prevPhase1 = 0;
 530              		.loc 1 62 5 is_stmt 1 view .LVU68
 531              	.LVL33:
  63:Src/PID.c     ****     uint64_t prevPhase2 = 0;
 532              		.loc 1 63 5 view .LVU69
  64:Src/PID.c     ****     for (uint32_t PS = 0; PS < 0xffff; PS += 0x0700)
 533              		.loc 1 64 5 view .LVU70
 534              	.LBB4:
 535              		.loc 1 64 10 view .LVU71
 536              		.loc 1 64 19 is_stmt 0 view .LVU72
 537 007a 0023     		movs	r3, #0
 538 007c 9946     		mov	r9, r3
 539              	.LBE4:
  63:Src/PID.c     ****     uint64_t prevPhase2 = 0;
ARM GAS  C:\Users\matil\AppData\Local\Temp\ccTX79Z3.s 			page 12


 540              		.loc 1 63 14 view .LVU73
 541 007e 0593     		str	r3, [sp, #20]
 542 0080 9B46     		mov	fp, r3
  62:Src/PID.c     ****     uint64_t prevPhase1 = 0;
 543              		.loc 1 62 14 view .LVU74
 544 0082 0493     		str	r3, [sp, #16]
 545 0084 9A46     		mov	r10, r3
 546              	.LBB8:
 547              		.loc 1 64 5 view .LVU75
 548 0086 29E0     		b	.L23
 549              	.LVL34:
 550              	.L39:
 551              	.LBB5:
  65:Src/PID.c     ****     {
  66:Src/PID.c     ****         DAC_cmd(RF_PS_704_OFFSET + DAC_WRITE + PS);
  67:Src/PID.c     ****         HAL_Delay(100);
  68:Src/PID.c     ****         uint64_t Phase1 = (1800000 - (((uint64_t)State.ADC_Values[ADC_PD1_Phase_CH] * 1800000) / 0x
  69:Src/PID.c     ****         uint64_t Phase2 = (1800000 - (((uint64_t)State.ADC_Values[ADC_PD2_Phase_CH] * 1800000) / 0x
  70:Src/PID.c     **** 
  71:Src/PID.c     ****         int64_t error1 = 90000 - Phase1;
  72:Src/PID.c     ****         int64_t error2 = 90000 - Phase2;
  73:Src/PID.c     ****         int64_t MSE704 = error1 * error1 + error2 * error2;
  74:Src/PID.c     **** 
  75:Src/PID.c     ****         if (MSE704 < State.PD1_PD2_MSE)
  76:Src/PID.c     ****         {
  77:Src/PID.c     ****             // SERIAL_WRITE("Phase1: %lu\n", Phase1);
  78:Src/PID.c     ****             // SERIAL_WRITE("Phase2: %lu\n", Phase2);
  79:Src/PID.c     ****             // SERIAL_WRITE("error1: %li\n", error1);
  80:Src/PID.c     ****             // SERIAL_WRITE("error2: %li\n", error2);
  81:Src/PID.c     ****             // SERIAL_WRITE("MSE704: %li\n\n", MSE704);
  82:Src/PID.c     ****             State.PD1_PD2_Offset = PS;
  83:Src/PID.c     ****             State.PD1_PD2_MSE = MSE704;
  84:Src/PID.c     ****             State.PD1_Slope = prevPhase1 < Phase1 ? 1 : -1;
 552              		.loc 1 84 29 view .LVU76
 553 0088 0120     		movs	r0, #1
 554              	.LVL35:
 555              		.loc 1 84 29 view .LVU77
 556 008a 4042     		rsbs	r0, r0, #0
 557 008c 9DE0     		b	.L26
 558              	.LVL36:
 559              	.L45:
  85:Src/PID.c     ****             State.PD2_Slope = prevPhase2 < Phase2 ? 1 : -1;
 560              		.loc 1 85 29 view .LVU78
 561 008e 0123     		movs	r3, #1
 562 0090 9A46     		mov	r10, r3
 563              	.LVL37:
 564              	.L28:
 565              		.loc 1 85 29 discriminator 4 view .LVU79
 566 0092 9F4B     		ldr	r3, .L51+16
 567 0094 9846     		mov	r8, r3
 568 0096 A04B     		ldr	r3, .L51+24
 569 0098 4246     		mov	r2, r8
 570              		.loc 1 85 29 discriminator 4 view .LVU80
 571 009a 5146     		mov	r1, r10
 572 009c D154     		strb	r1, [r2, r3]
  86:Src/PID.c     ****             State.PD1_PD2_SetPoint = State.PD1_Slope * Phase1 + State.PD2_Slope * Phase2;
 573              		.loc 1 86 13 is_stmt 1 discriminator 4 view .LVU81
ARM GAS  C:\Users\matil\AppData\Local\Temp\ccTX79Z3.s 			page 13


 574              		.loc 1 86 43 is_stmt 0 discriminator 4 view .LVU82
 575 009e C117     		asrs	r1, r0, #31
 576              		.loc 1 86 54 discriminator 4 view .LVU83
 577 00a0 009A     		ldr	r2, [sp]
 578 00a2 019B     		ldr	r3, [sp, #4]
 579              	.LVL38:
 580              		.loc 1 86 54 discriminator 4 view .LVU84
 581 00a4 FFF7FEFF 		bl	__aeabi_lmul
 582              	.LVL39:
 583              		.loc 1 86 54 discriminator 4 view .LVU85
 584 00a8 0400     		movs	r4, r0
 585              	.LVL40:
 586              		.loc 1 86 54 discriminator 4 view .LVU86
 587 00aa 0D00     		movs	r5, r1
 588              		.loc 1 86 70 discriminator 4 view .LVU87
 589 00ac 5346     		mov	r3, r10
 590 00ae D917     		asrs	r1, r3, #31
 591              		.loc 1 86 81 discriminator 4 view .LVU88
 592 00b0 3200     		movs	r2, r6
 593 00b2 3B00     		movs	r3, r7
 594 00b4 5046     		mov	r0, r10
 595 00b6 FFF7FEFF 		bl	__aeabi_lmul
 596              	.LVL41:
 597              		.loc 1 86 63 discriminator 4 view .LVU89
 598 00ba 2418     		adds	r4, r4, r0
 599 00bc 4D41     		adcs	r5, r5, r1
 600              		.loc 1 86 36 discriminator 4 view .LVU90
 601 00be 9B23     		movs	r3, #155
 602 00c0 DB00     		lsls	r3, r3, #3
 603 00c2 4344     		add	r3, r3, r8
 604 00c4 1C60     		str	r4, [r3]
 605 00c6 5D60     		str	r5, [r3, #4]
 606              	.L24:
  87:Src/PID.c     ****         }
  88:Src/PID.c     ****         prevPhase1 = Phase1;
 607              		.loc 1 88 9 is_stmt 1 discriminator 2 view .LVU91
 608              	.LVL42:
  89:Src/PID.c     ****         prevPhase2 = Phase2;
 609              		.loc 1 89 9 discriminator 2 view .LVU92
 610              		.loc 1 89 9 is_stmt 0 discriminator 2 view .LVU93
 611              	.LBE5:
  64:Src/PID.c     ****     {
 612              		.loc 1 64 40 is_stmt 1 discriminator 2 view .LVU94
  64:Src/PID.c     ****     {
 613              		.loc 1 64 43 is_stmt 0 discriminator 2 view .LVU95
 614 00c8 E023     		movs	r3, #224
 615 00ca DB00     		lsls	r3, r3, #3
 616 00cc 9C46     		mov	ip, r3
 617 00ce E144     		add	r9, r9, ip
 618              	.LVL43:
 619              	.LBB6:
 620              		.loc 1 89 20 discriminator 2 view .LVU96
 621 00d0 0596     		str	r6, [sp, #20]
 622 00d2 BB46     		mov	fp, r7
  88:Src/PID.c     ****         prevPhase2 = Phase2;
 623              		.loc 1 88 20 discriminator 2 view .LVU97
 624 00d4 009B     		ldr	r3, [sp]
ARM GAS  C:\Users\matil\AppData\Local\Temp\ccTX79Z3.s 			page 14


 625 00d6 019C     		ldr	r4, [sp, #4]
 626 00d8 0493     		str	r3, [sp, #16]
 627 00da A246     		mov	r10, r4
 628              	.LVL44:
 629              	.L23:
  88:Src/PID.c     ****         prevPhase2 = Phase2;
 630              		.loc 1 88 20 discriminator 2 view .LVU98
 631              	.LBE6:
  64:Src/PID.c     ****     {
 632              		.loc 1 64 27 is_stmt 1 discriminator 1 view .LVU99
  64:Src/PID.c     ****     {
 633              		.loc 1 64 5 is_stmt 0 discriminator 1 view .LVU100
 634 00dc 8F4B     		ldr	r3, .L51+28
 635 00de 9945     		cmp	r9, r3
 636 00e0 00D9     		bls	.LCB468
 637 00e2 81E0     		b	.L49	@long jump
 638              	.LCB468:
 639              	.LBB7:
  66:Src/PID.c     ****         HAL_Delay(100);
 640              		.loc 1 66 9 is_stmt 1 view .LVU101
 641 00e4 B020     		movs	r0, #176
 642 00e6 4003     		lsls	r0, r0, #13
 643 00e8 4844     		add	r0, r0, r9
 644 00ea FFF7FEFF 		bl	DAC_cmd
 645              	.LVL45:
  67:Src/PID.c     ****         uint64_t Phase1 = (1800000 - (((uint64_t)State.ADC_Values[ADC_PD1_Phase_CH] * 1800000) / 0x
 646              		.loc 1 67 9 view .LVU102
 647 00ee 6420     		movs	r0, #100
 648 00f0 FFF7FEFF 		bl	HAL_Delay
 649              	.LVL46:
  68:Src/PID.c     ****         uint64_t Phase2 = (1800000 - (((uint64_t)State.ADC_Values[ADC_PD2_Phase_CH] * 1800000) / 0x
 650              		.loc 1 68 9 view .LVU103
  68:Src/PID.c     ****         uint64_t Phase2 = (1800000 - (((uint64_t)State.ADC_Values[ADC_PD2_Phase_CH] * 1800000) / 0x
 651              		.loc 1 68 66 is_stmt 0 view .LVU104
 652 00f4 864B     		ldr	r3, .L51+16
 653 00f6 9846     		mov	r8, r3
  68:Src/PID.c     ****         uint64_t Phase2 = (1800000 - (((uint64_t)State.ADC_Values[ADC_PD2_Phase_CH] * 1800000) / 0x
 654              		.loc 1 68 85 view .LVU105
 655 00f8 894A     		ldr	r2, .L51+32
 656 00fa 0023     		movs	r3, #0
 657 00fc 4146     		mov	r1, r8
 658 00fe 886E     		ldr	r0, [r1, #104]
 659 0100 0021     		movs	r1, #0
 660 0102 FFF7FEFF 		bl	__aeabi_lmul
 661              	.LVL47:
  68:Src/PID.c     ****         uint64_t Phase2 = (1800000 - (((uint64_t)State.ADC_Values[ADC_PD2_Phase_CH] * 1800000) / 0x
 662              		.loc 1 68 96 view .LVU106
 663 0106 874A     		ldr	r2, .L51+36
 664 0108 0023     		movs	r3, #0
 665 010a FFF7FEFF 		bl	__aeabi_uldivmod
 666              	.LVL48:
  68:Src/PID.c     ****         uint64_t Phase2 = (1800000 - (((uint64_t)State.ADC_Values[ADC_PD2_Phase_CH] * 1800000) / 0x
 667              		.loc 1 68 36 view .LVU107
 668 010e 844C     		ldr	r4, .L51+32
 669 0110 0025     		movs	r5, #0
 670 0112 2200     		movs	r2, r4
 671 0114 2B00     		movs	r3, r5
ARM GAS  C:\Users\matil\AppData\Local\Temp\ccTX79Z3.s 			page 15


 672 0116 121A     		subs	r2, r2, r0
 673 0118 8B41     		sbcs	r3, r3, r1
 674 011a 1000     		movs	r0, r2
 675 011c 1900     		movs	r1, r3
  68:Src/PID.c     ****         uint64_t Phase2 = (1800000 - (((uint64_t)State.ADC_Values[ADC_PD2_Phase_CH] * 1800000) / 0x
 676              		.loc 1 68 18 view .LVU108
 677 011e 0A22     		movs	r2, #10
 678 0120 0023     		movs	r3, #0
 679 0122 FFF7FEFF 		bl	__aeabi_uldivmod
 680              	.LVL49:
 681 0126 0090     		str	r0, [sp]
 682 0128 0191     		str	r1, [sp, #4]
 683              	.LVL50:
  69:Src/PID.c     **** 
 684              		.loc 1 69 9 is_stmt 1 view .LVU109
  69:Src/PID.c     **** 
 685              		.loc 1 69 85 is_stmt 0 view .LVU110
 686 012a 2200     		movs	r2, r4
 687 012c 2B00     		movs	r3, r5
 688 012e 4146     		mov	r1, r8
 689 0130 086D     		ldr	r0, [r1, #80]
 690 0132 0021     		movs	r1, #0
 691 0134 FFF7FEFF 		bl	__aeabi_lmul
 692              	.LVL51:
  69:Src/PID.c     **** 
 693              		.loc 1 69 96 view .LVU111
 694 0138 7A4A     		ldr	r2, .L51+36
 695 013a 0023     		movs	r3, #0
 696 013c FFF7FEFF 		bl	__aeabi_uldivmod
 697              	.LVL52:
  69:Src/PID.c     **** 
 698              		.loc 1 69 36 view .LVU112
 699 0140 241A     		subs	r4, r4, r0
 700 0142 8D41     		sbcs	r5, r5, r1
 701 0144 2000     		movs	r0, r4
 702 0146 2900     		movs	r1, r5
  69:Src/PID.c     **** 
 703              		.loc 1 69 18 view .LVU113
 704 0148 0A22     		movs	r2, #10
 705 014a 0023     		movs	r3, #0
 706 014c FFF7FEFF 		bl	__aeabi_uldivmod
 707              	.LVL53:
 708 0150 0600     		movs	r6, r0
 709 0152 0F00     		movs	r7, r1
 710              	.LVL54:
  71:Src/PID.c     ****         int64_t error2 = 90000 - Phase2;
 711              		.loc 1 71 9 is_stmt 1 view .LVU114
  71:Src/PID.c     ****         int64_t error2 = 90000 - Phase2;
 712              		.loc 1 71 32 is_stmt 0 view .LVU115
 713 0154 744C     		ldr	r4, .L51+40
 714 0156 0025     		movs	r5, #0
 715 0158 2000     		movs	r0, r4
 716 015a 2900     		movs	r1, r5
 717 015c 009A     		ldr	r2, [sp]
 718 015e 019B     		ldr	r3, [sp, #4]
 719 0160 801A     		subs	r0, r0, r2
 720 0162 9941     		sbcs	r1, r1, r3
ARM GAS  C:\Users\matil\AppData\Local\Temp\ccTX79Z3.s 			page 16


 721              	.LVL55:
  72:Src/PID.c     ****         int64_t MSE704 = error1 * error1 + error2 * error2;
 722              		.loc 1 72 9 is_stmt 1 view .LVU116
  72:Src/PID.c     ****         int64_t MSE704 = error1 * error1 + error2 * error2;
 723              		.loc 1 72 32 is_stmt 0 view .LVU117
 724 0164 A41B     		subs	r4, r4, r6
 725 0166 BD41     		sbcs	r5, r5, r7
 726              	.LVL56:
  73:Src/PID.c     **** 
 727              		.loc 1 73 9 is_stmt 1 view .LVU118
  73:Src/PID.c     **** 
 728              		.loc 1 73 33 is_stmt 0 view .LVU119
 729 0168 0200     		movs	r2, r0
 730 016a 0B00     		movs	r3, r1
 731 016c FFF7FEFF 		bl	__aeabi_lmul
 732              	.LVL57:
  73:Src/PID.c     **** 
 733              		.loc 1 73 33 view .LVU120
 734 0170 0290     		str	r0, [sp, #8]
 735 0172 0391     		str	r1, [sp, #12]
  73:Src/PID.c     **** 
 736              		.loc 1 73 51 view .LVU121
 737 0174 2200     		movs	r2, r4
 738 0176 2B00     		movs	r3, r5
 739 0178 2000     		movs	r0, r4
 740 017a 2900     		movs	r1, r5
 741 017c FFF7FEFF 		bl	__aeabi_lmul
 742              	.LVL58:
  73:Src/PID.c     **** 
 743              		.loc 1 73 17 view .LVU122
 744 0180 029B     		ldr	r3, [sp, #8]
 745 0182 039C     		ldr	r4, [sp, #12]
 746 0184 1B18     		adds	r3, r3, r0
 747 0186 4C41     		adcs	r4, r4, r1
 748 0188 1800     		movs	r0, r3
 749 018a 2100     		movs	r1, r4
 750              	.LVL59:
  75:Src/PID.c     ****         {
 751              		.loc 1 75 9 is_stmt 1 view .LVU123
  75:Src/PID.c     ****         {
 752              		.loc 1 75 27 is_stmt 0 view .LVU124
 753 018c 9D23     		movs	r3, #157
 754 018e DB00     		lsls	r3, r3, #3
 755 0190 4344     		add	r3, r3, r8
 756 0192 1A68     		ldr	r2, [r3]
 757 0194 5B68     		ldr	r3, [r3, #4]
  75:Src/PID.c     ****         {
 758              		.loc 1 75 12 view .LVU125
 759 0196 A342     		cmp	r3, r4
 760 0198 02DC     		bgt	.L43
 761 019a 95D1     		bne	.L24
 762 019c 8242     		cmp	r2, r0
 763 019e 93D9     		bls	.L24
 764              	.L43:
  82:Src/PID.c     ****             State.PD1_PD2_MSE = MSE704;
 765              		.loc 1 82 13 is_stmt 1 view .LVU126
  82:Src/PID.c     ****             State.PD1_PD2_MSE = MSE704;
ARM GAS  C:\Users\matil\AppData\Local\Temp\ccTX79Z3.s 			page 17


 766              		.loc 1 82 34 is_stmt 0 view .LVU127
 767 01a0 5B4B     		ldr	r3, .L51+16
 768 01a2 9C22     		movs	r2, #156
 769 01a4 D200     		lsls	r2, r2, #3
 770 01a6 4C46     		mov	r4, r9
 771              	.LVL60:
  82:Src/PID.c     ****             State.PD1_PD2_MSE = MSE704;
 772              		.loc 1 82 34 view .LVU128
 773 01a8 9C50     		str	r4, [r3, r2]
  83:Src/PID.c     ****             State.PD1_Slope = prevPhase1 < Phase1 ? 1 : -1;
 774              		.loc 1 83 13 is_stmt 1 view .LVU129
  83:Src/PID.c     ****             State.PD1_Slope = prevPhase1 < Phase1 ? 1 : -1;
 775              		.loc 1 83 31 is_stmt 0 view .LVU130
 776 01aa 0832     		adds	r2, r2, #8
 777 01ac 9446     		mov	ip, r2
 778 01ae 6344     		add	r3, r3, ip
 779 01b0 1860     		str	r0, [r3]
 780 01b2 5960     		str	r1, [r3, #4]
  84:Src/PID.c     ****             State.PD2_Slope = prevPhase2 < Phase2 ? 1 : -1;
 781              		.loc 1 84 13 is_stmt 1 view .LVU131
  84:Src/PID.c     ****             State.PD2_Slope = prevPhase2 < Phase2 ? 1 : -1;
 782              		.loc 1 84 29 is_stmt 0 view .LVU132
 783 01b4 009B     		ldr	r3, [sp]
 784 01b6 019C     		ldr	r4, [sp, #4]
 785 01b8 5445     		cmp	r4, r10
 786 01ba 05D8     		bhi	.L44
 787              	.LVL61:
  84:Src/PID.c     ****             State.PD2_Slope = prevPhase2 < Phase2 ? 1 : -1;
 788              		.loc 1 84 29 view .LVU133
 789 01bc 00D0     		beq	.LCB589
 790 01be 63E7     		b	.L39	@long jump
 791              	.LCB589:
 792 01c0 049A     		ldr	r2, [sp, #16]
 793 01c2 9342     		cmp	r3, r2
 794 01c4 00D8     		bhi	.LCB592
 795 01c6 5FE7     		b	.L39	@long jump
 796              	.LCB592:
 797              	.L44:
 798 01c8 0120     		movs	r0, #1
 799              	.LVL62:
 800              	.L26:
  84:Src/PID.c     ****             State.PD2_Slope = prevPhase2 < Phase2 ? 1 : -1;
 801              		.loc 1 84 29 discriminator 4 view .LVU134
 802 01ca 514A     		ldr	r2, .L51+16
 803 01cc 574B     		ldr	r3, .L51+44
 804 01ce D054     		strb	r0, [r2, r3]
  85:Src/PID.c     ****             State.PD1_PD2_SetPoint = State.PD1_Slope * Phase1 + State.PD2_Slope * Phase2;
 805              		.loc 1 85 13 is_stmt 1 discriminator 4 view .LVU135
  85:Src/PID.c     ****             State.PD1_PD2_SetPoint = State.PD1_Slope * Phase1 + State.PD2_Slope * Phase2;
 806              		.loc 1 85 29 is_stmt 0 discriminator 4 view .LVU136
 807 01d0 5F45     		cmp	r7, fp
 808 01d2 00D9     		bls	.LCB603
 809 01d4 5BE7     		b	.L45	@long jump
 810              	.LCB603:
 811 01d6 03D1     		bne	.L40
 812 01d8 059B     		ldr	r3, [sp, #20]
 813 01da 9E42     		cmp	r6, r3
ARM GAS  C:\Users\matil\AppData\Local\Temp\ccTX79Z3.s 			page 18


 814 01dc 00D9     		bls	.LCB608
 815 01de 56E7     		b	.L45	@long jump
 816              	.LCB608:
 817              	.L40:
  85:Src/PID.c     ****             State.PD1_PD2_SetPoint = State.PD1_Slope * Phase1 + State.PD2_Slope * Phase2;
 818              		.loc 1 85 29 view .LVU137
 819 01e0 0123     		movs	r3, #1
 820 01e2 5B42     		rsbs	r3, r3, #0
 821 01e4 9A46     		mov	r10, r3
 822              	.LVL63:
  85:Src/PID.c     ****             State.PD1_PD2_SetPoint = State.PD1_Slope * Phase1 + State.PD2_Slope * Phase2;
 823              		.loc 1 85 29 view .LVU138
 824 01e6 54E7     		b	.L28
 825              	.LVL64:
 826              	.L49:
  85:Src/PID.c     ****             State.PD1_PD2_SetPoint = State.PD1_Slope * Phase1 + State.PD2_Slope * Phase2;
 827              		.loc 1 85 29 view .LVU139
 828              	.LBE7:
 829              	.LBE8:
 830              	.LBB9:
  90:Src/PID.c     ****     }
  91:Src/PID.c     ****     SERIAL_WRITE("\b\b\bPD1+PD2 SETPOINT: %li\n", State.PD1_PD2_SetPoint);
 831              		.loc 1 91 5 is_stmt 1 view .LVU140
 832 01e8 07AC     		add	r4, sp, #28
 833 01ea 0023     		movs	r3, #0
 834 01ec 9846     		mov	r8, r3
 835 01ee 0793     		str	r3, [sp, #28]
 836 01f0 6022     		movs	r2, #96
 837 01f2 0021     		movs	r1, #0
 838 01f4 08A8     		add	r0, sp, #32
 839 01f6 FFF7FEFF 		bl	memset
 840              	.LVL65:
 841              		.loc 1 91 5 view .LVU141
 842 01fa 454D     		ldr	r5, .L51+16
 843 01fc 9B23     		movs	r3, #155
 844 01fe DB00     		lsls	r3, r3, #3
 845 0200 EB18     		adds	r3, r5, r3
 846 0202 1A68     		ldr	r2, [r3]
 847 0204 5B68     		ldr	r3, [r3, #4]
 848 0206 4A49     		ldr	r1, .L51+48
 849 0208 2000     		movs	r0, r4
 850 020a FFF7FEFF 		bl	sprintf
 851              	.LVL66:
 852              		.loc 1 91 5 view .LVU142
 853 020e FA27     		movs	r7, #250
 854 0210 BF00     		lsls	r7, r7, #2
 855 0212 82B2     		uxth	r2, r0
 856 0214 3B4B     		ldr	r3, .L51+4
 857 0216 9946     		mov	r9, r3
 858              	.LVL67:
 859              		.loc 1 91 5 is_stmt 0 view .LVU143
 860 0218 3B00     		movs	r3, r7
 861 021a 2100     		movs	r1, r4
 862 021c 4846     		mov	r0, r9
 863              	.LVL68:
 864              		.loc 1 91 5 view .LVU144
 865 021e FFF7FEFF 		bl	HAL_UART_Transmit
ARM GAS  C:\Users\matil\AppData\Local\Temp\ccTX79Z3.s 			page 19


 866              	.LVL69:
 867              	.LBE9:
 868              		.loc 1 91 74 is_stmt 1 view .LVU145
 869              	.LBB10:
  92:Src/PID.c     ****     SERIAL_WRITE("[CALIBRATION] PD1 SLOPE: %i\n", State.PD1_Slope);
 870              		.loc 1 92 5 view .LVU146
 871 0222 4346     		mov	r3, r8
 872 0224 0793     		str	r3, [sp, #28]
 873 0226 6022     		movs	r2, #96
 874 0228 0021     		movs	r1, #0
 875 022a 08A8     		add	r0, sp, #32
 876 022c FFF7FEFF 		bl	memset
 877              	.LVL70:
 878              		.loc 1 92 5 view .LVU147
 879 0230 3E4B     		ldr	r3, .L51+44
 880 0232 EA56     		ldrsb	r2, [r5, r3]
 881 0234 3F49     		ldr	r1, .L51+52
 882 0236 2000     		movs	r0, r4
 883 0238 FFF7FEFF 		bl	sprintf
 884              	.LVL71:
 885              		.loc 1 92 5 view .LVU148
 886 023c 82B2     		uxth	r2, r0
 887 023e 3B00     		movs	r3, r7
 888 0240 2100     		movs	r1, r4
 889 0242 4846     		mov	r0, r9
 890              	.LVL72:
 891              		.loc 1 92 5 is_stmt 0 view .LVU149
 892 0244 FFF7FEFF 		bl	HAL_UART_Transmit
 893              	.LVL73:
 894              	.LBE10:
 895              		.loc 1 92 67 is_stmt 1 view .LVU150
 896              	.LBB11:
  93:Src/PID.c     ****     SERIAL_WRITE("[CALIBRATION] PD2 SLOPE: %i\n", State.PD2_Slope);
 897              		.loc 1 93 5 view .LVU151
 898 0248 4346     		mov	r3, r8
 899 024a 0793     		str	r3, [sp, #28]
 900 024c 6022     		movs	r2, #96
 901 024e 0021     		movs	r1, #0
 902 0250 08A8     		add	r0, sp, #32
 903 0252 FFF7FEFF 		bl	memset
 904              	.LVL74:
 905              		.loc 1 93 5 view .LVU152
 906 0256 304B     		ldr	r3, .L51+24
 907 0258 EA56     		ldrsb	r2, [r5, r3]
 908 025a 3749     		ldr	r1, .L51+56
 909 025c 2000     		movs	r0, r4
 910 025e FFF7FEFF 		bl	sprintf
 911              	.LVL75:
 912              		.loc 1 93 5 view .LVU153
 913 0262 82B2     		uxth	r2, r0
 914 0264 3B00     		movs	r3, r7
 915 0266 2100     		movs	r1, r4
 916 0268 4846     		mov	r0, r9
 917              	.LVL76:
 918              		.loc 1 93 5 is_stmt 0 view .LVU154
 919 026a FFF7FEFF 		bl	HAL_UART_Transmit
 920              	.LVL77:
ARM GAS  C:\Users\matil\AppData\Local\Temp\ccTX79Z3.s 			page 20


 921              	.LBE11:
 922              		.loc 1 93 67 is_stmt 1 view .LVU155
 923              	.LBB12:
  94:Src/PID.c     ****     SERIAL_WRITE("[CALIBRATION] PS704 OFFSET: %u\n", State.PD1_PD2_Offset);
 924              		.loc 1 94 5 view .LVU156
 925 026e 4346     		mov	r3, r8
 926 0270 0793     		str	r3, [sp, #28]
 927 0272 6022     		movs	r2, #96
 928 0274 0021     		movs	r1, #0
 929 0276 08A8     		add	r0, sp, #32
 930 0278 FFF7FEFF 		bl	memset
 931              	.LVL78:
 932              		.loc 1 94 5 view .LVU157
 933 027c 9C23     		movs	r3, #156
 934 027e DB00     		lsls	r3, r3, #3
 935 0280 9846     		mov	r8, r3
 936 0282 EA58     		ldr	r2, [r5, r3]
 937 0284 2D49     		ldr	r1, .L51+60
 938 0286 2000     		movs	r0, r4
 939 0288 FFF7FEFF 		bl	sprintf
 940              	.LVL79:
 941              		.loc 1 94 5 view .LVU158
 942 028c 82B2     		uxth	r2, r0
 943 028e 3B00     		movs	r3, r7
 944 0290 2100     		movs	r1, r4
 945 0292 4846     		mov	r0, r9
 946              	.LVL80:
 947              		.loc 1 94 5 is_stmt 0 view .LVU159
 948 0294 FFF7FEFF 		bl	HAL_UART_Transmit
 949              	.LVL81:
 950              	.LBE12:
 951              		.loc 1 94 75 is_stmt 1 view .LVU160
  95:Src/PID.c     ****     DAC_cmd(RF_PS_704_OFFSET + DAC_WRITE + State.PD1_PD2_Offset);
 952              		.loc 1 95 5 view .LVU161
 953              		.loc 1 95 49 is_stmt 0 view .LVU162
 954 0298 4346     		mov	r3, r8
 955 029a E858     		ldr	r0, [r5, r3]
 956              		.loc 1 95 5 view .LVU163
 957 029c B023     		movs	r3, #176
 958 029e 5B03     		lsls	r3, r3, #13
 959 02a0 9C46     		mov	ip, r3
 960 02a2 6044     		add	r0, r0, ip
 961 02a4 FFF7FEFF 		bl	DAC_cmd
 962              	.LVL82:
 963              	.LBB13:
  96:Src/PID.c     **** 
  97:Src/PID.c     ****     //352
  98:Src/PID.c     ****     SERIAL_WRITE("[CALIBRATION] ...")
 964              		.loc 1 98 5 is_stmt 1 view .LVU164
 965 02a8 6022     		movs	r2, #96
 966 02aa 0021     		movs	r1, #0
 967 02ac 08A8     		add	r0, sp, #32
 968 02ae FFF7FEFF 		bl	memset
 969              	.LVL83:
 970              		.loc 1 98 5 view .LVU165
 971 02b2 154B     		ldr	r3, .L51+8
 972 02b4 2200     		movs	r2, r4
ARM GAS  C:\Users\matil\AppData\Local\Temp\ccTX79Z3.s 			page 21


 973 02b6 43CB     		ldmia	r3!, {r0, r1, r6}
 974 02b8 43C2     		stmia	r2!, {r0, r1, r6}
 975 02ba 1968     		ldr	r1, [r3]
 976 02bc 1160     		str	r1, [r2]
 977 02be 9B88     		ldrh	r3, [r3, #4]
 978 02c0 9380     		strh	r3, [r2, #4]
 979              	.LVL84:
 980              		.loc 1 98 5 view .LVU166
 981 02c2 3B00     		movs	r3, r7
 982 02c4 1122     		movs	r2, #17
 983 02c6 2100     		movs	r1, r4
 984 02c8 4846     		mov	r0, r9
 985 02ca FFF7FEFF 		bl	HAL_UART_Transmit
 986              	.LVL85:
 987              	.LBE13:
  99:Src/PID.c     **** 
 100:Src/PID.c     ****     DAC_cmd(RF_PS_352_OFFSET + DAC_WRITE + 0);
 988              		.loc 1 100 5 view .LVU167
 989 02ce A020     		movs	r0, #160
 990 02d0 4003     		lsls	r0, r0, #13
 991 02d2 FFF7FEFF 		bl	DAC_cmd
 992              	.LVL86:
 101:Src/PID.c     ****     DAC_cmd(RF_PS_352_FINE + DAC_WRITE + 0x7fff);
 993              		.loc 1 101 5 view .LVU168
 994 02d6 1A48     		ldr	r0, .L51+64
 995 02d8 FFF7FEFF 		bl	DAC_cmd
 996              	.LVL87:
 102:Src/PID.c     ****     State.PD3_PD4_MSE = 16200000000;
 997              		.loc 1 102 5 view .LVU169
 998              		.loc 1 102 23 is_stmt 0 view .LVU170
 999 02dc A023     		movs	r3, #160
 1000 02de DB00     		lsls	r3, r3, #3
 1001 02e0 9C46     		mov	ip, r3
 1002 02e2 6544     		add	r5, r5, ip
 1003 02e4 0B4A     		ldr	r2, .L51+20
 1004 02e6 0323     		movs	r3, #3
 1005 02e8 2A60     		str	r2, [r5]
 1006 02ea 6B60     		str	r3, [r5, #4]
 103:Src/PID.c     ****     uint64_t prevPhase3 = 0;
 1007              		.loc 1 103 5 is_stmt 1 view .LVU171
 1008              	.LVL88:
 104:Src/PID.c     ****     uint64_t prevPhase4 = 0;
 1009              		.loc 1 104 5 view .LVU172
 105:Src/PID.c     ****     for (uint32_t PS = 0; PS < 0xffff; PS += 0x0700)
 1010              		.loc 1 105 5 view .LVU173
 1011              	.LBB14:
 1012              		.loc 1 105 10 view .LVU174
 1013              		.loc 1 105 19 is_stmt 0 view .LVU175
 1014 02ec 0023     		movs	r3, #0
 1015 02ee 9946     		mov	r9, r3
 1016              	.LBE14:
 104:Src/PID.c     ****     uint64_t prevPhase4 = 0;
 1017              		.loc 1 104 14 view .LVU176
 1018 02f0 0593     		str	r3, [sp, #20]
 1019              	.LVL89:
 104:Src/PID.c     ****     uint64_t prevPhase4 = 0;
 1020              		.loc 1 104 14 view .LVU177
ARM GAS  C:\Users\matil\AppData\Local\Temp\ccTX79Z3.s 			page 22


 1021 02f2 9B46     		mov	fp, r3
 103:Src/PID.c     ****     uint64_t prevPhase3 = 0;
 1022              		.loc 1 103 14 view .LVU178
 1023 02f4 0493     		str	r3, [sp, #16]
 1024              	.LVL90:
 103:Src/PID.c     ****     uint64_t prevPhase3 = 0;
 1025              		.loc 1 103 14 view .LVU179
 1026 02f6 9A46     		mov	r10, r3
 1027              	.LBB18:
 1028              		.loc 1 105 5 view .LVU180
 1029 02f8 4BE0     		b	.L31
 1030              	.LVL91:
 1031              	.L41:
 1032              	.LBB15:
 106:Src/PID.c     ****     {
 107:Src/PID.c     ****         DAC_cmd(RF_PS_352_OFFSET + DAC_WRITE + PS);
 108:Src/PID.c     ****         HAL_Delay(100);
 109:Src/PID.c     ****         uint64_t Phase3 = (1800000 - (((uint64_t)State.ADC_Values[ADC_PD3_Phase_CH] * 1800000) / 0x
 110:Src/PID.c     ****         uint64_t Phase4 = (1800000 - (((uint64_t)State.ADC_Values[ADC_PD4_Phase_CH] * 1800000) / 0x
 111:Src/PID.c     **** 
 112:Src/PID.c     ****         int64_t error3 = 90000 - Phase3;
 113:Src/PID.c     ****         int64_t error4 = 90000 - Phase4;
 114:Src/PID.c     ****         int64_t MSE352 = error3 * error3 + error4 * error4;
 115:Src/PID.c     **** 
 116:Src/PID.c     ****         if (MSE352 < State.PD3_PD4_MSE)
 117:Src/PID.c     ****         {
 118:Src/PID.c     ****             // SERIAL_WRITE("Phase3: %lu\n", Phase3);
 119:Src/PID.c     ****             // SERIAL_WRITE("Phase4: %lu\n", Phase4);
 120:Src/PID.c     ****             // SERIAL_WRITE("error3: %li\n", error3);
 121:Src/PID.c     ****             // SERIAL_WRITE("error3: %li\n", error4);
 122:Src/PID.c     ****             // SERIAL_WRITE("MSE352: %li\n\n", MSE352);
 123:Src/PID.c     **** 
 124:Src/PID.c     ****             State.PD3_PD4_Offset = PS;
 125:Src/PID.c     ****             State.PD3_PD4_MSE = MSE352;
 126:Src/PID.c     ****             State.PD3_Slope = prevPhase3 < Phase3 ? 1 : -1;
 1033              		.loc 1 126 29 view .LVU181
 1034 02fa 0120     		movs	r0, #1
 1035              	.LVL92:
 1036              		.loc 1 126 29 view .LVU182
 1037 02fc 4042     		rsbs	r0, r0, #0
 1038 02fe C0E0     		b	.L34
 1039              	.L52:
 1040              		.align	2
 1041              	.L51:
 1042 0300 00000000 		.word	.LC4
 1043 0304 00000000 		.word	huart2
 1044 0308 08000000 		.word	.LC7
 1045 030c FF7F1700 		.word	1540095
 1046 0310 00000000 		.word	State
 1047 0314 006298C5 		.word	-979869184
 1048 0318 D3040000 		.word	1235
 1049 031c FEFF0000 		.word	65534
 1050 0320 40771B00 		.word	1800000
 1051 0324 FFFFFF00 		.word	16777215
 1052 0328 905F0100 		.word	90000
 1053 032c D2040000 		.word	1234
 1054 0330 1C000000 		.word	.LC10
ARM GAS  C:\Users\matil\AppData\Local\Temp\ccTX79Z3.s 			page 23


 1055 0334 38000000 		.word	.LC12
 1056 0338 58000000 		.word	.LC14
 1057 033c 78000000 		.word	.LC16
 1058 0340 FF7F1500 		.word	1409023
 1059              	.LVL93:
 1060              	.L48:
 127:Src/PID.c     ****             State.PD4_Slope = prevPhase4 < Phase4 ? 1 : -1;
 1061              		.loc 1 127 29 view .LVU183
 1062 0344 0123     		movs	r3, #1
 1063 0346 9A46     		mov	r10, r3
 1064              	.LVL94:
 1065              	.L36:
 1066              		.loc 1 127 29 discriminator 4 view .LVU184
 1067 0348 904B     		ldr	r3, .L53
 1068 034a 9846     		mov	r8, r3
 1069 034c 904B     		ldr	r3, .L53+4
 1070 034e 4246     		mov	r2, r8
 1071              		.loc 1 127 29 discriminator 4 view .LVU185
 1072 0350 5146     		mov	r1, r10
 1073 0352 D154     		strb	r1, [r2, r3]
 128:Src/PID.c     ****             State.PD3_PD4_SetPoint = State.PD3_Slope * Phase3 + State.PD4_Slope * Phase4;
 1074              		.loc 1 128 13 is_stmt 1 discriminator 4 view .LVU186
 1075              		.loc 1 128 43 is_stmt 0 discriminator 4 view .LVU187
 1076 0354 C117     		asrs	r1, r0, #31
 1077              		.loc 1 128 54 discriminator 4 view .LVU188
 1078 0356 009A     		ldr	r2, [sp]
 1079 0358 019B     		ldr	r3, [sp, #4]
 1080              	.LVL95:
 1081              		.loc 1 128 54 discriminator 4 view .LVU189
 1082 035a FFF7FEFF 		bl	__aeabi_lmul
 1083              	.LVL96:
 1084              		.loc 1 128 54 discriminator 4 view .LVU190
 1085 035e 0400     		movs	r4, r0
 1086              	.LVL97:
 1087              		.loc 1 128 54 discriminator 4 view .LVU191
 1088 0360 0D00     		movs	r5, r1
 1089              		.loc 1 128 70 discriminator 4 view .LVU192
 1090 0362 5346     		mov	r3, r10
 1091 0364 D917     		asrs	r1, r3, #31
 1092              		.loc 1 128 81 discriminator 4 view .LVU193
 1093 0366 3200     		movs	r2, r6
 1094 0368 3B00     		movs	r3, r7
 1095 036a 5046     		mov	r0, r10
 1096 036c FFF7FEFF 		bl	__aeabi_lmul
 1097              	.LVL98:
 1098              		.loc 1 128 63 discriminator 4 view .LVU194
 1099 0370 2418     		adds	r4, r4, r0
 1100 0372 4D41     		adcs	r5, r5, r1
 1101              		.loc 1 128 36 discriminator 4 view .LVU195
 1102 0374 9E23     		movs	r3, #158
 1103 0376 DB00     		lsls	r3, r3, #3
 1104 0378 4344     		add	r3, r3, r8
 1105 037a 1C60     		str	r4, [r3]
 1106 037c 5D60     		str	r5, [r3, #4]
 1107              	.L32:
 129:Src/PID.c     ****         }
 130:Src/PID.c     ****         prevPhase3 = Phase3;
ARM GAS  C:\Users\matil\AppData\Local\Temp\ccTX79Z3.s 			page 24


 1108              		.loc 1 130 9 is_stmt 1 discriminator 2 view .LVU196
 1109              	.LVL99:
 131:Src/PID.c     ****         prevPhase4 = Phase4;
 1110              		.loc 1 131 9 discriminator 2 view .LVU197
 1111              		.loc 1 131 9 is_stmt 0 discriminator 2 view .LVU198
 1112              	.LBE15:
 105:Src/PID.c     ****     {
 1113              		.loc 1 105 40 is_stmt 1 discriminator 2 view .LVU199
 105:Src/PID.c     ****     {
 1114              		.loc 1 105 43 is_stmt 0 discriminator 2 view .LVU200
 1115 037e E023     		movs	r3, #224
 1116 0380 DB00     		lsls	r3, r3, #3
 1117 0382 9C46     		mov	ip, r3
 1118 0384 E144     		add	r9, r9, ip
 1119              	.LVL100:
 1120              	.LBB16:
 1121              		.loc 1 131 20 discriminator 2 view .LVU201
 1122 0386 0596     		str	r6, [sp, #20]
 1123 0388 BB46     		mov	fp, r7
 130:Src/PID.c     ****         prevPhase4 = Phase4;
 1124              		.loc 1 130 20 discriminator 2 view .LVU202
 1125 038a 009B     		ldr	r3, [sp]
 1126 038c 019C     		ldr	r4, [sp, #4]
 1127 038e 0493     		str	r3, [sp, #16]
 1128 0390 A246     		mov	r10, r4
 1129              	.LVL101:
 1130              	.L31:
 130:Src/PID.c     ****         prevPhase4 = Phase4;
 1131              		.loc 1 130 20 discriminator 2 view .LVU203
 1132              	.LBE16:
 105:Src/PID.c     ****     {
 1133              		.loc 1 105 27 is_stmt 1 discriminator 1 view .LVU204
 105:Src/PID.c     ****     {
 1134              		.loc 1 105 5 is_stmt 0 discriminator 1 view .LVU205
 1135 0392 804B     		ldr	r3, .L53+8
 1136 0394 9945     		cmp	r9, r3
 1137 0396 00D9     		bls	.LCB920
 1138 0398 82E0     		b	.L50	@long jump
 1139              	.LCB920:
 1140              	.LBB17:
 107:Src/PID.c     ****         HAL_Delay(100);
 1141              		.loc 1 107 9 is_stmt 1 view .LVU206
 1142 039a A020     		movs	r0, #160
 1143 039c 4003     		lsls	r0, r0, #13
 1144 039e 4844     		add	r0, r0, r9
 1145 03a0 FFF7FEFF 		bl	DAC_cmd
 1146              	.LVL102:
 108:Src/PID.c     ****         uint64_t Phase3 = (1800000 - (((uint64_t)State.ADC_Values[ADC_PD3_Phase_CH] * 1800000) / 0x
 1147              		.loc 1 108 9 view .LVU207
 1148 03a4 6420     		movs	r0, #100
 1149 03a6 FFF7FEFF 		bl	HAL_Delay
 1150              	.LVL103:
 109:Src/PID.c     ****         uint64_t Phase4 = (1800000 - (((uint64_t)State.ADC_Values[ADC_PD4_Phase_CH] * 1800000) / 0x
 1151              		.loc 1 109 9 view .LVU208
 109:Src/PID.c     ****         uint64_t Phase4 = (1800000 - (((uint64_t)State.ADC_Values[ADC_PD4_Phase_CH] * 1800000) / 0x
 1152              		.loc 1 109 66 is_stmt 0 view .LVU209
 1153 03aa 784B     		ldr	r3, .L53
ARM GAS  C:\Users\matil\AppData\Local\Temp\ccTX79Z3.s 			page 25


 1154 03ac 9846     		mov	r8, r3
 1155 03ae 8823     		movs	r3, #136
 1156 03b0 4246     		mov	r2, r8
 1157 03b2 D058     		ldr	r0, [r2, r3]
 109:Src/PID.c     ****         uint64_t Phase4 = (1800000 - (((uint64_t)State.ADC_Values[ADC_PD4_Phase_CH] * 1800000) / 0x
 1158              		.loc 1 109 85 view .LVU210
 1159 03b4 784A     		ldr	r2, .L53+12
 1160 03b6 0023     		movs	r3, #0
 1161 03b8 0021     		movs	r1, #0
 1162 03ba FFF7FEFF 		bl	__aeabi_lmul
 1163              	.LVL104:
 109:Src/PID.c     ****         uint64_t Phase4 = (1800000 - (((uint64_t)State.ADC_Values[ADC_PD4_Phase_CH] * 1800000) / 0x
 1164              		.loc 1 109 96 view .LVU211
 1165 03be 774A     		ldr	r2, .L53+16
 1166 03c0 0023     		movs	r3, #0
 1167 03c2 FFF7FEFF 		bl	__aeabi_uldivmod
 1168              	.LVL105:
 109:Src/PID.c     ****         uint64_t Phase4 = (1800000 - (((uint64_t)State.ADC_Values[ADC_PD4_Phase_CH] * 1800000) / 0x
 1169              		.loc 1 109 36 view .LVU212
 1170 03c6 744C     		ldr	r4, .L53+12
 1171 03c8 0025     		movs	r5, #0
 1172 03ca 2200     		movs	r2, r4
 1173 03cc 2B00     		movs	r3, r5
 1174 03ce 121A     		subs	r2, r2, r0
 1175 03d0 8B41     		sbcs	r3, r3, r1
 1176 03d2 1000     		movs	r0, r2
 1177 03d4 1900     		movs	r1, r3
 109:Src/PID.c     ****         uint64_t Phase4 = (1800000 - (((uint64_t)State.ADC_Values[ADC_PD4_Phase_CH] * 1800000) / 0x
 1178              		.loc 1 109 18 view .LVU213
 1179 03d6 0A22     		movs	r2, #10
 1180 03d8 0023     		movs	r3, #0
 1181 03da FFF7FEFF 		bl	__aeabi_uldivmod
 1182              	.LVL106:
 1183 03de 0090     		str	r0, [sp]
 1184 03e0 0191     		str	r1, [sp, #4]
 1185              	.LVL107:
 110:Src/PID.c     **** 
 1186              		.loc 1 110 9 is_stmt 1 view .LVU214
 110:Src/PID.c     **** 
 1187              		.loc 1 110 85 is_stmt 0 view .LVU215
 1188 03e2 2200     		movs	r2, r4
 1189 03e4 2B00     		movs	r3, r5
 1190 03e6 4146     		mov	r1, r8
 1191 03e8 886D     		ldr	r0, [r1, #88]
 1192 03ea 0021     		movs	r1, #0
 1193 03ec FFF7FEFF 		bl	__aeabi_lmul
 1194              	.LVL108:
 110:Src/PID.c     **** 
 1195              		.loc 1 110 96 view .LVU216
 1196 03f0 6A4A     		ldr	r2, .L53+16
 1197 03f2 0023     		movs	r3, #0
 1198 03f4 FFF7FEFF 		bl	__aeabi_uldivmod
 1199              	.LVL109:
 110:Src/PID.c     **** 
 1200              		.loc 1 110 36 view .LVU217
 1201 03f8 241A     		subs	r4, r4, r0
 1202 03fa 8D41     		sbcs	r5, r5, r1
ARM GAS  C:\Users\matil\AppData\Local\Temp\ccTX79Z3.s 			page 26


 1203 03fc 2000     		movs	r0, r4
 1204 03fe 2900     		movs	r1, r5
 110:Src/PID.c     **** 
 1205              		.loc 1 110 18 view .LVU218
 1206 0400 0A22     		movs	r2, #10
 1207 0402 0023     		movs	r3, #0
 1208 0404 FFF7FEFF 		bl	__aeabi_uldivmod
 1209              	.LVL110:
 1210 0408 0600     		movs	r6, r0
 1211 040a 0F00     		movs	r7, r1
 1212              	.LVL111:
 112:Src/PID.c     ****         int64_t error4 = 90000 - Phase4;
 1213              		.loc 1 112 9 is_stmt 1 view .LVU219
 112:Src/PID.c     ****         int64_t error4 = 90000 - Phase4;
 1214              		.loc 1 112 32 is_stmt 0 view .LVU220
 1215 040c 644C     		ldr	r4, .L53+20
 1216 040e 0025     		movs	r5, #0
 1217 0410 2000     		movs	r0, r4
 1218 0412 2900     		movs	r1, r5
 1219 0414 009A     		ldr	r2, [sp]
 1220 0416 019B     		ldr	r3, [sp, #4]
 1221 0418 801A     		subs	r0, r0, r2
 1222 041a 9941     		sbcs	r1, r1, r3
 1223              	.LVL112:
 113:Src/PID.c     ****         int64_t MSE352 = error3 * error3 + error4 * error4;
 1224              		.loc 1 113 9 is_stmt 1 view .LVU221
 113:Src/PID.c     ****         int64_t MSE352 = error3 * error3 + error4 * error4;
 1225              		.loc 1 113 32 is_stmt 0 view .LVU222
 1226 041c A41B     		subs	r4, r4, r6
 1227 041e BD41     		sbcs	r5, r5, r7
 1228              	.LVL113:
 114:Src/PID.c     **** 
 1229              		.loc 1 114 9 is_stmt 1 view .LVU223
 114:Src/PID.c     **** 
 1230              		.loc 1 114 33 is_stmt 0 view .LVU224
 1231 0420 0200     		movs	r2, r0
 1232 0422 0B00     		movs	r3, r1
 1233 0424 FFF7FEFF 		bl	__aeabi_lmul
 1234              	.LVL114:
 114:Src/PID.c     **** 
 1235              		.loc 1 114 33 view .LVU225
 1236 0428 0290     		str	r0, [sp, #8]
 1237 042a 0391     		str	r1, [sp, #12]
 114:Src/PID.c     **** 
 1238              		.loc 1 114 51 view .LVU226
 1239 042c 2200     		movs	r2, r4
 1240 042e 2B00     		movs	r3, r5
 1241 0430 2000     		movs	r0, r4
 1242 0432 2900     		movs	r1, r5
 1243 0434 FFF7FEFF 		bl	__aeabi_lmul
 1244              	.LVL115:
 114:Src/PID.c     **** 
 1245              		.loc 1 114 17 view .LVU227
 1246 0438 029B     		ldr	r3, [sp, #8]
 1247 043a 039C     		ldr	r4, [sp, #12]
 1248 043c 1B18     		adds	r3, r3, r0
 1249 043e 4C41     		adcs	r4, r4, r1
ARM GAS  C:\Users\matil\AppData\Local\Temp\ccTX79Z3.s 			page 27


 1250 0440 1800     		movs	r0, r3
 1251 0442 2100     		movs	r1, r4
 1252              	.LVL116:
 116:Src/PID.c     ****         {
 1253              		.loc 1 116 9 is_stmt 1 view .LVU228
 116:Src/PID.c     ****         {
 1254              		.loc 1 116 27 is_stmt 0 view .LVU229
 1255 0444 A023     		movs	r3, #160
 1256 0446 DB00     		lsls	r3, r3, #3
 1257 0448 4344     		add	r3, r3, r8
 1258 044a 1A68     		ldr	r2, [r3]
 1259 044c 5B68     		ldr	r3, [r3, #4]
 116:Src/PID.c     ****         {
 1260              		.loc 1 116 12 view .LVU230
 1261 044e A342     		cmp	r3, r4
 1262 0450 02DC     		bgt	.L46
 1263 0452 94D1     		bne	.L32
 1264 0454 8242     		cmp	r2, r0
 1265 0456 92D9     		bls	.L32
 1266              	.L46:
 124:Src/PID.c     ****             State.PD3_PD4_MSE = MSE352;
 1267              		.loc 1 124 13 is_stmt 1 view .LVU231
 124:Src/PID.c     ****             State.PD3_PD4_MSE = MSE352;
 1268              		.loc 1 124 34 is_stmt 0 view .LVU232
 1269 0458 4C4B     		ldr	r3, .L53
 1270 045a 9F22     		movs	r2, #159
 1271 045c D200     		lsls	r2, r2, #3
 1272 045e 4C46     		mov	r4, r9
 1273              	.LVL117:
 124:Src/PID.c     ****             State.PD3_PD4_MSE = MSE352;
 1274              		.loc 1 124 34 view .LVU233
 1275 0460 9C50     		str	r4, [r3, r2]
 125:Src/PID.c     ****             State.PD3_Slope = prevPhase3 < Phase3 ? 1 : -1;
 1276              		.loc 1 125 13 is_stmt 1 view .LVU234
 125:Src/PID.c     ****             State.PD3_Slope = prevPhase3 < Phase3 ? 1 : -1;
 1277              		.loc 1 125 31 is_stmt 0 view .LVU235
 1278 0462 0832     		adds	r2, r2, #8
 1279 0464 9446     		mov	ip, r2
 1280 0466 6344     		add	r3, r3, ip
 1281 0468 1860     		str	r0, [r3]
 1282 046a 5960     		str	r1, [r3, #4]
 126:Src/PID.c     ****             State.PD4_Slope = prevPhase4 < Phase4 ? 1 : -1;
 1283              		.loc 1 126 13 is_stmt 1 view .LVU236
 126:Src/PID.c     ****             State.PD4_Slope = prevPhase4 < Phase4 ? 1 : -1;
 1284              		.loc 1 126 29 is_stmt 0 view .LVU237
 1285 046c 009B     		ldr	r3, [sp]
 1286 046e 019C     		ldr	r4, [sp, #4]
 1287 0470 5445     		cmp	r4, r10
 1288 0472 05D8     		bhi	.L47
 1289              	.LVL118:
 126:Src/PID.c     ****             State.PD4_Slope = prevPhase4 < Phase4 ? 1 : -1;
 1290              		.loc 1 126 29 view .LVU238
 1291 0474 00D0     		beq	.LCB1041
 1292 0476 40E7     		b	.L41	@long jump
 1293              	.LCB1041:
 1294 0478 049A     		ldr	r2, [sp, #16]
 1295 047a 9342     		cmp	r3, r2
ARM GAS  C:\Users\matil\AppData\Local\Temp\ccTX79Z3.s 			page 28


 1296 047c 00D8     		bhi	.LCB1044
 1297 047e 3CE7     		b	.L41	@long jump
 1298              	.LCB1044:
 1299              	.L47:
 1300 0480 0120     		movs	r0, #1
 1301              	.LVL119:
 1302              	.L34:
 126:Src/PID.c     ****             State.PD4_Slope = prevPhase4 < Phase4 ? 1 : -1;
 1303              		.loc 1 126 29 discriminator 4 view .LVU239
 1304 0482 424A     		ldr	r2, .L53
 1305 0484 474B     		ldr	r3, .L53+24
 1306 0486 D054     		strb	r0, [r2, r3]
 127:Src/PID.c     ****             State.PD3_PD4_SetPoint = State.PD3_Slope * Phase3 + State.PD4_Slope * Phase4;
 1307              		.loc 1 127 13 is_stmt 1 discriminator 4 view .LVU240
 127:Src/PID.c     ****             State.PD3_PD4_SetPoint = State.PD3_Slope * Phase3 + State.PD4_Slope * Phase4;
 1308              		.loc 1 127 29 is_stmt 0 discriminator 4 view .LVU241
 1309 0488 5F45     		cmp	r7, fp
 1310 048a 00D9     		bls	.LCB1055
 1311 048c 5AE7     		b	.L48	@long jump
 1312              	.LCB1055:
 1313 048e 03D1     		bne	.L42
 1314 0490 059B     		ldr	r3, [sp, #20]
 1315 0492 9E42     		cmp	r6, r3
 1316 0494 00D9     		bls	.LCB1060
 1317 0496 55E7     		b	.L48	@long jump
 1318              	.LCB1060:
 1319              	.L42:
 127:Src/PID.c     ****             State.PD3_PD4_SetPoint = State.PD3_Slope * Phase3 + State.PD4_Slope * Phase4;
 1320              		.loc 1 127 29 view .LVU242
 1321 0498 0123     		movs	r3, #1
 1322 049a 5B42     		rsbs	r3, r3, #0
 1323 049c 9A46     		mov	r10, r3
 1324              	.LVL120:
 127:Src/PID.c     ****             State.PD3_PD4_SetPoint = State.PD3_Slope * Phase3 + State.PD4_Slope * Phase4;
 1325              		.loc 1 127 29 view .LVU243
 1326 049e 53E7     		b	.L36
 1327              	.LVL121:
 1328              	.L50:
 127:Src/PID.c     ****             State.PD3_PD4_SetPoint = State.PD3_Slope * Phase3 + State.PD4_Slope * Phase4;
 1329              		.loc 1 127 29 view .LVU244
 1330              	.LBE17:
 1331              	.LBE18:
 1332              	.LBB19:
 132:Src/PID.c     ****     }
 133:Src/PID.c     ****     SERIAL_WRITE("\b\b\bPD3+PD4 SETPOINT: %li\n", State.PD3_PD4_SetPoint);
 1333              		.loc 1 133 5 is_stmt 1 view .LVU245
 1334 04a0 07AC     		add	r4, sp, #28
 1335 04a2 0023     		movs	r3, #0
 1336 04a4 9846     		mov	r8, r3
 1337 04a6 0793     		str	r3, [sp, #28]
 1338 04a8 6022     		movs	r2, #96
 1339 04aa 0021     		movs	r1, #0
 1340 04ac 08A8     		add	r0, sp, #32
 1341 04ae FFF7FEFF 		bl	memset
 1342              	.LVL122:
 1343              		.loc 1 133 5 view .LVU246
 1344 04b2 364D     		ldr	r5, .L53
ARM GAS  C:\Users\matil\AppData\Local\Temp\ccTX79Z3.s 			page 29


 1345 04b4 9E23     		movs	r3, #158
 1346 04b6 DB00     		lsls	r3, r3, #3
 1347 04b8 EB18     		adds	r3, r5, r3
 1348 04ba 1A68     		ldr	r2, [r3]
 1349 04bc 5B68     		ldr	r3, [r3, #4]
 1350 04be 3A49     		ldr	r1, .L53+28
 1351 04c0 2000     		movs	r0, r4
 1352 04c2 FFF7FEFF 		bl	sprintf
 1353              	.LVL123:
 1354              		.loc 1 133 5 view .LVU247
 1355 04c6 FA27     		movs	r7, #250
 1356 04c8 BF00     		lsls	r7, r7, #2
 1357 04ca 82B2     		uxth	r2, r0
 1358 04cc 374E     		ldr	r6, .L53+32
 1359 04ce 3B00     		movs	r3, r7
 1360 04d0 2100     		movs	r1, r4
 1361 04d2 3000     		movs	r0, r6
 1362              	.LVL124:
 1363              		.loc 1 133 5 is_stmt 0 view .LVU248
 1364 04d4 FFF7FEFF 		bl	HAL_UART_Transmit
 1365              	.LVL125:
 1366              	.LBE19:
 1367              		.loc 1 133 74 is_stmt 1 view .LVU249
 1368              	.LBB20:
 134:Src/PID.c     ****     SERIAL_WRITE("[CALIBRATION] PD3 SLOPE: %i\n", State.PD3_Slope);
 1369              		.loc 1 134 5 view .LVU250
 1370 04d8 4346     		mov	r3, r8
 1371 04da 0793     		str	r3, [sp, #28]
 1372 04dc 6022     		movs	r2, #96
 1373 04de 0021     		movs	r1, #0
 1374 04e0 08A8     		add	r0, sp, #32
 1375 04e2 FFF7FEFF 		bl	memset
 1376              	.LVL126:
 1377              		.loc 1 134 5 view .LVU251
 1378 04e6 2F4B     		ldr	r3, .L53+24
 1379 04e8 EA56     		ldrsb	r2, [r5, r3]
 1380 04ea 3149     		ldr	r1, .L53+36
 1381 04ec 2000     		movs	r0, r4
 1382 04ee FFF7FEFF 		bl	sprintf
 1383              	.LVL127:
 1384              		.loc 1 134 5 view .LVU252
 1385 04f2 82B2     		uxth	r2, r0
 1386 04f4 3B00     		movs	r3, r7
 1387 04f6 2100     		movs	r1, r4
 1388 04f8 3000     		movs	r0, r6
 1389              	.LVL128:
 1390              		.loc 1 134 5 is_stmt 0 view .LVU253
 1391 04fa FFF7FEFF 		bl	HAL_UART_Transmit
 1392              	.LVL129:
 1393              	.LBE20:
 1394              		.loc 1 134 67 is_stmt 1 view .LVU254
 1395              	.LBB21:
 135:Src/PID.c     ****     SERIAL_WRITE("[CALIBRATION] PD4 SLOPE: %i\n", State.PD4_Slope);
 1396              		.loc 1 135 5 view .LVU255
 1397 04fe 4346     		mov	r3, r8
 1398 0500 0793     		str	r3, [sp, #28]
 1399 0502 6022     		movs	r2, #96
ARM GAS  C:\Users\matil\AppData\Local\Temp\ccTX79Z3.s 			page 30


 1400 0504 0021     		movs	r1, #0
 1401 0506 08A8     		add	r0, sp, #32
 1402 0508 FFF7FEFF 		bl	memset
 1403              	.LVL130:
 1404              		.loc 1 135 5 view .LVU256
 1405 050c 204B     		ldr	r3, .L53+4
 1406 050e EA56     		ldrsb	r2, [r5, r3]
 1407 0510 2849     		ldr	r1, .L53+40
 1408 0512 2000     		movs	r0, r4
 1409 0514 FFF7FEFF 		bl	sprintf
 1410              	.LVL131:
 1411              		.loc 1 135 5 view .LVU257
 1412 0518 82B2     		uxth	r2, r0
 1413 051a 3B00     		movs	r3, r7
 1414 051c 2100     		movs	r1, r4
 1415 051e 3000     		movs	r0, r6
 1416              	.LVL132:
 1417              		.loc 1 135 5 is_stmt 0 view .LVU258
 1418 0520 FFF7FEFF 		bl	HAL_UART_Transmit
 1419              	.LVL133:
 1420              	.LBE21:
 1421              		.loc 1 135 67 is_stmt 1 view .LVU259
 1422              	.LBB22:
 136:Src/PID.c     ****     SERIAL_WRITE("[CALIBRATION] PS352 OFFSET: %u\n", State.PD3_PD4_Offset);
 1423              		.loc 1 136 5 view .LVU260
 1424 0524 4346     		mov	r3, r8
 1425 0526 0793     		str	r3, [sp, #28]
 1426 0528 6022     		movs	r2, #96
 1427 052a 0021     		movs	r1, #0
 1428 052c 08A8     		add	r0, sp, #32
 1429 052e FFF7FEFF 		bl	memset
 1430              	.LVL134:
 1431              		.loc 1 136 5 view .LVU261
 1432 0532 9F23     		movs	r3, #159
 1433 0534 DB00     		lsls	r3, r3, #3
 1434 0536 9846     		mov	r8, r3
 1435 0538 EA58     		ldr	r2, [r5, r3]
 1436 053a 1F49     		ldr	r1, .L53+44
 1437 053c 2000     		movs	r0, r4
 1438 053e FFF7FEFF 		bl	sprintf
 1439              	.LVL135:
 1440              		.loc 1 136 5 view .LVU262
 1441 0542 82B2     		uxth	r2, r0
 1442 0544 3B00     		movs	r3, r7
 1443 0546 2100     		movs	r1, r4
 1444 0548 3000     		movs	r0, r6
 1445              	.LVL136:
 1446              		.loc 1 136 5 is_stmt 0 view .LVU263
 1447 054a FFF7FEFF 		bl	HAL_UART_Transmit
 1448              	.LVL137:
 1449              	.LBE22:
 1450              		.loc 1 136 75 is_stmt 1 view .LVU264
 1451              	.LBB23:
 137:Src/PID.c     ****     SERIAL_WRITE(SERIAL_COLOR_RESET);
 1452              		.loc 1 137 5 view .LVU265
 1453 054e 6022     		movs	r2, #96
 1454 0550 0021     		movs	r1, #0
ARM GAS  C:\Users\matil\AppData\Local\Temp\ccTX79Z3.s 			page 31


 1455 0552 08A8     		add	r0, sp, #32
 1456 0554 FFF7FEFF 		bl	memset
 1457              	.LVL138:
 1458              		.loc 1 137 5 view .LVU266
 1459 0558 184B     		ldr	r3, .L53+48
 1460 055a 1A68     		ldr	r2, [r3]
 1461 055c 0792     		str	r2, [sp, #28]
 1462 055e 1B79     		ldrb	r3, [r3, #4]
 1463 0560 2371     		strb	r3, [r4, #4]
 1464              	.LVL139:
 1465              		.loc 1 137 5 view .LVU267
 1466 0562 3B00     		movs	r3, r7
 1467 0564 0422     		movs	r2, #4
 1468 0566 2100     		movs	r1, r4
 1469 0568 3000     		movs	r0, r6
 1470 056a FFF7FEFF 		bl	HAL_UART_Transmit
 1471              	.LVL140:
 1472              	.LBE23:
 1473              		.loc 1 137 37 view .LVU268
 138:Src/PID.c     **** 
 139:Src/PID.c     ****     DAC_cmd(RF_PS_352_OFFSET + DAC_WRITE + State.PD3_PD4_Offset);
 1474              		.loc 1 139 5 view .LVU269
 1475              		.loc 1 139 49 is_stmt 0 view .LVU270
 1476 056e 4346     		mov	r3, r8
 1477 0570 E858     		ldr	r0, [r5, r3]
 1478              		.loc 1 139 5 view .LVU271
 1479 0572 A023     		movs	r3, #160
 1480 0574 5B03     		lsls	r3, r3, #13
 1481 0576 9C46     		mov	ip, r3
 1482 0578 6044     		add	r0, r0, ip
 1483 057a FFF7FEFF 		bl	DAC_cmd
 1484              	.LVL141:
 140:Src/PID.c     **** }
 1485              		.loc 1 140 1 view .LVU272
 1486 057e 21B0     		add	sp, sp, #132
 1487              		@ sp needed
 1488              	.LVL142:
 1489              	.LVL143:
 1490              	.LVL144:
 1491              		.loc 1 140 1 view .LVU273
 1492 0580 3CBC     		pop	{r2, r3, r4, r5}
 1493 0582 9046     		mov	r8, r2
 1494 0584 9946     		mov	r9, r3
 1495 0586 A246     		mov	r10, r4
 1496 0588 AB46     		mov	fp, r5
 1497 058a F0BD     		pop	{r4, r5, r6, r7, pc}
 1498              	.L54:
 1499              		.align	2
 1500              	.L53:
 1501 058c 00000000 		.word	State
 1502 0590 D5040000 		.word	1237
 1503 0594 FEFF0000 		.word	65534
 1504 0598 40771B00 		.word	1800000
 1505 059c FFFFFF00 		.word	16777215
 1506 05a0 905F0100 		.word	90000
 1507 05a4 D4040000 		.word	1236
 1508 05a8 98000000 		.word	.LC18
ARM GAS  C:\Users\matil\AppData\Local\Temp\ccTX79Z3.s 			page 32


 1509 05ac 00000000 		.word	huart2
 1510 05b0 B4000000 		.word	.LC20
 1511 05b4 D4000000 		.word	.LC22
 1512 05b8 F4000000 		.word	.LC24
 1513 05bc 14010000 		.word	.LC26
 1514              		.cfi_endproc
 1515              	.LFE291:
 1517              		.section	.text.PID_Init,"ax",%progbits
 1518              		.align	1
 1519              		.global	PID_Init
 1520              		.syntax unified
 1521              		.code	16
 1522              		.thumb_func
 1523              		.fpu softvfp
 1525              	PID_Init:
 1526              	.LFB292:
 141:Src/PID.c     **** 
 142:Src/PID.c     **** void PID_Init()
 143:Src/PID.c     **** {
 1527              		.loc 1 143 1 is_stmt 1 view -0
 1528              		.cfi_startproc
 1529              		@ args = 0, pretend = 0, frame = 0
 1530              		@ frame_needed = 0, uses_anonymous_args = 0
 1531 0000 F0B5     		push	{r4, r5, r6, r7, lr}
 1532              	.LCFI11:
 1533              		.cfi_def_cfa_offset 20
 1534              		.cfi_offset 4, -20
 1535              		.cfi_offset 5, -16
 1536              		.cfi_offset 6, -12
 1537              		.cfi_offset 7, -8
 1538              		.cfi_offset 14, -4
 144:Src/PID.c     ****     State.PID_352_Output = 0x7fff;
 1539              		.loc 1 144 5 view .LVU275
 1540              		.loc 1 144 26 is_stmt 0 view .LVU276
 1541 0002 224E     		ldr	r6, .L56
 1542 0004 224F     		ldr	r7, .L56+4
 1543 0006 A123     		movs	r3, #161
 1544 0008 DB00     		lsls	r3, r3, #3
 1545 000a F750     		str	r7, [r6, r3]
 145:Src/PID.c     ****     State.PID_352_P = -1;
 1546              		.loc 1 145 5 is_stmt 1 view .LVU277
 1547              		.loc 1 145 21 is_stmt 0 view .LVU278
 1548 000c 0833     		adds	r3, r3, #8
 1549 000e F318     		adds	r3, r6, r3
 1550 0010 0120     		movs	r0, #1
 1551 0012 4042     		rsbs	r0, r0, #0
 1552 0014 C117     		asrs	r1, r0, #31
 1553 0016 1860     		str	r0, [r3]
 1554 0018 5960     		str	r1, [r3, #4]
 146:Src/PID.c     ****     State.PID_352_I = -1;
 1555              		.loc 1 146 5 is_stmt 1 view .LVU279
 1556              		.loc 1 146 21 is_stmt 0 view .LVU280
 1557 001a A323     		movs	r3, #163
 1558 001c DB00     		lsls	r3, r3, #3
 1559 001e F318     		adds	r3, r6, r3
 1560 0020 1860     		str	r0, [r3]
 1561 0022 5960     		str	r1, [r3, #4]
ARM GAS  C:\Users\matil\AppData\Local\Temp\ccTX79Z3.s 			page 33


 147:Src/PID.c     ****     State.PID_352_T = 1000000;
 1562              		.loc 1 147 5 is_stmt 1 view .LVU281
 1563              		.loc 1 147 21 is_stmt 0 view .LVU282
 1564 0024 A423     		movs	r3, #164
 1565 0026 DB00     		lsls	r3, r3, #3
 1566 0028 F318     		adds	r3, r6, r3
 1567 002a 1A4C     		ldr	r4, .L56+8
 1568 002c 0025     		movs	r5, #0
 1569 002e 1C60     		str	r4, [r3]
 1570 0030 5D60     		str	r5, [r3, #4]
 148:Src/PID.c     ****     State.PID_352_P_error = 0;
 1571              		.loc 1 148 5 is_stmt 1 view .LVU283
 1572              		.loc 1 148 27 is_stmt 0 view .LVU284
 1573 0032 A523     		movs	r3, #165
 1574 0034 DB00     		lsls	r3, r3, #3
 1575 0036 9C46     		mov	ip, r3
 1576 0038 B444     		add	ip, ip, r6
 1577 003a 0022     		movs	r2, #0
 1578 003c 0023     		movs	r3, #0
 1579 003e 6446     		mov	r4, ip
 1580 0040 2260     		str	r2, [r4]
 1581 0042 6360     		str	r3, [r4, #4]
 149:Src/PID.c     ****     State.PID_352_I_error = 0;
 1582              		.loc 1 149 5 is_stmt 1 view .LVU285
 1583              		.loc 1 149 27 is_stmt 0 view .LVU286
 1584 0044 A624     		movs	r4, #166
 1585 0046 E400     		lsls	r4, r4, #3
 1586 0048 A446     		mov	ip, r4
 1587 004a B444     		add	ip, ip, r6
 1588 004c 6446     		mov	r4, ip
 1589 004e 2260     		str	r2, [r4]
 1590 0050 6360     		str	r3, [r4, #4]
 150:Src/PID.c     **** 
 151:Src/PID.c     ****     State.PID_704_Output = 0x7fff;
 1591              		.loc 1 151 5 is_stmt 1 view .LVU287
 1592              		.loc 1 151 26 is_stmt 0 view .LVU288
 1593 0052 114C     		ldr	r4, .L56+12
 1594 0054 3751     		str	r7, [r6, r4]
 152:Src/PID.c     ****     State.PID_704_P = -1;
 1595              		.loc 1 152 5 is_stmt 1 view .LVU289
 1596              		.loc 1 152 21 is_stmt 0 view .LVU290
 1597 0056 0434     		adds	r4, r4, #4
 1598 0058 3719     		adds	r7, r6, r4
 1599 005a 3860     		str	r0, [r7]
 1600 005c 7960     		str	r1, [r7, #4]
 153:Src/PID.c     ****     State.PID_704_I = -1;
 1601              		.loc 1 153 5 is_stmt 1 view .LVU291
 1602              		.loc 1 153 21 is_stmt 0 view .LVU292
 1603 005e 0834     		adds	r4, r4, #8
 1604 0060 3719     		adds	r7, r6, r4
 1605 0062 3860     		str	r0, [r7]
 1606 0064 7960     		str	r1, [r7, #4]
 154:Src/PID.c     ****     State.PID_704_T = 1000000;
 1607              		.loc 1 154 5 is_stmt 1 view .LVU293
 1608              		.loc 1 154 21 is_stmt 0 view .LVU294
 1609 0066 AA21     		movs	r1, #170
 1610 0068 C900     		lsls	r1, r1, #3
ARM GAS  C:\Users\matil\AppData\Local\Temp\ccTX79Z3.s 			page 34


 1611 006a 7118     		adds	r1, r6, r1
 1612 006c 094C     		ldr	r4, .L56+8
 1613 006e 0025     		movs	r5, #0
 1614 0070 0C60     		str	r4, [r1]
 1615 0072 4D60     		str	r5, [r1, #4]
 155:Src/PID.c     ****     State.PID_704_P_error = 0;
 1616              		.loc 1 155 5 is_stmt 1 view .LVU295
 1617              		.loc 1 155 27 is_stmt 0 view .LVU296
 1618 0074 AB21     		movs	r1, #171
 1619 0076 C900     		lsls	r1, r1, #3
 1620 0078 7118     		adds	r1, r6, r1
 1621 007a 0A60     		str	r2, [r1]
 1622 007c 4B60     		str	r3, [r1, #4]
 156:Src/PID.c     ****     State.PID_704_I_error = 0;
 1623              		.loc 1 156 5 is_stmt 1 view .LVU297
 1624              		.loc 1 156 27 is_stmt 0 view .LVU298
 1625 007e AC21     		movs	r1, #172
 1626 0080 C900     		lsls	r1, r1, #3
 1627 0082 8C46     		mov	ip, r1
 1628 0084 6644     		add	r6, r6, ip
 1629 0086 3260     		str	r2, [r6]
 1630 0088 7360     		str	r3, [r6, #4]
 157:Src/PID.c     **** }
 1631              		.loc 1 157 1 view .LVU299
 1632              		@ sp needed
 1633 008a F0BD     		pop	{r4, r5, r6, r7, pc}
 1634              	.L57:
 1635              		.align	2
 1636              	.L56:
 1637 008c 00000000 		.word	State
 1638 0090 FF7F0000 		.word	32767
 1639 0094 40420F00 		.word	1000000
 1640 0098 3C050000 		.word	1340
 1641              		.cfi_endproc
 1642              	.LFE292:
 1644              		.section	.rodata.PID352.str1.4,"aMS",%progbits,1
 1645              		.align	2
 1646              	.LC44:
 1647 0000 1B5B303B 		.ascii	"\033[0;32m\000"
 1647      33326D00 
 1648              		.align	2
 1649              	.LC47:
 1650 0008 5B504944 		.ascii	"[PID_PHASE_352] LOCKED\012\000"
 1650      5F504841 
 1650      53455F33 
 1650      35325D20 
 1650      4C4F434B 
 1651              		.align	2
 1652              	.LC50:
 1653 0020 1B5B303B 		.ascii	"\033[0;31m\000"
 1653      33316D00 
 1654              		.align	2
 1655              	.LC52:
 1656 0028 5B504944 		.ascii	"[PID_PHASE_352] UNLOCKED!!!\012\000"
 1656      5F504841 
 1656      53455F33 
 1656      35325D20 
ARM GAS  C:\Users\matil\AppData\Local\Temp\ccTX79Z3.s 			page 35


 1656      554E4C4F 
 1657              		.section	.text.PID352,"ax",%progbits
 1658              		.align	1
 1659              		.global	PID352
 1660              		.syntax unified
 1661              		.code	16
 1662              		.thumb_func
 1663              		.fpu softvfp
 1665              	PID352:
 1666              	.LFB293:
 158:Src/PID.c     **** void PID352()
 159:Src/PID.c     **** {
 1667              		.loc 1 159 1 is_stmt 1 view -0
 1668              		.cfi_startproc
 1669              		@ args = 0, pretend = 0, frame = 104
 1670              		@ frame_needed = 0, uses_anonymous_args = 0
 1671 0000 F0B5     		push	{r4, r5, r6, r7, lr}
 1672              	.LCFI12:
 1673              		.cfi_def_cfa_offset 20
 1674              		.cfi_offset 4, -20
 1675              		.cfi_offset 5, -16
 1676              		.cfi_offset 6, -12
 1677              		.cfi_offset 7, -8
 1678              		.cfi_offset 14, -4
 1679 0002 DE46     		mov	lr, fp
 1680 0004 5746     		mov	r7, r10
 1681 0006 4E46     		mov	r6, r9
 1682 0008 4546     		mov	r5, r8
 1683 000a E0B5     		push	{r5, r6, r7, lr}
 1684              	.LCFI13:
 1685              		.cfi_def_cfa_offset 36
 1686              		.cfi_offset 8, -36
 1687              		.cfi_offset 9, -32
 1688              		.cfi_offset 10, -28
 1689              		.cfi_offset 11, -24
 1690 000c 9BB0     		sub	sp, sp, #108
 1691              	.LCFI14:
 1692              		.cfi_def_cfa_offset 144
 160:Src/PID.c     ****     int64_t prevErr = State.PID_352_P_error;
 1693              		.loc 1 160 5 view .LVU301
 1694              		.loc 1 160 13 is_stmt 0 view .LVU302
 1695 000e 974E     		ldr	r6, .L78
 1696 0010 A523     		movs	r3, #165
 1697 0012 DB00     		lsls	r3, r3, #3
 1698 0014 F718     		adds	r7, r6, r3
 1699 0016 3B68     		ldr	r3, [r7]
 1700 0018 9946     		mov	r9, r3
 1701 001a 7B68     		ldr	r3, [r7, #4]
 1702 001c 9846     		mov	r8, r3
 1703              	.LVL145:
 161:Src/PID.c     ****     State.PID_352_P_error = (State.PD3_Slope * Phase_u(ADC_PD3_Phase_CH)) + (State.PD4_Slope * Phas
 1704              		.loc 1 161 5 is_stmt 1 view .LVU303
 1705              		.loc 1 161 35 is_stmt 0 view .LVU304
 1706 001e 944B     		ldr	r3, .L78+4
 1707              	.LVL146:
 1708              		.loc 1 161 35 view .LVU305
 1709 0020 F456     		ldrsb	r4, [r6, r3]
ARM GAS  C:\Users\matil\AppData\Local\Temp\ccTX79Z3.s 			page 36


 1710 0022 E517     		asrs	r5, r4, #31
 1711              		.loc 1 161 48 view .LVU306
 1712 0024 0E20     		movs	r0, #14
 1713 0026 FFF7FEFF 		bl	Phase_u
 1714              	.LVL147:
 1715 002a 0200     		movs	r2, r0
 1716 002c 0B00     		movs	r3, r1
 1717              		.loc 1 161 46 view .LVU307
 1718 002e 2000     		movs	r0, r4
 1719 0030 2900     		movs	r1, r5
 1720 0032 FFF7FEFF 		bl	__aeabi_lmul
 1721              	.LVL148:
 1722 0036 0400     		movs	r4, r0
 1723 0038 0D00     		movs	r5, r1
 1724              		.loc 1 161 83 view .LVU308
 1725 003a 8E4B     		ldr	r3, .L78+8
 1726 003c F356     		ldrsb	r3, [r6, r3]
 1727 003e 9A46     		mov	r10, r3
 1728 0040 DB17     		asrs	r3, r3, #31
 1729 0042 9B46     		mov	fp, r3
 1730              		.loc 1 161 96 view .LVU309
 1731 0044 0220     		movs	r0, #2
 1732 0046 FFF7FEFF 		bl	Phase_u
 1733              	.LVL149:
 1734 004a 0200     		movs	r2, r0
 1735 004c 0B00     		movs	r3, r1
 1736              		.loc 1 161 94 view .LVU310
 1737 004e 5046     		mov	r0, r10
 1738 0050 5946     		mov	r1, fp
 1739 0052 FFF7FEFF 		bl	__aeabi_lmul
 1740              	.LVL150:
 1741              		.loc 1 161 75 view .LVU311
 1742 0056 2418     		adds	r4, r4, r0
 1743 0058 4D41     		adcs	r5, r5, r1
 1744              		.loc 1 161 131 view .LVU312
 1745 005a 9E23     		movs	r3, #158
 1746 005c DB00     		lsls	r3, r3, #3
 1747 005e F318     		adds	r3, r6, r3
 1748 0060 1868     		ldr	r0, [r3]
 1749 0062 5968     		ldr	r1, [r3, #4]
 1750              		.loc 1 161 149 view .LVU313
 1751 0064 FA22     		movs	r2, #250
 1752 0066 9200     		lsls	r2, r2, #2
 1753 0068 0023     		movs	r3, #0
 1754 006a FFF7FEFF 		bl	__aeabi_lmul
 1755              	.LVL151:
 1756              		.loc 1 161 123 view .LVU314
 1757 006e 241A     		subs	r4, r4, r0
 1758 0070 8D41     		sbcs	r5, r5, r1
 1759              		.loc 1 161 27 view .LVU315
 1760 0072 3C60     		str	r4, [r7]
 1761 0074 7D60     		str	r5, [r7, #4]
 162:Src/PID.c     ****     State.PID_352_I_error = (State.PID_352_I_error + State.PID_352_P_error) / State.PID_352_T;
 1762              		.loc 1 162 5 is_stmt 1 view .LVU316
 1763              		.loc 1 162 35 is_stmt 0 view .LVU317
 1764 0076 A623     		movs	r3, #166
 1765 0078 DB00     		lsls	r3, r3, #3
ARM GAS  C:\Users\matil\AppData\Local\Temp\ccTX79Z3.s 			page 37


 1766 007a F718     		adds	r7, r6, r3
 1767              		.loc 1 162 52 view .LVU318
 1768 007c 3868     		ldr	r0, [r7]
 1769 007e 7968     		ldr	r1, [r7, #4]
 1770 0080 0019     		adds	r0, r0, r4
 1771 0082 6941     		adcs	r1, r1, r5
 1772              		.loc 1 162 84 view .LVU319
 1773 0084 103B     		subs	r3, r3, #16
 1774 0086 F318     		adds	r3, r6, r3
 1775 0088 1A68     		ldr	r2, [r3]
 1776 008a 5B68     		ldr	r3, [r3, #4]
 1777              		.loc 1 162 77 view .LVU320
 1778 008c FFF7FEFF 		bl	__aeabi_ldivmod
 1779              	.LVL152:
 1780 0090 8246     		mov	r10, r0
 1781              		.loc 1 162 27 view .LVU321
 1782 0092 3860     		str	r0, [r7]
 1783 0094 7960     		str	r1, [r7, #4]
 163:Src/PID.c     ****     State.PID_352_Output = State.PID_352_Output + (State.PID_352_P * State.PID_352_P_error) / 1000 
 1784              		.loc 1 163 5 is_stmt 1 view .LVU322
 1785              		.loc 1 163 33 is_stmt 0 view .LVU323
 1786 0096 A127     		movs	r7, #161
 1787 0098 FF00     		lsls	r7, r7, #3
 1788 009a F359     		ldr	r3, [r6, r7]
 1789 009c 9B46     		mov	fp, r3
 1790              		.loc 1 163 57 view .LVU324
 1791 009e A223     		movs	r3, #162
 1792 00a0 DB00     		lsls	r3, r3, #3
 1793 00a2 F318     		adds	r3, r6, r3
 1794 00a4 1A68     		ldr	r2, [r3]
 1795 00a6 5B68     		ldr	r3, [r3, #4]
 1796              		.loc 1 163 68 view .LVU325
 1797 00a8 2000     		movs	r0, r4
 1798 00aa 2900     		movs	r1, r5
 1799 00ac FFF7FEFF 		bl	__aeabi_lmul
 1800              	.LVL153:
 1801              		.loc 1 163 93 view .LVU326
 1802 00b0 FA22     		movs	r2, #250
 1803 00b2 9200     		lsls	r2, r2, #2
 1804 00b4 0023     		movs	r3, #0
 1805 00b6 FFF7FEFF 		bl	__aeabi_ldivmod
 1806              	.LVL154:
 1807              		.loc 1 163 49 view .LVU327
 1808 00ba 0300     		movs	r3, r0
 1809 00bc 5B44     		add	r3, r3, fp
 1810              		.loc 1 163 108 view .LVU328
 1811 00be A322     		movs	r2, #163
 1812 00c0 D200     		lsls	r2, r2, #3
 1813 00c2 B218     		adds	r2, r6, r2
 1814 00c4 1068     		ldr	r0, [r2]
 1815              		.loc 1 163 100 view .LVU329
 1816 00c6 5246     		mov	r2, r10
 1817 00c8 5043     		muls	r0, r2
 1818 00ca C018     		adds	r0, r0, r3
 1819              		.loc 1 163 26 view .LVU330
 1820 00cc F051     		str	r0, [r6, r7]
 164:Src/PID.c     ****     if (State.PID_352_Output >= 0xffff)
ARM GAS  C:\Users\matil\AppData\Local\Temp\ccTX79Z3.s 			page 38


 1821              		.loc 1 164 5 is_stmt 1 view .LVU331
 1822              		.loc 1 164 8 is_stmt 0 view .LVU332
 1823 00ce 6A4B     		ldr	r3, .L78+12
 1824 00d0 9842     		cmp	r0, r3
 1825 00d2 01D9     		bls	.L59
 165:Src/PID.c     ****     {
 166:Src/PID.c     ****         State.PID_352_Output = 0xffff;
 1826              		.loc 1 166 9 is_stmt 1 view .LVU333
 1827              		.loc 1 166 30 is_stmt 0 view .LVU334
 1828 00d4 6949     		ldr	r1, .L78+16
 1829 00d6 F151     		str	r1, [r6, r7]
 1830              	.L59:
 167:Src/PID.c     ****     }
 168:Src/PID.c     **** 
 169:Src/PID.c     ****     DAC_cmd(RF_PS_352_FINE + DAC_WRITE + State.PID_352_Output);
 1831              		.loc 1 169 5 is_stmt 1 view .LVU335
 1832              		.loc 1 169 47 is_stmt 0 view .LVU336
 1833 00d8 644C     		ldr	r4, .L78
 1834 00da A123     		movs	r3, #161
 1835 00dc DB00     		lsls	r3, r3, #3
 1836 00de E058     		ldr	r0, [r4, r3]
 1837              		.loc 1 169 5 view .LVU337
 1838 00e0 A823     		movs	r3, #168
 1839 00e2 5B03     		lsls	r3, r3, #13
 1840 00e4 9C46     		mov	ip, r3
 1841 00e6 6044     		add	r0, r0, ip
 1842 00e8 FFF7FEFF 		bl	DAC_cmd
 1843              	.LVL155:
 170:Src/PID.c     **** 
 171:Src/PID.c     ****     if (State.PID_352_P_error < 50000 && prevErr < 50000 && State.PID_352_LOCK == 1)
 1844              		.loc 1 171 5 is_stmt 1 view .LVU338
 1845              		.loc 1 171 14 is_stmt 0 view .LVU339
 1846 00ec A523     		movs	r3, #165
 1847 00ee DB00     		lsls	r3, r3, #3
 1848 00f0 9C46     		mov	ip, r3
 1849 00f2 6444     		add	r4, r4, ip
 1850 00f4 2268     		ldr	r2, [r4]
 1851 00f6 6368     		ldr	r3, [r4, #4]
 1852              		.loc 1 171 8 view .LVU340
 1853 00f8 002B     		cmp	r3, #0
 1854 00fa 10DC     		bgt	.L60
 1855 00fc 02D1     		bne	.L71
 1856 00fe 6049     		ldr	r1, .L78+20
 1857 0100 8A42     		cmp	r2, r1
 1858 0102 0CD8     		bhi	.L60
 1859              	.L71:
 1860              		.loc 1 171 39 discriminator 1 view .LVU341
 1861 0104 4146     		mov	r1, r8
 1862 0106 0029     		cmp	r1, #0
 1863 0108 09DC     		bgt	.L60
 1864              	.LVL156:
 1865              		.loc 1 171 39 discriminator 1 view .LVU342
 1866 010a 02D1     		bne	.L72
 1867 010c 5C49     		ldr	r1, .L78+20
 1868              	.LVL157:
 1869              		.loc 1 171 39 discriminator 1 view .LVU343
 1870 010e 8945     		cmp	r9, r1
ARM GAS  C:\Users\matil\AppData\Local\Temp\ccTX79Z3.s 			page 39


 1871 0110 05D8     		bhi	.L60
 1872              	.L72:
 1873              		.loc 1 171 66 discriminator 2 view .LVU344
 1874 0112 5648     		ldr	r0, .L78
 1875 0114 A721     		movs	r1, #167
 1876 0116 C900     		lsls	r1, r1, #3
 1877 0118 4156     		ldrsb	r1, [r0, r1]
 1878              		.loc 1 171 58 discriminator 2 view .LVU345
 1879 011a 0129     		cmp	r1, #1
 1880 011c 2AD0     		beq	.L58
 1881              	.L60:
 172:Src/PID.c     ****     {
 173:Src/PID.c     ****         return;
 174:Src/PID.c     ****     }
 175:Src/PID.c     ****     else if (State.PID_352_P_error < 50000 && prevErr < 50000 && State.PID_352_LOCK == 0)
 1882              		.loc 1 175 10 is_stmt 1 view .LVU346
 1883              		.loc 1 175 13 is_stmt 0 view .LVU347
 1884 011e 002B     		cmp	r3, #0
 1885 0120 10DC     		bgt	.L64
 1886 0122 02D1     		bne	.L73
 1887 0124 5649     		ldr	r1, .L78+20
 1888 0126 8A42     		cmp	r2, r1
 1889 0128 0CD8     		bhi	.L64
 1890              	.L73:
 1891              		.loc 1 175 44 discriminator 1 view .LVU348
 1892 012a 4146     		mov	r1, r8
 1893 012c 0029     		cmp	r1, #0
 1894 012e 09DC     		bgt	.L64
 1895              	.LVL158:
 1896              		.loc 1 175 44 discriminator 1 view .LVU349
 1897 0130 02D1     		bne	.L74
 1898 0132 5349     		ldr	r1, .L78+20
 1899              	.LVL159:
 1900              		.loc 1 175 44 discriminator 1 view .LVU350
 1901 0134 8945     		cmp	r9, r1
 1902 0136 05D8     		bhi	.L64
 1903              	.L74:
 1904              		.loc 1 175 71 discriminator 2 view .LVU351
 1905 0138 4C48     		ldr	r0, .L78
 1906 013a A721     		movs	r1, #167
 1907 013c C900     		lsls	r1, r1, #3
 1908 013e 4156     		ldrsb	r1, [r0, r1]
 1909              		.loc 1 175 63 discriminator 2 view .LVU352
 1910 0140 0029     		cmp	r1, #0
 1911 0142 1ED0     		beq	.L76
 1912              	.L64:
 176:Src/PID.c     ****     {
 177:Src/PID.c     ****         State.PID_352_LOCK = 1;
 178:Src/PID.c     ****         SERIAL_WRITE_GREEN("[PID_PHASE_352] LOCKED\n");
 179:Src/PID.c     ****     }
 180:Src/PID.c     ****     else if ((State.PID_352_P_error >= 50000 || prevErr >= 50000) && State.PID_352_LOCK == 1)
 1913              		.loc 1 180 10 is_stmt 1 view .LVU353
 1914              		.loc 1 180 13 is_stmt 0 view .LVU354
 1915 0144 002B     		cmp	r3, #0
 1916 0146 0ADC     		bgt	.L67
 1917 0148 02D1     		bne	.L75
 1918 014a 4D4B     		ldr	r3, .L78+20
ARM GAS  C:\Users\matil\AppData\Local\Temp\ccTX79Z3.s 			page 40


 1919 014c 9A42     		cmp	r2, r3
 1920 014e 06D8     		bhi	.L67
 1921              	.L75:
 1922              		.loc 1 180 46 discriminator 2 view .LVU355
 1923 0150 4346     		mov	r3, r8
 1924 0152 002B     		cmp	r3, #0
 1925 0154 03DC     		bgt	.L67
 1926              	.LVL160:
 1927              		.loc 1 180 46 discriminator 2 view .LVU356
 1928 0156 08D1     		bne	.L69
 1929 0158 494B     		ldr	r3, .L78+20
 1930              	.LVL161:
 1931              		.loc 1 180 46 discriminator 2 view .LVU357
 1932 015a 9945     		cmp	r9, r3
 1933 015c 05D9     		bls	.L69
 1934              	.L67:
 1935              		.loc 1 180 75 discriminator 3 view .LVU358
 1936 015e 434A     		ldr	r2, .L78
 1937 0160 A723     		movs	r3, #167
 1938 0162 DB00     		lsls	r3, r3, #3
 1939 0164 D356     		ldrsb	r3, [r2, r3]
 1940              		.loc 1 180 67 discriminator 3 view .LVU359
 1941 0166 012B     		cmp	r3, #1
 1942 0168 44D0     		beq	.L77
 1943              	.L69:
 181:Src/PID.c     ****     {
 182:Src/PID.c     ****         State.PID_352_LOCK = 0;
 183:Src/PID.c     ****         SERIAL_WRITE_RED("[PID_PHASE_352] UNLOCKED!!!\n");
 184:Src/PID.c     ****     }
 185:Src/PID.c     ****     else
 186:Src/PID.c     ****     {
 187:Src/PID.c     ****         State.PID_352_LOCK = 0;
 1944              		.loc 1 187 9 is_stmt 1 view .LVU360
 1945              		.loc 1 187 28 is_stmt 0 view .LVU361
 1946 016a 404A     		ldr	r2, .L78
 1947 016c A723     		movs	r3, #167
 1948 016e DB00     		lsls	r3, r3, #3
 1949 0170 0021     		movs	r1, #0
 1950 0172 D154     		strb	r1, [r2, r3]
 1951              	.L58:
 188:Src/PID.c     ****     }
 189:Src/PID.c     **** }
 1952              		.loc 1 189 1 view .LVU362
 1953 0174 1BB0     		add	sp, sp, #108
 1954              		@ sp needed
 1955              	.LVL162:
 1956              		.loc 1 189 1 view .LVU363
 1957 0176 3CBC     		pop	{r2, r3, r4, r5}
 1958 0178 9046     		mov	r8, r2
 1959 017a 9946     		mov	r9, r3
 1960 017c A246     		mov	r10, r4
 1961 017e AB46     		mov	fp, r5
 1962 0180 F0BD     		pop	{r4, r5, r6, r7, pc}
 1963              	.LVL163:
 1964              	.L76:
 177:Src/PID.c     ****         SERIAL_WRITE_GREEN("[PID_PHASE_352] LOCKED\n");
 1965              		.loc 1 177 9 is_stmt 1 view .LVU364
ARM GAS  C:\Users\matil\AppData\Local\Temp\ccTX79Z3.s 			page 41


 177:Src/PID.c     ****         SERIAL_WRITE_GREEN("[PID_PHASE_352] LOCKED\n");
 1966              		.loc 1 177 28 is_stmt 0 view .LVU365
 1967 0182 A723     		movs	r3, #167
 1968 0184 DB00     		lsls	r3, r3, #3
 1969 0186 0131     		adds	r1, r1, #1
 1970 0188 C154     		strb	r1, [r0, r3]
 1971              	.LBB24:
 178:Src/PID.c     ****     }
 1972              		.loc 1 178 9 is_stmt 1 view .LVU366
 1973 018a 01AC     		add	r4, sp, #4
 1974 018c 6022     		movs	r2, #96
 1975 018e 0021     		movs	r1, #0
 1976 0190 02A8     		add	r0, sp, #8
 1977 0192 FFF7FEFF 		bl	memset
 1978              	.LVL164:
 178:Src/PID.c     ****     }
 1979              		.loc 1 178 9 view .LVU367
 1980 0196 3B4B     		ldr	r3, .L78+24
 1981 0198 2200     		movs	r2, r4
 1982 019a 03CB     		ldmia	r3!, {r0, r1}
 1983 019c 03C2     		stmia	r2!, {r0, r1}
 1984              	.LVL165:
 178:Src/PID.c     ****     }
 1985              		.loc 1 178 9 view .LVU368
 1986 019e FA26     		movs	r6, #250
 1987 01a0 B600     		lsls	r6, r6, #2
 1988 01a2 394D     		ldr	r5, .L78+28
 1989 01a4 3300     		movs	r3, r6
 1990 01a6 0722     		movs	r2, #7
 1991 01a8 2100     		movs	r1, r4
 1992 01aa 2800     		movs	r0, r5
 1993 01ac FFF7FEFF 		bl	HAL_UART_Transmit
 1994              	.LVL166:
 1995              	.LBE24:
 178:Src/PID.c     ****     }
 1996              		.loc 1 178 9 view .LVU369
 1997              	.LBB25:
 178:Src/PID.c     ****     }
 1998              		.loc 1 178 9 view .LVU370
 1999 01b0 6022     		movs	r2, #96
 2000 01b2 0021     		movs	r1, #0
 2001 01b4 02A8     		add	r0, sp, #8
 2002 01b6 FFF7FEFF 		bl	memset
 2003              	.LVL167:
 178:Src/PID.c     ****     }
 2004              		.loc 1 178 9 view .LVU371
 2005 01ba 344B     		ldr	r3, .L78+32
 2006 01bc 2200     		movs	r2, r4
 2007 01be 83CB     		ldmia	r3!, {r0, r1, r7}
 2008 01c0 83C2     		stmia	r2!, {r0, r1, r7}
 2009 01c2 83CB     		ldmia	r3!, {r0, r1, r7}
 2010 01c4 83C2     		stmia	r2!, {r0, r1, r7}
 2011              	.LVL168:
 178:Src/PID.c     ****     }
 2012              		.loc 1 178 9 view .LVU372
 2013 01c6 3300     		movs	r3, r6
 2014 01c8 1722     		movs	r2, #23
ARM GAS  C:\Users\matil\AppData\Local\Temp\ccTX79Z3.s 			page 42


 2015 01ca 2100     		movs	r1, r4
 2016 01cc 2800     		movs	r0, r5
 2017 01ce FFF7FEFF 		bl	HAL_UART_Transmit
 2018              	.LVL169:
 2019              	.LBE25:
 178:Src/PID.c     ****     }
 2020              		.loc 1 178 9 view .LVU373
 2021              	.LBB26:
 178:Src/PID.c     ****     }
 2022              		.loc 1 178 9 view .LVU374
 2023 01d2 6022     		movs	r2, #96
 2024 01d4 0021     		movs	r1, #0
 2025 01d6 02A8     		add	r0, sp, #8
 2026 01d8 FFF7FEFF 		bl	memset
 2027              	.LVL170:
 178:Src/PID.c     ****     }
 2028              		.loc 1 178 9 view .LVU375
 2029 01dc 2C4B     		ldr	r3, .L78+36
 2030 01de 1A68     		ldr	r2, [r3]
 2031 01e0 0192     		str	r2, [sp, #4]
 2032 01e2 1B79     		ldrb	r3, [r3, #4]
 2033 01e4 2371     		strb	r3, [r4, #4]
 2034              	.LVL171:
 178:Src/PID.c     ****     }
 2035              		.loc 1 178 9 view .LVU376
 2036 01e6 3300     		movs	r3, r6
 2037 01e8 0422     		movs	r2, #4
 2038 01ea 2100     		movs	r1, r4
 2039 01ec 2800     		movs	r0, r5
 2040 01ee FFF7FEFF 		bl	HAL_UART_Transmit
 2041              	.LVL172:
 2042              	.LBE26:
 178:Src/PID.c     ****     }
 2043              		.loc 1 178 9 view .LVU377
 178:Src/PID.c     ****     }
 2044              		.loc 1 178 55 view .LVU378
 178:Src/PID.c     ****     }
 2045              		.loc 1 178 9 is_stmt 0 view .LVU379
 2046 01f2 BFE7     		b	.L58
 2047              	.LVL173:
 2048              	.L77:
 182:Src/PID.c     ****         SERIAL_WRITE_RED("[PID_PHASE_352] UNLOCKED!!!\n");
 2049              		.loc 1 182 9 is_stmt 1 discriminator 2 view .LVU380
 182:Src/PID.c     ****         SERIAL_WRITE_RED("[PID_PHASE_352] UNLOCKED!!!\n");
 2050              		.loc 1 182 28 is_stmt 0 discriminator 2 view .LVU381
 2051 01f4 A723     		movs	r3, #167
 2052 01f6 DB00     		lsls	r3, r3, #3
 2053 01f8 0021     		movs	r1, #0
 2054 01fa D154     		strb	r1, [r2, r3]
 2055              	.LBB27:
 183:Src/PID.c     ****     }
 2056              		.loc 1 183 9 is_stmt 1 discriminator 2 view .LVU382
 2057 01fc 01AC     		add	r4, sp, #4
 2058 01fe 6022     		movs	r2, #96
 2059 0200 02A8     		add	r0, sp, #8
 2060 0202 FFF7FEFF 		bl	memset
 2061              	.LVL174:
ARM GAS  C:\Users\matil\AppData\Local\Temp\ccTX79Z3.s 			page 43


 183:Src/PID.c     ****     }
 2062              		.loc 1 183 9 discriminator 2 view .LVU383
 2063 0206 234B     		ldr	r3, .L78+40
 2064 0208 2200     		movs	r2, r4
 2065 020a 03CB     		ldmia	r3!, {r0, r1}
 2066 020c 03C2     		stmia	r2!, {r0, r1}
 2067              	.LVL175:
 183:Src/PID.c     ****     }
 2068              		.loc 1 183 9 discriminator 2 view .LVU384
 2069 020e FA26     		movs	r6, #250
 2070 0210 B600     		lsls	r6, r6, #2
 2071 0212 1D4D     		ldr	r5, .L78+28
 2072 0214 3300     		movs	r3, r6
 2073 0216 0722     		movs	r2, #7
 2074 0218 2100     		movs	r1, r4
 2075 021a 2800     		movs	r0, r5
 2076 021c FFF7FEFF 		bl	HAL_UART_Transmit
 2077              	.LVL176:
 2078              	.LBE27:
 183:Src/PID.c     ****     }
 2079              		.loc 1 183 9 discriminator 2 view .LVU385
 2080              	.LBB28:
 183:Src/PID.c     ****     }
 2081              		.loc 1 183 9 discriminator 2 view .LVU386
 2082 0220 6022     		movs	r2, #96
 2083 0222 0021     		movs	r1, #0
 2084 0224 02A8     		add	r0, sp, #8
 2085 0226 FFF7FEFF 		bl	memset
 2086              	.LVL177:
 183:Src/PID.c     ****     }
 2087              		.loc 1 183 9 discriminator 2 view .LVU387
 2088 022a 1B4B     		ldr	r3, .L78+44
 2089 022c 2200     		movs	r2, r4
 2090 022e 83CB     		ldmia	r3!, {r0, r1, r7}
 2091 0230 83C2     		stmia	r2!, {r0, r1, r7}
 2092 0232 83CB     		ldmia	r3!, {r0, r1, r7}
 2093 0234 83C2     		stmia	r2!, {r0, r1, r7}
 2094 0236 1968     		ldr	r1, [r3]
 2095 0238 1160     		str	r1, [r2]
 2096 023a 1B79     		ldrb	r3, [r3, #4]
 2097 023c 1371     		strb	r3, [r2, #4]
 2098              	.LVL178:
 183:Src/PID.c     ****     }
 2099              		.loc 1 183 9 discriminator 2 view .LVU388
 2100 023e 3300     		movs	r3, r6
 2101 0240 1C22     		movs	r2, #28
 2102 0242 2100     		movs	r1, r4
 2103 0244 2800     		movs	r0, r5
 2104 0246 FFF7FEFF 		bl	HAL_UART_Transmit
 2105              	.LVL179:
 2106              	.LBE28:
 183:Src/PID.c     ****     }
 2107              		.loc 1 183 9 discriminator 2 view .LVU389
 2108              	.LBB29:
 183:Src/PID.c     ****     }
 2109              		.loc 1 183 9 discriminator 2 view .LVU390
 2110 024a 6022     		movs	r2, #96
ARM GAS  C:\Users\matil\AppData\Local\Temp\ccTX79Z3.s 			page 44


 2111 024c 0021     		movs	r1, #0
 2112 024e 02A8     		add	r0, sp, #8
 2113 0250 FFF7FEFF 		bl	memset
 2114              	.LVL180:
 183:Src/PID.c     ****     }
 2115              		.loc 1 183 9 discriminator 2 view .LVU391
 2116 0254 0E4B     		ldr	r3, .L78+36
 2117 0256 1A68     		ldr	r2, [r3]
 2118 0258 0192     		str	r2, [sp, #4]
 2119 025a 1B79     		ldrb	r3, [r3, #4]
 2120 025c 2371     		strb	r3, [r4, #4]
 2121              	.LVL181:
 183:Src/PID.c     ****     }
 2122              		.loc 1 183 9 discriminator 2 view .LVU392
 2123 025e 3300     		movs	r3, r6
 2124 0260 0422     		movs	r2, #4
 2125 0262 2100     		movs	r1, r4
 2126 0264 2800     		movs	r0, r5
 2127 0266 FFF7FEFF 		bl	HAL_UART_Transmit
 2128              	.LVL182:
 2129              	.LBE29:
 183:Src/PID.c     ****     }
 2130              		.loc 1 183 9 discriminator 2 view .LVU393
 183:Src/PID.c     ****     }
 2131              		.loc 1 183 58 discriminator 2 view .LVU394
 183:Src/PID.c     ****     }
 2132              		.loc 1 183 9 is_stmt 0 discriminator 2 view .LVU395
 2133 026a 83E7     		b	.L58
 2134              	.L79:
 2135              		.align	2
 2136              	.L78:
 2137 026c 00000000 		.word	State
 2138 0270 D4040000 		.word	1236
 2139 0274 D5040000 		.word	1237
 2140 0278 FEFF0000 		.word	65534
 2141 027c FFFF0000 		.word	65535
 2142 0280 4FC30000 		.word	49999
 2143 0284 00000000 		.word	.LC44
 2144 0288 00000000 		.word	huart2
 2145 028c 08000000 		.word	.LC47
 2146 0290 14010000 		.word	.LC26
 2147 0294 20000000 		.word	.LC50
 2148 0298 28000000 		.word	.LC52
 2149              		.cfi_endproc
 2150              	.LFE293:
 2152              		.section	.rodata.PID704.str1.4,"aMS",%progbits,1
 2153              		.align	2
 2154              	.LC63:
 2155 0000 5B504944 		.ascii	"[PID_PHASE_704] LOCKED\012\000"
 2155      5F504841 
 2155      53455F37 
 2155      30345D20 
 2155      4C4F434B 
 2156              		.align	2
 2157              	.LC67:
 2158 0018 5B504944 		.ascii	"[PID_PHASE_704] UNLOCKED!!!\012\000"
 2158      5F504841 
ARM GAS  C:\Users\matil\AppData\Local\Temp\ccTX79Z3.s 			page 45


 2158      53455F37 
 2158      30345D20 
 2158      554E4C4F 
 2159              		.section	.text.PID704,"ax",%progbits
 2160              		.align	1
 2161              		.global	PID704
 2162              		.syntax unified
 2163              		.code	16
 2164              		.thumb_func
 2165              		.fpu softvfp
 2167              	PID704:
 2168              	.LFB294:
 190:Src/PID.c     **** void PID704()
 191:Src/PID.c     **** {
 2169              		.loc 1 191 1 is_stmt 1 view -0
 2170              		.cfi_startproc
 2171              		@ args = 0, pretend = 0, frame = 104
 2172              		@ frame_needed = 0, uses_anonymous_args = 0
 2173 0000 F0B5     		push	{r4, r5, r6, r7, lr}
 2174              	.LCFI15:
 2175              		.cfi_def_cfa_offset 20
 2176              		.cfi_offset 4, -20
 2177              		.cfi_offset 5, -16
 2178              		.cfi_offset 6, -12
 2179              		.cfi_offset 7, -8
 2180              		.cfi_offset 14, -4
 2181 0002 DE46     		mov	lr, fp
 2182 0004 5746     		mov	r7, r10
 2183 0006 4E46     		mov	r6, r9
 2184 0008 4546     		mov	r5, r8
 2185 000a E0B5     		push	{r5, r6, r7, lr}
 2186              	.LCFI16:
 2187              		.cfi_def_cfa_offset 36
 2188              		.cfi_offset 8, -36
 2189              		.cfi_offset 9, -32
 2190              		.cfi_offset 10, -28
 2191              		.cfi_offset 11, -24
 2192 000c 9BB0     		sub	sp, sp, #108
 2193              	.LCFI17:
 2194              		.cfi_def_cfa_offset 144
 192:Src/PID.c     ****     int64_t prevErr = State.PID_704_P_error;
 2195              		.loc 1 192 5 view .LVU397
 2196              		.loc 1 192 13 is_stmt 0 view .LVU398
 2197 000e 964E     		ldr	r6, .L100
 2198 0010 AB23     		movs	r3, #171
 2199 0012 DB00     		lsls	r3, r3, #3
 2200 0014 F718     		adds	r7, r6, r3
 2201 0016 3B68     		ldr	r3, [r7]
 2202 0018 9946     		mov	r9, r3
 2203 001a 7B68     		ldr	r3, [r7, #4]
 2204 001c 9846     		mov	r8, r3
 2205              	.LVL183:
 193:Src/PID.c     **** 
 194:Src/PID.c     ****     State.PID_704_P_error = (State.PD1_Slope * Phase_u(ADC_PD1_Phase_CH)) + (State.PD2_Slope * Phas
 2206              		.loc 1 194 5 is_stmt 1 view .LVU399
 2207              		.loc 1 194 35 is_stmt 0 view .LVU400
 2208 001e 934B     		ldr	r3, .L100+4
ARM GAS  C:\Users\matil\AppData\Local\Temp\ccTX79Z3.s 			page 46


 2209              	.LVL184:
 2210              		.loc 1 194 35 view .LVU401
 2211 0020 F456     		ldrsb	r4, [r6, r3]
 2212 0022 E517     		asrs	r5, r4, #31
 2213              		.loc 1 194 48 view .LVU402
 2214 0024 0620     		movs	r0, #6
 2215 0026 FFF7FEFF 		bl	Phase_u
 2216              	.LVL185:
 2217 002a 0200     		movs	r2, r0
 2218 002c 0B00     		movs	r3, r1
 2219              		.loc 1 194 46 view .LVU403
 2220 002e 2000     		movs	r0, r4
 2221 0030 2900     		movs	r1, r5
 2222 0032 FFF7FEFF 		bl	__aeabi_lmul
 2223              	.LVL186:
 2224 0036 0400     		movs	r4, r0
 2225 0038 0D00     		movs	r5, r1
 2226              		.loc 1 194 83 view .LVU404
 2227 003a 8D4B     		ldr	r3, .L100+8
 2228 003c F356     		ldrsb	r3, [r6, r3]
 2229 003e 9A46     		mov	r10, r3
 2230 0040 DB17     		asrs	r3, r3, #31
 2231 0042 9B46     		mov	fp, r3
 2232              		.loc 1 194 96 view .LVU405
 2233 0044 0020     		movs	r0, #0
 2234 0046 FFF7FEFF 		bl	Phase_u
 2235              	.LVL187:
 2236 004a 0200     		movs	r2, r0
 2237 004c 0B00     		movs	r3, r1
 2238              		.loc 1 194 94 view .LVU406
 2239 004e 5046     		mov	r0, r10
 2240 0050 5946     		mov	r1, fp
 2241 0052 FFF7FEFF 		bl	__aeabi_lmul
 2242              	.LVL188:
 2243              		.loc 1 194 75 view .LVU407
 2244 0056 2418     		adds	r4, r4, r0
 2245 0058 4D41     		adcs	r5, r5, r1
 2246              		.loc 1 194 131 view .LVU408
 2247 005a 9B23     		movs	r3, #155
 2248 005c DB00     		lsls	r3, r3, #3
 2249 005e F318     		adds	r3, r6, r3
 2250 0060 1868     		ldr	r0, [r3]
 2251 0062 5968     		ldr	r1, [r3, #4]
 2252              		.loc 1 194 149 view .LVU409
 2253 0064 FA22     		movs	r2, #250
 2254 0066 9200     		lsls	r2, r2, #2
 2255 0068 0023     		movs	r3, #0
 2256 006a FFF7FEFF 		bl	__aeabi_lmul
 2257              	.LVL189:
 2258              		.loc 1 194 123 view .LVU410
 2259 006e 241A     		subs	r4, r4, r0
 2260 0070 8D41     		sbcs	r5, r5, r1
 2261              		.loc 1 194 27 view .LVU411
 2262 0072 3C60     		str	r4, [r7]
 2263 0074 7D60     		str	r5, [r7, #4]
 195:Src/PID.c     ****     State.PID_704_I_error = (State.PID_704_I_error + State.PID_704_P_error) / State.PID_704_T;
 2264              		.loc 1 195 5 is_stmt 1 view .LVU412
ARM GAS  C:\Users\matil\AppData\Local\Temp\ccTX79Z3.s 			page 47


 2265              		.loc 1 195 35 is_stmt 0 view .LVU413
 2266 0076 AC23     		movs	r3, #172
 2267 0078 DB00     		lsls	r3, r3, #3
 2268 007a F718     		adds	r7, r6, r3
 2269              		.loc 1 195 52 view .LVU414
 2270 007c 3868     		ldr	r0, [r7]
 2271 007e 7968     		ldr	r1, [r7, #4]
 2272 0080 0019     		adds	r0, r0, r4
 2273 0082 6941     		adcs	r1, r1, r5
 2274              		.loc 1 195 84 view .LVU415
 2275 0084 103B     		subs	r3, r3, #16
 2276 0086 F318     		adds	r3, r6, r3
 2277 0088 1A68     		ldr	r2, [r3]
 2278 008a 5B68     		ldr	r3, [r3, #4]
 2279              		.loc 1 195 77 view .LVU416
 2280 008c FFF7FEFF 		bl	__aeabi_ldivmod
 2281              	.LVL190:
 2282 0090 8246     		mov	r10, r0
 2283              		.loc 1 195 27 view .LVU417
 2284 0092 3860     		str	r0, [r7]
 2285 0094 7960     		str	r1, [r7, #4]
 196:Src/PID.c     ****     State.PID_704_Output = State.PID_704_Output + (State.PID_704_P * State.PID_704_P_error) / 1000 
 2286              		.loc 1 196 5 is_stmt 1 view .LVU418
 2287              		.loc 1 196 33 is_stmt 0 view .LVU419
 2288 0096 774F     		ldr	r7, .L100+12
 2289 0098 F359     		ldr	r3, [r6, r7]
 2290 009a 9B46     		mov	fp, r3
 2291              		.loc 1 196 57 view .LVU420
 2292 009c A823     		movs	r3, #168
 2293 009e DB00     		lsls	r3, r3, #3
 2294 00a0 F318     		adds	r3, r6, r3
 2295 00a2 1A68     		ldr	r2, [r3]
 2296 00a4 5B68     		ldr	r3, [r3, #4]
 2297              		.loc 1 196 68 view .LVU421
 2298 00a6 2000     		movs	r0, r4
 2299 00a8 2900     		movs	r1, r5
 2300 00aa FFF7FEFF 		bl	__aeabi_lmul
 2301              	.LVL191:
 2302              		.loc 1 196 93 view .LVU422
 2303 00ae FA22     		movs	r2, #250
 2304 00b0 9200     		lsls	r2, r2, #2
 2305 00b2 0023     		movs	r3, #0
 2306 00b4 FFF7FEFF 		bl	__aeabi_ldivmod
 2307              	.LVL192:
 2308              		.loc 1 196 49 view .LVU423
 2309 00b8 0300     		movs	r3, r0
 2310 00ba 5B44     		add	r3, r3, fp
 2311              		.loc 1 196 108 view .LVU424
 2312 00bc A922     		movs	r2, #169
 2313 00be D200     		lsls	r2, r2, #3
 2314 00c0 B218     		adds	r2, r6, r2
 2315 00c2 1068     		ldr	r0, [r2]
 2316              		.loc 1 196 100 view .LVU425
 2317 00c4 5246     		mov	r2, r10
 2318 00c6 5043     		muls	r0, r2
 2319 00c8 C018     		adds	r0, r0, r3
 2320              		.loc 1 196 26 view .LVU426
ARM GAS  C:\Users\matil\AppData\Local\Temp\ccTX79Z3.s 			page 48


 2321 00ca F051     		str	r0, [r6, r7]
 197:Src/PID.c     **** 
 198:Src/PID.c     ****     if (State.PID_704_Output >= 0xffff)
 2322              		.loc 1 198 5 is_stmt 1 view .LVU427
 2323              		.loc 1 198 8 is_stmt 0 view .LVU428
 2324 00cc 6A4B     		ldr	r3, .L100+16
 2325 00ce 9842     		cmp	r0, r3
 2326 00d0 01D9     		bls	.L81
 199:Src/PID.c     ****     {
 200:Src/PID.c     ****         State.PID_704_Output = 0xffff;
 2327              		.loc 1 200 9 is_stmt 1 view .LVU429
 2328              		.loc 1 200 30 is_stmt 0 view .LVU430
 2329 00d2 6A49     		ldr	r1, .L100+20
 2330 00d4 F151     		str	r1, [r6, r7]
 2331              	.L81:
 201:Src/PID.c     ****     }
 202:Src/PID.c     ****     DAC_cmd(RF_PS_704_FINE + DAC_WRITE + State.PID_704_Output);
 2332              		.loc 1 202 5 is_stmt 1 view .LVU431
 2333              		.loc 1 202 47 is_stmt 0 view .LVU432
 2334 00d6 644C     		ldr	r4, .L100
 2335 00d8 664B     		ldr	r3, .L100+12
 2336 00da E058     		ldr	r0, [r4, r3]
 2337              		.loc 1 202 5 view .LVU433
 2338 00dc B823     		movs	r3, #184
 2339 00de 5B03     		lsls	r3, r3, #13
 2340 00e0 9C46     		mov	ip, r3
 2341 00e2 6044     		add	r0, r0, ip
 2342 00e4 FFF7FEFF 		bl	DAC_cmd
 2343              	.LVL193:
 203:Src/PID.c     **** 
 204:Src/PID.c     ****     if (State.PID_704_P_error < 50000 && prevErr < 50000 && State.PID_704_LOCK == 1)
 2344              		.loc 1 204 5 is_stmt 1 view .LVU434
 2345              		.loc 1 204 14 is_stmt 0 view .LVU435
 2346 00e8 AB23     		movs	r3, #171
 2347 00ea DB00     		lsls	r3, r3, #3
 2348 00ec 9C46     		mov	ip, r3
 2349 00ee 6444     		add	r4, r4, ip
 2350 00f0 2268     		ldr	r2, [r4]
 2351 00f2 6368     		ldr	r3, [r4, #4]
 2352              		.loc 1 204 8 view .LVU436
 2353 00f4 002B     		cmp	r3, #0
 2354 00f6 10DC     		bgt	.L82
 2355 00f8 02D1     		bne	.L93
 2356 00fa 6149     		ldr	r1, .L100+24
 2357 00fc 8A42     		cmp	r2, r1
 2358 00fe 0CD8     		bhi	.L82
 2359              	.L93:
 2360              		.loc 1 204 39 discriminator 1 view .LVU437
 2361 0100 4146     		mov	r1, r8
 2362 0102 0029     		cmp	r1, #0
 2363 0104 09DC     		bgt	.L82
 2364              	.LVL194:
 2365              		.loc 1 204 39 discriminator 1 view .LVU438
 2366 0106 02D1     		bne	.L94
 2367 0108 5D49     		ldr	r1, .L100+24
 2368              	.LVL195:
 2369              		.loc 1 204 39 discriminator 1 view .LVU439
ARM GAS  C:\Users\matil\AppData\Local\Temp\ccTX79Z3.s 			page 49


 2370 010a 8945     		cmp	r9, r1
 2371 010c 05D8     		bhi	.L82
 2372              	.L94:
 2373              		.loc 1 204 66 discriminator 2 view .LVU440
 2374 010e 5648     		ldr	r0, .L100
 2375 0110 AD21     		movs	r1, #173
 2376 0112 C900     		lsls	r1, r1, #3
 2377 0114 4156     		ldrsb	r1, [r0, r1]
 2378              		.loc 1 204 58 discriminator 2 view .LVU441
 2379 0116 0129     		cmp	r1, #1
 2380 0118 2AD0     		beq	.L80
 2381              	.L82:
 205:Src/PID.c     ****     {
 206:Src/PID.c     ****         return;
 207:Src/PID.c     ****     }
 208:Src/PID.c     ****     else if (State.PID_704_P_error < 50000 && prevErr < 50000 && State.PID_704_LOCK == 0)
 2382              		.loc 1 208 10 is_stmt 1 view .LVU442
 2383              		.loc 1 208 13 is_stmt 0 view .LVU443
 2384 011a 002B     		cmp	r3, #0
 2385 011c 10DC     		bgt	.L86
 2386 011e 02D1     		bne	.L95
 2387 0120 5749     		ldr	r1, .L100+24
 2388 0122 8A42     		cmp	r2, r1
 2389 0124 0CD8     		bhi	.L86
 2390              	.L95:
 2391              		.loc 1 208 44 discriminator 1 view .LVU444
 2392 0126 4146     		mov	r1, r8
 2393 0128 0029     		cmp	r1, #0
 2394 012a 09DC     		bgt	.L86
 2395              	.LVL196:
 2396              		.loc 1 208 44 discriminator 1 view .LVU445
 2397 012c 02D1     		bne	.L96
 2398 012e 5449     		ldr	r1, .L100+24
 2399              	.LVL197:
 2400              		.loc 1 208 44 discriminator 1 view .LVU446
 2401 0130 8945     		cmp	r9, r1
 2402 0132 05D8     		bhi	.L86
 2403              	.L96:
 2404              		.loc 1 208 71 discriminator 2 view .LVU447
 2405 0134 4C48     		ldr	r0, .L100
 2406 0136 AD21     		movs	r1, #173
 2407 0138 C900     		lsls	r1, r1, #3
 2408 013a 4156     		ldrsb	r1, [r0, r1]
 2409              		.loc 1 208 63 discriminator 2 view .LVU448
 2410 013c 0029     		cmp	r1, #0
 2411 013e 1ED0     		beq	.L98
 2412              	.L86:
 209:Src/PID.c     ****     {
 210:Src/PID.c     ****         State.PID_704_LOCK = 1;
 211:Src/PID.c     ****         SERIAL_WRITE_GREEN("[PID_PHASE_704] LOCKED\n");
 212:Src/PID.c     ****     }
 213:Src/PID.c     ****     else if ((State.PID_704_P_error >= 50000 || prevErr >= 50000) && State.PID_704_LOCK == 1)
 2413              		.loc 1 213 10 is_stmt 1 view .LVU449
 2414              		.loc 1 213 13 is_stmt 0 view .LVU450
 2415 0140 002B     		cmp	r3, #0
 2416 0142 0ADC     		bgt	.L89
 2417 0144 02D1     		bne	.L97
ARM GAS  C:\Users\matil\AppData\Local\Temp\ccTX79Z3.s 			page 50


 2418 0146 4E4B     		ldr	r3, .L100+24
 2419 0148 9A42     		cmp	r2, r3
 2420 014a 06D8     		bhi	.L89
 2421              	.L97:
 2422              		.loc 1 213 46 discriminator 2 view .LVU451
 2423 014c 4346     		mov	r3, r8
 2424 014e 002B     		cmp	r3, #0
 2425 0150 03DC     		bgt	.L89
 2426              	.LVL198:
 2427              		.loc 1 213 46 discriminator 2 view .LVU452
 2428 0152 08D1     		bne	.L91
 2429 0154 4A4B     		ldr	r3, .L100+24
 2430              	.LVL199:
 2431              		.loc 1 213 46 discriminator 2 view .LVU453
 2432 0156 9945     		cmp	r9, r3
 2433 0158 05D9     		bls	.L91
 2434              	.L89:
 2435              		.loc 1 213 75 discriminator 3 view .LVU454
 2436 015a 434A     		ldr	r2, .L100
 2437 015c AD23     		movs	r3, #173
 2438 015e DB00     		lsls	r3, r3, #3
 2439 0160 D356     		ldrsb	r3, [r2, r3]
 2440              		.loc 1 213 67 discriminator 3 view .LVU455
 2441 0162 012B     		cmp	r3, #1
 2442 0164 44D0     		beq	.L99
 2443              	.L91:
 214:Src/PID.c     ****     {
 215:Src/PID.c     ****         State.PID_704_LOCK = 0;
 216:Src/PID.c     ****         SERIAL_WRITE_RED("[PID_PHASE_704] UNLOCKED!!!\n");
 217:Src/PID.c     ****     }
 218:Src/PID.c     ****     else
 219:Src/PID.c     ****     {
 220:Src/PID.c     ****         State.PID_704_LOCK = 0;
 2444              		.loc 1 220 9 is_stmt 1 view .LVU456
 2445              		.loc 1 220 28 is_stmt 0 view .LVU457
 2446 0166 404A     		ldr	r2, .L100
 2447 0168 AD23     		movs	r3, #173
 2448 016a DB00     		lsls	r3, r3, #3
 2449 016c 0021     		movs	r1, #0
 2450 016e D154     		strb	r1, [r2, r3]
 2451              	.L80:
 221:Src/PID.c     ****     }
 222:Src/PID.c     **** }
 2452              		.loc 1 222 1 view .LVU458
 2453 0170 1BB0     		add	sp, sp, #108
 2454              		@ sp needed
 2455              	.LVL200:
 2456              		.loc 1 222 1 view .LVU459
 2457 0172 3CBC     		pop	{r2, r3, r4, r5}
 2458 0174 9046     		mov	r8, r2
 2459 0176 9946     		mov	r9, r3
 2460 0178 A246     		mov	r10, r4
 2461 017a AB46     		mov	fp, r5
 2462 017c F0BD     		pop	{r4, r5, r6, r7, pc}
 2463              	.LVL201:
 2464              	.L98:
 210:Src/PID.c     ****         SERIAL_WRITE_GREEN("[PID_PHASE_704] LOCKED\n");
ARM GAS  C:\Users\matil\AppData\Local\Temp\ccTX79Z3.s 			page 51


 2465              		.loc 1 210 9 is_stmt 1 view .LVU460
 210:Src/PID.c     ****         SERIAL_WRITE_GREEN("[PID_PHASE_704] LOCKED\n");
 2466              		.loc 1 210 28 is_stmt 0 view .LVU461
 2467 017e AD23     		movs	r3, #173
 2468 0180 DB00     		lsls	r3, r3, #3
 2469 0182 0131     		adds	r1, r1, #1
 2470 0184 C154     		strb	r1, [r0, r3]
 2471              	.LBB30:
 211:Src/PID.c     ****     }
 2472              		.loc 1 211 9 is_stmt 1 view .LVU462
 2473 0186 01AC     		add	r4, sp, #4
 2474 0188 6022     		movs	r2, #96
 2475 018a 0021     		movs	r1, #0
 2476 018c 02A8     		add	r0, sp, #8
 2477 018e FFF7FEFF 		bl	memset
 2478              	.LVL202:
 211:Src/PID.c     ****     }
 2479              		.loc 1 211 9 view .LVU463
 2480 0192 3C4B     		ldr	r3, .L100+28
 2481 0194 2200     		movs	r2, r4
 2482 0196 03CB     		ldmia	r3!, {r0, r1}
 2483 0198 03C2     		stmia	r2!, {r0, r1}
 2484              	.LVL203:
 211:Src/PID.c     ****     }
 2485              		.loc 1 211 9 view .LVU464
 2486 019a FA26     		movs	r6, #250
 2487 019c B600     		lsls	r6, r6, #2
 2488 019e 3A4D     		ldr	r5, .L100+32
 2489 01a0 3300     		movs	r3, r6
 2490 01a2 0722     		movs	r2, #7
 2491 01a4 2100     		movs	r1, r4
 2492 01a6 2800     		movs	r0, r5
 2493 01a8 FFF7FEFF 		bl	HAL_UART_Transmit
 2494              	.LVL204:
 2495              	.LBE30:
 211:Src/PID.c     ****     }
 2496              		.loc 1 211 9 view .LVU465
 2497              	.LBB31:
 211:Src/PID.c     ****     }
 2498              		.loc 1 211 9 view .LVU466
 2499 01ac 6022     		movs	r2, #96
 2500 01ae 0021     		movs	r1, #0
 2501 01b0 02A8     		add	r0, sp, #8
 2502 01b2 FFF7FEFF 		bl	memset
 2503              	.LVL205:
 211:Src/PID.c     ****     }
 2504              		.loc 1 211 9 view .LVU467
 2505 01b6 354B     		ldr	r3, .L100+36
 2506 01b8 2200     		movs	r2, r4
 2507 01ba 83CB     		ldmia	r3!, {r0, r1, r7}
 2508 01bc 83C2     		stmia	r2!, {r0, r1, r7}
 2509 01be 83CB     		ldmia	r3!, {r0, r1, r7}
 2510 01c0 83C2     		stmia	r2!, {r0, r1, r7}
 2511              	.LVL206:
 211:Src/PID.c     ****     }
 2512              		.loc 1 211 9 view .LVU468
 2513 01c2 3300     		movs	r3, r6
ARM GAS  C:\Users\matil\AppData\Local\Temp\ccTX79Z3.s 			page 52


 2514 01c4 1722     		movs	r2, #23
 2515 01c6 2100     		movs	r1, r4
 2516 01c8 2800     		movs	r0, r5
 2517 01ca FFF7FEFF 		bl	HAL_UART_Transmit
 2518              	.LVL207:
 2519              	.LBE31:
 211:Src/PID.c     ****     }
 2520              		.loc 1 211 9 view .LVU469
 2521              	.LBB32:
 211:Src/PID.c     ****     }
 2522              		.loc 1 211 9 view .LVU470
 2523 01ce 6022     		movs	r2, #96
 2524 01d0 0021     		movs	r1, #0
 2525 01d2 02A8     		add	r0, sp, #8
 2526 01d4 FFF7FEFF 		bl	memset
 2527              	.LVL208:
 211:Src/PID.c     ****     }
 2528              		.loc 1 211 9 view .LVU471
 2529 01d8 2D4B     		ldr	r3, .L100+40
 2530 01da 1A68     		ldr	r2, [r3]
 2531 01dc 0192     		str	r2, [sp, #4]
 2532 01de 1B79     		ldrb	r3, [r3, #4]
 2533 01e0 2371     		strb	r3, [r4, #4]
 2534              	.LVL209:
 211:Src/PID.c     ****     }
 2535              		.loc 1 211 9 view .LVU472
 2536 01e2 3300     		movs	r3, r6
 2537 01e4 0422     		movs	r2, #4
 2538 01e6 2100     		movs	r1, r4
 2539 01e8 2800     		movs	r0, r5
 2540 01ea FFF7FEFF 		bl	HAL_UART_Transmit
 2541              	.LVL210:
 2542              	.LBE32:
 211:Src/PID.c     ****     }
 2543              		.loc 1 211 9 view .LVU473
 211:Src/PID.c     ****     }
 2544              		.loc 1 211 55 view .LVU474
 211:Src/PID.c     ****     }
 2545              		.loc 1 211 9 is_stmt 0 view .LVU475
 2546 01ee BFE7     		b	.L80
 2547              	.LVL211:
 2548              	.L99:
 215:Src/PID.c     ****         SERIAL_WRITE_RED("[PID_PHASE_704] UNLOCKED!!!\n");
 2549              		.loc 1 215 9 is_stmt 1 discriminator 2 view .LVU476
 215:Src/PID.c     ****         SERIAL_WRITE_RED("[PID_PHASE_704] UNLOCKED!!!\n");
 2550              		.loc 1 215 28 is_stmt 0 discriminator 2 view .LVU477
 2551 01f0 AD23     		movs	r3, #173
 2552 01f2 DB00     		lsls	r3, r3, #3
 2553 01f4 0021     		movs	r1, #0
 2554 01f6 D154     		strb	r1, [r2, r3]
 2555              	.LBB33:
 216:Src/PID.c     ****     }
 2556              		.loc 1 216 9 is_stmt 1 discriminator 2 view .LVU478
 2557 01f8 01AC     		add	r4, sp, #4
 2558 01fa 6022     		movs	r2, #96
 2559 01fc 02A8     		add	r0, sp, #8
 2560 01fe FFF7FEFF 		bl	memset
ARM GAS  C:\Users\matil\AppData\Local\Temp\ccTX79Z3.s 			page 53


 2561              	.LVL212:
 216:Src/PID.c     ****     }
 2562              		.loc 1 216 9 discriminator 2 view .LVU479
 2563 0202 244B     		ldr	r3, .L100+44
 2564 0204 2200     		movs	r2, r4
 2565 0206 03CB     		ldmia	r3!, {r0, r1}
 2566 0208 03C2     		stmia	r2!, {r0, r1}
 2567              	.LVL213:
 216:Src/PID.c     ****     }
 2568              		.loc 1 216 9 discriminator 2 view .LVU480
 2569 020a FA26     		movs	r6, #250
 2570 020c B600     		lsls	r6, r6, #2
 2571 020e 1E4D     		ldr	r5, .L100+32
 2572 0210 3300     		movs	r3, r6
 2573 0212 0722     		movs	r2, #7
 2574 0214 2100     		movs	r1, r4
 2575 0216 2800     		movs	r0, r5
 2576 0218 FFF7FEFF 		bl	HAL_UART_Transmit
 2577              	.LVL214:
 2578              	.LBE33:
 216:Src/PID.c     ****     }
 2579              		.loc 1 216 9 discriminator 2 view .LVU481
 2580              	.LBB34:
 216:Src/PID.c     ****     }
 2581              		.loc 1 216 9 discriminator 2 view .LVU482
 2582 021c 6022     		movs	r2, #96
 2583 021e 0021     		movs	r1, #0
 2584 0220 02A8     		add	r0, sp, #8
 2585 0222 FFF7FEFF 		bl	memset
 2586              	.LVL215:
 216:Src/PID.c     ****     }
 2587              		.loc 1 216 9 discriminator 2 view .LVU483
 2588 0226 1C4B     		ldr	r3, .L100+48
 2589 0228 2200     		movs	r2, r4
 2590 022a 83CB     		ldmia	r3!, {r0, r1, r7}
 2591 022c 83C2     		stmia	r2!, {r0, r1, r7}
 2592 022e 83CB     		ldmia	r3!, {r0, r1, r7}
 2593 0230 83C2     		stmia	r2!, {r0, r1, r7}
 2594 0232 1968     		ldr	r1, [r3]
 2595 0234 1160     		str	r1, [r2]
 2596 0236 1B79     		ldrb	r3, [r3, #4]
 2597 0238 1371     		strb	r3, [r2, #4]
 2598              	.LVL216:
 216:Src/PID.c     ****     }
 2599              		.loc 1 216 9 discriminator 2 view .LVU484
 2600 023a 3300     		movs	r3, r6
 2601 023c 1C22     		movs	r2, #28
 2602 023e 2100     		movs	r1, r4
 2603 0240 2800     		movs	r0, r5
 2604 0242 FFF7FEFF 		bl	HAL_UART_Transmit
 2605              	.LVL217:
 2606              	.LBE34:
 216:Src/PID.c     ****     }
 2607              		.loc 1 216 9 discriminator 2 view .LVU485
 2608              	.LBB35:
 216:Src/PID.c     ****     }
 2609              		.loc 1 216 9 discriminator 2 view .LVU486
ARM GAS  C:\Users\matil\AppData\Local\Temp\ccTX79Z3.s 			page 54


 2610 0246 6022     		movs	r2, #96
 2611 0248 0021     		movs	r1, #0
 2612 024a 02A8     		add	r0, sp, #8
 2613 024c FFF7FEFF 		bl	memset
 2614              	.LVL218:
 216:Src/PID.c     ****     }
 2615              		.loc 1 216 9 discriminator 2 view .LVU487
 2616 0250 0F4B     		ldr	r3, .L100+40
 2617 0252 1A68     		ldr	r2, [r3]
 2618 0254 0192     		str	r2, [sp, #4]
 2619 0256 1B79     		ldrb	r3, [r3, #4]
 2620 0258 2371     		strb	r3, [r4, #4]
 2621              	.LVL219:
 216:Src/PID.c     ****     }
 2622              		.loc 1 216 9 discriminator 2 view .LVU488
 2623 025a 3300     		movs	r3, r6
 2624 025c 0422     		movs	r2, #4
 2625 025e 2100     		movs	r1, r4
 2626 0260 2800     		movs	r0, r5
 2627 0262 FFF7FEFF 		bl	HAL_UART_Transmit
 2628              	.LVL220:
 2629              	.LBE35:
 216:Src/PID.c     ****     }
 2630              		.loc 1 216 9 discriminator 2 view .LVU489
 216:Src/PID.c     ****     }
 2631              		.loc 1 216 58 discriminator 2 view .LVU490
 216:Src/PID.c     ****     }
 2632              		.loc 1 216 9 is_stmt 0 discriminator 2 view .LVU491
 2633 0266 83E7     		b	.L80
 2634              	.L101:
 2635              		.align	2
 2636              	.L100:
 2637 0268 00000000 		.word	State
 2638 026c D2040000 		.word	1234
 2639 0270 D3040000 		.word	1235
 2640 0274 3C050000 		.word	1340
 2641 0278 FEFF0000 		.word	65534
 2642 027c FFFF0000 		.word	65535
 2643 0280 4FC30000 		.word	49999
 2644 0284 00000000 		.word	.LC44
 2645 0288 00000000 		.word	huart2
 2646 028c 00000000 		.word	.LC63
 2647 0290 14010000 		.word	.LC26
 2648 0294 20000000 		.word	.LC50
 2649 0298 18000000 		.word	.LC67
 2650              		.cfi_endproc
 2651              	.LFE294:
 2653              		.section	.text.PID,"ax",%progbits
 2654              		.align	1
 2655              		.global	PID
 2656              		.syntax unified
 2657              		.code	16
 2658              		.thumb_func
 2659              		.fpu softvfp
 2661              	PID:
 2662              	.LFB295:
 223:Src/PID.c     **** 
ARM GAS  C:\Users\matil\AppData\Local\Temp\ccTX79Z3.s 			page 55


 224:Src/PID.c     **** void PID()
 225:Src/PID.c     **** {
 2663              		.loc 1 225 1 is_stmt 1 view -0
 2664              		.cfi_startproc
 2665              		@ args = 0, pretend = 0, frame = 0
 2666              		@ frame_needed = 0, uses_anonymous_args = 0
 2667 0000 10B5     		push	{r4, lr}
 2668              	.LCFI18:
 2669              		.cfi_def_cfa_offset 8
 2670              		.cfi_offset 4, -8
 2671              		.cfi_offset 14, -4
 226:Src/PID.c     ****     PID352();
 2672              		.loc 1 226 5 view .LVU493
 2673 0002 FFF7FEFF 		bl	PID352
 2674              	.LVL221:
 227:Src/PID.c     ****     PID704();
 2675              		.loc 1 227 5 view .LVU494
 2676 0006 FFF7FEFF 		bl	PID704
 2677              	.LVL222:
 228:Src/PID.c     **** }
 2678              		.loc 1 228 1 is_stmt 0 view .LVU495
 2679              		@ sp needed
 2680 000a 10BD     		pop	{r4, pc}
 2681              		.cfi_endproc
 2682              	.LFE295:
 2684              		.section	.rodata
 2685              		.align	3
 2686              	.LC0:
 2687 0000 00000000 		.word	0
 2688 0004 00000000 		.word	0
 2689 0008 00000000 		.word	0
 2690 000c 00000000 		.word	0
 2691 0010 00000000 		.word	0
 2692 0014 00000000 		.word	0
 2693 0018 00000000 		.word	0
 2694 001c 00000000 		.word	0
 2695 0020 021A0600 		.word	399874
 2696 0024 00000000 		.word	0
 2697 0028 00000000 		.word	0
 2698 002c 00000000 		.word	0
 2699 0030 00000000 		.word	0
 2700 0034 00000000 		.word	0
 2701 0038 00000000 		.word	0
 2702 003c 00000000 		.word	0
 2703 0040 00000000 		.word	0
 2704 0044 00000000 		.word	0
 2705 0048 C6D70600 		.word	448454
 2706 004c 00000000 		.word	0
 2707 0050 04860600 		.word	427524
 2708 0054 00000000 		.word	0
 2709 0058 00000000 		.word	0
 2710 005c 00000000 		.word	0
 2711 0060 00000000 		.word	0
 2712 0064 00000000 		.word	0
 2713 0068 00000000 		.word	0
 2714 006c 00000000 		.word	0
 2715 0070 00000000 		.word	0
ARM GAS  C:\Users\matil\AppData\Local\Temp\ccTX79Z3.s 			page 56


 2716 0074 00000000 		.word	0
 2717 0078 DD3A0600 		.word	408285
 2718 007c 00000000 		.word	0
 2719              		.text
 2720              	.Letext0:
 2721              		.file 2 "c:\\gnu tools arm embedded\\arm-none-eabi\\include\\machine\\_default_types.h"
 2722              		.file 3 "c:\\gnu tools arm embedded\\arm-none-eabi\\include\\sys\\_stdint.h"
 2723              		.file 4 "Drivers/CMSIS/Device/ST/STM32G0xx/Include/system_stm32g0xx.h"
 2724              		.file 5 "Drivers/CMSIS/Device/ST/STM32G0xx/Include/stm32g071xx.h"
 2725              		.file 6 "Drivers/STM32G0xx_HAL_Driver/Inc/stm32g0xx_hal_def.h"
 2726              		.file 7 "Drivers/STM32G0xx_HAL_Driver/Inc/stm32g0xx_hal_dma.h"
 2727              		.file 8 "Drivers/STM32G0xx_HAL_Driver/Inc/stm32g0xx_hal_flash.h"
 2728              		.file 9 "Drivers/STM32G0xx_HAL_Driver/Inc/stm32g0xx_hal_spi.h"
 2729              		.file 10 "Drivers/STM32G0xx_HAL_Driver/Inc/stm32g0xx_hal_uart.h"
 2730              		.file 11 "Drivers/STM32G0xx_HAL_Driver/Inc/stm32g0xx_hal.h"
 2731              		.file 12 "c:\\gnu tools arm embedded\\arm-none-eabi\\include\\sys\\lock.h"
 2732              		.file 13 "c:\\gnu tools arm embedded\\arm-none-eabi\\include\\sys\\_types.h"
 2733              		.file 14 "c:\\gnu tools arm embedded\\lib\\gcc\\arm-none-eabi\\9.2.1\\include\\stddef.h"
 2734              		.file 15 "c:\\gnu tools arm embedded\\arm-none-eabi\\include\\sys\\reent.h"
 2735              		.file 16 "Inc/usart.h"
 2736              		.file 17 "Inc/state.h"
 2737              		.file 18 "Inc/spi.h"
 2738              		.file 19 "Inc/DAC.h"
 2739              		.file 20 "c:\\gnu tools arm embedded\\arm-none-eabi\\include\\stdio.h"
 2740              		.file 21 "<built-in>"
ARM GAS  C:\Users\matil\AppData\Local\Temp\ccTX79Z3.s 			page 57


DEFINED SYMBOLS
                            *ABS*:00000000 PID.c
C:\Users\matil\AppData\Local\Temp\ccTX79Z3.s:18     .text.Voltage_nV:00000000 $t
C:\Users\matil\AppData\Local\Temp\ccTX79Z3.s:26     .text.Voltage_nV:00000000 Voltage_nV
C:\Users\matil\AppData\Local\Temp\ccTX79Z3.s:66     .text.Voltage_nV:00000020 $d
C:\Users\matil\AppData\Local\Temp\ccTX79Z3.s:73     .text.Voltage:00000000 $t
C:\Users\matil\AppData\Local\Temp\ccTX79Z3.s:80     .text.Voltage:00000000 Voltage
C:\Users\matil\AppData\Local\Temp\ccTX79Z3.s:119    .text.Voltage:00000020 $d
C:\Users\matil\AppData\Local\Temp\ccTX79Z3.s:126    .text.Phase:00000000 $t
C:\Users\matil\AppData\Local\Temp\ccTX79Z3.s:133    .text.Phase:00000000 Phase
C:\Users\matil\AppData\Local\Temp\ccTX79Z3.s:168    .text.Phase:0000001c $d
C:\Users\matil\AppData\Local\Temp\ccTX79Z3.s:174    .text.Phase_u:00000000 $t
C:\Users\matil\AppData\Local\Temp\ccTX79Z3.s:181    .text.Phase_u:00000000 Phase_u
C:\Users\matil\AppData\Local\Temp\ccTX79Z3.s:216    .text.Phase_u:0000001c $d
C:\Users\matil\AppData\Local\Temp\ccTX79Z3.s:221    .text.Temperature:00000000 $t
C:\Users\matil\AppData\Local\Temp\ccTX79Z3.s:228    .text.Temperature:00000000 Temperature
C:\Users\matil\AppData\Local\Temp\ccTX79Z3.s:267    .text.Temperature:00000028 $d
C:\Users\matil\AppData\Local\Temp\ccTX79Z3.s:273    .text.Relative_Power:00000000 $t
C:\Users\matil\AppData\Local\Temp\ccTX79Z3.s:280    .text.Relative_Power:00000000 Relative_Power
C:\Users\matil\AppData\Local\Temp\ccTX79Z3.s:314    .text.Relative_Power:0000001c $d
C:\Users\matil\AppData\Local\Temp\ccTX79Z3.s:320    .text.RMS_Power:00000000 $t
C:\Users\matil\AppData\Local\Temp\ccTX79Z3.s:327    .text.RMS_Power:00000000 RMS_Power
C:\Users\matil\AppData\Local\Temp\ccTX79Z3.s:384    .text.RMS_Power:00000038 $d
C:\Users\matil\AppData\Local\Temp\ccTX79Z3.s:390    .rodata.Calib.str1.4:00000000 $d
C:\Users\matil\AppData\Local\Temp\ccTX79Z3.s:424    .text.Calib:00000000 $t
C:\Users\matil\AppData\Local\Temp\ccTX79Z3.s:431    .text.Calib:00000000 Calib
C:\Users\matil\AppData\Local\Temp\ccTX79Z3.s:1042   .text.Calib:00000300 $d
C:\Users\matil\AppData\Local\Temp\ccTX79Z3.s:1062   .text.Calib:00000344 $t
C:\Users\matil\AppData\Local\Temp\ccTX79Z3.s:1501   .text.Calib:0000058c $d
C:\Users\matil\AppData\Local\Temp\ccTX79Z3.s:1518   .text.PID_Init:00000000 $t
C:\Users\matil\AppData\Local\Temp\ccTX79Z3.s:1525   .text.PID_Init:00000000 PID_Init
C:\Users\matil\AppData\Local\Temp\ccTX79Z3.s:1637   .text.PID_Init:0000008c $d
C:\Users\matil\AppData\Local\Temp\ccTX79Z3.s:1645   .rodata.PID352.str1.4:00000000 $d
C:\Users\matil\AppData\Local\Temp\ccTX79Z3.s:1658   .text.PID352:00000000 $t
C:\Users\matil\AppData\Local\Temp\ccTX79Z3.s:1665   .text.PID352:00000000 PID352
C:\Users\matil\AppData\Local\Temp\ccTX79Z3.s:2137   .text.PID352:0000026c $d
C:\Users\matil\AppData\Local\Temp\ccTX79Z3.s:2153   .rodata.PID704.str1.4:00000000 $d
C:\Users\matil\AppData\Local\Temp\ccTX79Z3.s:2160   .text.PID704:00000000 $t
C:\Users\matil\AppData\Local\Temp\ccTX79Z3.s:2167   .text.PID704:00000000 PID704
C:\Users\matil\AppData\Local\Temp\ccTX79Z3.s:2637   .text.PID704:00000268 $d
C:\Users\matil\AppData\Local\Temp\ccTX79Z3.s:2654   .text.PID:00000000 $t
C:\Users\matil\AppData\Local\Temp\ccTX79Z3.s:2661   .text.PID:00000000 PID
C:\Users\matil\AppData\Local\Temp\ccTX79Z3.s:2685   .rodata:00000000 $d

UNDEFINED SYMBOLS
__aeabi_lmul
__aeabi_uldivmod
State
__aeabi_ldivmod
memcpy
memset
HAL_UART_Transmit
DAC_cmd
HAL_Delay
sprintf
huart2
