ARM GAS  C:\Users\matil\AppData\Local\Temp\cceAmpRy.s 			page 1


   1              		.cpu cortex-m0plus
   2              		.eabi_attribute 20, 1
   3              		.eabi_attribute 21, 1
   4              		.eabi_attribute 23, 3
   5              		.eabi_attribute 24, 1
   6              		.eabi_attribute 25, 1
   7              		.eabi_attribute 26, 1
   8              		.eabi_attribute 30, 1
   9              		.eabi_attribute 34, 0
  10              		.eabi_attribute 18, 4
  11              		.file	"spi.c"
  12              		.text
  13              	.Ltext0:
  14              		.cfi_sections	.debug_frame
  15              		.section	.text.MX_SPI1_Init,"ax",%progbits
  16              		.align	1
  17              		.global	MX_SPI1_Init
  18              		.arch armv6s-m
  19              		.syntax unified
  20              		.code	16
  21              		.thumb_func
  22              		.fpu softvfp
  24              	MX_SPI1_Init:
  25              	.LFB284:
  26              		.file 1 "Src/spi.c"
   1:Src/spi.c     **** /**
   2:Src/spi.c     ****   ******************************************************************************
   3:Src/spi.c     ****   * File Name          : SPI.c
   4:Src/spi.c     ****   * Description        : This file provides code for the configuration
   5:Src/spi.c     ****   *                      of the SPI instances.
   6:Src/spi.c     ****   ******************************************************************************
   7:Src/spi.c     ****   * @attention
   8:Src/spi.c     ****   *
   9:Src/spi.c     ****   * <h2><center>&copy; Copyright (c) 2020 STMicroelectronics.
  10:Src/spi.c     ****   * All rights reserved.</center></h2>
  11:Src/spi.c     ****   *
  12:Src/spi.c     ****   * This software component is licensed by ST under BSD 3-Clause license,
  13:Src/spi.c     ****   * the "License"; You may not use this file except in compliance with the
  14:Src/spi.c     ****   * License. You may obtain a copy of the License at:
  15:Src/spi.c     ****   *                        opensource.org/licenses/BSD-3-Clause
  16:Src/spi.c     ****   *
  17:Src/spi.c     ****   ******************************************************************************
  18:Src/spi.c     ****   */
  19:Src/spi.c     **** 
  20:Src/spi.c     **** /* Includes ------------------------------------------------------------------*/
  21:Src/spi.c     **** #include "spi.h"
  22:Src/spi.c     **** 
  23:Src/spi.c     **** /* USER CODE BEGIN 0 */
  24:Src/spi.c     **** 
  25:Src/spi.c     **** /* USER CODE END 0 */
  26:Src/spi.c     **** 
  27:Src/spi.c     **** SPI_HandleTypeDef hspi1;
  28:Src/spi.c     **** SPI_HandleTypeDef hspi2;
  29:Src/spi.c     **** 
  30:Src/spi.c     **** /* SPI1 init function */
  31:Src/spi.c     **** void MX_SPI1_Init(void)
  32:Src/spi.c     **** {
ARM GAS  C:\Users\matil\AppData\Local\Temp\cceAmpRy.s 			page 2


  27              		.loc 1 32 1 view -0
  28              		.cfi_startproc
  29              		@ args = 0, pretend = 0, frame = 0
  30              		@ frame_needed = 0, uses_anonymous_args = 0
  31 0000 10B5     		push	{r4, lr}
  32              	.LCFI0:
  33              		.cfi_def_cfa_offset 8
  34              		.cfi_offset 4, -8
  35              		.cfi_offset 14, -4
  33:Src/spi.c     **** 
  34:Src/spi.c     ****   hspi1.Instance = SPI1;
  36              		.loc 1 34 3 view .LVU1
  37              		.loc 1 34 18 is_stmt 0 view .LVU2
  38 0002 1248     		ldr	r0, .L4
  39 0004 124B     		ldr	r3, .L4+4
  40 0006 0360     		str	r3, [r0]
  35:Src/spi.c     ****   hspi1.Init.Mode = SPI_MODE_MASTER;
  41              		.loc 1 35 3 is_stmt 1 view .LVU3
  42              		.loc 1 35 19 is_stmt 0 view .LVU4
  43 0008 8223     		movs	r3, #130
  44 000a 5B00     		lsls	r3, r3, #1
  45 000c 4360     		str	r3, [r0, #4]
  36:Src/spi.c     ****   hspi1.Init.Direction = SPI_DIRECTION_2LINES;
  46              		.loc 1 36 3 is_stmt 1 view .LVU5
  47              		.loc 1 36 24 is_stmt 0 view .LVU6
  48 000e 0023     		movs	r3, #0
  49 0010 8360     		str	r3, [r0, #8]
  37:Src/spi.c     ****   hspi1.Init.DataSize = SPI_DATASIZE_8BIT;
  50              		.loc 1 37 3 is_stmt 1 view .LVU7
  51              		.loc 1 37 23 is_stmt 0 view .LVU8
  52 0012 E022     		movs	r2, #224
  53 0014 D200     		lsls	r2, r2, #3
  54 0016 C260     		str	r2, [r0, #12]
  38:Src/spi.c     ****   hspi1.Init.CLKPolarity = SPI_POLARITY_HIGH;
  55              		.loc 1 38 3 is_stmt 1 view .LVU9
  56              		.loc 1 38 26 is_stmt 0 view .LVU10
  57 0018 0222     		movs	r2, #2
  58 001a 0261     		str	r2, [r0, #16]
  39:Src/spi.c     ****   hspi1.Init.CLKPhase = SPI_PHASE_1EDGE;
  59              		.loc 1 39 3 is_stmt 1 view .LVU11
  60              		.loc 1 39 23 is_stmt 0 view .LVU12
  61 001c 4361     		str	r3, [r0, #20]
  40:Src/spi.c     ****   hspi1.Init.NSS = SPI_NSS_SOFT;
  62              		.loc 1 40 3 is_stmt 1 view .LVU13
  63              		.loc 1 40 18 is_stmt 0 view .LVU14
  64 001e FF32     		adds	r2, r2, #255
  65 0020 FF32     		adds	r2, r2, #255
  66 0022 8261     		str	r2, [r0, #24]
  41:Src/spi.c     ****   hspi1.Init.BaudRatePrescaler = SPI_BAUDRATEPRESCALER_128;
  67              		.loc 1 41 3 is_stmt 1 view .LVU15
  68              		.loc 1 41 32 is_stmt 0 view .LVU16
  69 0024 D13A     		subs	r2, r2, #209
  70 0026 FF3A     		subs	r2, r2, #255
  71 0028 C261     		str	r2, [r0, #28]
  42:Src/spi.c     ****   hspi1.Init.FirstBit = SPI_FIRSTBIT_MSB;
  72              		.loc 1 42 3 is_stmt 1 view .LVU17
  73              		.loc 1 42 23 is_stmt 0 view .LVU18
ARM GAS  C:\Users\matil\AppData\Local\Temp\cceAmpRy.s 			page 3


  74 002a 0362     		str	r3, [r0, #32]
  43:Src/spi.c     ****   hspi1.Init.TIMode = SPI_TIMODE_DISABLE;
  75              		.loc 1 43 3 is_stmt 1 view .LVU19
  76              		.loc 1 43 21 is_stmt 0 view .LVU20
  77 002c 4362     		str	r3, [r0, #36]
  44:Src/spi.c     ****   hspi1.Init.CRCCalculation = SPI_CRCCALCULATION_DISABLE;
  78              		.loc 1 44 3 is_stmt 1 view .LVU21
  79              		.loc 1 44 29 is_stmt 0 view .LVU22
  80 002e 8362     		str	r3, [r0, #40]
  45:Src/spi.c     ****   hspi1.Init.CRCPolynomial = 7;
  81              		.loc 1 45 3 is_stmt 1 view .LVU23
  82              		.loc 1 45 28 is_stmt 0 view .LVU24
  83 0030 293A     		subs	r2, r2, #41
  84 0032 C262     		str	r2, [r0, #44]
  46:Src/spi.c     ****   hspi1.Init.CRCLength = SPI_CRC_LENGTH_DATASIZE;
  85              		.loc 1 46 3 is_stmt 1 view .LVU25
  86              		.loc 1 46 24 is_stmt 0 view .LVU26
  87 0034 0363     		str	r3, [r0, #48]
  47:Src/spi.c     ****   hspi1.Init.NSSPMode = SPI_NSS_PULSE_ENABLE;
  88              		.loc 1 47 3 is_stmt 1 view .LVU27
  89              		.loc 1 47 23 is_stmt 0 view .LVU28
  90 0036 0833     		adds	r3, r3, #8
  91 0038 4363     		str	r3, [r0, #52]
  48:Src/spi.c     ****   if (HAL_SPI_Init(&hspi1) != HAL_OK)
  92              		.loc 1 48 3 is_stmt 1 view .LVU29
  93              		.loc 1 48 7 is_stmt 0 view .LVU30
  94 003a FFF7FEFF 		bl	HAL_SPI_Init
  95              	.LVL0:
  96              		.loc 1 48 6 view .LVU31
  97 003e 0028     		cmp	r0, #0
  98 0040 00D1     		bne	.L3
  99              	.L1:
  49:Src/spi.c     ****   {
  50:Src/spi.c     ****     Error_Handler();
  51:Src/spi.c     ****   }
  52:Src/spi.c     **** 
  53:Src/spi.c     **** }
 100              		.loc 1 53 1 view .LVU32
 101              		@ sp needed
 102 0042 10BD     		pop	{r4, pc}
 103              	.L3:
  50:Src/spi.c     ****   }
 104              		.loc 1 50 5 is_stmt 1 view .LVU33
 105 0044 FFF7FEFF 		bl	Error_Handler
 106              	.LVL1:
 107              		.loc 1 53 1 is_stmt 0 view .LVU34
 108 0048 FBE7     		b	.L1
 109              	.L5:
 110 004a C046     		.align	2
 111              	.L4:
 112 004c 00000000 		.word	hspi1
 113 0050 00300140 		.word	1073819648
 114              		.cfi_endproc
 115              	.LFE284:
 117              		.section	.text.MX_SPI2_Init,"ax",%progbits
 118              		.align	1
 119              		.global	MX_SPI2_Init
ARM GAS  C:\Users\matil\AppData\Local\Temp\cceAmpRy.s 			page 4


 120              		.syntax unified
 121              		.code	16
 122              		.thumb_func
 123              		.fpu softvfp
 125              	MX_SPI2_Init:
 126              	.LFB285:
  54:Src/spi.c     **** /* SPI2 init function */
  55:Src/spi.c     **** void MX_SPI2_Init(void)
  56:Src/spi.c     **** {
 127              		.loc 1 56 1 is_stmt 1 view -0
 128              		.cfi_startproc
 129              		@ args = 0, pretend = 0, frame = 0
 130              		@ frame_needed = 0, uses_anonymous_args = 0
 131 0000 10B5     		push	{r4, lr}
 132              	.LCFI1:
 133              		.cfi_def_cfa_offset 8
 134              		.cfi_offset 4, -8
 135              		.cfi_offset 14, -4
  57:Src/spi.c     **** 
  58:Src/spi.c     ****   hspi2.Instance = SPI2;
 136              		.loc 1 58 3 view .LVU36
 137              		.loc 1 58 18 is_stmt 0 view .LVU37
 138 0002 1148     		ldr	r0, .L9
 139 0004 114B     		ldr	r3, .L9+4
 140 0006 0360     		str	r3, [r0]
  59:Src/spi.c     ****   hspi2.Init.Mode = SPI_MODE_MASTER;
 141              		.loc 1 59 3 is_stmt 1 view .LVU38
 142              		.loc 1 59 19 is_stmt 0 view .LVU39
 143 0008 8223     		movs	r3, #130
 144 000a 5B00     		lsls	r3, r3, #1
 145 000c 4360     		str	r3, [r0, #4]
  60:Src/spi.c     ****   hspi2.Init.Direction = SPI_DIRECTION_2LINES;
 146              		.loc 1 60 3 is_stmt 1 view .LVU40
 147              		.loc 1 60 24 is_stmt 0 view .LVU41
 148 000e 0023     		movs	r3, #0
 149 0010 8360     		str	r3, [r0, #8]
  61:Src/spi.c     ****   hspi2.Init.DataSize = SPI_DATASIZE_8BIT;
 150              		.loc 1 61 3 is_stmt 1 view .LVU42
 151              		.loc 1 61 23 is_stmt 0 view .LVU43
 152 0012 E022     		movs	r2, #224
 153 0014 D200     		lsls	r2, r2, #3
 154 0016 C260     		str	r2, [r0, #12]
  62:Src/spi.c     ****   hspi2.Init.CLKPolarity = SPI_POLARITY_LOW;
 155              		.loc 1 62 3 is_stmt 1 view .LVU44
 156              		.loc 1 62 26 is_stmt 0 view .LVU45
 157 0018 0361     		str	r3, [r0, #16]
  63:Src/spi.c     ****   hspi2.Init.CLKPhase = SPI_PHASE_1EDGE;
 158              		.loc 1 63 3 is_stmt 1 view .LVU46
 159              		.loc 1 63 23 is_stmt 0 view .LVU47
 160 001a 4361     		str	r3, [r0, #20]
  64:Src/spi.c     ****   hspi2.Init.NSS = SPI_NSS_SOFT;
 161              		.loc 1 64 3 is_stmt 1 view .LVU48
 162              		.loc 1 64 18 is_stmt 0 view .LVU49
 163 001c 8022     		movs	r2, #128
 164 001e 9200     		lsls	r2, r2, #2
 165 0020 8261     		str	r2, [r0, #24]
  65:Src/spi.c     ****   hspi2.Init.BaudRatePrescaler = SPI_BAUDRATEPRESCALER_128;
ARM GAS  C:\Users\matil\AppData\Local\Temp\cceAmpRy.s 			page 5


 166              		.loc 1 65 3 is_stmt 1 view .LVU50
 167              		.loc 1 65 32 is_stmt 0 view .LVU51
 168 0022 D13A     		subs	r2, r2, #209
 169 0024 FF3A     		subs	r2, r2, #255
 170 0026 C261     		str	r2, [r0, #28]
  66:Src/spi.c     ****   hspi2.Init.FirstBit = SPI_FIRSTBIT_MSB;
 171              		.loc 1 66 3 is_stmt 1 view .LVU52
 172              		.loc 1 66 23 is_stmt 0 view .LVU53
 173 0028 0362     		str	r3, [r0, #32]
  67:Src/spi.c     ****   hspi2.Init.TIMode = SPI_TIMODE_DISABLE;
 174              		.loc 1 67 3 is_stmt 1 view .LVU54
 175              		.loc 1 67 21 is_stmt 0 view .LVU55
 176 002a 4362     		str	r3, [r0, #36]
  68:Src/spi.c     ****   hspi2.Init.CRCCalculation = SPI_CRCCALCULATION_DISABLE;
 177              		.loc 1 68 3 is_stmt 1 view .LVU56
 178              		.loc 1 68 29 is_stmt 0 view .LVU57
 179 002c 8362     		str	r3, [r0, #40]
  69:Src/spi.c     ****   hspi2.Init.CRCPolynomial = 7;
 180              		.loc 1 69 3 is_stmt 1 view .LVU58
 181              		.loc 1 69 28 is_stmt 0 view .LVU59
 182 002e 293A     		subs	r2, r2, #41
 183 0030 C262     		str	r2, [r0, #44]
  70:Src/spi.c     ****   hspi2.Init.CRCLength = SPI_CRC_LENGTH_DATASIZE;
 184              		.loc 1 70 3 is_stmt 1 view .LVU60
 185              		.loc 1 70 24 is_stmt 0 view .LVU61
 186 0032 0363     		str	r3, [r0, #48]
  71:Src/spi.c     ****   hspi2.Init.NSSPMode = SPI_NSS_PULSE_ENABLE;
 187              		.loc 1 71 3 is_stmt 1 view .LVU62
 188              		.loc 1 71 23 is_stmt 0 view .LVU63
 189 0034 0833     		adds	r3, r3, #8
 190 0036 4363     		str	r3, [r0, #52]
  72:Src/spi.c     ****   if (HAL_SPI_Init(&hspi2) != HAL_OK)
 191              		.loc 1 72 3 is_stmt 1 view .LVU64
 192              		.loc 1 72 7 is_stmt 0 view .LVU65
 193 0038 FFF7FEFF 		bl	HAL_SPI_Init
 194              	.LVL2:
 195              		.loc 1 72 6 view .LVU66
 196 003c 0028     		cmp	r0, #0
 197 003e 00D1     		bne	.L8
 198              	.L6:
  73:Src/spi.c     ****   {
  74:Src/spi.c     ****     Error_Handler();
  75:Src/spi.c     ****   }
  76:Src/spi.c     **** 
  77:Src/spi.c     **** }
 199              		.loc 1 77 1 view .LVU67
 200              		@ sp needed
 201 0040 10BD     		pop	{r4, pc}
 202              	.L8:
  74:Src/spi.c     ****   }
 203              		.loc 1 74 5 is_stmt 1 view .LVU68
 204 0042 FFF7FEFF 		bl	Error_Handler
 205              	.LVL3:
 206              		.loc 1 77 1 is_stmt 0 view .LVU69
 207 0046 FBE7     		b	.L6
 208              	.L10:
 209              		.align	2
ARM GAS  C:\Users\matil\AppData\Local\Temp\cceAmpRy.s 			page 6


 210              	.L9:
 211 0048 00000000 		.word	hspi2
 212 004c 00380040 		.word	1073756160
 213              		.cfi_endproc
 214              	.LFE285:
 216              		.section	.text.HAL_SPI_MspInit,"ax",%progbits
 217              		.align	1
 218              		.global	HAL_SPI_MspInit
 219              		.syntax unified
 220              		.code	16
 221              		.thumb_func
 222              		.fpu softvfp
 224              	HAL_SPI_MspInit:
 225              	.LVL4:
 226              	.LFB286:
  78:Src/spi.c     **** 
  79:Src/spi.c     **** void HAL_SPI_MspInit(SPI_HandleTypeDef* spiHandle)
  80:Src/spi.c     **** {
 227              		.loc 1 80 1 is_stmt 1 view -0
 228              		.cfi_startproc
 229              		@ args = 0, pretend = 0, frame = 40
 230              		@ frame_needed = 0, uses_anonymous_args = 0
 231              		.loc 1 80 1 is_stmt 0 view .LVU71
 232 0000 70B5     		push	{r4, r5, r6, lr}
 233              	.LCFI2:
 234              		.cfi_def_cfa_offset 16
 235              		.cfi_offset 4, -16
 236              		.cfi_offset 5, -12
 237              		.cfi_offset 6, -8
 238              		.cfi_offset 14, -4
 239 0002 8AB0     		sub	sp, sp, #40
 240              	.LCFI3:
 241              		.cfi_def_cfa_offset 56
 242 0004 0400     		movs	r4, r0
  81:Src/spi.c     **** 
  82:Src/spi.c     ****   GPIO_InitTypeDef GPIO_InitStruct = {0};
 243              		.loc 1 82 3 is_stmt 1 view .LVU72
 244              		.loc 1 82 20 is_stmt 0 view .LVU73
 245 0006 1422     		movs	r2, #20
 246 0008 0021     		movs	r1, #0
 247 000a 05A8     		add	r0, sp, #20
 248              	.LVL5:
 249              		.loc 1 82 20 view .LVU74
 250 000c FFF7FEFF 		bl	memset
 251              	.LVL6:
  83:Src/spi.c     ****   if(spiHandle->Instance==SPI1)
 252              		.loc 1 83 3 is_stmt 1 view .LVU75
 253              		.loc 1 83 15 is_stmt 0 view .LVU76
 254 0010 2368     		ldr	r3, [r4]
 255              		.loc 1 83 5 view .LVU77
 256 0012 2D4A     		ldr	r2, .L16
 257 0014 9342     		cmp	r3, r2
 258 0016 04D0     		beq	.L14
  84:Src/spi.c     ****   {
  85:Src/spi.c     ****   /* USER CODE BEGIN SPI1_MspInit 0 */
  86:Src/spi.c     **** 
  87:Src/spi.c     ****   /* USER CODE END SPI1_MspInit 0 */
ARM GAS  C:\Users\matil\AppData\Local\Temp\cceAmpRy.s 			page 7


  88:Src/spi.c     ****     /* SPI1 clock enable */
  89:Src/spi.c     ****     __HAL_RCC_SPI1_CLK_ENABLE();
  90:Src/spi.c     ****   
  91:Src/spi.c     ****     __HAL_RCC_GPIOB_CLK_ENABLE();
  92:Src/spi.c     ****     /**SPI1 GPIO Configuration    
  93:Src/spi.c     ****     PB3     ------> SPI1_SCK
  94:Src/spi.c     ****     PB4     ------> SPI1_MISO
  95:Src/spi.c     ****     PB5     ------> SPI1_MOSI 
  96:Src/spi.c     ****     */
  97:Src/spi.c     ****     GPIO_InitStruct.Pin = DAC_SCK_Pin|DAC_MISO_Pin|DAC_MOSI_Pin;
  98:Src/spi.c     ****     GPIO_InitStruct.Mode = GPIO_MODE_AF_PP;
  99:Src/spi.c     ****     GPIO_InitStruct.Pull = GPIO_NOPULL;
 100:Src/spi.c     ****     GPIO_InitStruct.Speed = GPIO_SPEED_FREQ_LOW;
 101:Src/spi.c     ****     GPIO_InitStruct.Alternate = GPIO_AF0_SPI1;
 102:Src/spi.c     ****     HAL_GPIO_Init(GPIOB, &GPIO_InitStruct);
 103:Src/spi.c     **** 
 104:Src/spi.c     ****   /* USER CODE BEGIN SPI1_MspInit 1 */
 105:Src/spi.c     **** 
 106:Src/spi.c     ****   /* USER CODE END SPI1_MspInit 1 */
 107:Src/spi.c     ****   }
 108:Src/spi.c     ****   else if(spiHandle->Instance==SPI2)
 259              		.loc 1 108 8 is_stmt 1 view .LVU78
 260              		.loc 1 108 10 is_stmt 0 view .LVU79
 261 0018 2C4A     		ldr	r2, .L16+4
 262 001a 9342     		cmp	r3, r2
 263 001c 1FD0     		beq	.L15
 264              	.LVL7:
 265              	.L11:
 109:Src/spi.c     ****   {
 110:Src/spi.c     ****   /* USER CODE BEGIN SPI2_MspInit 0 */
 111:Src/spi.c     **** 
 112:Src/spi.c     ****   /* USER CODE END SPI2_MspInit 0 */
 113:Src/spi.c     ****     /* SPI2 clock enable */
 114:Src/spi.c     ****     __HAL_RCC_SPI2_CLK_ENABLE();
 115:Src/spi.c     ****   
 116:Src/spi.c     ****     __HAL_RCC_GPIOB_CLK_ENABLE();
 117:Src/spi.c     ****     /**SPI2 GPIO Configuration    
 118:Src/spi.c     ****     PB6     ------> SPI2_MISO
 119:Src/spi.c     ****     PB7     ------> SPI2_MOSI
 120:Src/spi.c     ****     PB8     ------> SPI2_SCK 
 121:Src/spi.c     ****     */
 122:Src/spi.c     ****     GPIO_InitStruct.Pin = ADC_MISO_Pin;
 123:Src/spi.c     ****     GPIO_InitStruct.Mode = GPIO_MODE_AF_PP;
 124:Src/spi.c     ****     GPIO_InitStruct.Pull = GPIO_NOPULL;
 125:Src/spi.c     ****     GPIO_InitStruct.Speed = GPIO_SPEED_FREQ_LOW;
 126:Src/spi.c     ****     GPIO_InitStruct.Alternate = GPIO_AF4_SPI2;
 127:Src/spi.c     ****     HAL_GPIO_Init(ADC_MISO_GPIO_Port, &GPIO_InitStruct);
 128:Src/spi.c     **** 
 129:Src/spi.c     ****     GPIO_InitStruct.Pin = ADC_MOSI_Pin|ADC_SCK_Pin;
 130:Src/spi.c     ****     GPIO_InitStruct.Mode = GPIO_MODE_AF_PP;
 131:Src/spi.c     ****     GPIO_InitStruct.Pull = GPIO_NOPULL;
 132:Src/spi.c     ****     GPIO_InitStruct.Speed = GPIO_SPEED_FREQ_LOW;
 133:Src/spi.c     ****     GPIO_InitStruct.Alternate = GPIO_AF1_SPI2;
 134:Src/spi.c     ****     HAL_GPIO_Init(GPIOB, &GPIO_InitStruct);
 135:Src/spi.c     **** 
 136:Src/spi.c     ****     /* SPI2 interrupt Init */
 137:Src/spi.c     ****     HAL_NVIC_SetPriority(SPI2_IRQn, 0, 0);
ARM GAS  C:\Users\matil\AppData\Local\Temp\cceAmpRy.s 			page 8


 138:Src/spi.c     ****     HAL_NVIC_EnableIRQ(SPI2_IRQn);
 139:Src/spi.c     ****   /* USER CODE BEGIN SPI2_MspInit 1 */
 140:Src/spi.c     **** 
 141:Src/spi.c     ****   /* USER CODE END SPI2_MspInit 1 */
 142:Src/spi.c     ****   }
 143:Src/spi.c     **** }
 266              		.loc 1 143 1 view .LVU80
 267 001e 0AB0     		add	sp, sp, #40
 268              		@ sp needed
 269 0020 70BD     		pop	{r4, r5, r6, pc}
 270              	.LVL8:
 271              	.L14:
  89:Src/spi.c     ****   
 272              		.loc 1 89 5 is_stmt 1 view .LVU81
 273              	.LBB2:
  89:Src/spi.c     ****   
 274              		.loc 1 89 5 view .LVU82
  89:Src/spi.c     ****   
 275              		.loc 1 89 5 view .LVU83
 276 0022 2B4B     		ldr	r3, .L16+8
 277 0024 196C     		ldr	r1, [r3, #64]
 278 0026 8020     		movs	r0, #128
 279 0028 4001     		lsls	r0, r0, #5
 280 002a 0143     		orrs	r1, r0
 281 002c 1964     		str	r1, [r3, #64]
  89:Src/spi.c     ****   
 282              		.loc 1 89 5 view .LVU84
 283 002e 1A6C     		ldr	r2, [r3, #64]
 284 0030 0240     		ands	r2, r0
 285 0032 0192     		str	r2, [sp, #4]
  89:Src/spi.c     ****   
 286              		.loc 1 89 5 view .LVU85
 287 0034 019A     		ldr	r2, [sp, #4]
 288              	.LBE2:
  89:Src/spi.c     ****   
 289              		.loc 1 89 5 view .LVU86
  91:Src/spi.c     ****     /**SPI1 GPIO Configuration    
 290              		.loc 1 91 5 view .LVU87
 291              	.LBB3:
  91:Src/spi.c     ****     /**SPI1 GPIO Configuration    
 292              		.loc 1 91 5 view .LVU88
  91:Src/spi.c     ****     /**SPI1 GPIO Configuration    
 293              		.loc 1 91 5 view .LVU89
 294 0036 596B     		ldr	r1, [r3, #52]
 295 0038 0222     		movs	r2, #2
 296 003a 1143     		orrs	r1, r2
 297 003c 5963     		str	r1, [r3, #52]
  91:Src/spi.c     ****     /**SPI1 GPIO Configuration    
 298              		.loc 1 91 5 view .LVU90
 299 003e 5B6B     		ldr	r3, [r3, #52]
 300 0040 1340     		ands	r3, r2
 301 0042 0293     		str	r3, [sp, #8]
  91:Src/spi.c     ****     /**SPI1 GPIO Configuration    
 302              		.loc 1 91 5 view .LVU91
 303 0044 029B     		ldr	r3, [sp, #8]
 304              	.LBE3:
  91:Src/spi.c     ****     /**SPI1 GPIO Configuration    
ARM GAS  C:\Users\matil\AppData\Local\Temp\cceAmpRy.s 			page 9


 305              		.loc 1 91 5 view .LVU92
  97:Src/spi.c     ****     GPIO_InitStruct.Mode = GPIO_MODE_AF_PP;
 306              		.loc 1 97 5 view .LVU93
  97:Src/spi.c     ****     GPIO_InitStruct.Mode = GPIO_MODE_AF_PP;
 307              		.loc 1 97 25 is_stmt 0 view .LVU94
 308 0046 3823     		movs	r3, #56
 309 0048 0593     		str	r3, [sp, #20]
  98:Src/spi.c     ****     GPIO_InitStruct.Pull = GPIO_NOPULL;
 310              		.loc 1 98 5 is_stmt 1 view .LVU95
  98:Src/spi.c     ****     GPIO_InitStruct.Pull = GPIO_NOPULL;
 311              		.loc 1 98 26 is_stmt 0 view .LVU96
 312 004a 0692     		str	r2, [sp, #24]
  99:Src/spi.c     ****     GPIO_InitStruct.Speed = GPIO_SPEED_FREQ_LOW;
 313              		.loc 1 99 5 is_stmt 1 view .LVU97
  99:Src/spi.c     ****     GPIO_InitStruct.Speed = GPIO_SPEED_FREQ_LOW;
 314              		.loc 1 99 26 is_stmt 0 view .LVU98
 315 004c 0023     		movs	r3, #0
 316 004e 0793     		str	r3, [sp, #28]
 100:Src/spi.c     ****     GPIO_InitStruct.Alternate = GPIO_AF0_SPI1;
 317              		.loc 1 100 5 is_stmt 1 view .LVU99
 100:Src/spi.c     ****     GPIO_InitStruct.Alternate = GPIO_AF0_SPI1;
 318              		.loc 1 100 27 is_stmt 0 view .LVU100
 319 0050 0893     		str	r3, [sp, #32]
 101:Src/spi.c     ****     HAL_GPIO_Init(GPIOB, &GPIO_InitStruct);
 320              		.loc 1 101 5 is_stmt 1 view .LVU101
 101:Src/spi.c     ****     HAL_GPIO_Init(GPIOB, &GPIO_InitStruct);
 321              		.loc 1 101 31 is_stmt 0 view .LVU102
 322 0052 0993     		str	r3, [sp, #36]
 102:Src/spi.c     **** 
 323              		.loc 1 102 5 is_stmt 1 view .LVU103
 324 0054 05A9     		add	r1, sp, #20
 325 0056 1F48     		ldr	r0, .L16+12
 326 0058 FFF7FEFF 		bl	HAL_GPIO_Init
 327              	.LVL9:
 328 005c DFE7     		b	.L11
 329              	.L15:
 114:Src/spi.c     ****   
 330              		.loc 1 114 5 view .LVU104
 331              	.LBB4:
 114:Src/spi.c     ****   
 332              		.loc 1 114 5 view .LVU105
 114:Src/spi.c     ****   
 333              		.loc 1 114 5 view .LVU106
 334 005e 1C4B     		ldr	r3, .L16+8
 335 0060 D96B     		ldr	r1, [r3, #60]
 336 0062 8020     		movs	r0, #128
 337 0064 C001     		lsls	r0, r0, #7
 338 0066 0143     		orrs	r1, r0
 339 0068 D963     		str	r1, [r3, #60]
 114:Src/spi.c     ****   
 340              		.loc 1 114 5 view .LVU107
 341 006a DA6B     		ldr	r2, [r3, #60]
 342 006c 0240     		ands	r2, r0
 343 006e 0392     		str	r2, [sp, #12]
 114:Src/spi.c     ****   
 344              		.loc 1 114 5 view .LVU108
 345 0070 039A     		ldr	r2, [sp, #12]
ARM GAS  C:\Users\matil\AppData\Local\Temp\cceAmpRy.s 			page 10


 346              	.LBE4:
 114:Src/spi.c     ****   
 347              		.loc 1 114 5 view .LVU109
 116:Src/spi.c     ****     /**SPI2 GPIO Configuration    
 348              		.loc 1 116 5 view .LVU110
 349              	.LBB5:
 116:Src/spi.c     ****     /**SPI2 GPIO Configuration    
 350              		.loc 1 116 5 view .LVU111
 116:Src/spi.c     ****     /**SPI2 GPIO Configuration    
 351              		.loc 1 116 5 view .LVU112
 352 0072 5A6B     		ldr	r2, [r3, #52]
 353 0074 0225     		movs	r5, #2
 354 0076 2A43     		orrs	r2, r5
 355 0078 5A63     		str	r2, [r3, #52]
 116:Src/spi.c     ****     /**SPI2 GPIO Configuration    
 356              		.loc 1 116 5 view .LVU113
 357 007a 5B6B     		ldr	r3, [r3, #52]
 358 007c 2B40     		ands	r3, r5
 359 007e 0493     		str	r3, [sp, #16]
 116:Src/spi.c     ****     /**SPI2 GPIO Configuration    
 360              		.loc 1 116 5 view .LVU114
 361 0080 049B     		ldr	r3, [sp, #16]
 362              	.LBE5:
 116:Src/spi.c     ****     /**SPI2 GPIO Configuration    
 363              		.loc 1 116 5 view .LVU115
 122:Src/spi.c     ****     GPIO_InitStruct.Mode = GPIO_MODE_AF_PP;
 364              		.loc 1 122 5 view .LVU116
 122:Src/spi.c     ****     GPIO_InitStruct.Mode = GPIO_MODE_AF_PP;
 365              		.loc 1 122 25 is_stmt 0 view .LVU117
 366 0082 4023     		movs	r3, #64
 367 0084 0593     		str	r3, [sp, #20]
 123:Src/spi.c     ****     GPIO_InitStruct.Pull = GPIO_NOPULL;
 368              		.loc 1 123 5 is_stmt 1 view .LVU118
 123:Src/spi.c     ****     GPIO_InitStruct.Pull = GPIO_NOPULL;
 369              		.loc 1 123 26 is_stmt 0 view .LVU119
 370 0086 0695     		str	r5, [sp, #24]
 124:Src/spi.c     ****     GPIO_InitStruct.Speed = GPIO_SPEED_FREQ_LOW;
 371              		.loc 1 124 5 is_stmt 1 view .LVU120
 124:Src/spi.c     ****     GPIO_InitStruct.Speed = GPIO_SPEED_FREQ_LOW;
 372              		.loc 1 124 26 is_stmt 0 view .LVU121
 373 0088 0024     		movs	r4, #0
 374              	.LVL10:
 124:Src/spi.c     ****     GPIO_InitStruct.Speed = GPIO_SPEED_FREQ_LOW;
 375              		.loc 1 124 26 view .LVU122
 376 008a 0794     		str	r4, [sp, #28]
 125:Src/spi.c     ****     GPIO_InitStruct.Alternate = GPIO_AF4_SPI2;
 377              		.loc 1 125 5 is_stmt 1 view .LVU123
 125:Src/spi.c     ****     GPIO_InitStruct.Alternate = GPIO_AF4_SPI2;
 378              		.loc 1 125 27 is_stmt 0 view .LVU124
 379 008c 0894     		str	r4, [sp, #32]
 126:Src/spi.c     ****     HAL_GPIO_Init(ADC_MISO_GPIO_Port, &GPIO_InitStruct);
 380              		.loc 1 126 5 is_stmt 1 view .LVU125
 126:Src/spi.c     ****     HAL_GPIO_Init(ADC_MISO_GPIO_Port, &GPIO_InitStruct);
 381              		.loc 1 126 31 is_stmt 0 view .LVU126
 382 008e 3C3B     		subs	r3, r3, #60
 383 0090 0993     		str	r3, [sp, #36]
 127:Src/spi.c     **** 
ARM GAS  C:\Users\matil\AppData\Local\Temp\cceAmpRy.s 			page 11


 384              		.loc 1 127 5 is_stmt 1 view .LVU127
 385 0092 104E     		ldr	r6, .L16+12
 386 0094 05A9     		add	r1, sp, #20
 387 0096 3000     		movs	r0, r6
 388 0098 FFF7FEFF 		bl	HAL_GPIO_Init
 389              	.LVL11:
 129:Src/spi.c     ****     GPIO_InitStruct.Mode = GPIO_MODE_AF_PP;
 390              		.loc 1 129 5 view .LVU128
 129:Src/spi.c     ****     GPIO_InitStruct.Mode = GPIO_MODE_AF_PP;
 391              		.loc 1 129 25 is_stmt 0 view .LVU129
 392 009c C023     		movs	r3, #192
 393 009e 5B00     		lsls	r3, r3, #1
 394 00a0 0593     		str	r3, [sp, #20]
 130:Src/spi.c     ****     GPIO_InitStruct.Pull = GPIO_NOPULL;
 395              		.loc 1 130 5 is_stmt 1 view .LVU130
 130:Src/spi.c     ****     GPIO_InitStruct.Pull = GPIO_NOPULL;
 396              		.loc 1 130 26 is_stmt 0 view .LVU131
 397 00a2 0695     		str	r5, [sp, #24]
 131:Src/spi.c     ****     GPIO_InitStruct.Speed = GPIO_SPEED_FREQ_LOW;
 398              		.loc 1 131 5 is_stmt 1 view .LVU132
 131:Src/spi.c     ****     GPIO_InitStruct.Speed = GPIO_SPEED_FREQ_LOW;
 399              		.loc 1 131 26 is_stmt 0 view .LVU133
 400 00a4 0794     		str	r4, [sp, #28]
 132:Src/spi.c     ****     GPIO_InitStruct.Alternate = GPIO_AF1_SPI2;
 401              		.loc 1 132 5 is_stmt 1 view .LVU134
 132:Src/spi.c     ****     GPIO_InitStruct.Alternate = GPIO_AF1_SPI2;
 402              		.loc 1 132 27 is_stmt 0 view .LVU135
 403 00a6 0894     		str	r4, [sp, #32]
 133:Src/spi.c     ****     HAL_GPIO_Init(GPIOB, &GPIO_InitStruct);
 404              		.loc 1 133 5 is_stmt 1 view .LVU136
 133:Src/spi.c     ****     HAL_GPIO_Init(GPIOB, &GPIO_InitStruct);
 405              		.loc 1 133 31 is_stmt 0 view .LVU137
 406 00a8 803B     		subs	r3, r3, #128
 407 00aa FF3B     		subs	r3, r3, #255
 408 00ac 0993     		str	r3, [sp, #36]
 134:Src/spi.c     **** 
 409              		.loc 1 134 5 is_stmt 1 view .LVU138
 410 00ae 05A9     		add	r1, sp, #20
 411 00b0 3000     		movs	r0, r6
 412 00b2 FFF7FEFF 		bl	HAL_GPIO_Init
 413              	.LVL12:
 137:Src/spi.c     ****     HAL_NVIC_EnableIRQ(SPI2_IRQn);
 414              		.loc 1 137 5 view .LVU139
 415 00b6 0022     		movs	r2, #0
 416 00b8 0021     		movs	r1, #0
 417 00ba 1A20     		movs	r0, #26
 418 00bc FFF7FEFF 		bl	HAL_NVIC_SetPriority
 419              	.LVL13:
 138:Src/spi.c     ****   /* USER CODE BEGIN SPI2_MspInit 1 */
 420              		.loc 1 138 5 view .LVU140
 421 00c0 1A20     		movs	r0, #26
 422 00c2 FFF7FEFF 		bl	HAL_NVIC_EnableIRQ
 423              	.LVL14:
 424              		.loc 1 143 1 is_stmt 0 view .LVU141
 425 00c6 AAE7     		b	.L11
 426              	.L17:
 427              		.align	2
ARM GAS  C:\Users\matil\AppData\Local\Temp\cceAmpRy.s 			page 12


 428              	.L16:
 429 00c8 00300140 		.word	1073819648
 430 00cc 00380040 		.word	1073756160
 431 00d0 00100240 		.word	1073876992
 432 00d4 00040050 		.word	1342178304
 433              		.cfi_endproc
 434              	.LFE286:
 436              		.section	.text.HAL_SPI_MspDeInit,"ax",%progbits
 437              		.align	1
 438              		.global	HAL_SPI_MspDeInit
 439              		.syntax unified
 440              		.code	16
 441              		.thumb_func
 442              		.fpu softvfp
 444              	HAL_SPI_MspDeInit:
 445              	.LVL15:
 446              	.LFB287:
 144:Src/spi.c     **** 
 145:Src/spi.c     **** void HAL_SPI_MspDeInit(SPI_HandleTypeDef* spiHandle)
 146:Src/spi.c     **** {
 447              		.loc 1 146 1 is_stmt 1 view -0
 448              		.cfi_startproc
 449              		@ args = 0, pretend = 0, frame = 0
 450              		@ frame_needed = 0, uses_anonymous_args = 0
 451              		.loc 1 146 1 is_stmt 0 view .LVU143
 452 0000 10B5     		push	{r4, lr}
 453              	.LCFI4:
 454              		.cfi_def_cfa_offset 8
 455              		.cfi_offset 4, -8
 456              		.cfi_offset 14, -4
 147:Src/spi.c     **** 
 148:Src/spi.c     ****   if(spiHandle->Instance==SPI1)
 457              		.loc 1 148 3 is_stmt 1 view .LVU144
 458              		.loc 1 148 15 is_stmt 0 view .LVU145
 459 0002 0368     		ldr	r3, [r0]
 460              		.loc 1 148 5 view .LVU146
 461 0004 0F4A     		ldr	r2, .L23
 462 0006 9342     		cmp	r3, r2
 463 0008 03D0     		beq	.L21
 149:Src/spi.c     ****   {
 150:Src/spi.c     ****   /* USER CODE BEGIN SPI1_MspDeInit 0 */
 151:Src/spi.c     **** 
 152:Src/spi.c     ****   /* USER CODE END SPI1_MspDeInit 0 */
 153:Src/spi.c     ****     /* Peripheral clock disable */
 154:Src/spi.c     ****     __HAL_RCC_SPI1_CLK_DISABLE();
 155:Src/spi.c     ****   
 156:Src/spi.c     ****     /**SPI1 GPIO Configuration    
 157:Src/spi.c     ****     PB3     ------> SPI1_SCK
 158:Src/spi.c     ****     PB4     ------> SPI1_MISO
 159:Src/spi.c     ****     PB5     ------> SPI1_MOSI 
 160:Src/spi.c     ****     */
 161:Src/spi.c     ****     HAL_GPIO_DeInit(GPIOB, DAC_SCK_Pin|DAC_MISO_Pin|DAC_MOSI_Pin);
 162:Src/spi.c     **** 
 163:Src/spi.c     ****   /* USER CODE BEGIN SPI1_MspDeInit 1 */
 164:Src/spi.c     **** 
 165:Src/spi.c     ****   /* USER CODE END SPI1_MspDeInit 1 */
 166:Src/spi.c     ****   }
ARM GAS  C:\Users\matil\AppData\Local\Temp\cceAmpRy.s 			page 13


 167:Src/spi.c     ****   else if(spiHandle->Instance==SPI2)
 464              		.loc 1 167 8 is_stmt 1 view .LVU147
 465              		.loc 1 167 10 is_stmt 0 view .LVU148
 466 000a 0F4A     		ldr	r2, .L23+4
 467 000c 9342     		cmp	r3, r2
 468 000e 0AD0     		beq	.L22
 469              	.LVL16:
 470              	.L18:
 168:Src/spi.c     ****   {
 169:Src/spi.c     ****   /* USER CODE BEGIN SPI2_MspDeInit 0 */
 170:Src/spi.c     **** 
 171:Src/spi.c     ****   /* USER CODE END SPI2_MspDeInit 0 */
 172:Src/spi.c     ****     /* Peripheral clock disable */
 173:Src/spi.c     ****     __HAL_RCC_SPI2_CLK_DISABLE();
 174:Src/spi.c     ****   
 175:Src/spi.c     ****     /**SPI2 GPIO Configuration    
 176:Src/spi.c     ****     PB6     ------> SPI2_MISO
 177:Src/spi.c     ****     PB7     ------> SPI2_MOSI
 178:Src/spi.c     ****     PB8     ------> SPI2_SCK 
 179:Src/spi.c     ****     */
 180:Src/spi.c     ****     HAL_GPIO_DeInit(GPIOB, ADC_MISO_Pin|ADC_MOSI_Pin|ADC_SCK_Pin);
 181:Src/spi.c     **** 
 182:Src/spi.c     ****     /* SPI2 interrupt Deinit */
 183:Src/spi.c     ****     HAL_NVIC_DisableIRQ(SPI2_IRQn);
 184:Src/spi.c     ****   /* USER CODE BEGIN SPI2_MspDeInit 1 */
 185:Src/spi.c     **** 
 186:Src/spi.c     ****   /* USER CODE END SPI2_MspDeInit 1 */
 187:Src/spi.c     ****   }
 188:Src/spi.c     **** } 
 471              		.loc 1 188 1 view .LVU149
 472              		@ sp needed
 473 0010 10BD     		pop	{r4, pc}
 474              	.LVL17:
 475              	.L21:
 154:Src/spi.c     ****   
 476              		.loc 1 154 5 is_stmt 1 view .LVU150
 477 0012 0E4A     		ldr	r2, .L23+8
 478 0014 136C     		ldr	r3, [r2, #64]
 479 0016 0E49     		ldr	r1, .L23+12
 480 0018 0B40     		ands	r3, r1
 481 001a 1364     		str	r3, [r2, #64]
 161:Src/spi.c     **** 
 482              		.loc 1 161 5 view .LVU151
 483 001c 3821     		movs	r1, #56
 484 001e 0D48     		ldr	r0, .L23+16
 485              	.LVL18:
 161:Src/spi.c     **** 
 486              		.loc 1 161 5 is_stmt 0 view .LVU152
 487 0020 FFF7FEFF 		bl	HAL_GPIO_DeInit
 488              	.LVL19:
 489 0024 F4E7     		b	.L18
 490              	.LVL20:
 491              	.L22:
 173:Src/spi.c     ****   
 492              		.loc 1 173 5 is_stmt 1 view .LVU153
 493 0026 094A     		ldr	r2, .L23+8
 494 0028 D36B     		ldr	r3, [r2, #60]
ARM GAS  C:\Users\matil\AppData\Local\Temp\cceAmpRy.s 			page 14


 495 002a 0B49     		ldr	r1, .L23+20
 496 002c 0B40     		ands	r3, r1
 497 002e D363     		str	r3, [r2, #60]
 180:Src/spi.c     **** 
 498              		.loc 1 180 5 view .LVU154
 499 0030 E021     		movs	r1, #224
 500 0032 4900     		lsls	r1, r1, #1
 501 0034 0748     		ldr	r0, .L23+16
 502              	.LVL21:
 180:Src/spi.c     **** 
 503              		.loc 1 180 5 is_stmt 0 view .LVU155
 504 0036 FFF7FEFF 		bl	HAL_GPIO_DeInit
 505              	.LVL22:
 183:Src/spi.c     ****   /* USER CODE BEGIN SPI2_MspDeInit 1 */
 506              		.loc 1 183 5 is_stmt 1 view .LVU156
 507 003a 1A20     		movs	r0, #26
 508 003c FFF7FEFF 		bl	HAL_NVIC_DisableIRQ
 509              	.LVL23:
 510              		.loc 1 188 1 is_stmt 0 view .LVU157
 511 0040 E6E7     		b	.L18
 512              	.L24:
 513 0042 C046     		.align	2
 514              	.L23:
 515 0044 00300140 		.word	1073819648
 516 0048 00380040 		.word	1073756160
 517 004c 00100240 		.word	1073876992
 518 0050 FFEFFFFF 		.word	-4097
 519 0054 00040050 		.word	1342178304
 520 0058 FFBFFFFF 		.word	-16385
 521              		.cfi_endproc
 522              	.LFE287:
 524              		.section	.text.ADC_DATA_READY_EXTI_Init,"ax",%progbits
 525              		.align	1
 526              		.global	ADC_DATA_READY_EXTI_Init
 527              		.syntax unified
 528              		.code	16
 529              		.thumb_func
 530              		.fpu softvfp
 532              	ADC_DATA_READY_EXTI_Init:
 533              	.LFB288:
 189:Src/spi.c     **** 
 190:Src/spi.c     **** /* USER CODE BEGIN 1 */
 191:Src/spi.c     **** void ADC_DATA_READY_EXTI_Init()
 192:Src/spi.c     **** {
 534              		.loc 1 192 1 is_stmt 1 view -0
 535              		.cfi_startproc
 536              		@ args = 0, pretend = 0, frame = 24
 537              		@ frame_needed = 0, uses_anonymous_args = 0
 538 0000 00B5     		push	{lr}
 539              	.LCFI5:
 540              		.cfi_def_cfa_offset 4
 541              		.cfi_offset 14, -4
 542 0002 87B0     		sub	sp, sp, #28
 543              	.LCFI6:
 544              		.cfi_def_cfa_offset 32
 193:Src/spi.c     ****   GPIO_InitTypeDef GPIO_InitStruct = {0};
 545              		.loc 1 193 3 view .LVU159
ARM GAS  C:\Users\matil\AppData\Local\Temp\cceAmpRy.s 			page 15


 546              		.loc 1 193 20 is_stmt 0 view .LVU160
 547 0004 0022     		movs	r2, #0
 548 0006 0592     		str	r2, [sp, #20]
 194:Src/spi.c     ****   __HAL_RCC_GPIOB_CLK_ENABLE();
 549              		.loc 1 194 3 is_stmt 1 view .LVU161
 550              	.LBB6:
 551              		.loc 1 194 3 view .LVU162
 552              		.loc 1 194 3 view .LVU163
 553 0008 0E49     		ldr	r1, .L26
 554 000a 486B     		ldr	r0, [r1, #52]
 555 000c 0223     		movs	r3, #2
 556 000e 1843     		orrs	r0, r3
 557 0010 4863     		str	r0, [r1, #52]
 558              		.loc 1 194 3 view .LVU164
 559 0012 496B     		ldr	r1, [r1, #52]
 560 0014 0B40     		ands	r3, r1
 561 0016 0093     		str	r3, [sp]
 562              		.loc 1 194 3 view .LVU165
 563 0018 009B     		ldr	r3, [sp]
 564              	.LBE6:
 565              		.loc 1 194 3 view .LVU166
 195:Src/spi.c     ****   GPIO_InitStruct.Pin = ADC_MISO_Pin;
 566              		.loc 1 195 3 view .LVU167
 567              		.loc 1 195 23 is_stmt 0 view .LVU168
 568 001a 4023     		movs	r3, #64
 569 001c 0193     		str	r3, [sp, #4]
 196:Src/spi.c     ****   GPIO_InitStruct.Mode = GPIO_MODE_IT_FALLING;
 570              		.loc 1 196 3 is_stmt 1 view .LVU169
 571              		.loc 1 196 24 is_stmt 0 view .LVU170
 572 001e 0A4B     		ldr	r3, .L26+4
 573 0020 0293     		str	r3, [sp, #8]
 197:Src/spi.c     ****   GPIO_InitStruct.Pull = GPIO_NOPULL;
 574              		.loc 1 197 3 is_stmt 1 view .LVU171
 575              		.loc 1 197 24 is_stmt 0 view .LVU172
 576 0022 0392     		str	r2, [sp, #12]
 198:Src/spi.c     ****   GPIO_InitStruct.Speed = GPIO_SPEED_FREQ_LOW;
 577              		.loc 1 198 3 is_stmt 1 view .LVU173
 578              		.loc 1 198 25 is_stmt 0 view .LVU174
 579 0024 0492     		str	r2, [sp, #16]
 199:Src/spi.c     ****   HAL_GPIO_Init(GPIOB, &GPIO_InitStruct);
 580              		.loc 1 199 3 is_stmt 1 view .LVU175
 581 0026 01A9     		add	r1, sp, #4
 582 0028 0848     		ldr	r0, .L26+8
 583 002a FFF7FEFF 		bl	HAL_GPIO_Init
 584              	.LVL24:
 200:Src/spi.c     ****   HAL_NVIC_SetPriority(EXTI4_15_IRQn, 5, 5);
 585              		.loc 1 200 3 view .LVU176
 586 002e 0522     		movs	r2, #5
 587 0030 0521     		movs	r1, #5
 588 0032 0720     		movs	r0, #7
 589 0034 FFF7FEFF 		bl	HAL_NVIC_SetPriority
 590              	.LVL25:
 201:Src/spi.c     ****   HAL_NVIC_EnableIRQ(EXTI4_15_IRQn);
 591              		.loc 1 201 3 view .LVU177
 592 0038 0720     		movs	r0, #7
 593 003a FFF7FEFF 		bl	HAL_NVIC_EnableIRQ
 594              	.LVL26:
ARM GAS  C:\Users\matil\AppData\Local\Temp\cceAmpRy.s 			page 16


 202:Src/spi.c     **** }
 595              		.loc 1 202 1 is_stmt 0 view .LVU178
 596 003e 07B0     		add	sp, sp, #28
 597              		@ sp needed
 598 0040 00BD     		pop	{pc}
 599              	.L27:
 600 0042 C046     		.align	2
 601              	.L26:
 602 0044 00100240 		.word	1073876992
 603 0048 00002110 		.word	270598144
 604 004c 00040050 		.word	1342178304
 605              		.cfi_endproc
 606              	.LFE288:
 608              		.section	.text.ADC_DATA_READY_EXTI_deInit,"ax",%progbits
 609              		.align	1
 610              		.global	ADC_DATA_READY_EXTI_deInit
 611              		.syntax unified
 612              		.code	16
 613              		.thumb_func
 614              		.fpu softvfp
 616              	ADC_DATA_READY_EXTI_deInit:
 617              	.LFB289:
 203:Src/spi.c     **** void ADC_DATA_READY_EXTI_deInit()
 204:Src/spi.c     **** {
 618              		.loc 1 204 1 is_stmt 1 view -0
 619              		.cfi_startproc
 620              		@ args = 0, pretend = 0, frame = 0
 621              		@ frame_needed = 0, uses_anonymous_args = 0
 622 0000 10B5     		push	{r4, lr}
 623              	.LCFI7:
 624              		.cfi_def_cfa_offset 8
 625              		.cfi_offset 4, -8
 626              		.cfi_offset 14, -4
 205:Src/spi.c     ****   HAL_GPIO_DeInit(GPIOB, ADC_MISO_Pin);
 627              		.loc 1 205 3 view .LVU180
 628 0002 4021     		movs	r1, #64
 629 0004 0348     		ldr	r0, .L29
 630 0006 FFF7FEFF 		bl	HAL_GPIO_DeInit
 631              	.LVL27:
 206:Src/spi.c     ****   HAL_NVIC_DisableIRQ(EXTI4_15_IRQn);
 632              		.loc 1 206 3 view .LVU181
 633 000a 0720     		movs	r0, #7
 634 000c FFF7FEFF 		bl	HAL_NVIC_DisableIRQ
 635              	.LVL28:
 207:Src/spi.c     **** }
 636              		.loc 1 207 1 is_stmt 0 view .LVU182
 637              		@ sp needed
 638 0010 10BD     		pop	{r4, pc}
 639              	.L30:
 640 0012 C046     		.align	2
 641              	.L29:
 642 0014 00040050 		.word	1342178304
 643              		.cfi_endproc
 644              	.LFE289:
 646              		.comm	hspi2,100,4
 647              		.comm	hspi1,100,4
 648              		.text
ARM GAS  C:\Users\matil\AppData\Local\Temp\cceAmpRy.s 			page 17


 649              	.Letext0:
 650              		.file 2 "c:\\gnu tools arm embedded\\arm-none-eabi\\include\\machine\\_default_types.h"
 651              		.file 3 "c:\\gnu tools arm embedded\\arm-none-eabi\\include\\sys\\_stdint.h"
 652              		.file 4 "Drivers/CMSIS/Device/ST/STM32G0xx/Include/system_stm32g0xx.h"
 653              		.file 5 "Drivers/CMSIS/Device/ST/STM32G0xx/Include/stm32g071xx.h"
 654              		.file 6 "Drivers/STM32G0xx_HAL_Driver/Inc/stm32g0xx_hal_def.h"
 655              		.file 7 "Drivers/STM32G0xx_HAL_Driver/Inc/stm32g0xx_hal_gpio.h"
 656              		.file 8 "Drivers/STM32G0xx_HAL_Driver/Inc/stm32g0xx_hal_dma.h"
 657              		.file 9 "Drivers/STM32G0xx_HAL_Driver/Inc/stm32g0xx_hal_flash.h"
 658              		.file 10 "Drivers/STM32G0xx_HAL_Driver/Inc/stm32g0xx_hal_spi.h"
 659              		.file 11 "Drivers/STM32G0xx_HAL_Driver/Inc/stm32g0xx_hal_uart.h"
 660              		.file 12 "Drivers/STM32G0xx_HAL_Driver/Inc/stm32g0xx_hal.h"
 661              		.file 13 "c:\\gnu tools arm embedded\\arm-none-eabi\\include\\sys\\lock.h"
 662              		.file 14 "c:\\gnu tools arm embedded\\arm-none-eabi\\include\\sys\\_types.h"
 663              		.file 15 "c:\\gnu tools arm embedded\\lib\\gcc\\arm-none-eabi\\9.2.1\\include\\stddef.h"
 664              		.file 16 "c:\\gnu tools arm embedded\\arm-none-eabi\\include\\sys\\reent.h"
 665              		.file 17 "Inc/usart.h"
 666              		.file 18 "Inc/spi.h"
 667              		.file 19 "Drivers/STM32G0xx_HAL_Driver/Inc/stm32g0xx_hal_cortex.h"
 668              		.file 20 "Inc/main.h"
 669              		.file 21 "<built-in>"
ARM GAS  C:\Users\matil\AppData\Local\Temp\cceAmpRy.s 			page 18


DEFINED SYMBOLS
                            *ABS*:00000000 spi.c
C:\Users\matil\AppData\Local\Temp\cceAmpRy.s:16     .text.MX_SPI1_Init:00000000 $t
C:\Users\matil\AppData\Local\Temp\cceAmpRy.s:24     .text.MX_SPI1_Init:00000000 MX_SPI1_Init
C:\Users\matil\AppData\Local\Temp\cceAmpRy.s:112    .text.MX_SPI1_Init:0000004c $d
                            *COM*:00000064 hspi1
C:\Users\matil\AppData\Local\Temp\cceAmpRy.s:118    .text.MX_SPI2_Init:00000000 $t
C:\Users\matil\AppData\Local\Temp\cceAmpRy.s:125    .text.MX_SPI2_Init:00000000 MX_SPI2_Init
C:\Users\matil\AppData\Local\Temp\cceAmpRy.s:211    .text.MX_SPI2_Init:00000048 $d
                            *COM*:00000064 hspi2
C:\Users\matil\AppData\Local\Temp\cceAmpRy.s:217    .text.HAL_SPI_MspInit:00000000 $t
C:\Users\matil\AppData\Local\Temp\cceAmpRy.s:224    .text.HAL_SPI_MspInit:00000000 HAL_SPI_MspInit
C:\Users\matil\AppData\Local\Temp\cceAmpRy.s:429    .text.HAL_SPI_MspInit:000000c8 $d
C:\Users\matil\AppData\Local\Temp\cceAmpRy.s:437    .text.HAL_SPI_MspDeInit:00000000 $t
C:\Users\matil\AppData\Local\Temp\cceAmpRy.s:444    .text.HAL_SPI_MspDeInit:00000000 HAL_SPI_MspDeInit
C:\Users\matil\AppData\Local\Temp\cceAmpRy.s:515    .text.HAL_SPI_MspDeInit:00000044 $d
C:\Users\matil\AppData\Local\Temp\cceAmpRy.s:525    .text.ADC_DATA_READY_EXTI_Init:00000000 $t
C:\Users\matil\AppData\Local\Temp\cceAmpRy.s:532    .text.ADC_DATA_READY_EXTI_Init:00000000 ADC_DATA_READY_EXTI_Init
C:\Users\matil\AppData\Local\Temp\cceAmpRy.s:602    .text.ADC_DATA_READY_EXTI_Init:00000044 $d
C:\Users\matil\AppData\Local\Temp\cceAmpRy.s:609    .text.ADC_DATA_READY_EXTI_deInit:00000000 $t
C:\Users\matil\AppData\Local\Temp\cceAmpRy.s:616    .text.ADC_DATA_READY_EXTI_deInit:00000000 ADC_DATA_READY_EXTI_deInit
C:\Users\matil\AppData\Local\Temp\cceAmpRy.s:642    .text.ADC_DATA_READY_EXTI_deInit:00000014 $d

UNDEFINED SYMBOLS
HAL_SPI_Init
Error_Handler
memset
HAL_GPIO_Init
HAL_NVIC_SetPriority
HAL_NVIC_EnableIRQ
HAL_GPIO_DeInit
HAL_NVIC_DisableIRQ
