ARM GAS  C:\Users\matil\AppData\Local\Temp\ccFWmvIF.s 			page 1


   1              		.cpu cortex-m0plus
   2              		.eabi_attribute 20, 1
   3              		.eabi_attribute 21, 1
   4              		.eabi_attribute 23, 3
   5              		.eabi_attribute 24, 1
   6              		.eabi_attribute 25, 1
   7              		.eabi_attribute 26, 1
   8              		.eabi_attribute 30, 1
   9              		.eabi_attribute 34, 0
  10              		.eabi_attribute 18, 4
  11              		.file	"stm32g0xx_hal_rcc_ex.c"
  12              		.text
  13              	.Ltext0:
  14              		.cfi_sections	.debug_frame
  15              		.section	.text.HAL_RCCEx_PeriphCLKConfig,"ax",%progbits
  16              		.align	1
  17              		.global	HAL_RCCEx_PeriphCLKConfig
  18              		.arch armv6s-m
  19              		.syntax unified
  20              		.code	16
  21              		.thumb_func
  22              		.fpu softvfp
  24              	HAL_RCCEx_PeriphCLKConfig:
  25              	.LVL0:
  26              	.LFB173:
  27              		.file 1 "Drivers/STM32G0xx_HAL_Driver/Src/stm32g0xx_hal_rcc_ex.c"
   1:Drivers/STM32G0xx_HAL_Driver/Src/stm32g0xx_hal_rcc_ex.c **** /**
   2:Drivers/STM32G0xx_HAL_Driver/Src/stm32g0xx_hal_rcc_ex.c ****   ******************************************************************************
   3:Drivers/STM32G0xx_HAL_Driver/Src/stm32g0xx_hal_rcc_ex.c ****   * @file    stm32g0xx_hal_rcc_ex.c
   4:Drivers/STM32G0xx_HAL_Driver/Src/stm32g0xx_hal_rcc_ex.c ****   * @author  MCD Application Team
   5:Drivers/STM32G0xx_HAL_Driver/Src/stm32g0xx_hal_rcc_ex.c ****   * @brief   Extended RCC HAL module driver.
   6:Drivers/STM32G0xx_HAL_Driver/Src/stm32g0xx_hal_rcc_ex.c ****   *          This file provides firmware functions to manage the following
   7:Drivers/STM32G0xx_HAL_Driver/Src/stm32g0xx_hal_rcc_ex.c ****   *          functionalities RCC extended peripheral:
   8:Drivers/STM32G0xx_HAL_Driver/Src/stm32g0xx_hal_rcc_ex.c ****   *           + Extended Peripheral Control functions
   9:Drivers/STM32G0xx_HAL_Driver/Src/stm32g0xx_hal_rcc_ex.c ****   *           + Extended Clock management functions
  10:Drivers/STM32G0xx_HAL_Driver/Src/stm32g0xx_hal_rcc_ex.c ****   *
  11:Drivers/STM32G0xx_HAL_Driver/Src/stm32g0xx_hal_rcc_ex.c ****   ******************************************************************************
  12:Drivers/STM32G0xx_HAL_Driver/Src/stm32g0xx_hal_rcc_ex.c ****   * @attention
  13:Drivers/STM32G0xx_HAL_Driver/Src/stm32g0xx_hal_rcc_ex.c ****   *
  14:Drivers/STM32G0xx_HAL_Driver/Src/stm32g0xx_hal_rcc_ex.c ****   * <h2><center>&copy; Copyright (c) 2018 STMicroelectronics. 
  15:Drivers/STM32G0xx_HAL_Driver/Src/stm32g0xx_hal_rcc_ex.c ****   * All rights reserved.</center></h2>
  16:Drivers/STM32G0xx_HAL_Driver/Src/stm32g0xx_hal_rcc_ex.c ****   *
  17:Drivers/STM32G0xx_HAL_Driver/Src/stm32g0xx_hal_rcc_ex.c ****   * This software component is licensed by ST under BSD 3-Clause license,
  18:Drivers/STM32G0xx_HAL_Driver/Src/stm32g0xx_hal_rcc_ex.c ****   * the "License"; You may not use this file except in compliance with the 
  19:Drivers/STM32G0xx_HAL_Driver/Src/stm32g0xx_hal_rcc_ex.c ****   * License. You may obtain a copy of the License at:
  20:Drivers/STM32G0xx_HAL_Driver/Src/stm32g0xx_hal_rcc_ex.c ****   *                        opensource.org/licenses/BSD-3-Clause
  21:Drivers/STM32G0xx_HAL_Driver/Src/stm32g0xx_hal_rcc_ex.c ****   *
  22:Drivers/STM32G0xx_HAL_Driver/Src/stm32g0xx_hal_rcc_ex.c ****   ******************************************************************************
  23:Drivers/STM32G0xx_HAL_Driver/Src/stm32g0xx_hal_rcc_ex.c ****   */
  24:Drivers/STM32G0xx_HAL_Driver/Src/stm32g0xx_hal_rcc_ex.c **** 
  25:Drivers/STM32G0xx_HAL_Driver/Src/stm32g0xx_hal_rcc_ex.c **** /* Includes ------------------------------------------------------------------*/
  26:Drivers/STM32G0xx_HAL_Driver/Src/stm32g0xx_hal_rcc_ex.c **** #include "stm32g0xx_hal.h"
  27:Drivers/STM32G0xx_HAL_Driver/Src/stm32g0xx_hal_rcc_ex.c **** 
  28:Drivers/STM32G0xx_HAL_Driver/Src/stm32g0xx_hal_rcc_ex.c **** /** @addtogroup STM32G0xx_HAL_Driver
  29:Drivers/STM32G0xx_HAL_Driver/Src/stm32g0xx_hal_rcc_ex.c ****   * @{
  30:Drivers/STM32G0xx_HAL_Driver/Src/stm32g0xx_hal_rcc_ex.c ****   */
  31:Drivers/STM32G0xx_HAL_Driver/Src/stm32g0xx_hal_rcc_ex.c **** 
ARM GAS  C:\Users\matil\AppData\Local\Temp\ccFWmvIF.s 			page 2


  32:Drivers/STM32G0xx_HAL_Driver/Src/stm32g0xx_hal_rcc_ex.c **** /** @defgroup RCCEx RCCEx
  33:Drivers/STM32G0xx_HAL_Driver/Src/stm32g0xx_hal_rcc_ex.c ****   * @brief RCC Extended HAL module driver
  34:Drivers/STM32G0xx_HAL_Driver/Src/stm32g0xx_hal_rcc_ex.c ****   * @{
  35:Drivers/STM32G0xx_HAL_Driver/Src/stm32g0xx_hal_rcc_ex.c ****   */
  36:Drivers/STM32G0xx_HAL_Driver/Src/stm32g0xx_hal_rcc_ex.c **** 
  37:Drivers/STM32G0xx_HAL_Driver/Src/stm32g0xx_hal_rcc_ex.c **** #ifdef HAL_RCC_MODULE_ENABLED
  38:Drivers/STM32G0xx_HAL_Driver/Src/stm32g0xx_hal_rcc_ex.c **** 
  39:Drivers/STM32G0xx_HAL_Driver/Src/stm32g0xx_hal_rcc_ex.c **** /* Private typedef -----------------------------------------------------------*/
  40:Drivers/STM32G0xx_HAL_Driver/Src/stm32g0xx_hal_rcc_ex.c **** /* Private defines -----------------------------------------------------------*/
  41:Drivers/STM32G0xx_HAL_Driver/Src/stm32g0xx_hal_rcc_ex.c **** /** @defgroup RCCEx_Private_Constants RCCEx Private Constants
  42:Drivers/STM32G0xx_HAL_Driver/Src/stm32g0xx_hal_rcc_ex.c ****  * @{
  43:Drivers/STM32G0xx_HAL_Driver/Src/stm32g0xx_hal_rcc_ex.c ****  */
  44:Drivers/STM32G0xx_HAL_Driver/Src/stm32g0xx_hal_rcc_ex.c **** #define PLL_TIMEOUT_VALUE        100U /* 100 ms (minimum Tick + 1)  */
  45:Drivers/STM32G0xx_HAL_Driver/Src/stm32g0xx_hal_rcc_ex.c **** 
  46:Drivers/STM32G0xx_HAL_Driver/Src/stm32g0xx_hal_rcc_ex.c **** #define LSCO_CLK_ENABLE()     __HAL_RCC_GPIOA_CLK_ENABLE()
  47:Drivers/STM32G0xx_HAL_Driver/Src/stm32g0xx_hal_rcc_ex.c **** #define LSCO_GPIO_PORT        GPIOA
  48:Drivers/STM32G0xx_HAL_Driver/Src/stm32g0xx_hal_rcc_ex.c **** #define LSCO_PIN              GPIO_PIN_2
  49:Drivers/STM32G0xx_HAL_Driver/Src/stm32g0xx_hal_rcc_ex.c **** /**
  50:Drivers/STM32G0xx_HAL_Driver/Src/stm32g0xx_hal_rcc_ex.c ****   * @}
  51:Drivers/STM32G0xx_HAL_Driver/Src/stm32g0xx_hal_rcc_ex.c ****   */
  52:Drivers/STM32G0xx_HAL_Driver/Src/stm32g0xx_hal_rcc_ex.c **** 
  53:Drivers/STM32G0xx_HAL_Driver/Src/stm32g0xx_hal_rcc_ex.c **** /* Private macros ------------------------------------------------------------*/
  54:Drivers/STM32G0xx_HAL_Driver/Src/stm32g0xx_hal_rcc_ex.c **** /* Private variables ---------------------------------------------------------*/
  55:Drivers/STM32G0xx_HAL_Driver/Src/stm32g0xx_hal_rcc_ex.c **** /* Private function prototypes -----------------------------------------------*/
  56:Drivers/STM32G0xx_HAL_Driver/Src/stm32g0xx_hal_rcc_ex.c **** /* Exported functions --------------------------------------------------------*/
  57:Drivers/STM32G0xx_HAL_Driver/Src/stm32g0xx_hal_rcc_ex.c **** 
  58:Drivers/STM32G0xx_HAL_Driver/Src/stm32g0xx_hal_rcc_ex.c **** /** @defgroup RCCEx_Exported_Functions RCCEx Exported Functions
  59:Drivers/STM32G0xx_HAL_Driver/Src/stm32g0xx_hal_rcc_ex.c ****   * @{
  60:Drivers/STM32G0xx_HAL_Driver/Src/stm32g0xx_hal_rcc_ex.c ****   */
  61:Drivers/STM32G0xx_HAL_Driver/Src/stm32g0xx_hal_rcc_ex.c **** 
  62:Drivers/STM32G0xx_HAL_Driver/Src/stm32g0xx_hal_rcc_ex.c **** /** @defgroup RCCEx_Exported_Functions_Group1 Extended Peripheral Control functions
  63:Drivers/STM32G0xx_HAL_Driver/Src/stm32g0xx_hal_rcc_ex.c ****  *  @brief  Extended Peripheral Control functions
  64:Drivers/STM32G0xx_HAL_Driver/Src/stm32g0xx_hal_rcc_ex.c ****  *
  65:Drivers/STM32G0xx_HAL_Driver/Src/stm32g0xx_hal_rcc_ex.c **** @verbatim
  66:Drivers/STM32G0xx_HAL_Driver/Src/stm32g0xx_hal_rcc_ex.c ****  ===============================================================================
  67:Drivers/STM32G0xx_HAL_Driver/Src/stm32g0xx_hal_rcc_ex.c ****                 ##### Extended Peripheral Control functions  #####
  68:Drivers/STM32G0xx_HAL_Driver/Src/stm32g0xx_hal_rcc_ex.c ****  ===============================================================================
  69:Drivers/STM32G0xx_HAL_Driver/Src/stm32g0xx_hal_rcc_ex.c ****     [..]
  70:Drivers/STM32G0xx_HAL_Driver/Src/stm32g0xx_hal_rcc_ex.c ****     This subsection provides a set of functions allowing to control the RCC Clocks
  71:Drivers/STM32G0xx_HAL_Driver/Src/stm32g0xx_hal_rcc_ex.c ****     frequencies.
  72:Drivers/STM32G0xx_HAL_Driver/Src/stm32g0xx_hal_rcc_ex.c ****     [..]
  73:Drivers/STM32G0xx_HAL_Driver/Src/stm32g0xx_hal_rcc_ex.c ****     (@) Important note: Care must be taken when @ref HAL_RCCEx_PeriphCLKConfig() is used to
  74:Drivers/STM32G0xx_HAL_Driver/Src/stm32g0xx_hal_rcc_ex.c ****         select the RTC clock source; in this case the Backup domain will be reset in
  75:Drivers/STM32G0xx_HAL_Driver/Src/stm32g0xx_hal_rcc_ex.c ****         order to modify the RTC Clock source, as consequence RTC registers (including
  76:Drivers/STM32G0xx_HAL_Driver/Src/stm32g0xx_hal_rcc_ex.c ****         the backup registers) and RCC_BDCR register are set to their reset values.
  77:Drivers/STM32G0xx_HAL_Driver/Src/stm32g0xx_hal_rcc_ex.c **** 
  78:Drivers/STM32G0xx_HAL_Driver/Src/stm32g0xx_hal_rcc_ex.c **** @endverbatim
  79:Drivers/STM32G0xx_HAL_Driver/Src/stm32g0xx_hal_rcc_ex.c ****   * @{
  80:Drivers/STM32G0xx_HAL_Driver/Src/stm32g0xx_hal_rcc_ex.c ****   */
  81:Drivers/STM32G0xx_HAL_Driver/Src/stm32g0xx_hal_rcc_ex.c **** /**
  82:Drivers/STM32G0xx_HAL_Driver/Src/stm32g0xx_hal_rcc_ex.c ****   * @brief  Initialize the RCC extended peripherals clocks according to the specified
  83:Drivers/STM32G0xx_HAL_Driver/Src/stm32g0xx_hal_rcc_ex.c ****   *         parameters in the @ref RCC_PeriphCLKInitTypeDef.
  84:Drivers/STM32G0xx_HAL_Driver/Src/stm32g0xx_hal_rcc_ex.c ****   * @param  PeriphClkInit  pointer to a @ref RCC_PeriphCLKInitTypeDef structure that
  85:Drivers/STM32G0xx_HAL_Driver/Src/stm32g0xx_hal_rcc_ex.c ****   *         contains a field PeriphClockSelection which can be a combination of the following value
  86:Drivers/STM32G0xx_HAL_Driver/Src/stm32g0xx_hal_rcc_ex.c ****   *            @arg @ref RCC_PERIPHCLK_RTC  RTC peripheral clock
  87:Drivers/STM32G0xx_HAL_Driver/Src/stm32g0xx_hal_rcc_ex.c ****   *            @arg @ref RCC_PERIPHCLK_ADC    ADC peripheral clock
  88:Drivers/STM32G0xx_HAL_Driver/Src/stm32g0xx_hal_rcc_ex.c ****   *            @arg @ref RCC_PERIPHCLK_I2C1   I2C1 peripheral clock
ARM GAS  C:\Users\matil\AppData\Local\Temp\ccFWmvIF.s 			page 3


  89:Drivers/STM32G0xx_HAL_Driver/Src/stm32g0xx_hal_rcc_ex.c ****   *            @arg @ref RCC_PERIPHCLK_I2S1   I2S1 peripheral clock
  90:Drivers/STM32G0xx_HAL_Driver/Src/stm32g0xx_hal_rcc_ex.c ****   *            @arg @ref RCC_PERIPHCLK_USART1 USART1 peripheral clock
  91:Drivers/STM32G0xx_HAL_Driver/Src/stm32g0xx_hal_rcc_ex.c ****   *            @arg @ref RCC_PERIPHCLK_CEC     CEC peripheral clock     (1)
  92:Drivers/STM32G0xx_HAL_Driver/Src/stm32g0xx_hal_rcc_ex.c ****   *            @arg @ref RCC_PERIPHCLK_LPTIM1  LPTIM1 peripheral clock  (1)
  93:Drivers/STM32G0xx_HAL_Driver/Src/stm32g0xx_hal_rcc_ex.c ****   *            @arg @ref RCC_PERIPHCLK_LPTIM2  LPTIM2 peripheral clock  (1)
  94:Drivers/STM32G0xx_HAL_Driver/Src/stm32g0xx_hal_rcc_ex.c ****   *            @arg @ref RCC_PERIPHCLK_LPUART1 LPUART1 peripheral clock (1)
  95:Drivers/STM32G0xx_HAL_Driver/Src/stm32g0xx_hal_rcc_ex.c ****   *            @arg @ref RCC_PERIPHCLK_RNG     RNG peripheral clock     (1)
  96:Drivers/STM32G0xx_HAL_Driver/Src/stm32g0xx_hal_rcc_ex.c ****   *            @arg @ref RCC_PERIPHCLK_TIM1    TIM1 peripheral clock    (1)(2)
  97:Drivers/STM32G0xx_HAL_Driver/Src/stm32g0xx_hal_rcc_ex.c ****   *            @arg @ref RCC_PERIPHCLK_TIM15   TIM15 peripheral clock   (1)(2)
  98:Drivers/STM32G0xx_HAL_Driver/Src/stm32g0xx_hal_rcc_ex.c ****   *            @arg @ref RCC_PERIPHCLK_USART2  USART2 peripheral clock     (2)
  99:Drivers/STM32G0xx_HAL_Driver/Src/stm32g0xx_hal_rcc_ex.c ****   *
 100:Drivers/STM32G0xx_HAL_Driver/Src/stm32g0xx_hal_rcc_ex.c ****   * @note   (1) Peripherals are not available on all devices
 101:Drivers/STM32G0xx_HAL_Driver/Src/stm32g0xx_hal_rcc_ex.c ****   * @note   (2) Peripherals clock selection is not available on all devices
 102:Drivers/STM32G0xx_HAL_Driver/Src/stm32g0xx_hal_rcc_ex.c ****   * @note   Care must be taken when @ref HAL_RCCEx_PeriphCLKConfig() is used to select
 103:Drivers/STM32G0xx_HAL_Driver/Src/stm32g0xx_hal_rcc_ex.c ****   *         the RTC clock source: in this case the access to Backup domain is enabled.
 104:Drivers/STM32G0xx_HAL_Driver/Src/stm32g0xx_hal_rcc_ex.c ****   *
 105:Drivers/STM32G0xx_HAL_Driver/Src/stm32g0xx_hal_rcc_ex.c ****   * @retval HAL status
 106:Drivers/STM32G0xx_HAL_Driver/Src/stm32g0xx_hal_rcc_ex.c ****   */
 107:Drivers/STM32G0xx_HAL_Driver/Src/stm32g0xx_hal_rcc_ex.c **** HAL_StatusTypeDef HAL_RCCEx_PeriphCLKConfig(RCC_PeriphCLKInitTypeDef  *PeriphClkInit)
 108:Drivers/STM32G0xx_HAL_Driver/Src/stm32g0xx_hal_rcc_ex.c **** {
  28              		.loc 1 108 1 view -0
  29              		.cfi_startproc
  30              		@ args = 0, pretend = 0, frame = 8
  31              		@ frame_needed = 0, uses_anonymous_args = 0
  32              		.loc 1 108 1 is_stmt 0 view .LVU1
  33 0000 F0B5     		push	{r4, r5, r6, r7, lr}
  34              	.LCFI0:
  35              		.cfi_def_cfa_offset 20
  36              		.cfi_offset 4, -20
  37              		.cfi_offset 5, -16
  38              		.cfi_offset 6, -12
  39              		.cfi_offset 7, -8
  40              		.cfi_offset 14, -4
  41 0002 83B0     		sub	sp, sp, #12
  42              	.LCFI1:
  43              		.cfi_def_cfa_offset 32
  44 0004 0400     		movs	r4, r0
 109:Drivers/STM32G0xx_HAL_Driver/Src/stm32g0xx_hal_rcc_ex.c ****   uint32_t tmpregister;
  45              		.loc 1 109 3 is_stmt 1 view .LVU2
 110:Drivers/STM32G0xx_HAL_Driver/Src/stm32g0xx_hal_rcc_ex.c ****   uint32_t tickstart;
  46              		.loc 1 110 3 view .LVU3
 111:Drivers/STM32G0xx_HAL_Driver/Src/stm32g0xx_hal_rcc_ex.c ****   HAL_StatusTypeDef ret    = HAL_OK;   /* Intermediate status */
  47              		.loc 1 111 3 view .LVU4
  48              	.LVL1:
 112:Drivers/STM32G0xx_HAL_Driver/Src/stm32g0xx_hal_rcc_ex.c ****   HAL_StatusTypeDef status = HAL_OK;   /* Final status */
  49              		.loc 1 112 3 view .LVU5
 113:Drivers/STM32G0xx_HAL_Driver/Src/stm32g0xx_hal_rcc_ex.c **** 
 114:Drivers/STM32G0xx_HAL_Driver/Src/stm32g0xx_hal_rcc_ex.c ****   /* Check the parameters */
 115:Drivers/STM32G0xx_HAL_Driver/Src/stm32g0xx_hal_rcc_ex.c ****   assert_param(IS_RCC_PERIPHCLOCK(PeriphClkInit->PeriphClockSelection));
  50              		.loc 1 115 3 view .LVU6
 116:Drivers/STM32G0xx_HAL_Driver/Src/stm32g0xx_hal_rcc_ex.c **** 
 117:Drivers/STM32G0xx_HAL_Driver/Src/stm32g0xx_hal_rcc_ex.c ****   /*-------------------------- RTC clock source configuration ----------------------*/
 118:Drivers/STM32G0xx_HAL_Driver/Src/stm32g0xx_hal_rcc_ex.c ****   if ((PeriphClkInit->PeriphClockSelection & RCC_PERIPHCLK_RTC) == RCC_PERIPHCLK_RTC)
  51              		.loc 1 118 3 view .LVU7
  52              		.loc 1 118 6 is_stmt 0 view .LVU8
  53 0006 0368     		ldr	r3, [r0]
  54 0008 9B03     		lsls	r3, r3, #14
ARM GAS  C:\Users\matil\AppData\Local\Temp\ccFWmvIF.s 			page 4


  55 000a 62D5     		bpl	.L23
  56              	.LBB2:
 119:Drivers/STM32G0xx_HAL_Driver/Src/stm32g0xx_hal_rcc_ex.c ****   {
 120:Drivers/STM32G0xx_HAL_Driver/Src/stm32g0xx_hal_rcc_ex.c ****     FlagStatus       pwrclkchanged = RESET;
  57              		.loc 1 120 5 is_stmt 1 view .LVU9
  58              	.LVL2:
 121:Drivers/STM32G0xx_HAL_Driver/Src/stm32g0xx_hal_rcc_ex.c **** 
 122:Drivers/STM32G0xx_HAL_Driver/Src/stm32g0xx_hal_rcc_ex.c ****     /* Check for RTC Parameters used to output RTCCLK */
 123:Drivers/STM32G0xx_HAL_Driver/Src/stm32g0xx_hal_rcc_ex.c ****     assert_param(IS_RCC_RTCCLKSOURCE(PeriphClkInit->RTCClockSelection));
  59              		.loc 1 123 5 view .LVU10
 124:Drivers/STM32G0xx_HAL_Driver/Src/stm32g0xx_hal_rcc_ex.c **** 
 125:Drivers/STM32G0xx_HAL_Driver/Src/stm32g0xx_hal_rcc_ex.c ****     /* Enable Power Clock */
 126:Drivers/STM32G0xx_HAL_Driver/Src/stm32g0xx_hal_rcc_ex.c ****     if (__HAL_RCC_PWR_IS_CLK_DISABLED())
  60              		.loc 1 126 5 view .LVU11
  61              		.loc 1 126 9 is_stmt 0 view .LVU12
  62 000c 814B     		ldr	r3, .L33
  63 000e DB6B     		ldr	r3, [r3, #60]
  64              		.loc 1 126 8 view .LVU13
  65 0010 DB00     		lsls	r3, r3, #3
  66 0012 1ED4     		bmi	.L24
 127:Drivers/STM32G0xx_HAL_Driver/Src/stm32g0xx_hal_rcc_ex.c ****     {
 128:Drivers/STM32G0xx_HAL_Driver/Src/stm32g0xx_hal_rcc_ex.c ****       __HAL_RCC_PWR_CLK_ENABLE();
  67              		.loc 1 128 7 is_stmt 1 view .LVU14
  68              	.LBB3:
  69              		.loc 1 128 7 view .LVU15
  70              		.loc 1 128 7 view .LVU16
  71 0014 7F4A     		ldr	r2, .L33
  72 0016 D16B     		ldr	r1, [r2, #60]
  73 0018 8020     		movs	r0, #128
  74              	.LVL3:
  75              		.loc 1 128 7 is_stmt 0 view .LVU17
  76 001a 4005     		lsls	r0, r0, #21
  77 001c 0143     		orrs	r1, r0
  78 001e D163     		str	r1, [r2, #60]
  79              		.loc 1 128 7 is_stmt 1 view .LVU18
  80 0020 D36B     		ldr	r3, [r2, #60]
  81 0022 0340     		ands	r3, r0
  82 0024 0193     		str	r3, [sp, #4]
  83              		.loc 1 128 7 view .LVU19
  84 0026 019B     		ldr	r3, [sp, #4]
  85              	.LBE3:
  86              		.loc 1 128 7 view .LVU20
 129:Drivers/STM32G0xx_HAL_Driver/Src/stm32g0xx_hal_rcc_ex.c ****       pwrclkchanged = SET;
  87              		.loc 1 129 7 view .LVU21
  88              	.LVL4:
  89              		.loc 1 129 21 is_stmt 0 view .LVU22
  90 0028 0126     		movs	r6, #1
  91              	.LVL5:
  92              	.L3:
 130:Drivers/STM32G0xx_HAL_Driver/Src/stm32g0xx_hal_rcc_ex.c ****     }
 131:Drivers/STM32G0xx_HAL_Driver/Src/stm32g0xx_hal_rcc_ex.c **** 
 132:Drivers/STM32G0xx_HAL_Driver/Src/stm32g0xx_hal_rcc_ex.c ****     /* Enable write access to Backup domain */
 133:Drivers/STM32G0xx_HAL_Driver/Src/stm32g0xx_hal_rcc_ex.c ****     SET_BIT(PWR->CR1, PWR_CR1_DBP);
  93              		.loc 1 133 5 is_stmt 1 view .LVU23
  94 002a 7B4A     		ldr	r2, .L33+4
  95 002c 1168     		ldr	r1, [r2]
  96 002e 8023     		movs	r3, #128
ARM GAS  C:\Users\matil\AppData\Local\Temp\ccFWmvIF.s 			page 5


  97 0030 5B00     		lsls	r3, r3, #1
  98 0032 0B43     		orrs	r3, r1
  99 0034 1360     		str	r3, [r2]
 134:Drivers/STM32G0xx_HAL_Driver/Src/stm32g0xx_hal_rcc_ex.c **** 
 135:Drivers/STM32G0xx_HAL_Driver/Src/stm32g0xx_hal_rcc_ex.c ****     /* Wait for Backup domain Write protection disable */
 136:Drivers/STM32G0xx_HAL_Driver/Src/stm32g0xx_hal_rcc_ex.c ****     tickstart = HAL_GetTick();
 100              		.loc 1 136 5 view .LVU24
 101              		.loc 1 136 17 is_stmt 0 view .LVU25
 102 0036 FFF7FEFF 		bl	HAL_GetTick
 103              	.LVL6:
 104 003a 0500     		movs	r5, r0
 105              	.LVL7:
 137:Drivers/STM32G0xx_HAL_Driver/Src/stm32g0xx_hal_rcc_ex.c **** 
 138:Drivers/STM32G0xx_HAL_Driver/Src/stm32g0xx_hal_rcc_ex.c ****     while ((PWR->CR1 & PWR_CR1_DBP) == 0U)
 106              		.loc 1 138 5 is_stmt 1 view .LVU26
 107              	.L4:
 108              		.loc 1 138 11 view .LVU27
 109              		.loc 1 138 16 is_stmt 0 view .LVU28
 110 003c 764B     		ldr	r3, .L33+4
 111 003e 1B68     		ldr	r3, [r3]
 112              		.loc 1 138 11 view .LVU29
 113 0040 DB05     		lsls	r3, r3, #23
 114 0042 08D4     		bmi	.L27
 139:Drivers/STM32G0xx_HAL_Driver/Src/stm32g0xx_hal_rcc_ex.c ****     {
 140:Drivers/STM32G0xx_HAL_Driver/Src/stm32g0xx_hal_rcc_ex.c ****       if ((HAL_GetTick() - tickstart) > RCC_DBP_TIMEOUT_VALUE)
 115              		.loc 1 140 7 is_stmt 1 view .LVU30
 116              		.loc 1 140 12 is_stmt 0 view .LVU31
 117 0044 FFF7FEFF 		bl	HAL_GetTick
 118              	.LVL8:
 119              		.loc 1 140 26 view .LVU32
 120 0048 401B     		subs	r0, r0, r5
 121              		.loc 1 140 10 view .LVU33
 122 004a 0228     		cmp	r0, #2
 123 004c F6D9     		bls	.L4
 141:Drivers/STM32G0xx_HAL_Driver/Src/stm32g0xx_hal_rcc_ex.c ****       {
 142:Drivers/STM32G0xx_HAL_Driver/Src/stm32g0xx_hal_rcc_ex.c ****         ret = HAL_TIMEOUT;
 124              		.loc 1 142 13 view .LVU34
 125 004e 0325     		movs	r5, #3
 126              	.LVL9:
 127              		.loc 1 142 13 view .LVU35
 128 0050 02E0     		b	.L5
 129              	.LVL10:
 130              	.L24:
 120:Drivers/STM32G0xx_HAL_Driver/Src/stm32g0xx_hal_rcc_ex.c **** 
 131              		.loc 1 120 22 view .LVU36
 132 0052 0026     		movs	r6, #0
 133 0054 E9E7     		b	.L3
 134              	.LVL11:
 135              	.L27:
 120:Drivers/STM32G0xx_HAL_Driver/Src/stm32g0xx_hal_rcc_ex.c **** 
 136              		.loc 1 120 22 view .LVU37
 137              	.LBE2:
 111:Drivers/STM32G0xx_HAL_Driver/Src/stm32g0xx_hal_rcc_ex.c ****   HAL_StatusTypeDef status = HAL_OK;   /* Final status */
 138              		.loc 1 111 21 view .LVU38
 139 0056 0025     		movs	r5, #0
 140              	.LVL12:
 141              	.L5:
ARM GAS  C:\Users\matil\AppData\Local\Temp\ccFWmvIF.s 			page 6


 142              	.LBB4:
 143:Drivers/STM32G0xx_HAL_Driver/Src/stm32g0xx_hal_rcc_ex.c ****         break;
 144:Drivers/STM32G0xx_HAL_Driver/Src/stm32g0xx_hal_rcc_ex.c ****       }
 145:Drivers/STM32G0xx_HAL_Driver/Src/stm32g0xx_hal_rcc_ex.c ****     }
 146:Drivers/STM32G0xx_HAL_Driver/Src/stm32g0xx_hal_rcc_ex.c **** 
 147:Drivers/STM32G0xx_HAL_Driver/Src/stm32g0xx_hal_rcc_ex.c ****     if (ret == HAL_OK)
 143              		.loc 1 147 5 is_stmt 1 view .LVU39
 144              		.loc 1 147 8 is_stmt 0 view .LVU40
 145 0058 002D     		cmp	r5, #0
 146 005a 23D1     		bne	.L7
 148:Drivers/STM32G0xx_HAL_Driver/Src/stm32g0xx_hal_rcc_ex.c ****     {
 149:Drivers/STM32G0xx_HAL_Driver/Src/stm32g0xx_hal_rcc_ex.c ****       /* Reset the Backup domain only if the RTC Clock source selection is modified from default */
 150:Drivers/STM32G0xx_HAL_Driver/Src/stm32g0xx_hal_rcc_ex.c ****       tmpregister = READ_BIT(RCC->BDCR, RCC_BDCR_RTCSEL);
 147              		.loc 1 150 7 is_stmt 1 view .LVU41
 148              		.loc 1 150 21 is_stmt 0 view .LVU42
 149 005c 6D4B     		ldr	r3, .L33
 150 005e D96D     		ldr	r1, [r3, #92]
 151              		.loc 1 150 19 view .LVU43
 152 0060 C022     		movs	r2, #192
 153 0062 9200     		lsls	r2, r2, #2
 154 0064 0B00     		movs	r3, r1
 155 0066 1340     		ands	r3, r2
 156              	.LVL13:
 151:Drivers/STM32G0xx_HAL_Driver/Src/stm32g0xx_hal_rcc_ex.c **** 
 152:Drivers/STM32G0xx_HAL_Driver/Src/stm32g0xx_hal_rcc_ex.c ****       /* Reset the Backup domain only if the RTC Clock source selection is modified */
 153:Drivers/STM32G0xx_HAL_Driver/Src/stm32g0xx_hal_rcc_ex.c ****       if ((tmpregister != RCC_RTCCLKSOURCE_NONE) && (tmpregister != PeriphClkInit->RTCClockSelectio
 157              		.loc 1 153 7 is_stmt 1 view .LVU44
 158              		.loc 1 153 10 is_stmt 0 view .LVU45
 159 0068 1142     		tst	r1, r2
 160 006a 10D0     		beq	.L8
 161              		.loc 1 153 50 discriminator 1 view .LVU46
 162 006c 226B     		ldr	r2, [r4, #48]
 163 006e 9A42     		cmp	r2, r3
 164 0070 0DD0     		beq	.L8
 154:Drivers/STM32G0xx_HAL_Driver/Src/stm32g0xx_hal_rcc_ex.c ****       {
 155:Drivers/STM32G0xx_HAL_Driver/Src/stm32g0xx_hal_rcc_ex.c ****         /* Store the content of BDCR register before the reset of Backup Domain */
 156:Drivers/STM32G0xx_HAL_Driver/Src/stm32g0xx_hal_rcc_ex.c ****         tmpregister = READ_BIT(RCC->BDCR, ~(RCC_BDCR_RTCSEL));
 165              		.loc 1 156 9 is_stmt 1 view .LVU47
 166              		.loc 1 156 23 is_stmt 0 view .LVU48
 167 0072 684A     		ldr	r2, .L33
 168 0074 D36D     		ldr	r3, [r2, #92]
 169              	.LVL14:
 170              		.loc 1 156 21 view .LVU49
 171 0076 6949     		ldr	r1, .L33+8
 172              	.LVL15:
 173              		.loc 1 156 21 view .LVU50
 174 0078 0B40     		ands	r3, r1
 175              	.LVL16:
 157:Drivers/STM32G0xx_HAL_Driver/Src/stm32g0xx_hal_rcc_ex.c ****         /* RTC Clock selection can be changed only if the Backup Domain is reset */
 158:Drivers/STM32G0xx_HAL_Driver/Src/stm32g0xx_hal_rcc_ex.c ****         __HAL_RCC_BACKUPRESET_FORCE();
 176              		.loc 1 158 9 is_stmt 1 view .LVU51
 177 007a D06D     		ldr	r0, [r2, #92]
 178 007c 8021     		movs	r1, #128
 179 007e 4902     		lsls	r1, r1, #9
 180 0080 0143     		orrs	r1, r0
 181 0082 D165     		str	r1, [r2, #92]
 159:Drivers/STM32G0xx_HAL_Driver/Src/stm32g0xx_hal_rcc_ex.c ****         __HAL_RCC_BACKUPRESET_RELEASE();
ARM GAS  C:\Users\matil\AppData\Local\Temp\ccFWmvIF.s 			page 7


 182              		.loc 1 159 9 view .LVU52
 183 0084 D16D     		ldr	r1, [r2, #92]
 184 0086 6648     		ldr	r0, .L33+12
 185 0088 0140     		ands	r1, r0
 186 008a D165     		str	r1, [r2, #92]
 160:Drivers/STM32G0xx_HAL_Driver/Src/stm32g0xx_hal_rcc_ex.c ****         /* Restore the Content of BDCR register */
 161:Drivers/STM32G0xx_HAL_Driver/Src/stm32g0xx_hal_rcc_ex.c ****         RCC->BDCR = tmpregister;
 187              		.loc 1 161 9 view .LVU53
 188              		.loc 1 161 19 is_stmt 0 view .LVU54
 189 008c D365     		str	r3, [r2, #92]
 190              	.L8:
 162:Drivers/STM32G0xx_HAL_Driver/Src/stm32g0xx_hal_rcc_ex.c ****       }
 163:Drivers/STM32G0xx_HAL_Driver/Src/stm32g0xx_hal_rcc_ex.c **** 
 164:Drivers/STM32G0xx_HAL_Driver/Src/stm32g0xx_hal_rcc_ex.c ****       /* Wait for LSE reactivation if LSE was enable prior to Backup Domain reset */
 165:Drivers/STM32G0xx_HAL_Driver/Src/stm32g0xx_hal_rcc_ex.c ****       if (HAL_IS_BIT_SET(tmpregister, RCC_BDCR_LSEON))
 191              		.loc 1 165 7 is_stmt 1 view .LVU55
 192              		.loc 1 165 10 is_stmt 0 view .LVU56
 193 008e DB07     		lsls	r3, r3, #31
 194 0090 10D4     		bmi	.L28
 195              	.LVL17:
 196              	.L9:
 166:Drivers/STM32G0xx_HAL_Driver/Src/stm32g0xx_hal_rcc_ex.c ****       {
 167:Drivers/STM32G0xx_HAL_Driver/Src/stm32g0xx_hal_rcc_ex.c ****         /* Get Start Tick*/
 168:Drivers/STM32G0xx_HAL_Driver/Src/stm32g0xx_hal_rcc_ex.c ****         tickstart = HAL_GetTick();
 169:Drivers/STM32G0xx_HAL_Driver/Src/stm32g0xx_hal_rcc_ex.c **** 
 170:Drivers/STM32G0xx_HAL_Driver/Src/stm32g0xx_hal_rcc_ex.c ****         /* Wait till LSE is ready */
 171:Drivers/STM32G0xx_HAL_Driver/Src/stm32g0xx_hal_rcc_ex.c ****         while (READ_BIT(RCC->BDCR, RCC_BDCR_LSERDY) == 0U)
 172:Drivers/STM32G0xx_HAL_Driver/Src/stm32g0xx_hal_rcc_ex.c ****         {
 173:Drivers/STM32G0xx_HAL_Driver/Src/stm32g0xx_hal_rcc_ex.c ****           if ((HAL_GetTick() - tickstart) > RCC_LSE_TIMEOUT_VALUE)
 174:Drivers/STM32G0xx_HAL_Driver/Src/stm32g0xx_hal_rcc_ex.c ****           {
 175:Drivers/STM32G0xx_HAL_Driver/Src/stm32g0xx_hal_rcc_ex.c ****             ret = HAL_TIMEOUT;
 176:Drivers/STM32G0xx_HAL_Driver/Src/stm32g0xx_hal_rcc_ex.c ****             break;
 177:Drivers/STM32G0xx_HAL_Driver/Src/stm32g0xx_hal_rcc_ex.c ****           }
 178:Drivers/STM32G0xx_HAL_Driver/Src/stm32g0xx_hal_rcc_ex.c ****         }
 179:Drivers/STM32G0xx_HAL_Driver/Src/stm32g0xx_hal_rcc_ex.c ****       }
 180:Drivers/STM32G0xx_HAL_Driver/Src/stm32g0xx_hal_rcc_ex.c **** 
 181:Drivers/STM32G0xx_HAL_Driver/Src/stm32g0xx_hal_rcc_ex.c ****       if (ret == HAL_OK)
 197              		.loc 1 181 7 is_stmt 1 view .LVU57
 198              		.loc 1 181 10 is_stmt 0 view .LVU58
 199 0092 002D     		cmp	r5, #0
 200 0094 06D1     		bne	.L7
 182:Drivers/STM32G0xx_HAL_Driver/Src/stm32g0xx_hal_rcc_ex.c ****       {
 183:Drivers/STM32G0xx_HAL_Driver/Src/stm32g0xx_hal_rcc_ex.c ****         /* Apply new RTC clock source selection */
 184:Drivers/STM32G0xx_HAL_Driver/Src/stm32g0xx_hal_rcc_ex.c ****         __HAL_RCC_RTC_CONFIG(PeriphClkInit->RTCClockSelection);
 201              		.loc 1 184 9 is_stmt 1 view .LVU59
 202 0096 5F4A     		ldr	r2, .L33
 203 0098 D36D     		ldr	r3, [r2, #92]
 204 009a 6049     		ldr	r1, .L33+8
 205 009c 0B40     		ands	r3, r1
 206 009e 216B     		ldr	r1, [r4, #48]
 207 00a0 0B43     		orrs	r3, r1
 208 00a2 D365     		str	r3, [r2, #92]
 209              	.L7:
 210              	.LVL18:
 185:Drivers/STM32G0xx_HAL_Driver/Src/stm32g0xx_hal_rcc_ex.c ****       }
 186:Drivers/STM32G0xx_HAL_Driver/Src/stm32g0xx_hal_rcc_ex.c ****       else
 187:Drivers/STM32G0xx_HAL_Driver/Src/stm32g0xx_hal_rcc_ex.c ****       {
ARM GAS  C:\Users\matil\AppData\Local\Temp\ccFWmvIF.s 			page 8


 188:Drivers/STM32G0xx_HAL_Driver/Src/stm32g0xx_hal_rcc_ex.c ****         /* set overall return value */
 189:Drivers/STM32G0xx_HAL_Driver/Src/stm32g0xx_hal_rcc_ex.c ****         status = ret;
 190:Drivers/STM32G0xx_HAL_Driver/Src/stm32g0xx_hal_rcc_ex.c ****       }
 191:Drivers/STM32G0xx_HAL_Driver/Src/stm32g0xx_hal_rcc_ex.c ****     }
 192:Drivers/STM32G0xx_HAL_Driver/Src/stm32g0xx_hal_rcc_ex.c ****     else
 193:Drivers/STM32G0xx_HAL_Driver/Src/stm32g0xx_hal_rcc_ex.c ****     {
 194:Drivers/STM32G0xx_HAL_Driver/Src/stm32g0xx_hal_rcc_ex.c ****       /* set overall return value */
 195:Drivers/STM32G0xx_HAL_Driver/Src/stm32g0xx_hal_rcc_ex.c ****       status = ret;
 196:Drivers/STM32G0xx_HAL_Driver/Src/stm32g0xx_hal_rcc_ex.c ****     }
 197:Drivers/STM32G0xx_HAL_Driver/Src/stm32g0xx_hal_rcc_ex.c **** 
 198:Drivers/STM32G0xx_HAL_Driver/Src/stm32g0xx_hal_rcc_ex.c ****     /* Restore clock configuration if changed */
 199:Drivers/STM32G0xx_HAL_Driver/Src/stm32g0xx_hal_rcc_ex.c ****     if (pwrclkchanged == SET)
 211              		.loc 1 199 5 view .LVU60
 212              		.loc 1 199 8 is_stmt 0 view .LVU61
 213 00a4 012E     		cmp	r6, #1
 214 00a6 15D1     		bne	.L2
 200:Drivers/STM32G0xx_HAL_Driver/Src/stm32g0xx_hal_rcc_ex.c ****     {
 201:Drivers/STM32G0xx_HAL_Driver/Src/stm32g0xx_hal_rcc_ex.c ****       __HAL_RCC_PWR_CLK_DISABLE();
 215              		.loc 1 201 7 is_stmt 1 view .LVU62
 216 00a8 5A4A     		ldr	r2, .L33
 217 00aa D36B     		ldr	r3, [r2, #60]
 218 00ac 5D49     		ldr	r1, .L33+16
 219 00ae 0B40     		ands	r3, r1
 220 00b0 D363     		str	r3, [r2, #60]
 221 00b2 0FE0     		b	.L2
 222              	.LVL19:
 223              	.L28:
 168:Drivers/STM32G0xx_HAL_Driver/Src/stm32g0xx_hal_rcc_ex.c **** 
 224              		.loc 1 168 9 view .LVU63
 168:Drivers/STM32G0xx_HAL_Driver/Src/stm32g0xx_hal_rcc_ex.c **** 
 225              		.loc 1 168 21 is_stmt 0 view .LVU64
 226 00b4 FFF7FEFF 		bl	HAL_GetTick
 227              	.LVL20:
 228 00b8 0700     		movs	r7, r0
 229              	.LVL21:
 171:Drivers/STM32G0xx_HAL_Driver/Src/stm32g0xx_hal_rcc_ex.c ****         {
 230              		.loc 1 171 9 is_stmt 1 view .LVU65
 231              	.L10:
 171:Drivers/STM32G0xx_HAL_Driver/Src/stm32g0xx_hal_rcc_ex.c ****         {
 232              		.loc 1 171 15 view .LVU66
 171:Drivers/STM32G0xx_HAL_Driver/Src/stm32g0xx_hal_rcc_ex.c ****         {
 233              		.loc 1 171 16 is_stmt 0 view .LVU67
 234 00ba 564B     		ldr	r3, .L33
 235 00bc DB6D     		ldr	r3, [r3, #92]
 171:Drivers/STM32G0xx_HAL_Driver/Src/stm32g0xx_hal_rcc_ex.c ****         {
 236              		.loc 1 171 15 view .LVU68
 237 00be 9B07     		lsls	r3, r3, #30
 238 00c0 E7D4     		bmi	.L9
 173:Drivers/STM32G0xx_HAL_Driver/Src/stm32g0xx_hal_rcc_ex.c ****           {
 239              		.loc 1 173 11 is_stmt 1 view .LVU69
 173:Drivers/STM32G0xx_HAL_Driver/Src/stm32g0xx_hal_rcc_ex.c ****           {
 240              		.loc 1 173 16 is_stmt 0 view .LVU70
 241 00c2 FFF7FEFF 		bl	HAL_GetTick
 242              	.LVL22:
 173:Drivers/STM32G0xx_HAL_Driver/Src/stm32g0xx_hal_rcc_ex.c ****           {
 243              		.loc 1 173 30 view .LVU71
 244 00c6 C01B     		subs	r0, r0, r7
ARM GAS  C:\Users\matil\AppData\Local\Temp\ccFWmvIF.s 			page 9


 173:Drivers/STM32G0xx_HAL_Driver/Src/stm32g0xx_hal_rcc_ex.c ****           {
 245              		.loc 1 173 14 view .LVU72
 246 00c8 574B     		ldr	r3, .L33+20
 247 00ca 9842     		cmp	r0, r3
 248 00cc F5D9     		bls	.L10
 175:Drivers/STM32G0xx_HAL_Driver/Src/stm32g0xx_hal_rcc_ex.c ****             break;
 249              		.loc 1 175 17 view .LVU73
 250 00ce 0325     		movs	r5, #3
 251              	.LVL23:
 175:Drivers/STM32G0xx_HAL_Driver/Src/stm32g0xx_hal_rcc_ex.c ****             break;
 252              		.loc 1 175 17 view .LVU74
 253 00d0 DFE7     		b	.L9
 254              	.LVL24:
 255              	.L23:
 175:Drivers/STM32G0xx_HAL_Driver/Src/stm32g0xx_hal_rcc_ex.c ****             break;
 256              		.loc 1 175 17 view .LVU75
 257              	.LBE4:
 112:Drivers/STM32G0xx_HAL_Driver/Src/stm32g0xx_hal_rcc_ex.c **** 
 258              		.loc 1 112 21 view .LVU76
 259 00d2 0025     		movs	r5, #0
 260              	.LVL25:
 261              	.L2:
 202:Drivers/STM32G0xx_HAL_Driver/Src/stm32g0xx_hal_rcc_ex.c ****     }
 203:Drivers/STM32G0xx_HAL_Driver/Src/stm32g0xx_hal_rcc_ex.c ****   }
 204:Drivers/STM32G0xx_HAL_Driver/Src/stm32g0xx_hal_rcc_ex.c **** 
 205:Drivers/STM32G0xx_HAL_Driver/Src/stm32g0xx_hal_rcc_ex.c ****   /*-------------------------- USART1 clock source configuration -------------------*/
 206:Drivers/STM32G0xx_HAL_Driver/Src/stm32g0xx_hal_rcc_ex.c ****   if (((PeriphClkInit->PeriphClockSelection) & RCC_PERIPHCLK_USART1) == RCC_PERIPHCLK_USART1)
 262              		.loc 1 206 3 is_stmt 1 view .LVU77
 263              		.loc 1 206 6 is_stmt 0 view .LVU78
 264 00d4 2368     		ldr	r3, [r4]
 265 00d6 DB07     		lsls	r3, r3, #31
 266 00d8 06D5     		bpl	.L12
 207:Drivers/STM32G0xx_HAL_Driver/Src/stm32g0xx_hal_rcc_ex.c ****   {
 208:Drivers/STM32G0xx_HAL_Driver/Src/stm32g0xx_hal_rcc_ex.c ****     /* Check the parameters */
 209:Drivers/STM32G0xx_HAL_Driver/Src/stm32g0xx_hal_rcc_ex.c ****     assert_param(IS_RCC_USART1CLKSOURCE(PeriphClkInit->Usart1ClockSelection));
 267              		.loc 1 209 5 is_stmt 1 view .LVU79
 210:Drivers/STM32G0xx_HAL_Driver/Src/stm32g0xx_hal_rcc_ex.c **** 
 211:Drivers/STM32G0xx_HAL_Driver/Src/stm32g0xx_hal_rcc_ex.c ****     /* Configure the USART1 clock source */
 212:Drivers/STM32G0xx_HAL_Driver/Src/stm32g0xx_hal_rcc_ex.c ****     __HAL_RCC_USART1_CONFIG(PeriphClkInit->Usart1ClockSelection);
 268              		.loc 1 212 5 view .LVU80
 269 00da 4E4A     		ldr	r2, .L33
 270 00dc 536D     		ldr	r3, [r2, #84]
 271 00de 0321     		movs	r1, #3
 272 00e0 8B43     		bics	r3, r1
 273 00e2 6168     		ldr	r1, [r4, #4]
 274 00e4 0B43     		orrs	r3, r1
 275 00e6 5365     		str	r3, [r2, #84]
 276              	.L12:
 213:Drivers/STM32G0xx_HAL_Driver/Src/stm32g0xx_hal_rcc_ex.c ****   }
 214:Drivers/STM32G0xx_HAL_Driver/Src/stm32g0xx_hal_rcc_ex.c **** 
 215:Drivers/STM32G0xx_HAL_Driver/Src/stm32g0xx_hal_rcc_ex.c **** #if defined(RCC_CCIPR_USART2SEL)
 216:Drivers/STM32G0xx_HAL_Driver/Src/stm32g0xx_hal_rcc_ex.c ****   /*-------------------------- USART2 clock source configuration -------------------*/
 217:Drivers/STM32G0xx_HAL_Driver/Src/stm32g0xx_hal_rcc_ex.c ****   if (((PeriphClkInit->PeriphClockSelection) & RCC_PERIPHCLK_USART2) == RCC_PERIPHCLK_USART2)
 277              		.loc 1 217 3 view .LVU81
 278              		.loc 1 217 6 is_stmt 0 view .LVU82
 279 00e8 2368     		ldr	r3, [r4]
 280 00ea 9B07     		lsls	r3, r3, #30
ARM GAS  C:\Users\matil\AppData\Local\Temp\ccFWmvIF.s 			page 10


 281 00ec 06D5     		bpl	.L13
 218:Drivers/STM32G0xx_HAL_Driver/Src/stm32g0xx_hal_rcc_ex.c ****   {
 219:Drivers/STM32G0xx_HAL_Driver/Src/stm32g0xx_hal_rcc_ex.c ****     /* Check the parameters */
 220:Drivers/STM32G0xx_HAL_Driver/Src/stm32g0xx_hal_rcc_ex.c ****     assert_param(IS_RCC_USART2CLKSOURCE(PeriphClkInit->Usart2ClockSelection));
 282              		.loc 1 220 5 is_stmt 1 view .LVU83
 221:Drivers/STM32G0xx_HAL_Driver/Src/stm32g0xx_hal_rcc_ex.c **** 
 222:Drivers/STM32G0xx_HAL_Driver/Src/stm32g0xx_hal_rcc_ex.c ****     /* Configure the USART2 clock source */
 223:Drivers/STM32G0xx_HAL_Driver/Src/stm32g0xx_hal_rcc_ex.c ****     __HAL_RCC_USART2_CONFIG(PeriphClkInit->Usart2ClockSelection);
 283              		.loc 1 223 5 view .LVU84
 284 00ee 494A     		ldr	r2, .L33
 285 00f0 536D     		ldr	r3, [r2, #84]
 286 00f2 0C21     		movs	r1, #12
 287 00f4 8B43     		bics	r3, r1
 288 00f6 A168     		ldr	r1, [r4, #8]
 289 00f8 0B43     		orrs	r3, r1
 290 00fa 5365     		str	r3, [r2, #84]
 291              	.L13:
 224:Drivers/STM32G0xx_HAL_Driver/Src/stm32g0xx_hal_rcc_ex.c ****   }
 225:Drivers/STM32G0xx_HAL_Driver/Src/stm32g0xx_hal_rcc_ex.c **** #endif /* RCC_CCIPR_USART2SEL */
 226:Drivers/STM32G0xx_HAL_Driver/Src/stm32g0xx_hal_rcc_ex.c **** 
 227:Drivers/STM32G0xx_HAL_Driver/Src/stm32g0xx_hal_rcc_ex.c **** #if defined(RCC_CCIPR_LPUART1SEL)
 228:Drivers/STM32G0xx_HAL_Driver/Src/stm32g0xx_hal_rcc_ex.c ****   /*-------------------------- LPUART1 clock source configuration ------------------*/
 229:Drivers/STM32G0xx_HAL_Driver/Src/stm32g0xx_hal_rcc_ex.c ****   if (((PeriphClkInit->PeriphClockSelection) & RCC_PERIPHCLK_LPUART1) == RCC_PERIPHCLK_LPUART1)
 292              		.loc 1 229 3 view .LVU85
 293              		.loc 1 229 6 is_stmt 0 view .LVU86
 294 00fc 2368     		ldr	r3, [r4]
 295 00fe 9B06     		lsls	r3, r3, #26
 296 0100 06D5     		bpl	.L14
 230:Drivers/STM32G0xx_HAL_Driver/Src/stm32g0xx_hal_rcc_ex.c ****   {
 231:Drivers/STM32G0xx_HAL_Driver/Src/stm32g0xx_hal_rcc_ex.c ****     /* Check the parameters */
 232:Drivers/STM32G0xx_HAL_Driver/Src/stm32g0xx_hal_rcc_ex.c ****     assert_param(IS_RCC_LPUART1CLKSOURCE(PeriphClkInit->Lpuart1ClockSelection));
 297              		.loc 1 232 5 is_stmt 1 view .LVU87
 233:Drivers/STM32G0xx_HAL_Driver/Src/stm32g0xx_hal_rcc_ex.c **** 
 234:Drivers/STM32G0xx_HAL_Driver/Src/stm32g0xx_hal_rcc_ex.c ****     /* Configure the LPUAR1 clock source */
 235:Drivers/STM32G0xx_HAL_Driver/Src/stm32g0xx_hal_rcc_ex.c ****     __HAL_RCC_LPUART1_CONFIG(PeriphClkInit->Lpuart1ClockSelection);
 298              		.loc 1 235 5 view .LVU88
 299 0102 444A     		ldr	r2, .L33
 300 0104 536D     		ldr	r3, [r2, #84]
 301 0106 4949     		ldr	r1, .L33+24
 302 0108 0B40     		ands	r3, r1
 303 010a E168     		ldr	r1, [r4, #12]
 304 010c 0B43     		orrs	r3, r1
 305 010e 5365     		str	r3, [r2, #84]
 306              	.L14:
 236:Drivers/STM32G0xx_HAL_Driver/Src/stm32g0xx_hal_rcc_ex.c ****   }
 237:Drivers/STM32G0xx_HAL_Driver/Src/stm32g0xx_hal_rcc_ex.c **** #endif /* RCC_CCIPR_LPUART1SEL */
 238:Drivers/STM32G0xx_HAL_Driver/Src/stm32g0xx_hal_rcc_ex.c **** 
 239:Drivers/STM32G0xx_HAL_Driver/Src/stm32g0xx_hal_rcc_ex.c **** #if defined(RCC_CCIPR_LPTIM1SEL)
 240:Drivers/STM32G0xx_HAL_Driver/Src/stm32g0xx_hal_rcc_ex.c ****   /*-------------------------- LPTIM1 clock source configuration -------------------*/
 241:Drivers/STM32G0xx_HAL_Driver/Src/stm32g0xx_hal_rcc_ex.c ****   if (((PeriphClkInit->PeriphClockSelection) & RCC_PERIPHCLK_LPTIM1) == (RCC_PERIPHCLK_LPTIM1))
 307              		.loc 1 241 3 view .LVU89
 308              		.loc 1 241 6 is_stmt 0 view .LVU90
 309 0110 2368     		ldr	r3, [r4]
 310 0112 9B05     		lsls	r3, r3, #22
 311 0114 06D5     		bpl	.L15
 242:Drivers/STM32G0xx_HAL_Driver/Src/stm32g0xx_hal_rcc_ex.c ****   {
 243:Drivers/STM32G0xx_HAL_Driver/Src/stm32g0xx_hal_rcc_ex.c ****     assert_param(IS_RCC_LPTIM1CLKSOURCE(PeriphClkInit->Lptim1ClockSelection));
ARM GAS  C:\Users\matil\AppData\Local\Temp\ccFWmvIF.s 			page 11


 312              		.loc 1 243 5 is_stmt 1 view .LVU91
 244:Drivers/STM32G0xx_HAL_Driver/Src/stm32g0xx_hal_rcc_ex.c ****     __HAL_RCC_LPTIM1_CONFIG(PeriphClkInit->Lptim1ClockSelection);
 313              		.loc 1 244 5 view .LVU92
 314 0116 3F4A     		ldr	r2, .L33
 315 0118 536D     		ldr	r3, [r2, #84]
 316 011a 4549     		ldr	r1, .L33+28
 317 011c 0B40     		ands	r3, r1
 318 011e A169     		ldr	r1, [r4, #24]
 319 0120 0B43     		orrs	r3, r1
 320 0122 5365     		str	r3, [r2, #84]
 321              	.L15:
 245:Drivers/STM32G0xx_HAL_Driver/Src/stm32g0xx_hal_rcc_ex.c ****   }
 246:Drivers/STM32G0xx_HAL_Driver/Src/stm32g0xx_hal_rcc_ex.c **** #endif /* RCC_CCIPR_LPTIM1SEL */
 247:Drivers/STM32G0xx_HAL_Driver/Src/stm32g0xx_hal_rcc_ex.c **** 
 248:Drivers/STM32G0xx_HAL_Driver/Src/stm32g0xx_hal_rcc_ex.c **** #if defined(RCC_CCIPR_LPTIM2SEL)
 249:Drivers/STM32G0xx_HAL_Driver/Src/stm32g0xx_hal_rcc_ex.c ****   /*-------------------------- LPTIM2 clock source configuration -------------------*/
 250:Drivers/STM32G0xx_HAL_Driver/Src/stm32g0xx_hal_rcc_ex.c ****   if (((PeriphClkInit->PeriphClockSelection) & RCC_PERIPHCLK_LPTIM2) == (RCC_PERIPHCLK_LPTIM2))
 322              		.loc 1 250 3 view .LVU93
 323              		.loc 1 250 6 is_stmt 0 view .LVU94
 324 0124 2368     		ldr	r3, [r4]
 325 0126 5B05     		lsls	r3, r3, #21
 326 0128 06D5     		bpl	.L16
 251:Drivers/STM32G0xx_HAL_Driver/Src/stm32g0xx_hal_rcc_ex.c ****   {
 252:Drivers/STM32G0xx_HAL_Driver/Src/stm32g0xx_hal_rcc_ex.c ****     assert_param(IS_RCC_LPTIM2CLKSOURCE(PeriphClkInit->Lptim2ClockSelection));
 327              		.loc 1 252 5 is_stmt 1 view .LVU95
 253:Drivers/STM32G0xx_HAL_Driver/Src/stm32g0xx_hal_rcc_ex.c ****     __HAL_RCC_LPTIM2_CONFIG(PeriphClkInit->Lptim2ClockSelection);
 328              		.loc 1 253 5 view .LVU96
 329 012a 3A4A     		ldr	r2, .L33
 330 012c 536D     		ldr	r3, [r2, #84]
 331 012e 4149     		ldr	r1, .L33+32
 332 0130 0B40     		ands	r3, r1
 333 0132 E169     		ldr	r1, [r4, #28]
 334 0134 0B43     		orrs	r3, r1
 335 0136 5365     		str	r3, [r2, #84]
 336              	.L16:
 254:Drivers/STM32G0xx_HAL_Driver/Src/stm32g0xx_hal_rcc_ex.c ****   }
 255:Drivers/STM32G0xx_HAL_Driver/Src/stm32g0xx_hal_rcc_ex.c **** #endif /* RCC_CCIPR_LPTIM2SEL */
 256:Drivers/STM32G0xx_HAL_Driver/Src/stm32g0xx_hal_rcc_ex.c **** 
 257:Drivers/STM32G0xx_HAL_Driver/Src/stm32g0xx_hal_rcc_ex.c ****   /*-------------------------- I2C1 clock source configuration ---------------------*/
 258:Drivers/STM32G0xx_HAL_Driver/Src/stm32g0xx_hal_rcc_ex.c ****   if (((PeriphClkInit->PeriphClockSelection) & RCC_PERIPHCLK_I2C1) == RCC_PERIPHCLK_I2C1)
 337              		.loc 1 258 3 view .LVU97
 338              		.loc 1 258 6 is_stmt 0 view .LVU98
 339 0138 2368     		ldr	r3, [r4]
 340 013a 5B06     		lsls	r3, r3, #25
 341 013c 06D5     		bpl	.L17
 259:Drivers/STM32G0xx_HAL_Driver/Src/stm32g0xx_hal_rcc_ex.c ****   {
 260:Drivers/STM32G0xx_HAL_Driver/Src/stm32g0xx_hal_rcc_ex.c ****     /* Check the parameters */
 261:Drivers/STM32G0xx_HAL_Driver/Src/stm32g0xx_hal_rcc_ex.c ****     assert_param(IS_RCC_I2C1CLKSOURCE(PeriphClkInit->I2c1ClockSelection));
 342              		.loc 1 261 5 is_stmt 1 view .LVU99
 262:Drivers/STM32G0xx_HAL_Driver/Src/stm32g0xx_hal_rcc_ex.c **** 
 263:Drivers/STM32G0xx_HAL_Driver/Src/stm32g0xx_hal_rcc_ex.c ****     /* Configure the I2C1 clock source */
 264:Drivers/STM32G0xx_HAL_Driver/Src/stm32g0xx_hal_rcc_ex.c ****     __HAL_RCC_I2C1_CONFIG(PeriphClkInit->I2c1ClockSelection);
 343              		.loc 1 264 5 view .LVU100
 344 013e 354A     		ldr	r2, .L33
 345 0140 536D     		ldr	r3, [r2, #84]
 346 0142 3D49     		ldr	r1, .L33+36
 347 0144 0B40     		ands	r3, r1
ARM GAS  C:\Users\matil\AppData\Local\Temp\ccFWmvIF.s 			page 12


 348 0146 2169     		ldr	r1, [r4, #16]
 349 0148 0B43     		orrs	r3, r1
 350 014a 5365     		str	r3, [r2, #84]
 351              	.L17:
 265:Drivers/STM32G0xx_HAL_Driver/Src/stm32g0xx_hal_rcc_ex.c ****   }
 266:Drivers/STM32G0xx_HAL_Driver/Src/stm32g0xx_hal_rcc_ex.c **** 
 267:Drivers/STM32G0xx_HAL_Driver/Src/stm32g0xx_hal_rcc_ex.c **** #if defined(RCC_CCIPR_RNGSEL)
 268:Drivers/STM32G0xx_HAL_Driver/Src/stm32g0xx_hal_rcc_ex.c ****   /*-------------------------- RNG clock source configuration ----------------------*/
 269:Drivers/STM32G0xx_HAL_Driver/Src/stm32g0xx_hal_rcc_ex.c ****   if (((PeriphClkInit->PeriphClockSelection) & RCC_PERIPHCLK_RNG) == (RCC_PERIPHCLK_RNG))
 270:Drivers/STM32G0xx_HAL_Driver/Src/stm32g0xx_hal_rcc_ex.c ****   {
 271:Drivers/STM32G0xx_HAL_Driver/Src/stm32g0xx_hal_rcc_ex.c ****     assert_param(IS_RCC_RNGCLKSOURCE(PeriphClkInit->RngClockSelection));
 272:Drivers/STM32G0xx_HAL_Driver/Src/stm32g0xx_hal_rcc_ex.c ****     __HAL_RCC_RNG_CONFIG(PeriphClkInit->RngClockSelection);
 273:Drivers/STM32G0xx_HAL_Driver/Src/stm32g0xx_hal_rcc_ex.c **** 
 274:Drivers/STM32G0xx_HAL_Driver/Src/stm32g0xx_hal_rcc_ex.c ****     if (PeriphClkInit->RngClockSelection == RCC_RNGCLKSOURCE_PLL)
 275:Drivers/STM32G0xx_HAL_Driver/Src/stm32g0xx_hal_rcc_ex.c ****     {
 276:Drivers/STM32G0xx_HAL_Driver/Src/stm32g0xx_hal_rcc_ex.c ****       /* Enable PLLQCLK output */
 277:Drivers/STM32G0xx_HAL_Driver/Src/stm32g0xx_hal_rcc_ex.c ****       __HAL_RCC_PLLCLKOUT_ENABLE(RCC_PLLQCLK);
 278:Drivers/STM32G0xx_HAL_Driver/Src/stm32g0xx_hal_rcc_ex.c ****     }
 279:Drivers/STM32G0xx_HAL_Driver/Src/stm32g0xx_hal_rcc_ex.c ****   }
 280:Drivers/STM32G0xx_HAL_Driver/Src/stm32g0xx_hal_rcc_ex.c **** #endif /* RCC_CCIPR_RNGSEL */
 281:Drivers/STM32G0xx_HAL_Driver/Src/stm32g0xx_hal_rcc_ex.c ****   /*-------------------------- ADC clock source configuration ----------------------*/
 282:Drivers/STM32G0xx_HAL_Driver/Src/stm32g0xx_hal_rcc_ex.c ****   if (((PeriphClkInit->PeriphClockSelection) & RCC_PERIPHCLK_ADC) == RCC_PERIPHCLK_ADC)
 352              		.loc 1 282 3 view .LVU101
 353              		.loc 1 282 6 is_stmt 0 view .LVU102
 354 014c 2368     		ldr	r3, [r4]
 355 014e 5B04     		lsls	r3, r3, #17
 356 0150 0BD5     		bpl	.L18
 283:Drivers/STM32G0xx_HAL_Driver/Src/stm32g0xx_hal_rcc_ex.c ****   {
 284:Drivers/STM32G0xx_HAL_Driver/Src/stm32g0xx_hal_rcc_ex.c ****     /* Check the parameters */
 285:Drivers/STM32G0xx_HAL_Driver/Src/stm32g0xx_hal_rcc_ex.c ****     assert_param(IS_RCC_ADCCLKSOURCE(PeriphClkInit->AdcClockSelection));
 357              		.loc 1 285 5 is_stmt 1 view .LVU103
 286:Drivers/STM32G0xx_HAL_Driver/Src/stm32g0xx_hal_rcc_ex.c **** 
 287:Drivers/STM32G0xx_HAL_Driver/Src/stm32g0xx_hal_rcc_ex.c ****     /* Configure the ADC interface clock source */
 288:Drivers/STM32G0xx_HAL_Driver/Src/stm32g0xx_hal_rcc_ex.c ****     __HAL_RCC_ADC_CONFIG(PeriphClkInit->AdcClockSelection);
 358              		.loc 1 288 5 view .LVU104
 359 0152 304A     		ldr	r2, .L33
 360 0154 536D     		ldr	r3, [r2, #84]
 361 0156 9B00     		lsls	r3, r3, #2
 362 0158 9B08     		lsrs	r3, r3, #2
 363 015a 216A     		ldr	r1, [r4, #32]
 364 015c 0B43     		orrs	r3, r1
 365 015e 5365     		str	r3, [r2, #84]
 289:Drivers/STM32G0xx_HAL_Driver/Src/stm32g0xx_hal_rcc_ex.c **** 
 290:Drivers/STM32G0xx_HAL_Driver/Src/stm32g0xx_hal_rcc_ex.c ****     if (PeriphClkInit->AdcClockSelection == RCC_ADCCLKSOURCE_PLLADC)
 366              		.loc 1 290 5 view .LVU105
 367              		.loc 1 290 8 is_stmt 0 view .LVU106
 368 0160 8023     		movs	r3, #128
 369 0162 DB05     		lsls	r3, r3, #23
 370 0164 226A     		ldr	r2, [r4, #32]
 371 0166 9A42     		cmp	r2, r3
 372 0168 39D0     		beq	.L29
 373              	.L18:
 291:Drivers/STM32G0xx_HAL_Driver/Src/stm32g0xx_hal_rcc_ex.c ****     {
 292:Drivers/STM32G0xx_HAL_Driver/Src/stm32g0xx_hal_rcc_ex.c ****       /* Enable PLLPCLK output */
 293:Drivers/STM32G0xx_HAL_Driver/Src/stm32g0xx_hal_rcc_ex.c ****       __HAL_RCC_PLLCLKOUT_ENABLE(RCC_PLLPCLK);
 294:Drivers/STM32G0xx_HAL_Driver/Src/stm32g0xx_hal_rcc_ex.c ****     }
 295:Drivers/STM32G0xx_HAL_Driver/Src/stm32g0xx_hal_rcc_ex.c ****   }
ARM GAS  C:\Users\matil\AppData\Local\Temp\ccFWmvIF.s 			page 13


 296:Drivers/STM32G0xx_HAL_Driver/Src/stm32g0xx_hal_rcc_ex.c **** 
 297:Drivers/STM32G0xx_HAL_Driver/Src/stm32g0xx_hal_rcc_ex.c **** #if defined(RCC_CCIPR_CECSEL)
 298:Drivers/STM32G0xx_HAL_Driver/Src/stm32g0xx_hal_rcc_ex.c ****   /*-------------------------- CEC clock source configuration ---------------------*/
 299:Drivers/STM32G0xx_HAL_Driver/Src/stm32g0xx_hal_rcc_ex.c ****   if (((PeriphClkInit->PeriphClockSelection) & RCC_PERIPHCLK_CEC) == RCC_PERIPHCLK_CEC)
 374              		.loc 1 299 3 is_stmt 1 view .LVU107
 375              		.loc 1 299 6 is_stmt 0 view .LVU108
 376 016a 2368     		ldr	r3, [r4]
 377 016c 1B03     		lsls	r3, r3, #12
 378 016e 06D5     		bpl	.L19
 300:Drivers/STM32G0xx_HAL_Driver/Src/stm32g0xx_hal_rcc_ex.c ****   {
 301:Drivers/STM32G0xx_HAL_Driver/Src/stm32g0xx_hal_rcc_ex.c ****     /* Check the parameters */
 302:Drivers/STM32G0xx_HAL_Driver/Src/stm32g0xx_hal_rcc_ex.c ****     assert_param(IS_RCC_CECCLKSOURCE(PeriphClkInit->CecClockSelection));
 379              		.loc 1 302 5 is_stmt 1 view .LVU109
 303:Drivers/STM32G0xx_HAL_Driver/Src/stm32g0xx_hal_rcc_ex.c **** 
 304:Drivers/STM32G0xx_HAL_Driver/Src/stm32g0xx_hal_rcc_ex.c ****     /* Configure the CEC clock source */
 305:Drivers/STM32G0xx_HAL_Driver/Src/stm32g0xx_hal_rcc_ex.c ****     __HAL_RCC_CEC_CONFIG(PeriphClkInit->CecClockSelection);
 380              		.loc 1 305 5 view .LVU110
 381 0170 284A     		ldr	r2, .L33
 382 0172 536D     		ldr	r3, [r2, #84]
 383 0174 4021     		movs	r1, #64
 384 0176 8B43     		bics	r3, r1
 385 0178 616A     		ldr	r1, [r4, #36]
 386 017a 0B43     		orrs	r3, r1
 387 017c 5365     		str	r3, [r2, #84]
 388              	.L19:
 306:Drivers/STM32G0xx_HAL_Driver/Src/stm32g0xx_hal_rcc_ex.c ****   }
 307:Drivers/STM32G0xx_HAL_Driver/Src/stm32g0xx_hal_rcc_ex.c **** #endif /* RCC_CCIPR_CECSEL */
 308:Drivers/STM32G0xx_HAL_Driver/Src/stm32g0xx_hal_rcc_ex.c **** 
 309:Drivers/STM32G0xx_HAL_Driver/Src/stm32g0xx_hal_rcc_ex.c **** #if defined(RCC_CCIPR_TIM1SEL)
 310:Drivers/STM32G0xx_HAL_Driver/Src/stm32g0xx_hal_rcc_ex.c ****   /*-------------------------- TIM1 clock source configuration ---------------------*/
 311:Drivers/STM32G0xx_HAL_Driver/Src/stm32g0xx_hal_rcc_ex.c ****   if (((PeriphClkInit->PeriphClockSelection) & RCC_PERIPHCLK_TIM1) == RCC_PERIPHCLK_TIM1)
 389              		.loc 1 311 3 view .LVU111
 390              		.loc 1 311 6 is_stmt 0 view .LVU112
 391 017e 2368     		ldr	r3, [r4]
 392 0180 9B02     		lsls	r3, r3, #10
 393 0182 0BD5     		bpl	.L20
 312:Drivers/STM32G0xx_HAL_Driver/Src/stm32g0xx_hal_rcc_ex.c ****   {
 313:Drivers/STM32G0xx_HAL_Driver/Src/stm32g0xx_hal_rcc_ex.c ****     /* Check the parameters */
 314:Drivers/STM32G0xx_HAL_Driver/Src/stm32g0xx_hal_rcc_ex.c ****     assert_param(IS_RCC_TIM1CLKSOURCE(PeriphClkInit->Tim1ClockSelection));
 394              		.loc 1 314 5 is_stmt 1 view .LVU113
 315:Drivers/STM32G0xx_HAL_Driver/Src/stm32g0xx_hal_rcc_ex.c **** 
 316:Drivers/STM32G0xx_HAL_Driver/Src/stm32g0xx_hal_rcc_ex.c ****     /* Configure the TIM1 clock source */
 317:Drivers/STM32G0xx_HAL_Driver/Src/stm32g0xx_hal_rcc_ex.c ****     __HAL_RCC_TIM1_CONFIG(PeriphClkInit->Tim1ClockSelection);
 395              		.loc 1 317 5 view .LVU114
 396 0184 234A     		ldr	r2, .L33
 397 0186 536D     		ldr	r3, [r2, #84]
 398 0188 2C49     		ldr	r1, .L33+40
 399 018a 0B40     		ands	r3, r1
 400 018c A16A     		ldr	r1, [r4, #40]
 401 018e 0B43     		orrs	r3, r1
 402 0190 5365     		str	r3, [r2, #84]
 318:Drivers/STM32G0xx_HAL_Driver/Src/stm32g0xx_hal_rcc_ex.c **** 
 319:Drivers/STM32G0xx_HAL_Driver/Src/stm32g0xx_hal_rcc_ex.c ****     if (PeriphClkInit->Tim1ClockSelection == RCC_TIM1CLKSOURCE_PLL)
 403              		.loc 1 319 5 view .LVU115
 404              		.loc 1 319 8 is_stmt 0 view .LVU116
 405 0192 8023     		movs	r3, #128
 406 0194 DB03     		lsls	r3, r3, #15
ARM GAS  C:\Users\matil\AppData\Local\Temp\ccFWmvIF.s 			page 14


 407 0196 A26A     		ldr	r2, [r4, #40]
 408 0198 9A42     		cmp	r2, r3
 409 019a 27D0     		beq	.L30
 410              	.L20:
 320:Drivers/STM32G0xx_HAL_Driver/Src/stm32g0xx_hal_rcc_ex.c ****     {
 321:Drivers/STM32G0xx_HAL_Driver/Src/stm32g0xx_hal_rcc_ex.c ****       /* Enable PLLQCLK output */
 322:Drivers/STM32G0xx_HAL_Driver/Src/stm32g0xx_hal_rcc_ex.c ****       __HAL_RCC_PLLCLKOUT_ENABLE(RCC_PLLQCLK);
 323:Drivers/STM32G0xx_HAL_Driver/Src/stm32g0xx_hal_rcc_ex.c ****     }
 324:Drivers/STM32G0xx_HAL_Driver/Src/stm32g0xx_hal_rcc_ex.c ****   }
 325:Drivers/STM32G0xx_HAL_Driver/Src/stm32g0xx_hal_rcc_ex.c **** #endif /* RCC_CCIPR_TIM1SEL */
 326:Drivers/STM32G0xx_HAL_Driver/Src/stm32g0xx_hal_rcc_ex.c **** 
 327:Drivers/STM32G0xx_HAL_Driver/Src/stm32g0xx_hal_rcc_ex.c **** #if defined(RCC_CCIPR_TIM15SEL)
 328:Drivers/STM32G0xx_HAL_Driver/Src/stm32g0xx_hal_rcc_ex.c ****   /*-------------------------- TIM15 clock source configuration ---------------------*/
 329:Drivers/STM32G0xx_HAL_Driver/Src/stm32g0xx_hal_rcc_ex.c ****   if (((PeriphClkInit->PeriphClockSelection) & RCC_PERIPHCLK_TIM15) == RCC_PERIPHCLK_TIM15)
 411              		.loc 1 329 3 is_stmt 1 view .LVU117
 412              		.loc 1 329 6 is_stmt 0 view .LVU118
 413 019c 2368     		ldr	r3, [r4]
 414 019e 5B02     		lsls	r3, r3, #9
 415 01a0 0BD5     		bpl	.L21
 330:Drivers/STM32G0xx_HAL_Driver/Src/stm32g0xx_hal_rcc_ex.c ****   {
 331:Drivers/STM32G0xx_HAL_Driver/Src/stm32g0xx_hal_rcc_ex.c ****     /* Check the parameters */
 332:Drivers/STM32G0xx_HAL_Driver/Src/stm32g0xx_hal_rcc_ex.c ****     assert_param(IS_RCC_TIM15CLKSOURCE(PeriphClkInit->Tim15ClockSelection));
 416              		.loc 1 332 5 is_stmt 1 view .LVU119
 333:Drivers/STM32G0xx_HAL_Driver/Src/stm32g0xx_hal_rcc_ex.c **** 
 334:Drivers/STM32G0xx_HAL_Driver/Src/stm32g0xx_hal_rcc_ex.c ****     /* Configure the TIM15 clock source */
 335:Drivers/STM32G0xx_HAL_Driver/Src/stm32g0xx_hal_rcc_ex.c ****     __HAL_RCC_TIM15_CONFIG(PeriphClkInit->Tim15ClockSelection);
 417              		.loc 1 335 5 view .LVU120
 418 01a2 1C4A     		ldr	r2, .L33
 419 01a4 536D     		ldr	r3, [r2, #84]
 420 01a6 2649     		ldr	r1, .L33+44
 421 01a8 0B40     		ands	r3, r1
 422 01aa E16A     		ldr	r1, [r4, #44]
 423 01ac 0B43     		orrs	r3, r1
 424 01ae 5365     		str	r3, [r2, #84]
 336:Drivers/STM32G0xx_HAL_Driver/Src/stm32g0xx_hal_rcc_ex.c **** 
 337:Drivers/STM32G0xx_HAL_Driver/Src/stm32g0xx_hal_rcc_ex.c ****     if (PeriphClkInit->Tim15ClockSelection == RCC_TIM15CLKSOURCE_PLL)
 425              		.loc 1 337 5 view .LVU121
 426              		.loc 1 337 8 is_stmt 0 view .LVU122
 427 01b0 8023     		movs	r3, #128
 428 01b2 5B04     		lsls	r3, r3, #17
 429 01b4 E26A     		ldr	r2, [r4, #44]
 430 01b6 9A42     		cmp	r2, r3
 431 01b8 1FD0     		beq	.L31
 432              	.L21:
 338:Drivers/STM32G0xx_HAL_Driver/Src/stm32g0xx_hal_rcc_ex.c ****     {
 339:Drivers/STM32G0xx_HAL_Driver/Src/stm32g0xx_hal_rcc_ex.c ****       /* Enable PLLQCLK output */
 340:Drivers/STM32G0xx_HAL_Driver/Src/stm32g0xx_hal_rcc_ex.c ****       __HAL_RCC_PLLCLKOUT_ENABLE(RCC_PLLQCLK);
 341:Drivers/STM32G0xx_HAL_Driver/Src/stm32g0xx_hal_rcc_ex.c ****     }
 342:Drivers/STM32G0xx_HAL_Driver/Src/stm32g0xx_hal_rcc_ex.c ****   }
 343:Drivers/STM32G0xx_HAL_Driver/Src/stm32g0xx_hal_rcc_ex.c **** #endif /* RCC_CCIPR_TIM15SEL */
 344:Drivers/STM32G0xx_HAL_Driver/Src/stm32g0xx_hal_rcc_ex.c **** 
 345:Drivers/STM32G0xx_HAL_Driver/Src/stm32g0xx_hal_rcc_ex.c ****   /*-------------------------- I2S1 clock source configuration ---------------------*/
 346:Drivers/STM32G0xx_HAL_Driver/Src/stm32g0xx_hal_rcc_ex.c ****   if (((PeriphClkInit->PeriphClockSelection) & RCC_PERIPHCLK_I2S1) == RCC_PERIPHCLK_I2S1)
 433              		.loc 1 346 3 is_stmt 1 view .LVU123
 434              		.loc 1 346 6 is_stmt 0 view .LVU124
 435 01ba 2368     		ldr	r3, [r4]
 436 01bc 1B05     		lsls	r3, r3, #20
ARM GAS  C:\Users\matil\AppData\Local\Temp\ccFWmvIF.s 			page 15


 437 01be 0BD5     		bpl	.L22
 347:Drivers/STM32G0xx_HAL_Driver/Src/stm32g0xx_hal_rcc_ex.c ****   {
 348:Drivers/STM32G0xx_HAL_Driver/Src/stm32g0xx_hal_rcc_ex.c ****     /* Check the parameters */
 349:Drivers/STM32G0xx_HAL_Driver/Src/stm32g0xx_hal_rcc_ex.c ****     assert_param(IS_RCC_I2S1CLKSOURCE(PeriphClkInit->I2s1ClockSelection));
 438              		.loc 1 349 5 is_stmt 1 view .LVU125
 350:Drivers/STM32G0xx_HAL_Driver/Src/stm32g0xx_hal_rcc_ex.c **** 
 351:Drivers/STM32G0xx_HAL_Driver/Src/stm32g0xx_hal_rcc_ex.c ****     /* Configure the I2S1 clock source */
 352:Drivers/STM32G0xx_HAL_Driver/Src/stm32g0xx_hal_rcc_ex.c ****     __HAL_RCC_I2S1_CONFIG(PeriphClkInit->I2s1ClockSelection);
 439              		.loc 1 352 5 view .LVU126
 440 01c0 144A     		ldr	r2, .L33
 441 01c2 536D     		ldr	r3, [r2, #84]
 442 01c4 1F49     		ldr	r1, .L33+48
 443 01c6 0B40     		ands	r3, r1
 444 01c8 6169     		ldr	r1, [r4, #20]
 445 01ca 0B43     		orrs	r3, r1
 446 01cc 5365     		str	r3, [r2, #84]
 353:Drivers/STM32G0xx_HAL_Driver/Src/stm32g0xx_hal_rcc_ex.c **** 
 354:Drivers/STM32G0xx_HAL_Driver/Src/stm32g0xx_hal_rcc_ex.c ****     if (PeriphClkInit->I2s1ClockSelection == RCC_I2S1CLKSOURCE_PLL)
 447              		.loc 1 354 5 view .LVU127
 448              		.loc 1 354 22 is_stmt 0 view .LVU128
 449 01ce 6269     		ldr	r2, [r4, #20]
 450              		.loc 1 354 8 view .LVU129
 451 01d0 8023     		movs	r3, #128
 452 01d2 DB01     		lsls	r3, r3, #7
 453 01d4 9A42     		cmp	r2, r3
 454 01d6 15D0     		beq	.L32
 455              	.L22:
 355:Drivers/STM32G0xx_HAL_Driver/Src/stm32g0xx_hal_rcc_ex.c ****     {
 356:Drivers/STM32G0xx_HAL_Driver/Src/stm32g0xx_hal_rcc_ex.c ****       /* Enable PLLPCLK output */
 357:Drivers/STM32G0xx_HAL_Driver/Src/stm32g0xx_hal_rcc_ex.c ****       __HAL_RCC_PLLCLKOUT_ENABLE(RCC_PLLPCLK);
 358:Drivers/STM32G0xx_HAL_Driver/Src/stm32g0xx_hal_rcc_ex.c ****     }
 359:Drivers/STM32G0xx_HAL_Driver/Src/stm32g0xx_hal_rcc_ex.c ****   }
 360:Drivers/STM32G0xx_HAL_Driver/Src/stm32g0xx_hal_rcc_ex.c **** 
 361:Drivers/STM32G0xx_HAL_Driver/Src/stm32g0xx_hal_rcc_ex.c ****   return status;
 456              		.loc 1 361 3 is_stmt 1 view .LVU130
 362:Drivers/STM32G0xx_HAL_Driver/Src/stm32g0xx_hal_rcc_ex.c **** }
 457              		.loc 1 362 1 is_stmt 0 view .LVU131
 458 01d8 2800     		movs	r0, r5
 459 01da 03B0     		add	sp, sp, #12
 460              		@ sp needed
 461              	.LVL26:
 462              	.LVL27:
 463              		.loc 1 362 1 view .LVU132
 464 01dc F0BD     		pop	{r4, r5, r6, r7, pc}
 465              	.LVL28:
 466              	.L29:
 293:Drivers/STM32G0xx_HAL_Driver/Src/stm32g0xx_hal_rcc_ex.c ****     }
 467              		.loc 1 293 7 is_stmt 1 view .LVU133
 468 01de 0D4A     		ldr	r2, .L33
 469 01e0 D168     		ldr	r1, [r2, #12]
 470 01e2 8023     		movs	r3, #128
 471 01e4 5B02     		lsls	r3, r3, #9
 472 01e6 0B43     		orrs	r3, r1
 473 01e8 D360     		str	r3, [r2, #12]
 474 01ea BEE7     		b	.L18
 475              	.L30:
 322:Drivers/STM32G0xx_HAL_Driver/Src/stm32g0xx_hal_rcc_ex.c ****     }
ARM GAS  C:\Users\matil\AppData\Local\Temp\ccFWmvIF.s 			page 16


 476              		.loc 1 322 7 view .LVU134
 477 01ec 094A     		ldr	r2, .L33
 478 01ee D168     		ldr	r1, [r2, #12]
 479 01f0 8023     		movs	r3, #128
 480 01f2 5B04     		lsls	r3, r3, #17
 481 01f4 0B43     		orrs	r3, r1
 482 01f6 D360     		str	r3, [r2, #12]
 483 01f8 D0E7     		b	.L20
 484              	.L31:
 340:Drivers/STM32G0xx_HAL_Driver/Src/stm32g0xx_hal_rcc_ex.c ****     }
 485              		.loc 1 340 7 view .LVU135
 486 01fa 064A     		ldr	r2, .L33
 487 01fc D168     		ldr	r1, [r2, #12]
 488 01fe 0B43     		orrs	r3, r1
 489 0200 D360     		str	r3, [r2, #12]
 490 0202 DAE7     		b	.L21
 491              	.L32:
 357:Drivers/STM32G0xx_HAL_Driver/Src/stm32g0xx_hal_rcc_ex.c ****     }
 492              		.loc 1 357 7 view .LVU136
 493 0204 034A     		ldr	r2, .L33
 494 0206 D168     		ldr	r1, [r2, #12]
 495 0208 8023     		movs	r3, #128
 496 020a 5B02     		lsls	r3, r3, #9
 497 020c 0B43     		orrs	r3, r1
 498 020e D360     		str	r3, [r2, #12]
 499 0210 E2E7     		b	.L22
 500              	.L34:
 501 0212 C046     		.align	2
 502              	.L33:
 503 0214 00100240 		.word	1073876992
 504 0218 00700040 		.word	1073770496
 505 021c FFFCFFFF 		.word	-769
 506 0220 FFFFFEFF 		.word	-65537
 507 0224 FFFFFFEF 		.word	-268435457
 508 0228 10270000 		.word	10000
 509 022c FFF3FFFF 		.word	-3073
 510 0230 FFFFF3FF 		.word	-786433
 511 0234 FFFFCFFF 		.word	-3145729
 512 0238 FFCFFFFF 		.word	-12289
 513 023c FFFFBFFF 		.word	-4194305
 514 0240 FFFFFFFE 		.word	-16777217
 515 0244 FF3FFFFF 		.word	-49153
 516              		.cfi_endproc
 517              	.LFE173:
 519              		.section	.text.HAL_RCCEx_GetPeriphCLKConfig,"ax",%progbits
 520              		.align	1
 521              		.global	HAL_RCCEx_GetPeriphCLKConfig
 522              		.syntax unified
 523              		.code	16
 524              		.thumb_func
 525              		.fpu softvfp
 527              	HAL_RCCEx_GetPeriphCLKConfig:
 528              	.LVL29:
 529              	.LFB174:
 363:Drivers/STM32G0xx_HAL_Driver/Src/stm32g0xx_hal_rcc_ex.c **** 
 364:Drivers/STM32G0xx_HAL_Driver/Src/stm32g0xx_hal_rcc_ex.c **** /**
 365:Drivers/STM32G0xx_HAL_Driver/Src/stm32g0xx_hal_rcc_ex.c ****   * @brief  Get the RCC_ClkInitStruct according to the internal RCC configuration registers.
ARM GAS  C:\Users\matil\AppData\Local\Temp\ccFWmvIF.s 			page 17


 366:Drivers/STM32G0xx_HAL_Driver/Src/stm32g0xx_hal_rcc_ex.c ****   * @param  PeriphClkInit pointer to an RCC_PeriphCLKInitTypeDef structure that
 367:Drivers/STM32G0xx_HAL_Driver/Src/stm32g0xx_hal_rcc_ex.c ****   *         returns the configuration information for the Extended Peripherals
 368:Drivers/STM32G0xx_HAL_Driver/Src/stm32g0xx_hal_rcc_ex.c ****   *         clocks: I2C1, I2S1, USART1, RTC, ADC,
 369:Drivers/STM32G0xx_HAL_Driver/Src/stm32g0xx_hal_rcc_ex.c ****   *         LPTIM1 (1), LPTIM2 (1), TIM1 (2), TIM15 (1)(2), USART2 (2), LPUART1 (1), CEC (1) and RN
 370:Drivers/STM32G0xx_HAL_Driver/Src/stm32g0xx_hal_rcc_ex.c ****   * @note (1) Peripheral is not available on all devices
 371:Drivers/STM32G0xx_HAL_Driver/Src/stm32g0xx_hal_rcc_ex.c ****   * @note (2) Peripheral clock selection is not available on all devices
 372:Drivers/STM32G0xx_HAL_Driver/Src/stm32g0xx_hal_rcc_ex.c ****   * @retval None
 373:Drivers/STM32G0xx_HAL_Driver/Src/stm32g0xx_hal_rcc_ex.c ****   */
 374:Drivers/STM32G0xx_HAL_Driver/Src/stm32g0xx_hal_rcc_ex.c **** void HAL_RCCEx_GetPeriphCLKConfig(RCC_PeriphCLKInitTypeDef  *PeriphClkInit)
 375:Drivers/STM32G0xx_HAL_Driver/Src/stm32g0xx_hal_rcc_ex.c **** {
 530              		.loc 1 375 1 view -0
 531              		.cfi_startproc
 532              		@ args = 0, pretend = 0, frame = 0
 533              		@ frame_needed = 0, uses_anonymous_args = 0
 534              		@ link register save eliminated.
 376:Drivers/STM32G0xx_HAL_Driver/Src/stm32g0xx_hal_rcc_ex.c ****   /* Set all possible values for the extended clock type parameter------------*/
 377:Drivers/STM32G0xx_HAL_Driver/Src/stm32g0xx_hal_rcc_ex.c ****   PeriphClkInit->PeriphClockSelection = RCC_PERIPHCLK_USART1 | RCC_PERIPHCLK_I2C1 | RCC_PERIPHCLK_I
 535              		.loc 1 377 3 view .LVU138
 378:Drivers/STM32G0xx_HAL_Driver/Src/stm32g0xx_hal_rcc_ex.c ****                                         RCC_PERIPHCLK_ADC     | RCC_PERIPHCLK_RTC ;
 379:Drivers/STM32G0xx_HAL_Driver/Src/stm32g0xx_hal_rcc_ex.c **** 
 380:Drivers/STM32G0xx_HAL_Driver/Src/stm32g0xx_hal_rcc_ex.c **** #if defined(RCC_CCIPR_LPTIM1SEL) && defined(RCC_CCIPR_LPTIM2SEL)
 381:Drivers/STM32G0xx_HAL_Driver/Src/stm32g0xx_hal_rcc_ex.c ****   PeriphClkInit->PeriphClockSelection |=  RCC_PERIPHCLK_LPTIM2  | RCC_PERIPHCLK_LPTIM1;
 536              		.loc 1 381 3 view .LVU139
 382:Drivers/STM32G0xx_HAL_Driver/Src/stm32g0xx_hal_rcc_ex.c **** #endif /* RCC_CCIPR_LPTIM1SEL && RCC_CCIPR_LPTIM2SEL */
 383:Drivers/STM32G0xx_HAL_Driver/Src/stm32g0xx_hal_rcc_ex.c **** #if defined(RCC_CCIPR_RNGSEL)
 384:Drivers/STM32G0xx_HAL_Driver/Src/stm32g0xx_hal_rcc_ex.c ****   PeriphClkInit->PeriphClockSelection |=  RCC_PERIPHCLK_RNG;
 385:Drivers/STM32G0xx_HAL_Driver/Src/stm32g0xx_hal_rcc_ex.c **** #endif /* RCC_CCIPR_RNGSEL */
 386:Drivers/STM32G0xx_HAL_Driver/Src/stm32g0xx_hal_rcc_ex.c **** #if defined(RCC_CCIPR_LPUART1SEL)
 387:Drivers/STM32G0xx_HAL_Driver/Src/stm32g0xx_hal_rcc_ex.c ****   PeriphClkInit->PeriphClockSelection |=  RCC_PERIPHCLK_LPUART1;
 537              		.loc 1 387 3 view .LVU140
 388:Drivers/STM32G0xx_HAL_Driver/Src/stm32g0xx_hal_rcc_ex.c **** #endif /* RCC_CCIPR_LPUART1SEL */
 389:Drivers/STM32G0xx_HAL_Driver/Src/stm32g0xx_hal_rcc_ex.c **** #if defined(RCC_CCIPR_CECSEL)
 390:Drivers/STM32G0xx_HAL_Driver/Src/stm32g0xx_hal_rcc_ex.c ****   PeriphClkInit->PeriphClockSelection |=  RCC_PERIPHCLK_CEC;
 538              		.loc 1 390 3 view .LVU141
 391:Drivers/STM32G0xx_HAL_Driver/Src/stm32g0xx_hal_rcc_ex.c **** #endif /* RCC_CCIPR_CECSEL */
 392:Drivers/STM32G0xx_HAL_Driver/Src/stm32g0xx_hal_rcc_ex.c **** #if defined(RCC_CCIPR_TIM1SEL)
 393:Drivers/STM32G0xx_HAL_Driver/Src/stm32g0xx_hal_rcc_ex.c ****   PeriphClkInit->PeriphClockSelection |=  RCC_PERIPHCLK_TIM1;
 539              		.loc 1 393 3 view .LVU142
 394:Drivers/STM32G0xx_HAL_Driver/Src/stm32g0xx_hal_rcc_ex.c **** #endif /* RCC_CCIPR_TIM1SEL */
 395:Drivers/STM32G0xx_HAL_Driver/Src/stm32g0xx_hal_rcc_ex.c **** #if defined(RCC_CCIPR_TIM15SEL)
 396:Drivers/STM32G0xx_HAL_Driver/Src/stm32g0xx_hal_rcc_ex.c ****   PeriphClkInit->PeriphClockSelection |=  RCC_PERIPHCLK_TIM15;
 540              		.loc 1 396 3 view .LVU143
 397:Drivers/STM32G0xx_HAL_Driver/Src/stm32g0xx_hal_rcc_ex.c **** #endif /* RCC_CCIPR_TIM15SEL */
 398:Drivers/STM32G0xx_HAL_Driver/Src/stm32g0xx_hal_rcc_ex.c **** #if defined(RCC_CCIPR_USART2SEL)
 399:Drivers/STM32G0xx_HAL_Driver/Src/stm32g0xx_hal_rcc_ex.c ****   PeriphClkInit->PeriphClockSelection |=  RCC_PERIPHCLK_USART2;
 541              		.loc 1 399 3 view .LVU144
 542              		.loc 1 399 39 is_stmt 0 view .LVU145
 543 0000 1D4B     		ldr	r3, .L36
 544 0002 0360     		str	r3, [r0]
 400:Drivers/STM32G0xx_HAL_Driver/Src/stm32g0xx_hal_rcc_ex.c **** #endif /* RCC_CCIPR_USART2SEL */
 401:Drivers/STM32G0xx_HAL_Driver/Src/stm32g0xx_hal_rcc_ex.c **** 
 402:Drivers/STM32G0xx_HAL_Driver/Src/stm32g0xx_hal_rcc_ex.c ****   /* Get the USART1 clock source ---------------------------------------------*/
 403:Drivers/STM32G0xx_HAL_Driver/Src/stm32g0xx_hal_rcc_ex.c ****   PeriphClkInit->Usart1ClockSelection  = __HAL_RCC_GET_USART1_SOURCE();
 545              		.loc 1 403 3 is_stmt 1 view .LVU146
 546              		.loc 1 403 42 is_stmt 0 view .LVU147
 547 0004 1D4B     		ldr	r3, .L36+4
 548 0006 596D     		ldr	r1, [r3, #84]
ARM GAS  C:\Users\matil\AppData\Local\Temp\ccFWmvIF.s 			page 18


 549 0008 0322     		movs	r2, #3
 550 000a 0A40     		ands	r2, r1
 551              		.loc 1 403 40 view .LVU148
 552 000c 4260     		str	r2, [r0, #4]
 404:Drivers/STM32G0xx_HAL_Driver/Src/stm32g0xx_hal_rcc_ex.c **** #if defined(RCC_CCIPR_USART2SEL)
 405:Drivers/STM32G0xx_HAL_Driver/Src/stm32g0xx_hal_rcc_ex.c ****   /* Get the USART2 clock source ---------------------------------------------*/
 406:Drivers/STM32G0xx_HAL_Driver/Src/stm32g0xx_hal_rcc_ex.c ****   PeriphClkInit->Usart2ClockSelection  = __HAL_RCC_GET_USART2_SOURCE();
 553              		.loc 1 406 3 is_stmt 1 view .LVU149
 554              		.loc 1 406 42 is_stmt 0 view .LVU150
 555 000e 596D     		ldr	r1, [r3, #84]
 556 0010 0C22     		movs	r2, #12
 557 0012 0A40     		ands	r2, r1
 558              		.loc 1 406 40 view .LVU151
 559 0014 8260     		str	r2, [r0, #8]
 407:Drivers/STM32G0xx_HAL_Driver/Src/stm32g0xx_hal_rcc_ex.c **** #endif /* RCC_CCIPR_USART2SEL */
 408:Drivers/STM32G0xx_HAL_Driver/Src/stm32g0xx_hal_rcc_ex.c **** #if defined(RCC_CCIPR_LPUART1SEL)
 409:Drivers/STM32G0xx_HAL_Driver/Src/stm32g0xx_hal_rcc_ex.c ****   /* Get the LPUART1 clock source --------------------------------------------*/
 410:Drivers/STM32G0xx_HAL_Driver/Src/stm32g0xx_hal_rcc_ex.c ****   PeriphClkInit->Lpuart1ClockSelection = __HAL_RCC_GET_LPUART1_SOURCE();
 560              		.loc 1 410 3 is_stmt 1 view .LVU152
 561              		.loc 1 410 42 is_stmt 0 view .LVU153
 562 0016 5A6D     		ldr	r2, [r3, #84]
 563 0018 C021     		movs	r1, #192
 564 001a 0901     		lsls	r1, r1, #4
 565 001c 0A40     		ands	r2, r1
 566              		.loc 1 410 40 view .LVU154
 567 001e C260     		str	r2, [r0, #12]
 411:Drivers/STM32G0xx_HAL_Driver/Src/stm32g0xx_hal_rcc_ex.c **** #endif /* RCC_CCIPR_LPUART1SEL */
 412:Drivers/STM32G0xx_HAL_Driver/Src/stm32g0xx_hal_rcc_ex.c ****   /* Get the I2C1 clock source -----------------------------------------------*/
 413:Drivers/STM32G0xx_HAL_Driver/Src/stm32g0xx_hal_rcc_ex.c ****   PeriphClkInit->I2c1ClockSelection    = __HAL_RCC_GET_I2C1_SOURCE();
 568              		.loc 1 413 3 is_stmt 1 view .LVU155
 569              		.loc 1 413 42 is_stmt 0 view .LVU156
 570 0020 5A6D     		ldr	r2, [r3, #84]
 571 0022 C021     		movs	r1, #192
 572 0024 8901     		lsls	r1, r1, #6
 573 0026 0A40     		ands	r2, r1
 574              		.loc 1 413 40 view .LVU157
 575 0028 0261     		str	r2, [r0, #16]
 414:Drivers/STM32G0xx_HAL_Driver/Src/stm32g0xx_hal_rcc_ex.c **** #if defined(RCC_CCIPR_LPTIM1SEL)
 415:Drivers/STM32G0xx_HAL_Driver/Src/stm32g0xx_hal_rcc_ex.c ****   /* Get the LPTIM1 clock source ---------------------------------------------*/
 416:Drivers/STM32G0xx_HAL_Driver/Src/stm32g0xx_hal_rcc_ex.c ****   PeriphClkInit->Lptim1ClockSelection  = __HAL_RCC_GET_LPTIM1_SOURCE();
 576              		.loc 1 416 3 is_stmt 1 view .LVU158
 577              		.loc 1 416 42 is_stmt 0 view .LVU159
 578 002a 5A6D     		ldr	r2, [r3, #84]
 579 002c C021     		movs	r1, #192
 580 002e 0903     		lsls	r1, r1, #12
 581 0030 0A40     		ands	r2, r1
 582              		.loc 1 416 40 view .LVU160
 583 0032 8261     		str	r2, [r0, #24]
 417:Drivers/STM32G0xx_HAL_Driver/Src/stm32g0xx_hal_rcc_ex.c **** #endif /* RCC_CCIPR_LPTIM1SEL */
 418:Drivers/STM32G0xx_HAL_Driver/Src/stm32g0xx_hal_rcc_ex.c **** #if defined(RCC_CCIPR_LPTIM2SEL)
 419:Drivers/STM32G0xx_HAL_Driver/Src/stm32g0xx_hal_rcc_ex.c ****   /* Get the LPTIM2 clock source ---------------------------------------------*/
 420:Drivers/STM32G0xx_HAL_Driver/Src/stm32g0xx_hal_rcc_ex.c ****   PeriphClkInit->Lptim2ClockSelection  = __HAL_RCC_GET_LPTIM2_SOURCE();
 584              		.loc 1 420 3 is_stmt 1 view .LVU161
 585              		.loc 1 420 42 is_stmt 0 view .LVU162
 586 0034 5A6D     		ldr	r2, [r3, #84]
 587 0036 C021     		movs	r1, #192
 588 0038 8903     		lsls	r1, r1, #14
ARM GAS  C:\Users\matil\AppData\Local\Temp\ccFWmvIF.s 			page 19


 589 003a 0A40     		ands	r2, r1
 590              		.loc 1 420 40 view .LVU163
 591 003c C261     		str	r2, [r0, #28]
 421:Drivers/STM32G0xx_HAL_Driver/Src/stm32g0xx_hal_rcc_ex.c **** #endif /* RCC_CCIPR_LPTIM2SEL */
 422:Drivers/STM32G0xx_HAL_Driver/Src/stm32g0xx_hal_rcc_ex.c **** #if defined(RCC_CCIPR_TIM1SEL)
 423:Drivers/STM32G0xx_HAL_Driver/Src/stm32g0xx_hal_rcc_ex.c ****   /* Get the TIM1 clock source ---------------------------------------------*/
 424:Drivers/STM32G0xx_HAL_Driver/Src/stm32g0xx_hal_rcc_ex.c ****   PeriphClkInit->Tim1ClockSelection  = __HAL_RCC_GET_TIM1_SOURCE();
 592              		.loc 1 424 3 is_stmt 1 view .LVU164
 593              		.loc 1 424 40 is_stmt 0 view .LVU165
 594 003e 5A6D     		ldr	r2, [r3, #84]
 595 0040 8021     		movs	r1, #128
 596 0042 C903     		lsls	r1, r1, #15
 597 0044 0A40     		ands	r2, r1
 598              		.loc 1 424 38 view .LVU166
 599 0046 8262     		str	r2, [r0, #40]
 425:Drivers/STM32G0xx_HAL_Driver/Src/stm32g0xx_hal_rcc_ex.c **** #endif /* RCC_CCIPR_TIM1SEL */
 426:Drivers/STM32G0xx_HAL_Driver/Src/stm32g0xx_hal_rcc_ex.c **** #if defined(RCC_CCIPR_TIM15SEL)
 427:Drivers/STM32G0xx_HAL_Driver/Src/stm32g0xx_hal_rcc_ex.c ****   /* Get the TIM15 clock source ---------------------------------------------*/
 428:Drivers/STM32G0xx_HAL_Driver/Src/stm32g0xx_hal_rcc_ex.c ****   PeriphClkInit->Tim15ClockSelection  = __HAL_RCC_GET_TIM15_SOURCE();
 600              		.loc 1 428 3 is_stmt 1 view .LVU167
 601              		.loc 1 428 41 is_stmt 0 view .LVU168
 602 0048 5A6D     		ldr	r2, [r3, #84]
 603 004a 8021     		movs	r1, #128
 604 004c 4904     		lsls	r1, r1, #17
 605 004e 0A40     		ands	r2, r1
 606              		.loc 1 428 39 view .LVU169
 607 0050 C262     		str	r2, [r0, #44]
 429:Drivers/STM32G0xx_HAL_Driver/Src/stm32g0xx_hal_rcc_ex.c **** #endif /* RCC_CCIPR_TIM15SEL */
 430:Drivers/STM32G0xx_HAL_Driver/Src/stm32g0xx_hal_rcc_ex.c ****   /* Get the RTC clock source ------------------------------------------------*/
 431:Drivers/STM32G0xx_HAL_Driver/Src/stm32g0xx_hal_rcc_ex.c ****   PeriphClkInit->RTCClockSelection     = __HAL_RCC_GET_RTC_SOURCE();
 608              		.loc 1 431 3 is_stmt 1 view .LVU170
 609              		.loc 1 431 42 is_stmt 0 view .LVU171
 610 0052 DA6D     		ldr	r2, [r3, #92]
 611 0054 C021     		movs	r1, #192
 612 0056 8900     		lsls	r1, r1, #2
 613 0058 0A40     		ands	r2, r1
 614              		.loc 1 431 40 view .LVU172
 615 005a 0263     		str	r2, [r0, #48]
 432:Drivers/STM32G0xx_HAL_Driver/Src/stm32g0xx_hal_rcc_ex.c **** #if defined(RCC_CCIPR_RNGSEL)
 433:Drivers/STM32G0xx_HAL_Driver/Src/stm32g0xx_hal_rcc_ex.c ****   /* Get the RNG clock source ------------------------------------------------*/
 434:Drivers/STM32G0xx_HAL_Driver/Src/stm32g0xx_hal_rcc_ex.c ****   PeriphClkInit->RngClockSelection     = __HAL_RCC_GET_RNG_SOURCE();
 435:Drivers/STM32G0xx_HAL_Driver/Src/stm32g0xx_hal_rcc_ex.c **** #endif  /* RCC_CCIPR_RNGSEL */
 436:Drivers/STM32G0xx_HAL_Driver/Src/stm32g0xx_hal_rcc_ex.c ****   /* Get the ADC clock source -----------------------------------------------*/
 437:Drivers/STM32G0xx_HAL_Driver/Src/stm32g0xx_hal_rcc_ex.c ****   PeriphClkInit->AdcClockSelection     = __HAL_RCC_GET_ADC_SOURCE();
 616              		.loc 1 437 3 is_stmt 1 view .LVU173
 617              		.loc 1 437 42 is_stmt 0 view .LVU174
 618 005c 5A6D     		ldr	r2, [r3, #84]
 619 005e 920F     		lsrs	r2, r2, #30
 620 0060 9207     		lsls	r2, r2, #30
 621              		.loc 1 437 40 view .LVU175
 622 0062 0262     		str	r2, [r0, #32]
 438:Drivers/STM32G0xx_HAL_Driver/Src/stm32g0xx_hal_rcc_ex.c **** #if defined(RCC_CCIPR_CECSEL)
 439:Drivers/STM32G0xx_HAL_Driver/Src/stm32g0xx_hal_rcc_ex.c ****   /* Get the CEC clock source -----------------------------------------------*/
 440:Drivers/STM32G0xx_HAL_Driver/Src/stm32g0xx_hal_rcc_ex.c ****   PeriphClkInit->CecClockSelection     = __HAL_RCC_GET_CEC_SOURCE();
 623              		.loc 1 440 3 is_stmt 1 view .LVU176
 624              		.loc 1 440 42 is_stmt 0 view .LVU177
 625 0064 596D     		ldr	r1, [r3, #84]
ARM GAS  C:\Users\matil\AppData\Local\Temp\ccFWmvIF.s 			page 20


 626 0066 4022     		movs	r2, #64
 627 0068 0A40     		ands	r2, r1
 628              		.loc 1 440 40 view .LVU178
 629 006a 4262     		str	r2, [r0, #36]
 441:Drivers/STM32G0xx_HAL_Driver/Src/stm32g0xx_hal_rcc_ex.c **** #endif  /* RCC_CCIPR_CECSEL */
 442:Drivers/STM32G0xx_HAL_Driver/Src/stm32g0xx_hal_rcc_ex.c ****   /* Get the I2S1 clock source -----------------------------------------------*/
 443:Drivers/STM32G0xx_HAL_Driver/Src/stm32g0xx_hal_rcc_ex.c ****   PeriphClkInit->I2s1ClockSelection    = __HAL_RCC_GET_I2S1_SOURCE();
 630              		.loc 1 443 3 is_stmt 1 view .LVU179
 631              		.loc 1 443 42 is_stmt 0 view .LVU180
 632 006c 5B6D     		ldr	r3, [r3, #84]
 633 006e C022     		movs	r2, #192
 634 0070 1202     		lsls	r2, r2, #8
 635 0072 1340     		ands	r3, r2
 636              		.loc 1 443 40 view .LVU181
 637 0074 4361     		str	r3, [r0, #20]
 444:Drivers/STM32G0xx_HAL_Driver/Src/stm32g0xx_hal_rcc_ex.c **** }
 638              		.loc 1 444 1 view .LVU182
 639              		@ sp needed
 640 0076 7047     		bx	lr
 641              	.L37:
 642              		.align	2
 643              	.L36:
 644 0078 634E6A00 		.word	6966883
 645 007c 00100240 		.word	1073876992
 646              		.cfi_endproc
 647              	.LFE174:
 649              		.global	__aeabi_uidiv
 650              		.section	.text.HAL_RCCEx_GetPeriphCLKFreq,"ax",%progbits
 651              		.align	1
 652              		.global	HAL_RCCEx_GetPeriphCLKFreq
 653              		.syntax unified
 654              		.code	16
 655              		.thumb_func
 656              		.fpu softvfp
 658              	HAL_RCCEx_GetPeriphCLKFreq:
 659              	.LVL30:
 660              	.LFB175:
 445:Drivers/STM32G0xx_HAL_Driver/Src/stm32g0xx_hal_rcc_ex.c **** 
 446:Drivers/STM32G0xx_HAL_Driver/Src/stm32g0xx_hal_rcc_ex.c **** /**
 447:Drivers/STM32G0xx_HAL_Driver/Src/stm32g0xx_hal_rcc_ex.c ****   * @brief  Return the peripheral clock frequency for peripherals with clock source from PLL
 448:Drivers/STM32G0xx_HAL_Driver/Src/stm32g0xx_hal_rcc_ex.c ****   * @note   Return 0 if peripheral clock identifier not managed by this API
 449:Drivers/STM32G0xx_HAL_Driver/Src/stm32g0xx_hal_rcc_ex.c ****   * @param  PeriphClk  Peripheral clock identifier
 450:Drivers/STM32G0xx_HAL_Driver/Src/stm32g0xx_hal_rcc_ex.c ****   *         This parameter can be one of the following values:
 451:Drivers/STM32G0xx_HAL_Driver/Src/stm32g0xx_hal_rcc_ex.c ****   *            @arg @ref RCC_PERIPHCLK_RTC     RTC peripheral clock
 452:Drivers/STM32G0xx_HAL_Driver/Src/stm32g0xx_hal_rcc_ex.c ****   *            @arg @ref RCC_PERIPHCLK_ADC     ADC peripheral clock
 453:Drivers/STM32G0xx_HAL_Driver/Src/stm32g0xx_hal_rcc_ex.c ****   *            @arg @ref RCC_PERIPHCLK_I2C1    I2C1 peripheral clock
 454:Drivers/STM32G0xx_HAL_Driver/Src/stm32g0xx_hal_rcc_ex.c ****   *            @arg @ref RCC_PERIPHCLK_I2S1    I2S1 peripheral clock
 455:Drivers/STM32G0xx_HAL_Driver/Src/stm32g0xx_hal_rcc_ex.c ****   *            @arg @ref RCC_PERIPHCLK_USART1  USART1 peripheral clock
 456:Drivers/STM32G0xx_HAL_Driver/Src/stm32g0xx_hal_rcc_ex.c ****   *            @arg @ref RCC_PERIPHCLK_RNG     RNG peripheral clock    (1)
 457:Drivers/STM32G0xx_HAL_Driver/Src/stm32g0xx_hal_rcc_ex.c ****   *            @arg @ref RCC_PERIPHCLK_TIM15   TIM15 peripheral clock  (1)(2)
 458:Drivers/STM32G0xx_HAL_Driver/Src/stm32g0xx_hal_rcc_ex.c ****   *            @arg @ref RCC_PERIPHCLK_TIM1    TIM1 peripheral clock   (1)(2)
 459:Drivers/STM32G0xx_HAL_Driver/Src/stm32g0xx_hal_rcc_ex.c ****   *            @arg @ref RCC_PERIPHCLK_LPTIM1  LPTIM1 peripheral clock (1)
 460:Drivers/STM32G0xx_HAL_Driver/Src/stm32g0xx_hal_rcc_ex.c ****   *            @arg @ref RCC_PERIPHCLK_LPTIM2  LPTIM2 peripheral clock (1)
 461:Drivers/STM32G0xx_HAL_Driver/Src/stm32g0xx_hal_rcc_ex.c ****   *            @arg @ref RCC_PERIPHCLK_LPUART1 LPUART1 peripheral clock(1)
 462:Drivers/STM32G0xx_HAL_Driver/Src/stm32g0xx_hal_rcc_ex.c ****   *            @arg @ref RCC_PERIPHCLK_CEC     CEC peripheral clock    (1)
 463:Drivers/STM32G0xx_HAL_Driver/Src/stm32g0xx_hal_rcc_ex.c ****   *            @arg @ref RCC_PERIPHCLK_USART2  USART2 peripheral clock (1)(2)
 464:Drivers/STM32G0xx_HAL_Driver/Src/stm32g0xx_hal_rcc_ex.c ****   * @note   (1) Peripheral not available on all devices
ARM GAS  C:\Users\matil\AppData\Local\Temp\ccFWmvIF.s 			page 21


 465:Drivers/STM32G0xx_HAL_Driver/Src/stm32g0xx_hal_rcc_ex.c ****   * @note   (2) Peripheral Clock configuration not available on all devices
 466:Drivers/STM32G0xx_HAL_Driver/Src/stm32g0xx_hal_rcc_ex.c ****   * @retval Frequency in Hz
 467:Drivers/STM32G0xx_HAL_Driver/Src/stm32g0xx_hal_rcc_ex.c ****   */
 468:Drivers/STM32G0xx_HAL_Driver/Src/stm32g0xx_hal_rcc_ex.c **** uint32_t HAL_RCCEx_GetPeriphCLKFreq(uint32_t PeriphClk)
 469:Drivers/STM32G0xx_HAL_Driver/Src/stm32g0xx_hal_rcc_ex.c **** {
 661              		.loc 1 469 1 is_stmt 1 view -0
 662              		.cfi_startproc
 663              		@ args = 0, pretend = 0, frame = 0
 664              		@ frame_needed = 0, uses_anonymous_args = 0
 665              		.loc 1 469 1 is_stmt 0 view .LVU184
 666 0000 10B5     		push	{r4, lr}
 667              	.LCFI2:
 668              		.cfi_def_cfa_offset 8
 669              		.cfi_offset 4, -8
 670              		.cfi_offset 14, -4
 671 0002 0400     		movs	r4, r0
 470:Drivers/STM32G0xx_HAL_Driver/Src/stm32g0xx_hal_rcc_ex.c ****   uint32_t frequency = 0U;
 672              		.loc 1 470 3 is_stmt 1 view .LVU185
 673              	.LVL31:
 471:Drivers/STM32G0xx_HAL_Driver/Src/stm32g0xx_hal_rcc_ex.c ****   uint32_t srcclk;
 674              		.loc 1 471 3 view .LVU186
 472:Drivers/STM32G0xx_HAL_Driver/Src/stm32g0xx_hal_rcc_ex.c ****   uint32_t pllvco;
 675              		.loc 1 472 3 view .LVU187
 473:Drivers/STM32G0xx_HAL_Driver/Src/stm32g0xx_hal_rcc_ex.c ****   uint32_t plln;
 676              		.loc 1 473 3 view .LVU188
 474:Drivers/STM32G0xx_HAL_Driver/Src/stm32g0xx_hal_rcc_ex.c **** #if defined(RCC_CCIPR_RNGSEL)
 475:Drivers/STM32G0xx_HAL_Driver/Src/stm32g0xx_hal_rcc_ex.c ****   uint32_t rngclk;
 476:Drivers/STM32G0xx_HAL_Driver/Src/stm32g0xx_hal_rcc_ex.c ****   uint32_t rngdiv;
 477:Drivers/STM32G0xx_HAL_Driver/Src/stm32g0xx_hal_rcc_ex.c **** #endif
 478:Drivers/STM32G0xx_HAL_Driver/Src/stm32g0xx_hal_rcc_ex.c ****   /* Check the parameters */
 479:Drivers/STM32G0xx_HAL_Driver/Src/stm32g0xx_hal_rcc_ex.c ****   assert_param(IS_RCC_PERIPHCLOCK(PeriphClk));
 677              		.loc 1 479 3 view .LVU189
 480:Drivers/STM32G0xx_HAL_Driver/Src/stm32g0xx_hal_rcc_ex.c **** 
 481:Drivers/STM32G0xx_HAL_Driver/Src/stm32g0xx_hal_rcc_ex.c ****   if (PeriphClk == RCC_PERIPHCLK_RTC)
 678              		.loc 1 481 3 view .LVU190
 679              		.loc 1 481 6 is_stmt 0 view .LVU191
 680 0004 8023     		movs	r3, #128
 681 0006 9B02     		lsls	r3, r3, #10
 682 0008 9842     		cmp	r0, r3
 683 000a 47D0     		beq	.L106
 482:Drivers/STM32G0xx_HAL_Driver/Src/stm32g0xx_hal_rcc_ex.c ****   {
 483:Drivers/STM32G0xx_HAL_Driver/Src/stm32g0xx_hal_rcc_ex.c ****     /* Get the current RTC source */
 484:Drivers/STM32G0xx_HAL_Driver/Src/stm32g0xx_hal_rcc_ex.c ****     srcclk = __HAL_RCC_GET_RTC_SOURCE();
 485:Drivers/STM32G0xx_HAL_Driver/Src/stm32g0xx_hal_rcc_ex.c **** 
 486:Drivers/STM32G0xx_HAL_Driver/Src/stm32g0xx_hal_rcc_ex.c ****     /* Check if LSE is ready and if RTC clock selection is LSE */
 487:Drivers/STM32G0xx_HAL_Driver/Src/stm32g0xx_hal_rcc_ex.c ****     if ((HAL_IS_BIT_SET(RCC->BDCR, RCC_BDCR_LSERDY)) && (srcclk == RCC_RTCCLKSOURCE_LSE))
 488:Drivers/STM32G0xx_HAL_Driver/Src/stm32g0xx_hal_rcc_ex.c ****     {
 489:Drivers/STM32G0xx_HAL_Driver/Src/stm32g0xx_hal_rcc_ex.c ****       frequency = LSE_VALUE;
 490:Drivers/STM32G0xx_HAL_Driver/Src/stm32g0xx_hal_rcc_ex.c ****     }
 491:Drivers/STM32G0xx_HAL_Driver/Src/stm32g0xx_hal_rcc_ex.c ****     /* Check if LSI is ready and if RTC clock selection is LSI */
 492:Drivers/STM32G0xx_HAL_Driver/Src/stm32g0xx_hal_rcc_ex.c ****     else if ((HAL_IS_BIT_SET(RCC->CSR, RCC_CSR_LSIRDY)) && (srcclk == RCC_RTCCLKSOURCE_LSI))
 493:Drivers/STM32G0xx_HAL_Driver/Src/stm32g0xx_hal_rcc_ex.c ****     {
 494:Drivers/STM32G0xx_HAL_Driver/Src/stm32g0xx_hal_rcc_ex.c ****       frequency = LSI_VALUE;
 495:Drivers/STM32G0xx_HAL_Driver/Src/stm32g0xx_hal_rcc_ex.c ****     }
 496:Drivers/STM32G0xx_HAL_Driver/Src/stm32g0xx_hal_rcc_ex.c ****     /* Check if HSE is ready  and if RTC clock selection is HSI_DIV32*/
 497:Drivers/STM32G0xx_HAL_Driver/Src/stm32g0xx_hal_rcc_ex.c ****     else if ((HAL_IS_BIT_SET(RCC->CR, RCC_CR_HSERDY)) &&(srcclk == RCC_RTCCLKSOURCE_HSE_DIV32))
 498:Drivers/STM32G0xx_HAL_Driver/Src/stm32g0xx_hal_rcc_ex.c ****     {
ARM GAS  C:\Users\matil\AppData\Local\Temp\ccFWmvIF.s 			page 22


 499:Drivers/STM32G0xx_HAL_Driver/Src/stm32g0xx_hal_rcc_ex.c ****       frequency = HSE_VALUE / 32U;
 500:Drivers/STM32G0xx_HAL_Driver/Src/stm32g0xx_hal_rcc_ex.c ****     }
 501:Drivers/STM32G0xx_HAL_Driver/Src/stm32g0xx_hal_rcc_ex.c ****     /* Clock not enabled for RTC*/
 502:Drivers/STM32G0xx_HAL_Driver/Src/stm32g0xx_hal_rcc_ex.c ****     else
 503:Drivers/STM32G0xx_HAL_Driver/Src/stm32g0xx_hal_rcc_ex.c ****     {
 504:Drivers/STM32G0xx_HAL_Driver/Src/stm32g0xx_hal_rcc_ex.c ****       /* Nothing to do as frequency already initialized to 0U */
 505:Drivers/STM32G0xx_HAL_Driver/Src/stm32g0xx_hal_rcc_ex.c ****     }
 506:Drivers/STM32G0xx_HAL_Driver/Src/stm32g0xx_hal_rcc_ex.c ****   }
 507:Drivers/STM32G0xx_HAL_Driver/Src/stm32g0xx_hal_rcc_ex.c ****   else
 508:Drivers/STM32G0xx_HAL_Driver/Src/stm32g0xx_hal_rcc_ex.c ****   {
 509:Drivers/STM32G0xx_HAL_Driver/Src/stm32g0xx_hal_rcc_ex.c ****     /* Other external peripheral clock source than RTC */
 510:Drivers/STM32G0xx_HAL_Driver/Src/stm32g0xx_hal_rcc_ex.c **** 
 511:Drivers/STM32G0xx_HAL_Driver/Src/stm32g0xx_hal_rcc_ex.c ****     /* Compute PLL clock input */
 512:Drivers/STM32G0xx_HAL_Driver/Src/stm32g0xx_hal_rcc_ex.c ****     if (__HAL_RCC_GET_PLL_OSCSOURCE() == RCC_PLLSOURCE_HSI)  /* HSI ? */
 684              		.loc 1 512 5 is_stmt 1 view .LVU192
 685              		.loc 1 512 9 is_stmt 0 view .LVU193
 686 000c B54B     		ldr	r3, .L129
 687 000e DA68     		ldr	r2, [r3, #12]
 688 0010 0323     		movs	r3, #3
 689 0012 1340     		ands	r3, r2
 690              		.loc 1 512 8 view .LVU194
 691 0014 022B     		cmp	r3, #2
 692 0016 68D0     		beq	.L85
 513:Drivers/STM32G0xx_HAL_Driver/Src/stm32g0xx_hal_rcc_ex.c ****     {
 514:Drivers/STM32G0xx_HAL_Driver/Src/stm32g0xx_hal_rcc_ex.c ****       pllvco = HSI_VALUE;
 515:Drivers/STM32G0xx_HAL_Driver/Src/stm32g0xx_hal_rcc_ex.c ****     }
 516:Drivers/STM32G0xx_HAL_Driver/Src/stm32g0xx_hal_rcc_ex.c ****     else if (__HAL_RCC_GET_PLL_OSCSOURCE() == RCC_PLLSOURCE_HSE)  /* HSE ? */
 693              		.loc 1 516 10 is_stmt 1 view .LVU195
 694              		.loc 1 516 14 is_stmt 0 view .LVU196
 695 0018 B24B     		ldr	r3, .L129
 696 001a DA68     		ldr	r2, [r3, #12]
 697 001c 0323     		movs	r3, #3
 698 001e 1340     		ands	r3, r2
 699              		.loc 1 516 13 view .LVU197
 700 0020 032B     		cmp	r3, #3
 701 0022 60D0     		beq	.L107
 517:Drivers/STM32G0xx_HAL_Driver/Src/stm32g0xx_hal_rcc_ex.c ****     {
 518:Drivers/STM32G0xx_HAL_Driver/Src/stm32g0xx_hal_rcc_ex.c ****       pllvco = HSE_VALUE;
 519:Drivers/STM32G0xx_HAL_Driver/Src/stm32g0xx_hal_rcc_ex.c ****     }
 520:Drivers/STM32G0xx_HAL_Driver/Src/stm32g0xx_hal_rcc_ex.c ****     else /* No source */
 521:Drivers/STM32G0xx_HAL_Driver/Src/stm32g0xx_hal_rcc_ex.c ****     {
 522:Drivers/STM32G0xx_HAL_Driver/Src/stm32g0xx_hal_rcc_ex.c ****       pllvco = 0U;
 702              		.loc 1 522 14 view .LVU198
 703 0024 0020     		movs	r0, #0
 704              	.LVL32:
 705              	.L43:
 523:Drivers/STM32G0xx_HAL_Driver/Src/stm32g0xx_hal_rcc_ex.c ****     }
 524:Drivers/STM32G0xx_HAL_Driver/Src/stm32g0xx_hal_rcc_ex.c **** 
 525:Drivers/STM32G0xx_HAL_Driver/Src/stm32g0xx_hal_rcc_ex.c ****     /* f(PLL Source) / PLLM */
 526:Drivers/STM32G0xx_HAL_Driver/Src/stm32g0xx_hal_rcc_ex.c ****     pllvco = (pllvco / ((READ_BIT(RCC->PLLCFGR, RCC_PLLCFGR_PLLM) >> RCC_PLLCFGR_PLLM_Pos) + 1U));
 706              		.loc 1 526 5 is_stmt 1 view .LVU199
 707              		.loc 1 526 26 is_stmt 0 view .LVU200
 708 0026 AF4B     		ldr	r3, .L129
 709 0028 DB68     		ldr	r3, [r3, #12]
 710              		.loc 1 526 67 view .LVU201
 711 002a 1B09     		lsrs	r3, r3, #4
 712 002c 0721     		movs	r1, #7
ARM GAS  C:\Users\matil\AppData\Local\Temp\ccFWmvIF.s 			page 23


 713 002e 1940     		ands	r1, r3
 714              		.loc 1 526 92 view .LVU202
 715 0030 0131     		adds	r1, r1, #1
 716              		.loc 1 526 12 view .LVU203
 717 0032 FFF7FEFF 		bl	__aeabi_uidiv
 718              	.LVL33:
 719              		.loc 1 526 12 view .LVU204
 720 0036 0300     		movs	r3, r0
 721              	.LVL34:
 527:Drivers/STM32G0xx_HAL_Driver/Src/stm32g0xx_hal_rcc_ex.c **** 
 528:Drivers/STM32G0xx_HAL_Driver/Src/stm32g0xx_hal_rcc_ex.c ****     switch (PeriphClk)
 722              		.loc 1 528 5 is_stmt 1 view .LVU205
 723 0038 8022     		movs	r2, #128
 724 003a D200     		lsls	r2, r2, #3
 725 003c 9442     		cmp	r4, r2
 726 003e 00D1     		bne	.LCB717
 727 0040 B0E1     		b	.L44	@long jump
 728              	.LCB717:
 729 0042 54D9     		bls	.L108
 730 0044 8022     		movs	r2, #128
 731 0046 1203     		lsls	r2, r2, #12
 732 0048 9442     		cmp	r4, r2
 733 004a 00D1     		bne	.LCB723
 734 004c EEE0     		b	.L52	@long jump
 735              	.LCB723:
 736 004e 00D8     		bhi	.LCB725
 737 0050 A5E0     		b	.L109	@long jump
 738              	.LCB725:
 739 0052 8022     		movs	r2, #128
 740 0054 9203     		lsls	r2, r2, #14
 741 0056 9442     		cmp	r4, r2
 742 0058 00D1     		bne	.LCB729
 743 005a CCE1     		b	.L56	@long jump
 744              	.LCB729:
 745 005c 8022     		movs	r2, #128
 746 005e D203     		lsls	r2, r2, #15
 747 0060 9442     		cmp	r4, r2
 748 0062 00D0     		beq	.LCB733
 749 0064 B7E0     		b	.L110	@long jump
 750              	.LCB733:
 529:Drivers/STM32G0xx_HAL_Driver/Src/stm32g0xx_hal_rcc_ex.c ****     {
 530:Drivers/STM32G0xx_HAL_Driver/Src/stm32g0xx_hal_rcc_ex.c **** #if defined(RCC_CCIPR_RNGSEL)
 531:Drivers/STM32G0xx_HAL_Driver/Src/stm32g0xx_hal_rcc_ex.c ****       case RCC_PERIPHCLK_RNG:
 532:Drivers/STM32G0xx_HAL_Driver/Src/stm32g0xx_hal_rcc_ex.c **** 
 533:Drivers/STM32G0xx_HAL_Driver/Src/stm32g0xx_hal_rcc_ex.c ****         srcclk = READ_BIT(RCC->CCIPR, RCC_CCIPR_RNGSEL);
 534:Drivers/STM32G0xx_HAL_Driver/Src/stm32g0xx_hal_rcc_ex.c ****         if (srcclk == RCC_RNGCLKSOURCE_HSI_DIV8)  /* HSI_DIV8 ? */
 535:Drivers/STM32G0xx_HAL_Driver/Src/stm32g0xx_hal_rcc_ex.c ****         {
 536:Drivers/STM32G0xx_HAL_Driver/Src/stm32g0xx_hal_rcc_ex.c ****           rngclk = HSI_VALUE / 8U;
 537:Drivers/STM32G0xx_HAL_Driver/Src/stm32g0xx_hal_rcc_ex.c ****         }
 538:Drivers/STM32G0xx_HAL_Driver/Src/stm32g0xx_hal_rcc_ex.c ****         else if (srcclk == RCC_RNGCLKSOURCE_PLL) /* PLL ? */
 539:Drivers/STM32G0xx_HAL_Driver/Src/stm32g0xx_hal_rcc_ex.c ****         {
 540:Drivers/STM32G0xx_HAL_Driver/Src/stm32g0xx_hal_rcc_ex.c ****           /* f(PLLQ) = f(VCO input) * PLLN / PLLQ */
 541:Drivers/STM32G0xx_HAL_Driver/Src/stm32g0xx_hal_rcc_ex.c ****           plln = READ_BIT(RCC->PLLCFGR, RCC_PLLCFGR_PLLN) >> RCC_PLLCFGR_PLLN_Pos;
 542:Drivers/STM32G0xx_HAL_Driver/Src/stm32g0xx_hal_rcc_ex.c ****           rngclk = (pllvco * plln) / ((READ_BIT(RCC->PLLCFGR, RCC_PLLCFGR_PLLQ) >> RCC_PLLCFGR_PLLQ
 543:Drivers/STM32G0xx_HAL_Driver/Src/stm32g0xx_hal_rcc_ex.c ****         }
 544:Drivers/STM32G0xx_HAL_Driver/Src/stm32g0xx_hal_rcc_ex.c ****         else if (srcclk == RCC_RNGCLKSOURCE_SYSCLK) /* SYSCLK ? */
 545:Drivers/STM32G0xx_HAL_Driver/Src/stm32g0xx_hal_rcc_ex.c ****         {
ARM GAS  C:\Users\matil\AppData\Local\Temp\ccFWmvIF.s 			page 24


 546:Drivers/STM32G0xx_HAL_Driver/Src/stm32g0xx_hal_rcc_ex.c ****           rngclk = HAL_RCC_GetSysClockFreq();
 547:Drivers/STM32G0xx_HAL_Driver/Src/stm32g0xx_hal_rcc_ex.c ****         }
 548:Drivers/STM32G0xx_HAL_Driver/Src/stm32g0xx_hal_rcc_ex.c ****         else /* No clock source */
 549:Drivers/STM32G0xx_HAL_Driver/Src/stm32g0xx_hal_rcc_ex.c ****         {
 550:Drivers/STM32G0xx_HAL_Driver/Src/stm32g0xx_hal_rcc_ex.c ****           rngclk = 0U;
 551:Drivers/STM32G0xx_HAL_Driver/Src/stm32g0xx_hal_rcc_ex.c ****         }
 552:Drivers/STM32G0xx_HAL_Driver/Src/stm32g0xx_hal_rcc_ex.c **** 
 553:Drivers/STM32G0xx_HAL_Driver/Src/stm32g0xx_hal_rcc_ex.c ****         rngdiv = (1UL << ((READ_BIT(RCC->CCIPR, RCC_CCIPR_RNGDIV)) >> RCC_CCIPR_RNGDIV_Pos));
 554:Drivers/STM32G0xx_HAL_Driver/Src/stm32g0xx_hal_rcc_ex.c ****         frequency = (rngclk / rngdiv);
 555:Drivers/STM32G0xx_HAL_Driver/Src/stm32g0xx_hal_rcc_ex.c **** 
 556:Drivers/STM32G0xx_HAL_Driver/Src/stm32g0xx_hal_rcc_ex.c ****         break;
 557:Drivers/STM32G0xx_HAL_Driver/Src/stm32g0xx_hal_rcc_ex.c **** #endif  /* RCC_CCIPR_RNGSEL */
 558:Drivers/STM32G0xx_HAL_Driver/Src/stm32g0xx_hal_rcc_ex.c ****       case RCC_PERIPHCLK_USART1:
 559:Drivers/STM32G0xx_HAL_Driver/Src/stm32g0xx_hal_rcc_ex.c ****         /* Get the current USART1 source */
 560:Drivers/STM32G0xx_HAL_Driver/Src/stm32g0xx_hal_rcc_ex.c ****         srcclk = __HAL_RCC_GET_USART1_SOURCE();
 561:Drivers/STM32G0xx_HAL_Driver/Src/stm32g0xx_hal_rcc_ex.c **** 
 562:Drivers/STM32G0xx_HAL_Driver/Src/stm32g0xx_hal_rcc_ex.c ****         if (srcclk == RCC_USART1CLKSOURCE_PCLK1)            /* PCLK1 ? */
 563:Drivers/STM32G0xx_HAL_Driver/Src/stm32g0xx_hal_rcc_ex.c ****         {
 564:Drivers/STM32G0xx_HAL_Driver/Src/stm32g0xx_hal_rcc_ex.c ****           frequency = HAL_RCC_GetPCLK1Freq();
 565:Drivers/STM32G0xx_HAL_Driver/Src/stm32g0xx_hal_rcc_ex.c ****         }
 566:Drivers/STM32G0xx_HAL_Driver/Src/stm32g0xx_hal_rcc_ex.c ****         else if (srcclk == RCC_USART1CLKSOURCE_SYSCLK)     /* SYSCLK ? */
 567:Drivers/STM32G0xx_HAL_Driver/Src/stm32g0xx_hal_rcc_ex.c ****         {
 568:Drivers/STM32G0xx_HAL_Driver/Src/stm32g0xx_hal_rcc_ex.c ****           frequency = HAL_RCC_GetSysClockFreq();
 569:Drivers/STM32G0xx_HAL_Driver/Src/stm32g0xx_hal_rcc_ex.c ****         }
 570:Drivers/STM32G0xx_HAL_Driver/Src/stm32g0xx_hal_rcc_ex.c ****         else if ((HAL_IS_BIT_SET(RCC->CR, RCC_CR_HSIRDY)) && (srcclk == RCC_USART1CLKSOURCE_HSI))
 571:Drivers/STM32G0xx_HAL_Driver/Src/stm32g0xx_hal_rcc_ex.c ****         {
 572:Drivers/STM32G0xx_HAL_Driver/Src/stm32g0xx_hal_rcc_ex.c ****           frequency = HSI_VALUE;
 573:Drivers/STM32G0xx_HAL_Driver/Src/stm32g0xx_hal_rcc_ex.c ****         }
 574:Drivers/STM32G0xx_HAL_Driver/Src/stm32g0xx_hal_rcc_ex.c ****         else if ((HAL_IS_BIT_SET(RCC->BDCR, RCC_BDCR_LSERDY)) && (srcclk == RCC_USART1CLKSOURCE_LSE
 575:Drivers/STM32G0xx_HAL_Driver/Src/stm32g0xx_hal_rcc_ex.c ****         {
 576:Drivers/STM32G0xx_HAL_Driver/Src/stm32g0xx_hal_rcc_ex.c ****           frequency = LSE_VALUE;
 577:Drivers/STM32G0xx_HAL_Driver/Src/stm32g0xx_hal_rcc_ex.c ****         }
 578:Drivers/STM32G0xx_HAL_Driver/Src/stm32g0xx_hal_rcc_ex.c ****         /* Clock not enabled for USART1 */
 579:Drivers/STM32G0xx_HAL_Driver/Src/stm32g0xx_hal_rcc_ex.c ****         else
 580:Drivers/STM32G0xx_HAL_Driver/Src/stm32g0xx_hal_rcc_ex.c ****         {
 581:Drivers/STM32G0xx_HAL_Driver/Src/stm32g0xx_hal_rcc_ex.c ****           /* Nothing to do as frequency already initialized to 0U */
 582:Drivers/STM32G0xx_HAL_Driver/Src/stm32g0xx_hal_rcc_ex.c ****         }
 583:Drivers/STM32G0xx_HAL_Driver/Src/stm32g0xx_hal_rcc_ex.c ****         break;
 584:Drivers/STM32G0xx_HAL_Driver/Src/stm32g0xx_hal_rcc_ex.c **** #if defined(RCC_CCIPR_USART2SEL)
 585:Drivers/STM32G0xx_HAL_Driver/Src/stm32g0xx_hal_rcc_ex.c ****       case RCC_PERIPHCLK_USART2:
 586:Drivers/STM32G0xx_HAL_Driver/Src/stm32g0xx_hal_rcc_ex.c ****         /* Get the current USART2 source */
 587:Drivers/STM32G0xx_HAL_Driver/Src/stm32g0xx_hal_rcc_ex.c ****         srcclk = __HAL_RCC_GET_USART2_SOURCE();
 588:Drivers/STM32G0xx_HAL_Driver/Src/stm32g0xx_hal_rcc_ex.c **** 
 589:Drivers/STM32G0xx_HAL_Driver/Src/stm32g0xx_hal_rcc_ex.c ****         if (srcclk == RCC_USART2CLKSOURCE_PCLK1)
 590:Drivers/STM32G0xx_HAL_Driver/Src/stm32g0xx_hal_rcc_ex.c ****         {
 591:Drivers/STM32G0xx_HAL_Driver/Src/stm32g0xx_hal_rcc_ex.c ****           frequency = HAL_RCC_GetPCLK1Freq();
 592:Drivers/STM32G0xx_HAL_Driver/Src/stm32g0xx_hal_rcc_ex.c ****         }
 593:Drivers/STM32G0xx_HAL_Driver/Src/stm32g0xx_hal_rcc_ex.c ****         else if (srcclk == RCC_USART2CLKSOURCE_SYSCLK)
 594:Drivers/STM32G0xx_HAL_Driver/Src/stm32g0xx_hal_rcc_ex.c ****         {
 595:Drivers/STM32G0xx_HAL_Driver/Src/stm32g0xx_hal_rcc_ex.c ****           frequency = HAL_RCC_GetSysClockFreq();
 596:Drivers/STM32G0xx_HAL_Driver/Src/stm32g0xx_hal_rcc_ex.c ****         }
 597:Drivers/STM32G0xx_HAL_Driver/Src/stm32g0xx_hal_rcc_ex.c ****         else if ((HAL_IS_BIT_SET(RCC->CR, RCC_CR_HSIRDY)) && (srcclk == RCC_USART2CLKSOURCE_HSI))
 598:Drivers/STM32G0xx_HAL_Driver/Src/stm32g0xx_hal_rcc_ex.c ****         {
 599:Drivers/STM32G0xx_HAL_Driver/Src/stm32g0xx_hal_rcc_ex.c ****           frequency = HSI_VALUE;
 600:Drivers/STM32G0xx_HAL_Driver/Src/stm32g0xx_hal_rcc_ex.c ****         }
 601:Drivers/STM32G0xx_HAL_Driver/Src/stm32g0xx_hal_rcc_ex.c ****         else if ((HAL_IS_BIT_SET(RCC->BDCR, RCC_BDCR_LSERDY)) && (srcclk == RCC_USART2CLKSOURCE_LSE
 602:Drivers/STM32G0xx_HAL_Driver/Src/stm32g0xx_hal_rcc_ex.c ****         {
ARM GAS  C:\Users\matil\AppData\Local\Temp\ccFWmvIF.s 			page 25


 603:Drivers/STM32G0xx_HAL_Driver/Src/stm32g0xx_hal_rcc_ex.c ****           frequency = LSE_VALUE;
 604:Drivers/STM32G0xx_HAL_Driver/Src/stm32g0xx_hal_rcc_ex.c ****         }
 605:Drivers/STM32G0xx_HAL_Driver/Src/stm32g0xx_hal_rcc_ex.c ****         /* Clock not enabled for USART2 */
 606:Drivers/STM32G0xx_HAL_Driver/Src/stm32g0xx_hal_rcc_ex.c ****         else
 607:Drivers/STM32G0xx_HAL_Driver/Src/stm32g0xx_hal_rcc_ex.c ****         {
 608:Drivers/STM32G0xx_HAL_Driver/Src/stm32g0xx_hal_rcc_ex.c ****           /* Nothing to do as frequency already initialized to 0U */
 609:Drivers/STM32G0xx_HAL_Driver/Src/stm32g0xx_hal_rcc_ex.c ****         }
 610:Drivers/STM32G0xx_HAL_Driver/Src/stm32g0xx_hal_rcc_ex.c ****         break;
 611:Drivers/STM32G0xx_HAL_Driver/Src/stm32g0xx_hal_rcc_ex.c **** #endif /* RCC_CCIPR_USART2SEL */
 612:Drivers/STM32G0xx_HAL_Driver/Src/stm32g0xx_hal_rcc_ex.c **** #if defined(RCC_CCIPR_CECSEL)
 613:Drivers/STM32G0xx_HAL_Driver/Src/stm32g0xx_hal_rcc_ex.c ****       case RCC_PERIPHCLK_CEC:
 614:Drivers/STM32G0xx_HAL_Driver/Src/stm32g0xx_hal_rcc_ex.c ****         /* Get the current CEC source */
 615:Drivers/STM32G0xx_HAL_Driver/Src/stm32g0xx_hal_rcc_ex.c ****         srcclk = __HAL_RCC_GET_CEC_SOURCE();
 616:Drivers/STM32G0xx_HAL_Driver/Src/stm32g0xx_hal_rcc_ex.c **** 
 617:Drivers/STM32G0xx_HAL_Driver/Src/stm32g0xx_hal_rcc_ex.c ****         if ((HAL_IS_BIT_SET(RCC->CR, RCC_CR_HSIRDY)) && (srcclk == RCC_CECCLKSOURCE_HSI_DIV488))
 618:Drivers/STM32G0xx_HAL_Driver/Src/stm32g0xx_hal_rcc_ex.c ****         {
 619:Drivers/STM32G0xx_HAL_Driver/Src/stm32g0xx_hal_rcc_ex.c ****           frequency = (HSI_VALUE / 488U);
 620:Drivers/STM32G0xx_HAL_Driver/Src/stm32g0xx_hal_rcc_ex.c ****         }
 621:Drivers/STM32G0xx_HAL_Driver/Src/stm32g0xx_hal_rcc_ex.c ****         else if ((HAL_IS_BIT_SET(RCC->BDCR, RCC_BDCR_LSERDY)) && (srcclk == RCC_CECCLKSOURCE_LSE))
 622:Drivers/STM32G0xx_HAL_Driver/Src/stm32g0xx_hal_rcc_ex.c ****         {
 623:Drivers/STM32G0xx_HAL_Driver/Src/stm32g0xx_hal_rcc_ex.c ****           frequency = LSE_VALUE;
 624:Drivers/STM32G0xx_HAL_Driver/Src/stm32g0xx_hal_rcc_ex.c ****         }
 625:Drivers/STM32G0xx_HAL_Driver/Src/stm32g0xx_hal_rcc_ex.c ****         /* Clock not enabled for CEC */
 626:Drivers/STM32G0xx_HAL_Driver/Src/stm32g0xx_hal_rcc_ex.c ****         else
 627:Drivers/STM32G0xx_HAL_Driver/Src/stm32g0xx_hal_rcc_ex.c ****         {
 628:Drivers/STM32G0xx_HAL_Driver/Src/stm32g0xx_hal_rcc_ex.c ****           /* Nothing to do as frequency already initialized to 0U */
 629:Drivers/STM32G0xx_HAL_Driver/Src/stm32g0xx_hal_rcc_ex.c ****         }
 630:Drivers/STM32G0xx_HAL_Driver/Src/stm32g0xx_hal_rcc_ex.c ****         break;
 631:Drivers/STM32G0xx_HAL_Driver/Src/stm32g0xx_hal_rcc_ex.c **** #endif /* RCC_CCIPR_CECSEL */
 632:Drivers/STM32G0xx_HAL_Driver/Src/stm32g0xx_hal_rcc_ex.c **** 
 633:Drivers/STM32G0xx_HAL_Driver/Src/stm32g0xx_hal_rcc_ex.c **** #if defined(RCC_CCIPR_LPUART1SEL)
 634:Drivers/STM32G0xx_HAL_Driver/Src/stm32g0xx_hal_rcc_ex.c ****       case RCC_PERIPHCLK_LPUART1:
 635:Drivers/STM32G0xx_HAL_Driver/Src/stm32g0xx_hal_rcc_ex.c ****         /* Get the current LPUART1 source */
 636:Drivers/STM32G0xx_HAL_Driver/Src/stm32g0xx_hal_rcc_ex.c ****         srcclk = __HAL_RCC_GET_LPUART1_SOURCE();
 637:Drivers/STM32G0xx_HAL_Driver/Src/stm32g0xx_hal_rcc_ex.c **** 
 638:Drivers/STM32G0xx_HAL_Driver/Src/stm32g0xx_hal_rcc_ex.c ****         if (srcclk == RCC_LPUART1CLKSOURCE_PCLK1)
 639:Drivers/STM32G0xx_HAL_Driver/Src/stm32g0xx_hal_rcc_ex.c ****         {
 640:Drivers/STM32G0xx_HAL_Driver/Src/stm32g0xx_hal_rcc_ex.c ****           frequency = HAL_RCC_GetPCLK1Freq();
 641:Drivers/STM32G0xx_HAL_Driver/Src/stm32g0xx_hal_rcc_ex.c ****         }
 642:Drivers/STM32G0xx_HAL_Driver/Src/stm32g0xx_hal_rcc_ex.c ****         else if (srcclk == RCC_LPUART1CLKSOURCE_SYSCLK)
 643:Drivers/STM32G0xx_HAL_Driver/Src/stm32g0xx_hal_rcc_ex.c ****         {
 644:Drivers/STM32G0xx_HAL_Driver/Src/stm32g0xx_hal_rcc_ex.c ****           frequency = HAL_RCC_GetSysClockFreq();
 645:Drivers/STM32G0xx_HAL_Driver/Src/stm32g0xx_hal_rcc_ex.c ****         }
 646:Drivers/STM32G0xx_HAL_Driver/Src/stm32g0xx_hal_rcc_ex.c ****         else if ((HAL_IS_BIT_SET(RCC->CR, RCC_CR_HSIRDY)) && (srcclk == RCC_LPUART1CLKSOURCE_HSI))
 647:Drivers/STM32G0xx_HAL_Driver/Src/stm32g0xx_hal_rcc_ex.c ****         {
 648:Drivers/STM32G0xx_HAL_Driver/Src/stm32g0xx_hal_rcc_ex.c ****           frequency = HSI_VALUE;
 649:Drivers/STM32G0xx_HAL_Driver/Src/stm32g0xx_hal_rcc_ex.c ****         }
 650:Drivers/STM32G0xx_HAL_Driver/Src/stm32g0xx_hal_rcc_ex.c ****         else if ((HAL_IS_BIT_SET(RCC->BDCR, RCC_BDCR_LSERDY)) && (srcclk == RCC_LPUART1CLKSOURCE_LS
 651:Drivers/STM32G0xx_HAL_Driver/Src/stm32g0xx_hal_rcc_ex.c ****         {
 652:Drivers/STM32G0xx_HAL_Driver/Src/stm32g0xx_hal_rcc_ex.c ****           frequency = LSE_VALUE;
 653:Drivers/STM32G0xx_HAL_Driver/Src/stm32g0xx_hal_rcc_ex.c ****         }
 654:Drivers/STM32G0xx_HAL_Driver/Src/stm32g0xx_hal_rcc_ex.c ****         /* Clock not enabled for LPUART1 */
 655:Drivers/STM32G0xx_HAL_Driver/Src/stm32g0xx_hal_rcc_ex.c ****         else
 656:Drivers/STM32G0xx_HAL_Driver/Src/stm32g0xx_hal_rcc_ex.c ****         {
 657:Drivers/STM32G0xx_HAL_Driver/Src/stm32g0xx_hal_rcc_ex.c ****           /* Nothing to do as frequency already initialized to 0U */
 658:Drivers/STM32G0xx_HAL_Driver/Src/stm32g0xx_hal_rcc_ex.c ****         }
 659:Drivers/STM32G0xx_HAL_Driver/Src/stm32g0xx_hal_rcc_ex.c ****         break;
ARM GAS  C:\Users\matil\AppData\Local\Temp\ccFWmvIF.s 			page 26


 660:Drivers/STM32G0xx_HAL_Driver/Src/stm32g0xx_hal_rcc_ex.c **** #endif /* RCC_CCIPR_LPUART1SEL */
 661:Drivers/STM32G0xx_HAL_Driver/Src/stm32g0xx_hal_rcc_ex.c **** 
 662:Drivers/STM32G0xx_HAL_Driver/Src/stm32g0xx_hal_rcc_ex.c ****       case RCC_PERIPHCLK_ADC:
 663:Drivers/STM32G0xx_HAL_Driver/Src/stm32g0xx_hal_rcc_ex.c **** 
 664:Drivers/STM32G0xx_HAL_Driver/Src/stm32g0xx_hal_rcc_ex.c ****         srcclk = __HAL_RCC_GET_ADC_SOURCE();
 665:Drivers/STM32G0xx_HAL_Driver/Src/stm32g0xx_hal_rcc_ex.c **** 
 666:Drivers/STM32G0xx_HAL_Driver/Src/stm32g0xx_hal_rcc_ex.c ****         if (srcclk == RCC_ADCCLKSOURCE_SYSCLK)
 667:Drivers/STM32G0xx_HAL_Driver/Src/stm32g0xx_hal_rcc_ex.c ****         {
 668:Drivers/STM32G0xx_HAL_Driver/Src/stm32g0xx_hal_rcc_ex.c ****           frequency = HAL_RCC_GetSysClockFreq();
 669:Drivers/STM32G0xx_HAL_Driver/Src/stm32g0xx_hal_rcc_ex.c ****         }
 670:Drivers/STM32G0xx_HAL_Driver/Src/stm32g0xx_hal_rcc_ex.c ****         else if (srcclk == RCC_ADCCLKSOURCE_HSI)
 671:Drivers/STM32G0xx_HAL_Driver/Src/stm32g0xx_hal_rcc_ex.c ****         {
 672:Drivers/STM32G0xx_HAL_Driver/Src/stm32g0xx_hal_rcc_ex.c ****           frequency = HSI_VALUE;
 673:Drivers/STM32G0xx_HAL_Driver/Src/stm32g0xx_hal_rcc_ex.c ****         }
 674:Drivers/STM32G0xx_HAL_Driver/Src/stm32g0xx_hal_rcc_ex.c ****         else if (srcclk == RCC_ADCCLKSOURCE_PLLADC)
 675:Drivers/STM32G0xx_HAL_Driver/Src/stm32g0xx_hal_rcc_ex.c ****         {
 676:Drivers/STM32G0xx_HAL_Driver/Src/stm32g0xx_hal_rcc_ex.c ****           if (__HAL_RCC_GET_PLLCLKOUT_CONFIG(RCC_PLLPCLK) != 0U)
 677:Drivers/STM32G0xx_HAL_Driver/Src/stm32g0xx_hal_rcc_ex.c ****           {
 678:Drivers/STM32G0xx_HAL_Driver/Src/stm32g0xx_hal_rcc_ex.c ****             /* f(PLLP) = f(VCO input) * PLLN / PLLP */
 679:Drivers/STM32G0xx_HAL_Driver/Src/stm32g0xx_hal_rcc_ex.c ****             plln = READ_BIT(RCC->PLLCFGR, RCC_PLLCFGR_PLLN) >> RCC_PLLCFGR_PLLN_Pos;
 680:Drivers/STM32G0xx_HAL_Driver/Src/stm32g0xx_hal_rcc_ex.c ****             frequency = (pllvco * plln) / ((READ_BIT(RCC->PLLCFGR, RCC_PLLCFGR_PLLP) >> RCC_PLLCFGR
 681:Drivers/STM32G0xx_HAL_Driver/Src/stm32g0xx_hal_rcc_ex.c ****           }
 682:Drivers/STM32G0xx_HAL_Driver/Src/stm32g0xx_hal_rcc_ex.c ****         }
 683:Drivers/STM32G0xx_HAL_Driver/Src/stm32g0xx_hal_rcc_ex.c ****         /* Clock not enabled for ADC */
 684:Drivers/STM32G0xx_HAL_Driver/Src/stm32g0xx_hal_rcc_ex.c ****         else
 685:Drivers/STM32G0xx_HAL_Driver/Src/stm32g0xx_hal_rcc_ex.c ****         {
 686:Drivers/STM32G0xx_HAL_Driver/Src/stm32g0xx_hal_rcc_ex.c ****           /* Nothing to do as frequency already initialized to 0U */
 687:Drivers/STM32G0xx_HAL_Driver/Src/stm32g0xx_hal_rcc_ex.c ****         }
 688:Drivers/STM32G0xx_HAL_Driver/Src/stm32g0xx_hal_rcc_ex.c ****         break;
 689:Drivers/STM32G0xx_HAL_Driver/Src/stm32g0xx_hal_rcc_ex.c **** 
 690:Drivers/STM32G0xx_HAL_Driver/Src/stm32g0xx_hal_rcc_ex.c ****       case RCC_PERIPHCLK_I2C1:
 691:Drivers/STM32G0xx_HAL_Driver/Src/stm32g0xx_hal_rcc_ex.c ****         /* Get the current I2C1 source */
 692:Drivers/STM32G0xx_HAL_Driver/Src/stm32g0xx_hal_rcc_ex.c ****         srcclk = __HAL_RCC_GET_I2C1_SOURCE();
 693:Drivers/STM32G0xx_HAL_Driver/Src/stm32g0xx_hal_rcc_ex.c **** 
 694:Drivers/STM32G0xx_HAL_Driver/Src/stm32g0xx_hal_rcc_ex.c ****         if (srcclk == RCC_I2C1CLKSOURCE_PCLK1)
 695:Drivers/STM32G0xx_HAL_Driver/Src/stm32g0xx_hal_rcc_ex.c ****         {
 696:Drivers/STM32G0xx_HAL_Driver/Src/stm32g0xx_hal_rcc_ex.c ****           frequency = HAL_RCC_GetPCLK1Freq();
 697:Drivers/STM32G0xx_HAL_Driver/Src/stm32g0xx_hal_rcc_ex.c ****         }
 698:Drivers/STM32G0xx_HAL_Driver/Src/stm32g0xx_hal_rcc_ex.c ****         else if (srcclk == RCC_I2C1CLKSOURCE_SYSCLK)
 699:Drivers/STM32G0xx_HAL_Driver/Src/stm32g0xx_hal_rcc_ex.c ****         {
 700:Drivers/STM32G0xx_HAL_Driver/Src/stm32g0xx_hal_rcc_ex.c ****           frequency = HAL_RCC_GetSysClockFreq();
 701:Drivers/STM32G0xx_HAL_Driver/Src/stm32g0xx_hal_rcc_ex.c ****         }
 702:Drivers/STM32G0xx_HAL_Driver/Src/stm32g0xx_hal_rcc_ex.c ****         else if ((HAL_IS_BIT_SET(RCC->CR, RCC_CR_HSIRDY)) && (srcclk == RCC_I2C1CLKSOURCE_HSI))
 703:Drivers/STM32G0xx_HAL_Driver/Src/stm32g0xx_hal_rcc_ex.c ****         {
 704:Drivers/STM32G0xx_HAL_Driver/Src/stm32g0xx_hal_rcc_ex.c ****           frequency = HSI_VALUE;
 705:Drivers/STM32G0xx_HAL_Driver/Src/stm32g0xx_hal_rcc_ex.c ****         }
 706:Drivers/STM32G0xx_HAL_Driver/Src/stm32g0xx_hal_rcc_ex.c ****         /* Clock not enabled for I2C1 */
 707:Drivers/STM32G0xx_HAL_Driver/Src/stm32g0xx_hal_rcc_ex.c ****         else
 708:Drivers/STM32G0xx_HAL_Driver/Src/stm32g0xx_hal_rcc_ex.c ****         {
 709:Drivers/STM32G0xx_HAL_Driver/Src/stm32g0xx_hal_rcc_ex.c ****           /* Nothing to do as frequency already initialized to 0U */
 710:Drivers/STM32G0xx_HAL_Driver/Src/stm32g0xx_hal_rcc_ex.c ****         }
 711:Drivers/STM32G0xx_HAL_Driver/Src/stm32g0xx_hal_rcc_ex.c ****         break;
 712:Drivers/STM32G0xx_HAL_Driver/Src/stm32g0xx_hal_rcc_ex.c **** 
 713:Drivers/STM32G0xx_HAL_Driver/Src/stm32g0xx_hal_rcc_ex.c ****       case RCC_PERIPHCLK_I2S1:
 714:Drivers/STM32G0xx_HAL_Driver/Src/stm32g0xx_hal_rcc_ex.c ****         /* Get the current I2S1 source */
 715:Drivers/STM32G0xx_HAL_Driver/Src/stm32g0xx_hal_rcc_ex.c ****         srcclk = __HAL_RCC_GET_I2S1_SOURCE();
 716:Drivers/STM32G0xx_HAL_Driver/Src/stm32g0xx_hal_rcc_ex.c **** 
ARM GAS  C:\Users\matil\AppData\Local\Temp\ccFWmvIF.s 			page 27


 717:Drivers/STM32G0xx_HAL_Driver/Src/stm32g0xx_hal_rcc_ex.c ****         if (srcclk == RCC_I2S1CLKSOURCE_PLL)
 718:Drivers/STM32G0xx_HAL_Driver/Src/stm32g0xx_hal_rcc_ex.c ****         {
 719:Drivers/STM32G0xx_HAL_Driver/Src/stm32g0xx_hal_rcc_ex.c ****           if (__HAL_RCC_GET_PLLCLKOUT_CONFIG(RCC_PLLPCLK) != 0U)
 720:Drivers/STM32G0xx_HAL_Driver/Src/stm32g0xx_hal_rcc_ex.c ****           {
 721:Drivers/STM32G0xx_HAL_Driver/Src/stm32g0xx_hal_rcc_ex.c ****             /* f(PLLP) = f(VCO input) * PLLN / PLLP */
 722:Drivers/STM32G0xx_HAL_Driver/Src/stm32g0xx_hal_rcc_ex.c ****             plln = READ_BIT(RCC->PLLCFGR, RCC_PLLCFGR_PLLN) >> RCC_PLLCFGR_PLLN_Pos;
 723:Drivers/STM32G0xx_HAL_Driver/Src/stm32g0xx_hal_rcc_ex.c ****             frequency = (pllvco * plln) / ((READ_BIT(RCC->PLLCFGR, RCC_PLLCFGR_PLLP) >> RCC_PLLCFGR
 724:Drivers/STM32G0xx_HAL_Driver/Src/stm32g0xx_hal_rcc_ex.c ****           }
 725:Drivers/STM32G0xx_HAL_Driver/Src/stm32g0xx_hal_rcc_ex.c ****         }
 726:Drivers/STM32G0xx_HAL_Driver/Src/stm32g0xx_hal_rcc_ex.c ****         else if (srcclk == RCC_I2S1CLKSOURCE_SYSCLK)
 727:Drivers/STM32G0xx_HAL_Driver/Src/stm32g0xx_hal_rcc_ex.c ****         {
 728:Drivers/STM32G0xx_HAL_Driver/Src/stm32g0xx_hal_rcc_ex.c ****           frequency = HAL_RCC_GetSysClockFreq();
 729:Drivers/STM32G0xx_HAL_Driver/Src/stm32g0xx_hal_rcc_ex.c ****         }
 730:Drivers/STM32G0xx_HAL_Driver/Src/stm32g0xx_hal_rcc_ex.c ****         else if ((HAL_IS_BIT_SET(RCC->CR, RCC_CR_HSIRDY)) && (srcclk == RCC_I2S1CLKSOURCE_HSI))
 731:Drivers/STM32G0xx_HAL_Driver/Src/stm32g0xx_hal_rcc_ex.c ****         {
 732:Drivers/STM32G0xx_HAL_Driver/Src/stm32g0xx_hal_rcc_ex.c ****           frequency = HSI_VALUE;
 733:Drivers/STM32G0xx_HAL_Driver/Src/stm32g0xx_hal_rcc_ex.c ****         }
 734:Drivers/STM32G0xx_HAL_Driver/Src/stm32g0xx_hal_rcc_ex.c ****         else if (srcclk == RCC_I2S1CLKSOURCE_EXT)
 735:Drivers/STM32G0xx_HAL_Driver/Src/stm32g0xx_hal_rcc_ex.c ****         {
 736:Drivers/STM32G0xx_HAL_Driver/Src/stm32g0xx_hal_rcc_ex.c ****           /* External clock used.*/
 737:Drivers/STM32G0xx_HAL_Driver/Src/stm32g0xx_hal_rcc_ex.c ****           frequency = EXTERNAL_I2S1_CLOCK_VALUE;
 738:Drivers/STM32G0xx_HAL_Driver/Src/stm32g0xx_hal_rcc_ex.c ****         }
 739:Drivers/STM32G0xx_HAL_Driver/Src/stm32g0xx_hal_rcc_ex.c ****         /* Clock not enabled for I2S1 */
 740:Drivers/STM32G0xx_HAL_Driver/Src/stm32g0xx_hal_rcc_ex.c ****         else
 741:Drivers/STM32G0xx_HAL_Driver/Src/stm32g0xx_hal_rcc_ex.c ****         {
 742:Drivers/STM32G0xx_HAL_Driver/Src/stm32g0xx_hal_rcc_ex.c ****           /* Nothing to do as frequency already initialized to 0U */
 743:Drivers/STM32G0xx_HAL_Driver/Src/stm32g0xx_hal_rcc_ex.c ****         }
 744:Drivers/STM32G0xx_HAL_Driver/Src/stm32g0xx_hal_rcc_ex.c ****         break;
 745:Drivers/STM32G0xx_HAL_Driver/Src/stm32g0xx_hal_rcc_ex.c **** 
 746:Drivers/STM32G0xx_HAL_Driver/Src/stm32g0xx_hal_rcc_ex.c **** #if defined(RCC_CCIPR_LPTIM1SEL)
 747:Drivers/STM32G0xx_HAL_Driver/Src/stm32g0xx_hal_rcc_ex.c ****       case RCC_PERIPHCLK_LPTIM1:
 748:Drivers/STM32G0xx_HAL_Driver/Src/stm32g0xx_hal_rcc_ex.c ****         /* Get the current LPTIM1 source */
 749:Drivers/STM32G0xx_HAL_Driver/Src/stm32g0xx_hal_rcc_ex.c ****         srcclk = __HAL_RCC_GET_LPTIM1_SOURCE();
 750:Drivers/STM32G0xx_HAL_Driver/Src/stm32g0xx_hal_rcc_ex.c **** 
 751:Drivers/STM32G0xx_HAL_Driver/Src/stm32g0xx_hal_rcc_ex.c ****         if (srcclk == RCC_LPTIM1CLKSOURCE_PCLK1)
 752:Drivers/STM32G0xx_HAL_Driver/Src/stm32g0xx_hal_rcc_ex.c ****         {
 753:Drivers/STM32G0xx_HAL_Driver/Src/stm32g0xx_hal_rcc_ex.c ****           frequency = HAL_RCC_GetPCLK1Freq();
 754:Drivers/STM32G0xx_HAL_Driver/Src/stm32g0xx_hal_rcc_ex.c ****         }
 755:Drivers/STM32G0xx_HAL_Driver/Src/stm32g0xx_hal_rcc_ex.c ****         else if ((HAL_IS_BIT_SET(RCC->CSR, RCC_CSR_LSIRDY)) && (srcclk == RCC_LPTIM1CLKSOURCE_LSI))
 756:Drivers/STM32G0xx_HAL_Driver/Src/stm32g0xx_hal_rcc_ex.c ****         {
 757:Drivers/STM32G0xx_HAL_Driver/Src/stm32g0xx_hal_rcc_ex.c ****           frequency = LSI_VALUE;
 758:Drivers/STM32G0xx_HAL_Driver/Src/stm32g0xx_hal_rcc_ex.c ****         }
 759:Drivers/STM32G0xx_HAL_Driver/Src/stm32g0xx_hal_rcc_ex.c ****         else if ((HAL_IS_BIT_SET(RCC->CR, RCC_CR_HSIRDY)) && (srcclk == RCC_LPTIM1CLKSOURCE_HSI))
 760:Drivers/STM32G0xx_HAL_Driver/Src/stm32g0xx_hal_rcc_ex.c ****         {
 761:Drivers/STM32G0xx_HAL_Driver/Src/stm32g0xx_hal_rcc_ex.c ****           frequency = HSI_VALUE;
 762:Drivers/STM32G0xx_HAL_Driver/Src/stm32g0xx_hal_rcc_ex.c ****         }
 763:Drivers/STM32G0xx_HAL_Driver/Src/stm32g0xx_hal_rcc_ex.c ****         else if ((HAL_IS_BIT_SET(RCC->BDCR, RCC_BDCR_LSERDY)) && (srcclk == RCC_LPTIM1CLKSOURCE_LSE
 764:Drivers/STM32G0xx_HAL_Driver/Src/stm32g0xx_hal_rcc_ex.c ****         {
 765:Drivers/STM32G0xx_HAL_Driver/Src/stm32g0xx_hal_rcc_ex.c ****           frequency = LSE_VALUE;
 766:Drivers/STM32G0xx_HAL_Driver/Src/stm32g0xx_hal_rcc_ex.c ****         }
 767:Drivers/STM32G0xx_HAL_Driver/Src/stm32g0xx_hal_rcc_ex.c ****         /* Clock not enabled for LPTIM1 */
 768:Drivers/STM32G0xx_HAL_Driver/Src/stm32g0xx_hal_rcc_ex.c ****         else
 769:Drivers/STM32G0xx_HAL_Driver/Src/stm32g0xx_hal_rcc_ex.c ****         {
 770:Drivers/STM32G0xx_HAL_Driver/Src/stm32g0xx_hal_rcc_ex.c ****           /* Nothing to do as frequency already initialized to 0U */
 771:Drivers/STM32G0xx_HAL_Driver/Src/stm32g0xx_hal_rcc_ex.c ****         }
 772:Drivers/STM32G0xx_HAL_Driver/Src/stm32g0xx_hal_rcc_ex.c ****         break;
 773:Drivers/STM32G0xx_HAL_Driver/Src/stm32g0xx_hal_rcc_ex.c **** #endif /* RCC_CCIPR_LPTIM1SEL */
ARM GAS  C:\Users\matil\AppData\Local\Temp\ccFWmvIF.s 			page 28


 774:Drivers/STM32G0xx_HAL_Driver/Src/stm32g0xx_hal_rcc_ex.c **** 
 775:Drivers/STM32G0xx_HAL_Driver/Src/stm32g0xx_hal_rcc_ex.c **** #if defined(RCC_CCIPR_LPTIM2SEL)
 776:Drivers/STM32G0xx_HAL_Driver/Src/stm32g0xx_hal_rcc_ex.c ****       case RCC_PERIPHCLK_LPTIM2:
 777:Drivers/STM32G0xx_HAL_Driver/Src/stm32g0xx_hal_rcc_ex.c ****         /* Get the current LPTIM2 source */
 778:Drivers/STM32G0xx_HAL_Driver/Src/stm32g0xx_hal_rcc_ex.c ****         srcclk = __HAL_RCC_GET_LPTIM2_SOURCE();
 779:Drivers/STM32G0xx_HAL_Driver/Src/stm32g0xx_hal_rcc_ex.c **** 
 780:Drivers/STM32G0xx_HAL_Driver/Src/stm32g0xx_hal_rcc_ex.c ****         if (srcclk == RCC_LPTIM2CLKSOURCE_PCLK1)
 781:Drivers/STM32G0xx_HAL_Driver/Src/stm32g0xx_hal_rcc_ex.c ****         {
 782:Drivers/STM32G0xx_HAL_Driver/Src/stm32g0xx_hal_rcc_ex.c ****           frequency = HAL_RCC_GetPCLK1Freq();
 783:Drivers/STM32G0xx_HAL_Driver/Src/stm32g0xx_hal_rcc_ex.c ****         }
 784:Drivers/STM32G0xx_HAL_Driver/Src/stm32g0xx_hal_rcc_ex.c ****         else if ((HAL_IS_BIT_SET(RCC->CSR, RCC_CSR_LSIRDY)) && (srcclk == RCC_LPTIM2CLKSOURCE_LSI))
 785:Drivers/STM32G0xx_HAL_Driver/Src/stm32g0xx_hal_rcc_ex.c ****         {
 786:Drivers/STM32G0xx_HAL_Driver/Src/stm32g0xx_hal_rcc_ex.c ****           frequency = LSI_VALUE;
 787:Drivers/STM32G0xx_HAL_Driver/Src/stm32g0xx_hal_rcc_ex.c ****         }
 788:Drivers/STM32G0xx_HAL_Driver/Src/stm32g0xx_hal_rcc_ex.c ****         else if ((HAL_IS_BIT_SET(RCC->CR, RCC_CR_HSIRDY)) && (srcclk == RCC_LPTIM2CLKSOURCE_HSI))
 789:Drivers/STM32G0xx_HAL_Driver/Src/stm32g0xx_hal_rcc_ex.c ****         {
 790:Drivers/STM32G0xx_HAL_Driver/Src/stm32g0xx_hal_rcc_ex.c ****           frequency = HSI_VALUE;
 791:Drivers/STM32G0xx_HAL_Driver/Src/stm32g0xx_hal_rcc_ex.c ****         }
 792:Drivers/STM32G0xx_HAL_Driver/Src/stm32g0xx_hal_rcc_ex.c ****         else if ((HAL_IS_BIT_SET(RCC->BDCR, RCC_BDCR_LSERDY)) && (srcclk == RCC_LPTIM2CLKSOURCE_LSE
 793:Drivers/STM32G0xx_HAL_Driver/Src/stm32g0xx_hal_rcc_ex.c ****         {
 794:Drivers/STM32G0xx_HAL_Driver/Src/stm32g0xx_hal_rcc_ex.c ****           frequency = LSE_VALUE;
 795:Drivers/STM32G0xx_HAL_Driver/Src/stm32g0xx_hal_rcc_ex.c ****         }
 796:Drivers/STM32G0xx_HAL_Driver/Src/stm32g0xx_hal_rcc_ex.c ****         /* Clock not enabled for LPTIM2 */
 797:Drivers/STM32G0xx_HAL_Driver/Src/stm32g0xx_hal_rcc_ex.c ****         else
 798:Drivers/STM32G0xx_HAL_Driver/Src/stm32g0xx_hal_rcc_ex.c ****         {
 799:Drivers/STM32G0xx_HAL_Driver/Src/stm32g0xx_hal_rcc_ex.c ****           /* Nothing to do as frequency already initialized to 0U */
 800:Drivers/STM32G0xx_HAL_Driver/Src/stm32g0xx_hal_rcc_ex.c ****         }
 801:Drivers/STM32G0xx_HAL_Driver/Src/stm32g0xx_hal_rcc_ex.c ****         break;
 802:Drivers/STM32G0xx_HAL_Driver/Src/stm32g0xx_hal_rcc_ex.c **** #endif /* RCC_CCIPR_LPTIM2SEL */
 803:Drivers/STM32G0xx_HAL_Driver/Src/stm32g0xx_hal_rcc_ex.c **** 
 804:Drivers/STM32G0xx_HAL_Driver/Src/stm32g0xx_hal_rcc_ex.c **** #if defined(RCC_CCIPR_TIM1SEL)
 805:Drivers/STM32G0xx_HAL_Driver/Src/stm32g0xx_hal_rcc_ex.c ****       case RCC_PERIPHCLK_TIM1:
 806:Drivers/STM32G0xx_HAL_Driver/Src/stm32g0xx_hal_rcc_ex.c **** 
 807:Drivers/STM32G0xx_HAL_Driver/Src/stm32g0xx_hal_rcc_ex.c ****         srcclk = READ_BIT(RCC->CCIPR, RCC_CCIPR_TIM1SEL);
 808:Drivers/STM32G0xx_HAL_Driver/Src/stm32g0xx_hal_rcc_ex.c **** 
 809:Drivers/STM32G0xx_HAL_Driver/Src/stm32g0xx_hal_rcc_ex.c ****         if (srcclk == RCC_TIM1CLKSOURCE_PLL) /* PLL ? */
 810:Drivers/STM32G0xx_HAL_Driver/Src/stm32g0xx_hal_rcc_ex.c ****         {
 811:Drivers/STM32G0xx_HAL_Driver/Src/stm32g0xx_hal_rcc_ex.c ****           if (__HAL_RCC_GET_PLLCLKOUT_CONFIG(RCC_PLLQCLK) != 0U)
 812:Drivers/STM32G0xx_HAL_Driver/Src/stm32g0xx_hal_rcc_ex.c ****           {
 813:Drivers/STM32G0xx_HAL_Driver/Src/stm32g0xx_hal_rcc_ex.c ****             /* f(PLLQ) = f(VCO input) * PLLN / PLLQ */
 814:Drivers/STM32G0xx_HAL_Driver/Src/stm32g0xx_hal_rcc_ex.c ****             plln = READ_BIT(RCC->PLLCFGR, RCC_PLLCFGR_PLLN) >> RCC_PLLCFGR_PLLN_Pos;
 815:Drivers/STM32G0xx_HAL_Driver/Src/stm32g0xx_hal_rcc_ex.c ****             frequency = (pllvco * plln) / ((READ_BIT(RCC->PLLCFGR, RCC_PLLCFGR_PLLQ) >> RCC_PLLCFGR
 816:Drivers/STM32G0xx_HAL_Driver/Src/stm32g0xx_hal_rcc_ex.c ****           }
 817:Drivers/STM32G0xx_HAL_Driver/Src/stm32g0xx_hal_rcc_ex.c ****         }
 818:Drivers/STM32G0xx_HAL_Driver/Src/stm32g0xx_hal_rcc_ex.c ****         else if (srcclk == RCC_TIM1CLKSOURCE_PCLK1) /* PCLK1 ? */
 819:Drivers/STM32G0xx_HAL_Driver/Src/stm32g0xx_hal_rcc_ex.c ****         {
 820:Drivers/STM32G0xx_HAL_Driver/Src/stm32g0xx_hal_rcc_ex.c ****           frequency = HAL_RCC_GetPCLK1Freq();
 821:Drivers/STM32G0xx_HAL_Driver/Src/stm32g0xx_hal_rcc_ex.c ****         }
 822:Drivers/STM32G0xx_HAL_Driver/Src/stm32g0xx_hal_rcc_ex.c ****         else /* No clock source */
 823:Drivers/STM32G0xx_HAL_Driver/Src/stm32g0xx_hal_rcc_ex.c ****         {
 824:Drivers/STM32G0xx_HAL_Driver/Src/stm32g0xx_hal_rcc_ex.c ****           /* Nothing to do as frequency already initialized to 0U */
 825:Drivers/STM32G0xx_HAL_Driver/Src/stm32g0xx_hal_rcc_ex.c ****         }
 826:Drivers/STM32G0xx_HAL_Driver/Src/stm32g0xx_hal_rcc_ex.c ****         break;
 827:Drivers/STM32G0xx_HAL_Driver/Src/stm32g0xx_hal_rcc_ex.c **** #endif /* RCC_CCIPR_TIM1SEL */
 828:Drivers/STM32G0xx_HAL_Driver/Src/stm32g0xx_hal_rcc_ex.c **** 
 829:Drivers/STM32G0xx_HAL_Driver/Src/stm32g0xx_hal_rcc_ex.c **** #if defined(RCC_CCIPR_TIM15SEL)
 830:Drivers/STM32G0xx_HAL_Driver/Src/stm32g0xx_hal_rcc_ex.c ****       case RCC_PERIPHCLK_TIM15:
ARM GAS  C:\Users\matil\AppData\Local\Temp\ccFWmvIF.s 			page 29


 831:Drivers/STM32G0xx_HAL_Driver/Src/stm32g0xx_hal_rcc_ex.c **** 
 832:Drivers/STM32G0xx_HAL_Driver/Src/stm32g0xx_hal_rcc_ex.c ****         srcclk = READ_BIT(RCC->CCIPR, RCC_CCIPR_TIM15SEL);
 751              		.loc 1 832 9 view .LVU206
 752              		.loc 1 832 18 is_stmt 0 view .LVU207
 753 0066 9F4A     		ldr	r2, .L129
 754 0068 526D     		ldr	r2, [r2, #84]
 755              	.LVL35:
 833:Drivers/STM32G0xx_HAL_Driver/Src/stm32g0xx_hal_rcc_ex.c **** 
 834:Drivers/STM32G0xx_HAL_Driver/Src/stm32g0xx_hal_rcc_ex.c ****         if (srcclk == RCC_TIM15CLKSOURCE_PLL) /* PLL ? */
 756              		.loc 1 834 9 is_stmt 1 view .LVU208
 757              		.loc 1 834 12 is_stmt 0 view .LVU209
 758 006a D201     		lsls	r2, r2, #7
 759 006c 00D4     		bmi	.LCB742
 760 006e E0E1     		b	.L81	@long jump
 761              	.LCB742:
 762              	.LVL36:
 835:Drivers/STM32G0xx_HAL_Driver/Src/stm32g0xx_hal_rcc_ex.c ****         {
 836:Drivers/STM32G0xx_HAL_Driver/Src/stm32g0xx_hal_rcc_ex.c ****           if (__HAL_RCC_GET_PLLCLKOUT_CONFIG(RCC_PLLQCLK) != 0U)
 763              		.loc 1 836 11 is_stmt 1 view .LVU210
 764              		.loc 1 836 15 is_stmt 0 view .LVU211
 765 0070 9C4A     		ldr	r2, .L129
 766 0072 D168     		ldr	r1, [r2, #12]
 767 0074 8022     		movs	r2, #128
 768 0076 5204     		lsls	r2, r2, #17
 769 0078 0800     		movs	r0, r1
 770              	.LVL37:
 771              		.loc 1 836 15 view .LVU212
 772 007a 1040     		ands	r0, r2
 773              		.loc 1 836 14 view .LVU213
 774 007c 1142     		tst	r1, r2
 775 007e 31D0     		beq	.L38
 837:Drivers/STM32G0xx_HAL_Driver/Src/stm32g0xx_hal_rcc_ex.c ****           {
 838:Drivers/STM32G0xx_HAL_Driver/Src/stm32g0xx_hal_rcc_ex.c ****             /* f(PLLQ) = f(VCO input) * PLLN / PLLQ */
 839:Drivers/STM32G0xx_HAL_Driver/Src/stm32g0xx_hal_rcc_ex.c ****             plln = READ_BIT(RCC->PLLCFGR, RCC_PLLCFGR_PLLN) >> RCC_PLLCFGR_PLLN_Pos;
 776              		.loc 1 839 13 is_stmt 1 view .LVU214
 777              		.loc 1 839 20 is_stmt 0 view .LVU215
 778 0080 9849     		ldr	r1, .L129
 779 0082 CA68     		ldr	r2, [r1, #12]
 780              		.loc 1 839 61 view .LVU216
 781 0084 120A     		lsrs	r2, r2, #8
 782              		.loc 1 839 18 view .LVU217
 783 0086 7F20     		movs	r0, #127
 784 0088 1040     		ands	r0, r2
 785              	.LVL38:
 840:Drivers/STM32G0xx_HAL_Driver/Src/stm32g0xx_hal_rcc_ex.c ****             frequency = (pllvco * plln) / ((READ_BIT(RCC->PLLCFGR, RCC_PLLCFGR_PLLQ) >> RCC_PLLCFGR
 786              		.loc 1 840 13 is_stmt 1 view .LVU218
 787              		.loc 1 840 33 is_stmt 0 view .LVU219
 788 008a 5843     		muls	r0, r3
 789              	.LVL39:
 790              		.loc 1 840 45 view .LVU220
 791 008c CB68     		ldr	r3, [r1, #12]
 792              	.LVL40:
 793              		.loc 1 840 86 view .LVU221
 794 008e 5B0E     		lsrs	r3, r3, #25
 795 0090 0721     		movs	r1, #7
 796 0092 1940     		ands	r1, r3
 797              		.loc 1 840 111 view .LVU222
ARM GAS  C:\Users\matil\AppData\Local\Temp\ccFWmvIF.s 			page 30


 798 0094 0131     		adds	r1, r1, #1
 799              		.loc 1 840 23 view .LVU223
 800 0096 FFF7FEFF 		bl	__aeabi_uidiv
 801              	.LVL41:
 802              		.loc 1 840 23 view .LVU224
 803 009a 23E0     		b	.L38
 804              	.LVL42:
 805              	.L106:
 484:Drivers/STM32G0xx_HAL_Driver/Src/stm32g0xx_hal_rcc_ex.c **** 
 806              		.loc 1 484 5 is_stmt 1 view .LVU225
 484:Drivers/STM32G0xx_HAL_Driver/Src/stm32g0xx_hal_rcc_ex.c **** 
 807              		.loc 1 484 14 is_stmt 0 view .LVU226
 808 009c 914A     		ldr	r2, .L129
 809 009e D36D     		ldr	r3, [r2, #92]
 484:Drivers/STM32G0xx_HAL_Driver/Src/stm32g0xx_hal_rcc_ex.c **** 
 810              		.loc 1 484 12 view .LVU227
 811 00a0 C021     		movs	r1, #192
 812 00a2 8900     		lsls	r1, r1, #2
 813 00a4 0B40     		ands	r3, r1
 814              	.LVL43:
 487:Drivers/STM32G0xx_HAL_Driver/Src/stm32g0xx_hal_rcc_ex.c ****     {
 815              		.loc 1 487 5 is_stmt 1 view .LVU228
 487:Drivers/STM32G0xx_HAL_Driver/Src/stm32g0xx_hal_rcc_ex.c ****     {
 816              		.loc 1 487 10 is_stmt 0 view .LVU229
 817 00a6 D26D     		ldr	r2, [r2, #92]
 487:Drivers/STM32G0xx_HAL_Driver/Src/stm32g0xx_hal_rcc_ex.c ****     {
 818              		.loc 1 487 8 view .LVU230
 819 00a8 9207     		lsls	r2, r2, #30
 820 00aa 04D5     		bpl	.L40
 487:Drivers/STM32G0xx_HAL_Driver/Src/stm32g0xx_hal_rcc_ex.c ****     {
 821              		.loc 1 487 54 discriminator 1 view .LVU231
 822 00ac 8022     		movs	r2, #128
 823 00ae 5200     		lsls	r2, r2, #1
 824 00b0 9342     		cmp	r3, r2
 825 00b2 00D1     		bne	.LCB798
 826 00b4 C0E1     		b	.L82	@long jump
 827              	.LCB798:
 828              	.L40:
 492:Drivers/STM32G0xx_HAL_Driver/Src/stm32g0xx_hal_rcc_ex.c ****     {
 829              		.loc 1 492 10 is_stmt 1 view .LVU232
 492:Drivers/STM32G0xx_HAL_Driver/Src/stm32g0xx_hal_rcc_ex.c ****     {
 830              		.loc 1 492 15 is_stmt 0 view .LVU233
 831 00b6 8B4A     		ldr	r2, .L129
 832 00b8 126E     		ldr	r2, [r2, #96]
 492:Drivers/STM32G0xx_HAL_Driver/Src/stm32g0xx_hal_rcc_ex.c ****     {
 833              		.loc 1 492 13 view .LVU234
 834 00ba 9207     		lsls	r2, r2, #30
 835 00bc 04D5     		bpl	.L42
 492:Drivers/STM32G0xx_HAL_Driver/Src/stm32g0xx_hal_rcc_ex.c ****     {
 836              		.loc 1 492 57 discriminator 1 view .LVU235
 837 00be 8022     		movs	r2, #128
 838 00c0 9200     		lsls	r2, r2, #2
 839 00c2 9342     		cmp	r3, r2
 840 00c4 00D1     		bne	.LCB810
 841 00c6 BAE1     		b	.L83	@long jump
 842              	.LCB810:
 843              	.L42:
ARM GAS  C:\Users\matil\AppData\Local\Temp\ccFWmvIF.s 			page 31


 497:Drivers/STM32G0xx_HAL_Driver/Src/stm32g0xx_hal_rcc_ex.c ****     {
 844              		.loc 1 497 10 is_stmt 1 view .LVU236
 497:Drivers/STM32G0xx_HAL_Driver/Src/stm32g0xx_hal_rcc_ex.c ****     {
 845              		.loc 1 497 15 is_stmt 0 view .LVU237
 846 00c8 864A     		ldr	r2, .L129
 847 00ca 1168     		ldr	r1, [r2]
 848 00cc 8022     		movs	r2, #128
 849 00ce 9202     		lsls	r2, r2, #10
 850 00d0 0800     		movs	r0, r1
 851              	.LVL44:
 497:Drivers/STM32G0xx_HAL_Driver/Src/stm32g0xx_hal_rcc_ex.c ****     {
 852              		.loc 1 497 15 view .LVU238
 853 00d2 1040     		ands	r0, r2
 497:Drivers/STM32G0xx_HAL_Driver/Src/stm32g0xx_hal_rcc_ex.c ****     {
 854              		.loc 1 497 13 view .LVU239
 855 00d4 1142     		tst	r1, r2
 856 00d6 05D0     		beq	.L38
 497:Drivers/STM32G0xx_HAL_Driver/Src/stm32g0xx_hal_rcc_ex.c ****     {
 857              		.loc 1 497 55 discriminator 1 view .LVU240
 858 00d8 C022     		movs	r2, #192
 859 00da 9200     		lsls	r2, r2, #2
 860 00dc 9342     		cmp	r3, r2
 861 00de 00D1     		bne	.LCB825
 862 00e0 B0E1     		b	.L84	@long jump
 863              	.LCB825:
 470:Drivers/STM32G0xx_HAL_Driver/Src/stm32g0xx_hal_rcc_ex.c ****   uint32_t srcclk;
 864              		.loc 1 470 12 view .LVU241
 865 00e2 0020     		movs	r0, #0
 866              	.LVL45:
 867              	.L38:
 841:Drivers/STM32G0xx_HAL_Driver/Src/stm32g0xx_hal_rcc_ex.c ****           }
 842:Drivers/STM32G0xx_HAL_Driver/Src/stm32g0xx_hal_rcc_ex.c ****         }
 843:Drivers/STM32G0xx_HAL_Driver/Src/stm32g0xx_hal_rcc_ex.c ****         else if (srcclk == RCC_TIM15CLKSOURCE_PCLK1) /* PCLK1 ? */
 844:Drivers/STM32G0xx_HAL_Driver/Src/stm32g0xx_hal_rcc_ex.c ****         {
 845:Drivers/STM32G0xx_HAL_Driver/Src/stm32g0xx_hal_rcc_ex.c ****           frequency = HAL_RCC_GetPCLK1Freq();
 846:Drivers/STM32G0xx_HAL_Driver/Src/stm32g0xx_hal_rcc_ex.c ****         }
 847:Drivers/STM32G0xx_HAL_Driver/Src/stm32g0xx_hal_rcc_ex.c ****         else /* No clock source */
 848:Drivers/STM32G0xx_HAL_Driver/Src/stm32g0xx_hal_rcc_ex.c ****         {
 849:Drivers/STM32G0xx_HAL_Driver/Src/stm32g0xx_hal_rcc_ex.c ****           /* Nothing to do as frequency already initialized to 0U */
 850:Drivers/STM32G0xx_HAL_Driver/Src/stm32g0xx_hal_rcc_ex.c ****         }
 851:Drivers/STM32G0xx_HAL_Driver/Src/stm32g0xx_hal_rcc_ex.c ****         break;
 852:Drivers/STM32G0xx_HAL_Driver/Src/stm32g0xx_hal_rcc_ex.c **** #endif /* RCC_CCIPR_TIM15SEL */
 853:Drivers/STM32G0xx_HAL_Driver/Src/stm32g0xx_hal_rcc_ex.c **** 
 854:Drivers/STM32G0xx_HAL_Driver/Src/stm32g0xx_hal_rcc_ex.c ****       default:
 855:Drivers/STM32G0xx_HAL_Driver/Src/stm32g0xx_hal_rcc_ex.c ****         break;
 856:Drivers/STM32G0xx_HAL_Driver/Src/stm32g0xx_hal_rcc_ex.c ****     }
 857:Drivers/STM32G0xx_HAL_Driver/Src/stm32g0xx_hal_rcc_ex.c ****   }
 858:Drivers/STM32G0xx_HAL_Driver/Src/stm32g0xx_hal_rcc_ex.c **** 
 859:Drivers/STM32G0xx_HAL_Driver/Src/stm32g0xx_hal_rcc_ex.c ****   return (frequency);
 860:Drivers/STM32G0xx_HAL_Driver/Src/stm32g0xx_hal_rcc_ex.c **** }
 868              		.loc 1 860 1 view .LVU242
 869              		@ sp needed
 870              	.LVL46:
 871              		.loc 1 860 1 view .LVU243
 872 00e4 10BD     		pop	{r4, pc}
 873              	.LVL47:
 874              	.L107:
ARM GAS  C:\Users\matil\AppData\Local\Temp\ccFWmvIF.s 			page 32


 518:Drivers/STM32G0xx_HAL_Driver/Src/stm32g0xx_hal_rcc_ex.c ****     }
 875              		.loc 1 518 14 view .LVU244
 876 00e6 8048     		ldr	r0, .L129+4
 877              	.LVL48:
 518:Drivers/STM32G0xx_HAL_Driver/Src/stm32g0xx_hal_rcc_ex.c ****     }
 878              		.loc 1 518 14 view .LVU245
 879 00e8 9DE7     		b	.L43
 880              	.LVL49:
 881              	.L85:
 514:Drivers/STM32G0xx_HAL_Driver/Src/stm32g0xx_hal_rcc_ex.c ****     }
 882              		.loc 1 514 14 view .LVU246
 883 00ea 8048     		ldr	r0, .L129+8
 884              	.LVL50:
 514:Drivers/STM32G0xx_HAL_Driver/Src/stm32g0xx_hal_rcc_ex.c ****     }
 885              		.loc 1 514 14 view .LVU247
 886 00ec 9BE7     		b	.L43
 887              	.LVL51:
 888              	.L108:
 528:Drivers/STM32G0xx_HAL_Driver/Src/stm32g0xx_hal_rcc_ex.c ****     {
 889              		.loc 1 528 5 view .LVU248
 890 00ee 202C     		cmp	r4, #32
 891 00f0 00D1     		bne	.LCB857
 892 00f2 B2E0     		b	.L46	@long jump
 893              	.LCB857:
 894 00f4 2FD9     		bls	.L111
 895 00f6 402C     		cmp	r4, #64
 896 00f8 00D1     		bne	.LCB861
 897 00fa F9E0     		b	.L50	@long jump
 898              	.LCB861:
 899 00fc 8023     		movs	r3, #128
 900 00fe 9B00     		lsls	r3, r3, #2
 901 0100 9C42     		cmp	r4, r3
 902 0102 4AD1     		bne	.L112
 749:Drivers/STM32G0xx_HAL_Driver/Src/stm32g0xx_hal_rcc_ex.c **** 
 903              		.loc 1 749 9 is_stmt 1 view .LVU249
 749:Drivers/STM32G0xx_HAL_Driver/Src/stm32g0xx_hal_rcc_ex.c **** 
 904              		.loc 1 749 18 is_stmt 0 view .LVU250
 905 0104 774B     		ldr	r3, .L129
 906 0106 5A6D     		ldr	r2, [r3, #84]
 749:Drivers/STM32G0xx_HAL_Driver/Src/stm32g0xx_hal_rcc_ex.c **** 
 907              		.loc 1 749 16 view .LVU251
 908 0108 C023     		movs	r3, #192
 909 010a 1B03     		lsls	r3, r3, #12
 910 010c 1100     		movs	r1, r2
 911 010e 1940     		ands	r1, r3
 912              	.LVL52:
 751:Drivers/STM32G0xx_HAL_Driver/Src/stm32g0xx_hal_rcc_ex.c ****         {
 913              		.loc 1 751 9 is_stmt 1 view .LVU252
 751:Drivers/STM32G0xx_HAL_Driver/Src/stm32g0xx_hal_rcc_ex.c ****         {
 914              		.loc 1 751 12 is_stmt 0 view .LVU253
 915 0110 1A42     		tst	r2, r3
 916 0112 00D1     		bne	.LCB876
 917 0114 43E1     		b	.L113	@long jump
 918              	.LCB876:
 755:Drivers/STM32G0xx_HAL_Driver/Src/stm32g0xx_hal_rcc_ex.c ****         {
 919              		.loc 1 755 14 is_stmt 1 view .LVU254
 755:Drivers/STM32G0xx_HAL_Driver/Src/stm32g0xx_hal_rcc_ex.c ****         {
ARM GAS  C:\Users\matil\AppData\Local\Temp\ccFWmvIF.s 			page 33


 920              		.loc 1 755 19 is_stmt 0 view .LVU255
 921 0116 734B     		ldr	r3, .L129
 922 0118 1B6E     		ldr	r3, [r3, #96]
 755:Drivers/STM32G0xx_HAL_Driver/Src/stm32g0xx_hal_rcc_ex.c ****         {
 923              		.loc 1 755 17 view .LVU256
 924 011a 9B07     		lsls	r3, r3, #30
 925 011c 04D5     		bpl	.L75
 755:Drivers/STM32G0xx_HAL_Driver/Src/stm32g0xx_hal_rcc_ex.c ****         {
 926              		.loc 1 755 61 discriminator 1 view .LVU257
 927 011e 8023     		movs	r3, #128
 928 0120 DB02     		lsls	r3, r3, #11
 929 0122 9942     		cmp	r1, r3
 930 0124 00D1     		bne	.LCB887
 931 0126 ABE1     		b	.L100	@long jump
 932              	.LCB887:
 933              	.L75:
 759:Drivers/STM32G0xx_HAL_Driver/Src/stm32g0xx_hal_rcc_ex.c ****         {
 934              		.loc 1 759 14 is_stmt 1 view .LVU258
 759:Drivers/STM32G0xx_HAL_Driver/Src/stm32g0xx_hal_rcc_ex.c ****         {
 935              		.loc 1 759 19 is_stmt 0 view .LVU259
 936 0128 6E4B     		ldr	r3, .L129
 937 012a 1B68     		ldr	r3, [r3]
 759:Drivers/STM32G0xx_HAL_Driver/Src/stm32g0xx_hal_rcc_ex.c ****         {
 938              		.loc 1 759 17 view .LVU260
 939 012c 5B05     		lsls	r3, r3, #21
 940 012e 04D5     		bpl	.L76
 759:Drivers/STM32G0xx_HAL_Driver/Src/stm32g0xx_hal_rcc_ex.c ****         {
 941              		.loc 1 759 59 discriminator 1 view .LVU261
 942 0130 8023     		movs	r3, #128
 943 0132 1B03     		lsls	r3, r3, #12
 944 0134 9942     		cmp	r1, r3
 945 0136 00D1     		bne	.LCB899
 946 0138 A5E1     		b	.L101	@long jump
 947              	.LCB899:
 948              	.L76:
 763:Drivers/STM32G0xx_HAL_Driver/Src/stm32g0xx_hal_rcc_ex.c ****         {
 949              		.loc 1 763 14 is_stmt 1 view .LVU262
 763:Drivers/STM32G0xx_HAL_Driver/Src/stm32g0xx_hal_rcc_ex.c ****         {
 950              		.loc 1 763 19 is_stmt 0 view .LVU263
 951 013a 6A4B     		ldr	r3, .L129
 952 013c DB6D     		ldr	r3, [r3, #92]
 953 013e 0222     		movs	r2, #2
 954 0140 1000     		movs	r0, r2
 955              	.LVL53:
 763:Drivers/STM32G0xx_HAL_Driver/Src/stm32g0xx_hal_rcc_ex.c ****         {
 956              		.loc 1 763 19 view .LVU264
 957 0142 1840     		ands	r0, r3
 763:Drivers/STM32G0xx_HAL_Driver/Src/stm32g0xx_hal_rcc_ex.c ****         {
 958              		.loc 1 763 17 view .LVU265
 959 0144 1A42     		tst	r2, r3
 960 0146 CDD0     		beq	.L38
 763:Drivers/STM32G0xx_HAL_Driver/Src/stm32g0xx_hal_rcc_ex.c ****         {
 961              		.loc 1 763 63 discriminator 1 view .LVU266
 962 0148 C023     		movs	r3, #192
 963 014a 1B03     		lsls	r3, r3, #12
 964 014c 9942     		cmp	r1, r3
 965 014e 00D1     		bne	.LCB913
ARM GAS  C:\Users\matil\AppData\Local\Temp\ccFWmvIF.s 			page 34


 966 0150 9BE1     		b	.L102	@long jump
 967              	.LCB913:
 470:Drivers/STM32G0xx_HAL_Driver/Src/stm32g0xx_hal_rcc_ex.c ****   uint32_t srcclk;
 968              		.loc 1 470 12 view .LVU267
 969 0152 0020     		movs	r0, #0
 970 0154 C6E7     		b	.L38
 971              	.LVL54:
 972              	.L111:
 528:Drivers/STM32G0xx_HAL_Driver/Src/stm32g0xx_hal_rcc_ex.c ****     {
 973              		.loc 1 528 5 view .LVU268
 974 0156 012C     		cmp	r4, #1
 975 0158 3FD0     		beq	.L48
 976 015a 022C     		cmp	r4, #2
 977 015c 1BD1     		bne	.L114
 587:Drivers/STM32G0xx_HAL_Driver/Src/stm32g0xx_hal_rcc_ex.c **** 
 978              		.loc 1 587 9 is_stmt 1 view .LVU269
 587:Drivers/STM32G0xx_HAL_Driver/Src/stm32g0xx_hal_rcc_ex.c **** 
 979              		.loc 1 587 18 is_stmt 0 view .LVU270
 980 015e 614B     		ldr	r3, .L129
 981 0160 5B6D     		ldr	r3, [r3, #84]
 587:Drivers/STM32G0xx_HAL_Driver/Src/stm32g0xx_hal_rcc_ex.c **** 
 982              		.loc 1 587 16 view .LVU271
 983 0162 0C22     		movs	r2, #12
 984 0164 1100     		movs	r1, r2
 985 0166 1940     		ands	r1, r3
 986              	.LVL55:
 589:Drivers/STM32G0xx_HAL_Driver/Src/stm32g0xx_hal_rcc_ex.c ****         {
 987              		.loc 1 589 9 is_stmt 1 view .LVU272
 589:Drivers/STM32G0xx_HAL_Driver/Src/stm32g0xx_hal_rcc_ex.c ****         {
 988              		.loc 1 589 12 is_stmt 0 view .LVU273
 989 0168 1A42     		tst	r2, r3
 990 016a 59D0     		beq	.L115
 593:Drivers/STM32G0xx_HAL_Driver/Src/stm32g0xx_hal_rcc_ex.c ****         {
 991              		.loc 1 593 14 is_stmt 1 view .LVU274
 593:Drivers/STM32G0xx_HAL_Driver/Src/stm32g0xx_hal_rcc_ex.c ****         {
 992              		.loc 1 593 17 is_stmt 0 view .LVU275
 993 016c 0429     		cmp	r1, #4
 994 016e 5AD0     		beq	.L116
 597:Drivers/STM32G0xx_HAL_Driver/Src/stm32g0xx_hal_rcc_ex.c ****         {
 995              		.loc 1 597 14 is_stmt 1 view .LVU276
 597:Drivers/STM32G0xx_HAL_Driver/Src/stm32g0xx_hal_rcc_ex.c ****         {
 996              		.loc 1 597 19 is_stmt 0 view .LVU277
 997 0170 5C4B     		ldr	r3, .L129
 998 0172 1B68     		ldr	r3, [r3]
 597:Drivers/STM32G0xx_HAL_Driver/Src/stm32g0xx_hal_rcc_ex.c ****         {
 999              		.loc 1 597 17 view .LVU278
 1000 0174 5B05     		lsls	r3, r3, #21
 1001 0176 02D5     		bpl	.L63
 597:Drivers/STM32G0xx_HAL_Driver/Src/stm32g0xx_hal_rcc_ex.c ****         {
 1002              		.loc 1 597 59 discriminator 1 view .LVU279
 1003 0178 0829     		cmp	r1, #8
 1004 017a 00D1     		bne	.LCB946
 1005 017c 69E1     		b	.L89	@long jump
 1006              	.LCB946:
 1007              	.L63:
 601:Drivers/STM32G0xx_HAL_Driver/Src/stm32g0xx_hal_rcc_ex.c ****         {
 1008              		.loc 1 601 14 is_stmt 1 view .LVU280
ARM GAS  C:\Users\matil\AppData\Local\Temp\ccFWmvIF.s 			page 35


 601:Drivers/STM32G0xx_HAL_Driver/Src/stm32g0xx_hal_rcc_ex.c ****         {
 1009              		.loc 1 601 19 is_stmt 0 view .LVU281
 1010 017e 594B     		ldr	r3, .L129
 1011 0180 DB6D     		ldr	r3, [r3, #92]
 1012 0182 0222     		movs	r2, #2
 1013 0184 1000     		movs	r0, r2
 1014              	.LVL56:
 601:Drivers/STM32G0xx_HAL_Driver/Src/stm32g0xx_hal_rcc_ex.c ****         {
 1015              		.loc 1 601 19 view .LVU282
 1016 0186 1840     		ands	r0, r3
 601:Drivers/STM32G0xx_HAL_Driver/Src/stm32g0xx_hal_rcc_ex.c ****         {
 1017              		.loc 1 601 17 view .LVU283
 1018 0188 1A42     		tst	r2, r3
 1019 018a ABD0     		beq	.L38
 601:Drivers/STM32G0xx_HAL_Driver/Src/stm32g0xx_hal_rcc_ex.c ****         {
 1020              		.loc 1 601 63 discriminator 1 view .LVU284
 1021 018c 0C29     		cmp	r1, #12
 1022 018e 00D1     		bne	.LCB958
 1023 0190 61E1     		b	.L90	@long jump
 1024              	.LCB958:
 470:Drivers/STM32G0xx_HAL_Driver/Src/stm32g0xx_hal_rcc_ex.c ****   uint32_t srcclk;
 1025              		.loc 1 470 12 view .LVU285
 1026 0192 0020     		movs	r0, #0
 1027 0194 A6E7     		b	.L38
 1028              	.LVL57:
 1029              	.L114:
 528:Drivers/STM32G0xx_HAL_Driver/Src/stm32g0xx_hal_rcc_ex.c ****     {
 1030              		.loc 1 528 5 view .LVU286
 1031 0196 0020     		movs	r0, #0
 1032              	.LVL58:
 528:Drivers/STM32G0xx_HAL_Driver/Src/stm32g0xx_hal_rcc_ex.c ****     {
 1033              		.loc 1 528 5 view .LVU287
 1034 0198 A4E7     		b	.L38
 1035              	.LVL59:
 1036              	.L112:
 528:Drivers/STM32G0xx_HAL_Driver/Src/stm32g0xx_hal_rcc_ex.c ****     {
 1037              		.loc 1 528 5 view .LVU288
 1038 019a 0020     		movs	r0, #0
 1039              	.LVL60:
 528:Drivers/STM32G0xx_HAL_Driver/Src/stm32g0xx_hal_rcc_ex.c ****     {
 1040              		.loc 1 528 5 view .LVU289
 1041 019c A2E7     		b	.L38
 1042              	.LVL61:
 1043              	.L109:
 528:Drivers/STM32G0xx_HAL_Driver/Src/stm32g0xx_hal_rcc_ex.c ****     {
 1044              		.loc 1 528 5 view .LVU290
 1045 019e 8022     		movs	r2, #128
 1046 01a0 1201     		lsls	r2, r2, #4
 1047 01a2 9442     		cmp	r4, r2
 1048 01a4 00D1     		bne	.LCB983
 1049 01a6 C5E0     		b	.L54	@long jump
 1050              	.LCB983:
 1051 01a8 8022     		movs	r2, #128
 1052 01aa D201     		lsls	r2, r2, #7
 1053 01ac 9442     		cmp	r4, r2
 1054 01ae 10D1     		bne	.L117
 664:Drivers/STM32G0xx_HAL_Driver/Src/stm32g0xx_hal_rcc_ex.c **** 
ARM GAS  C:\Users\matil\AppData\Local\Temp\ccFWmvIF.s 			page 36


 1055              		.loc 1 664 9 is_stmt 1 view .LVU291
 664:Drivers/STM32G0xx_HAL_Driver/Src/stm32g0xx_hal_rcc_ex.c **** 
 1056              		.loc 1 664 18 is_stmt 0 view .LVU292
 1057 01b0 4C4A     		ldr	r2, .L129
 1058 01b2 526D     		ldr	r2, [r2, #84]
 664:Drivers/STM32G0xx_HAL_Driver/Src/stm32g0xx_hal_rcc_ex.c **** 
 1059              		.loc 1 664 16 view .LVU293
 1060 01b4 920F     		lsrs	r2, r2, #30
 1061 01b6 9107     		lsls	r1, r2, #30
 1062              	.LVL62:
 666:Drivers/STM32G0xx_HAL_Driver/Src/stm32g0xx_hal_rcc_ex.c ****         {
 1063              		.loc 1 666 9 is_stmt 1 view .LVU294
 666:Drivers/STM32G0xx_HAL_Driver/Src/stm32g0xx_hal_rcc_ex.c ****         {
 1064              		.loc 1 666 12 is_stmt 0 view .LVU295
 1065 01b8 002A     		cmp	r2, #0
 1066 01ba 78D0     		beq	.L118
 670:Drivers/STM32G0xx_HAL_Driver/Src/stm32g0xx_hal_rcc_ex.c ****         {
 1067              		.loc 1 670 14 is_stmt 1 view .LVU296
 670:Drivers/STM32G0xx_HAL_Driver/Src/stm32g0xx_hal_rcc_ex.c ****         {
 1068              		.loc 1 670 17 is_stmt 0 view .LVU297
 1069 01bc 8022     		movs	r2, #128
 1070 01be 1206     		lsls	r2, r2, #24
 1071 01c0 9142     		cmp	r1, r2
 1072 01c2 00D1     		bne	.LCB1001
 1073 01c4 54E1     		b	.L95	@long jump
 1074              	.LCB1001:
 674:Drivers/STM32G0xx_HAL_Driver/Src/stm32g0xx_hal_rcc_ex.c ****         {
 1075              		.loc 1 674 14 is_stmt 1 view .LVU298
 674:Drivers/STM32G0xx_HAL_Driver/Src/stm32g0xx_hal_rcc_ex.c ****         {
 1076              		.loc 1 674 17 is_stmt 0 view .LVU299
 1077 01c6 8022     		movs	r2, #128
 1078 01c8 D205     		lsls	r2, r2, #23
 1079 01ca 9142     		cmp	r1, r2
 1080 01cc 72D0     		beq	.L119
 470:Drivers/STM32G0xx_HAL_Driver/Src/stm32g0xx_hal_rcc_ex.c ****   uint32_t srcclk;
 1081              		.loc 1 470 12 view .LVU300
 1082 01ce 0020     		movs	r0, #0
 1083              	.LVL63:
 470:Drivers/STM32G0xx_HAL_Driver/Src/stm32g0xx_hal_rcc_ex.c ****   uint32_t srcclk;
 1084              		.loc 1 470 12 view .LVU301
 1085 01d0 88E7     		b	.L38
 1086              	.LVL64:
 1087              	.L117:
 528:Drivers/STM32G0xx_HAL_Driver/Src/stm32g0xx_hal_rcc_ex.c ****     {
 1088              		.loc 1 528 5 view .LVU302
 1089 01d2 0020     		movs	r0, #0
 1090              	.LVL65:
 528:Drivers/STM32G0xx_HAL_Driver/Src/stm32g0xx_hal_rcc_ex.c ****     {
 1091              		.loc 1 528 5 view .LVU303
 1092 01d4 86E7     		b	.L38
 1093              	.LVL66:
 1094              	.L110:
 528:Drivers/STM32G0xx_HAL_Driver/Src/stm32g0xx_hal_rcc_ex.c ****     {
 1095              		.loc 1 528 5 view .LVU304
 1096 01d6 0020     		movs	r0, #0
 1097              	.LVL67:
 528:Drivers/STM32G0xx_HAL_Driver/Src/stm32g0xx_hal_rcc_ex.c ****     {
ARM GAS  C:\Users\matil\AppData\Local\Temp\ccFWmvIF.s 			page 37


 1098              		.loc 1 528 5 view .LVU305
 1099 01d8 84E7     		b	.L38
 1100              	.LVL68:
 1101              	.L48:
 560:Drivers/STM32G0xx_HAL_Driver/Src/stm32g0xx_hal_rcc_ex.c **** 
 1102              		.loc 1 560 9 is_stmt 1 view .LVU306
 560:Drivers/STM32G0xx_HAL_Driver/Src/stm32g0xx_hal_rcc_ex.c **** 
 1103              		.loc 1 560 18 is_stmt 0 view .LVU307
 1104 01da 424B     		ldr	r3, .L129
 1105 01dc 5B6D     		ldr	r3, [r3, #84]
 560:Drivers/STM32G0xx_HAL_Driver/Src/stm32g0xx_hal_rcc_ex.c **** 
 1106              		.loc 1 560 16 view .LVU308
 1107 01de 0322     		movs	r2, #3
 1108 01e0 1100     		movs	r1, r2
 1109 01e2 1940     		ands	r1, r3
 1110              	.LVL69:
 562:Drivers/STM32G0xx_HAL_Driver/Src/stm32g0xx_hal_rcc_ex.c ****         {
 1111              		.loc 1 562 9 is_stmt 1 view .LVU309
 562:Drivers/STM32G0xx_HAL_Driver/Src/stm32g0xx_hal_rcc_ex.c ****         {
 1112              		.loc 1 562 12 is_stmt 0 view .LVU310
 1113 01e4 1A42     		tst	r2, r3
 1114 01e6 15D0     		beq	.L120
 566:Drivers/STM32G0xx_HAL_Driver/Src/stm32g0xx_hal_rcc_ex.c ****         {
 1115              		.loc 1 566 14 is_stmt 1 view .LVU311
 566:Drivers/STM32G0xx_HAL_Driver/Src/stm32g0xx_hal_rcc_ex.c ****         {
 1116              		.loc 1 566 17 is_stmt 0 view .LVU312
 1117 01e8 0129     		cmp	r1, #1
 1118 01ea 16D0     		beq	.L121
 570:Drivers/STM32G0xx_HAL_Driver/Src/stm32g0xx_hal_rcc_ex.c ****         {
 1119              		.loc 1 570 14 is_stmt 1 view .LVU313
 570:Drivers/STM32G0xx_HAL_Driver/Src/stm32g0xx_hal_rcc_ex.c ****         {
 1120              		.loc 1 570 19 is_stmt 0 view .LVU314
 1121 01ec 3D4B     		ldr	r3, .L129
 1122 01ee 1B68     		ldr	r3, [r3]
 570:Drivers/STM32G0xx_HAL_Driver/Src/stm32g0xx_hal_rcc_ex.c ****         {
 1123              		.loc 1 570 17 view .LVU315
 1124 01f0 5B05     		lsls	r3, r3, #21
 1125 01f2 02D5     		bpl	.L60
 570:Drivers/STM32G0xx_HAL_Driver/Src/stm32g0xx_hal_rcc_ex.c ****         {
 1126              		.loc 1 570 59 discriminator 1 view .LVU316
 1127 01f4 0229     		cmp	r1, #2
 1128 01f6 00D1     		bne	.LCB1050
 1129 01f8 26E1     		b	.L87	@long jump
 1130              	.LCB1050:
 1131              	.L60:
 574:Drivers/STM32G0xx_HAL_Driver/Src/stm32g0xx_hal_rcc_ex.c ****         {
 1132              		.loc 1 574 14 is_stmt 1 view .LVU317
 574:Drivers/STM32G0xx_HAL_Driver/Src/stm32g0xx_hal_rcc_ex.c ****         {
 1133              		.loc 1 574 19 is_stmt 0 view .LVU318
 1134 01fa 3A4B     		ldr	r3, .L129
 1135 01fc DB6D     		ldr	r3, [r3, #92]
 1136 01fe 0222     		movs	r2, #2
 1137 0200 1000     		movs	r0, r2
 1138              	.LVL70:
 574:Drivers/STM32G0xx_HAL_Driver/Src/stm32g0xx_hal_rcc_ex.c ****         {
 1139              		.loc 1 574 19 view .LVU319
 1140 0202 1840     		ands	r0, r3
ARM GAS  C:\Users\matil\AppData\Local\Temp\ccFWmvIF.s 			page 38


 574:Drivers/STM32G0xx_HAL_Driver/Src/stm32g0xx_hal_rcc_ex.c ****         {
 1141              		.loc 1 574 17 view .LVU320
 1142 0204 1A42     		tst	r2, r3
 1143 0206 00D1     		bne	.LCB1060
 1144 0208 6CE7     		b	.L38	@long jump
 1145              	.LCB1060:
 574:Drivers/STM32G0xx_HAL_Driver/Src/stm32g0xx_hal_rcc_ex.c ****         {
 1146              		.loc 1 574 63 discriminator 1 view .LVU321
 1147 020a 0329     		cmp	r1, #3
 1148 020c 00D1     		bne	.LCB1062
 1149 020e 1DE1     		b	.L88	@long jump
 1150              	.LCB1062:
 470:Drivers/STM32G0xx_HAL_Driver/Src/stm32g0xx_hal_rcc_ex.c ****   uint32_t srcclk;
 1151              		.loc 1 470 12 view .LVU322
 1152 0210 0020     		movs	r0, #0
 1153 0212 67E7     		b	.L38
 1154              	.LVL71:
 1155              	.L120:
 564:Drivers/STM32G0xx_HAL_Driver/Src/stm32g0xx_hal_rcc_ex.c ****         }
 1156              		.loc 1 564 11 is_stmt 1 view .LVU323
 564:Drivers/STM32G0xx_HAL_Driver/Src/stm32g0xx_hal_rcc_ex.c ****         }
 1157              		.loc 1 564 23 is_stmt 0 view .LVU324
 1158 0214 FFF7FEFF 		bl	HAL_RCC_GetPCLK1Freq
 1159              	.LVL72:
 564:Drivers/STM32G0xx_HAL_Driver/Src/stm32g0xx_hal_rcc_ex.c ****         }
 1160              		.loc 1 564 23 view .LVU325
 1161 0218 64E7     		b	.L38
 1162              	.LVL73:
 1163              	.L121:
 568:Drivers/STM32G0xx_HAL_Driver/Src/stm32g0xx_hal_rcc_ex.c ****         }
 1164              		.loc 1 568 11 is_stmt 1 view .LVU326
 568:Drivers/STM32G0xx_HAL_Driver/Src/stm32g0xx_hal_rcc_ex.c ****         }
 1165              		.loc 1 568 23 is_stmt 0 view .LVU327
 1166 021a FFF7FEFF 		bl	HAL_RCC_GetSysClockFreq
 1167              	.LVL74:
 568:Drivers/STM32G0xx_HAL_Driver/Src/stm32g0xx_hal_rcc_ex.c ****         }
 1168              		.loc 1 568 23 view .LVU328
 1169 021e 61E7     		b	.L38
 1170              	.LVL75:
 1171              	.L115:
 591:Drivers/STM32G0xx_HAL_Driver/Src/stm32g0xx_hal_rcc_ex.c ****         }
 1172              		.loc 1 591 11 is_stmt 1 view .LVU329
 591:Drivers/STM32G0xx_HAL_Driver/Src/stm32g0xx_hal_rcc_ex.c ****         }
 1173              		.loc 1 591 23 is_stmt 0 view .LVU330
 1174 0220 FFF7FEFF 		bl	HAL_RCC_GetPCLK1Freq
 1175              	.LVL76:
 591:Drivers/STM32G0xx_HAL_Driver/Src/stm32g0xx_hal_rcc_ex.c ****         }
 1176              		.loc 1 591 23 view .LVU331
 1177 0224 5EE7     		b	.L38
 1178              	.LVL77:
 1179              	.L116:
 595:Drivers/STM32G0xx_HAL_Driver/Src/stm32g0xx_hal_rcc_ex.c ****         }
 1180              		.loc 1 595 11 is_stmt 1 view .LVU332
 595:Drivers/STM32G0xx_HAL_Driver/Src/stm32g0xx_hal_rcc_ex.c ****         }
 1181              		.loc 1 595 23 is_stmt 0 view .LVU333
 1182 0226 FFF7FEFF 		bl	HAL_RCC_GetSysClockFreq
 1183              	.LVL78:
ARM GAS  C:\Users\matil\AppData\Local\Temp\ccFWmvIF.s 			page 39


 595:Drivers/STM32G0xx_HAL_Driver/Src/stm32g0xx_hal_rcc_ex.c ****         }
 1184              		.loc 1 595 23 view .LVU334
 1185 022a 5BE7     		b	.L38
 1186              	.LVL79:
 1187              	.L52:
 615:Drivers/STM32G0xx_HAL_Driver/Src/stm32g0xx_hal_rcc_ex.c **** 
 1188              		.loc 1 615 9 is_stmt 1 view .LVU335
 615:Drivers/STM32G0xx_HAL_Driver/Src/stm32g0xx_hal_rcc_ex.c **** 
 1189              		.loc 1 615 18 is_stmt 0 view .LVU336
 1190 022c 2D4A     		ldr	r2, .L129
 1191 022e 516D     		ldr	r1, [r2, #84]
 615:Drivers/STM32G0xx_HAL_Driver/Src/stm32g0xx_hal_rcc_ex.c **** 
 1192              		.loc 1 615 16 view .LVU337
 1193 0230 4023     		movs	r3, #64
 1194 0232 0B40     		ands	r3, r1
 1195              	.LVL80:
 617:Drivers/STM32G0xx_HAL_Driver/Src/stm32g0xx_hal_rcc_ex.c ****         {
 1196              		.loc 1 617 9 is_stmt 1 view .LVU338
 617:Drivers/STM32G0xx_HAL_Driver/Src/stm32g0xx_hal_rcc_ex.c ****         {
 1197              		.loc 1 617 14 is_stmt 0 view .LVU339
 1198 0234 1268     		ldr	r2, [r2]
 617:Drivers/STM32G0xx_HAL_Driver/Src/stm32g0xx_hal_rcc_ex.c ****         {
 1199              		.loc 1 617 12 view .LVU340
 1200 0236 5205     		lsls	r2, r2, #21
 1201 0238 02D5     		bpl	.L64
 617:Drivers/STM32G0xx_HAL_Driver/Src/stm32g0xx_hal_rcc_ex.c ****         {
 1202              		.loc 1 617 54 discriminator 1 view .LVU341
 1203 023a 002B     		cmp	r3, #0
 1204 023c 00D1     		bne	.LCB1130
 1205 023e 0DE1     		b	.L91	@long jump
 1206              	.LCB1130:
 1207              	.L64:
 621:Drivers/STM32G0xx_HAL_Driver/Src/stm32g0xx_hal_rcc_ex.c ****         {
 1208              		.loc 1 621 14 is_stmt 1 view .LVU342
 621:Drivers/STM32G0xx_HAL_Driver/Src/stm32g0xx_hal_rcc_ex.c ****         {
 1209              		.loc 1 621 19 is_stmt 0 view .LVU343
 1210 0240 284A     		ldr	r2, .L129
 1211 0242 D26D     		ldr	r2, [r2, #92]
 1212 0244 0221     		movs	r1, #2
 1213 0246 0800     		movs	r0, r1
 1214              	.LVL81:
 621:Drivers/STM32G0xx_HAL_Driver/Src/stm32g0xx_hal_rcc_ex.c ****         {
 1215              		.loc 1 621 19 view .LVU344
 1216 0248 1040     		ands	r0, r2
 621:Drivers/STM32G0xx_HAL_Driver/Src/stm32g0xx_hal_rcc_ex.c ****         {
 1217              		.loc 1 621 17 view .LVU345
 1218 024a 1142     		tst	r1, r2
 1219 024c 00D1     		bne	.LCB1140
 1220 024e 49E7     		b	.L38	@long jump
 1221              	.LCB1140:
 621:Drivers/STM32G0xx_HAL_Driver/Src/stm32g0xx_hal_rcc_ex.c ****         {
 1222              		.loc 1 621 63 discriminator 1 view .LVU346
 1223 0250 002B     		cmp	r3, #0
 1224 0252 00D0     		beq	.LCB1142
 1225 0254 04E1     		b	.L92	@long jump
 1226              	.LCB1142:
 470:Drivers/STM32G0xx_HAL_Driver/Src/stm32g0xx_hal_rcc_ex.c ****   uint32_t srcclk;
ARM GAS  C:\Users\matil\AppData\Local\Temp\ccFWmvIF.s 			page 40


 1227              		.loc 1 470 12 view .LVU347
 1228 0256 1800     		movs	r0, r3
 1229 0258 44E7     		b	.L38
 1230              	.LVL82:
 1231              	.L46:
 636:Drivers/STM32G0xx_HAL_Driver/Src/stm32g0xx_hal_rcc_ex.c **** 
 1232              		.loc 1 636 9 is_stmt 1 view .LVU348
 636:Drivers/STM32G0xx_HAL_Driver/Src/stm32g0xx_hal_rcc_ex.c **** 
 1233              		.loc 1 636 18 is_stmt 0 view .LVU349
 1234 025a 224B     		ldr	r3, .L129
 1235 025c 5A6D     		ldr	r2, [r3, #84]
 636:Drivers/STM32G0xx_HAL_Driver/Src/stm32g0xx_hal_rcc_ex.c **** 
 1236              		.loc 1 636 16 view .LVU350
 1237 025e C023     		movs	r3, #192
 1238 0260 1B01     		lsls	r3, r3, #4
 1239 0262 1100     		movs	r1, r2
 1240 0264 1940     		ands	r1, r3
 1241              	.LVL83:
 638:Drivers/STM32G0xx_HAL_Driver/Src/stm32g0xx_hal_rcc_ex.c ****         {
 1242              		.loc 1 638 9 is_stmt 1 view .LVU351
 638:Drivers/STM32G0xx_HAL_Driver/Src/stm32g0xx_hal_rcc_ex.c ****         {
 1243              		.loc 1 638 12 is_stmt 0 view .LVU352
 1244 0266 1A42     		tst	r2, r3
 1245 0268 1BD0     		beq	.L122
 642:Drivers/STM32G0xx_HAL_Driver/Src/stm32g0xx_hal_rcc_ex.c ****         {
 1246              		.loc 1 642 14 is_stmt 1 view .LVU353
 642:Drivers/STM32G0xx_HAL_Driver/Src/stm32g0xx_hal_rcc_ex.c ****         {
 1247              		.loc 1 642 17 is_stmt 0 view .LVU354
 1248 026a 8023     		movs	r3, #128
 1249 026c DB00     		lsls	r3, r3, #3
 1250 026e 9942     		cmp	r1, r3
 1251 0270 1AD0     		beq	.L123
 646:Drivers/STM32G0xx_HAL_Driver/Src/stm32g0xx_hal_rcc_ex.c ****         {
 1252              		.loc 1 646 14 is_stmt 1 view .LVU355
 646:Drivers/STM32G0xx_HAL_Driver/Src/stm32g0xx_hal_rcc_ex.c ****         {
 1253              		.loc 1 646 19 is_stmt 0 view .LVU356
 1254 0272 1C4B     		ldr	r3, .L129
 1255 0274 1B68     		ldr	r3, [r3]
 646:Drivers/STM32G0xx_HAL_Driver/Src/stm32g0xx_hal_rcc_ex.c ****         {
 1256              		.loc 1 646 17 view .LVU357
 1257 0276 5B05     		lsls	r3, r3, #21
 1258 0278 04D5     		bpl	.L67
 646:Drivers/STM32G0xx_HAL_Driver/Src/stm32g0xx_hal_rcc_ex.c ****         {
 1259              		.loc 1 646 59 discriminator 1 view .LVU358
 1260 027a 8023     		movs	r3, #128
 1261 027c 1B01     		lsls	r3, r3, #4
 1262 027e 9942     		cmp	r1, r3
 1263 0280 00D1     		bne	.LCB1176
 1264 0282 F0E0     		b	.L93	@long jump
 1265              	.LCB1176:
 1266              	.L67:
 650:Drivers/STM32G0xx_HAL_Driver/Src/stm32g0xx_hal_rcc_ex.c ****         {
 1267              		.loc 1 650 14 is_stmt 1 view .LVU359
 650:Drivers/STM32G0xx_HAL_Driver/Src/stm32g0xx_hal_rcc_ex.c ****         {
 1268              		.loc 1 650 19 is_stmt 0 view .LVU360
 1269 0284 174B     		ldr	r3, .L129
 1270 0286 DB6D     		ldr	r3, [r3, #92]
ARM GAS  C:\Users\matil\AppData\Local\Temp\ccFWmvIF.s 			page 41


 1271 0288 0222     		movs	r2, #2
 1272 028a 1000     		movs	r0, r2
 1273              	.LVL84:
 650:Drivers/STM32G0xx_HAL_Driver/Src/stm32g0xx_hal_rcc_ex.c ****         {
 1274              		.loc 1 650 19 view .LVU361
 1275 028c 1840     		ands	r0, r3
 650:Drivers/STM32G0xx_HAL_Driver/Src/stm32g0xx_hal_rcc_ex.c ****         {
 1276              		.loc 1 650 17 view .LVU362
 1277 028e 1A42     		tst	r2, r3
 1278 0290 00D1     		bne	.LCB1186
 1279 0292 27E7     		b	.L38	@long jump
 1280              	.LCB1186:
 650:Drivers/STM32G0xx_HAL_Driver/Src/stm32g0xx_hal_rcc_ex.c ****         {
 1281              		.loc 1 650 63 discriminator 1 view .LVU363
 1282 0294 C023     		movs	r3, #192
 1283 0296 1B01     		lsls	r3, r3, #4
 1284 0298 9942     		cmp	r1, r3
 1285 029a 00D1     		bne	.LCB1190
 1286 029c E5E0     		b	.L94	@long jump
 1287              	.LCB1190:
 470:Drivers/STM32G0xx_HAL_Driver/Src/stm32g0xx_hal_rcc_ex.c ****   uint32_t srcclk;
 1288              		.loc 1 470 12 view .LVU364
 1289 029e 0020     		movs	r0, #0
 1290 02a0 20E7     		b	.L38
 1291              	.LVL85:
 1292              	.L122:
 640:Drivers/STM32G0xx_HAL_Driver/Src/stm32g0xx_hal_rcc_ex.c ****         }
 1293              		.loc 1 640 11 is_stmt 1 view .LVU365
 640:Drivers/STM32G0xx_HAL_Driver/Src/stm32g0xx_hal_rcc_ex.c ****         }
 1294              		.loc 1 640 23 is_stmt 0 view .LVU366
 1295 02a2 FFF7FEFF 		bl	HAL_RCC_GetPCLK1Freq
 1296              	.LVL86:
 640:Drivers/STM32G0xx_HAL_Driver/Src/stm32g0xx_hal_rcc_ex.c ****         }
 1297              		.loc 1 640 23 view .LVU367
 1298 02a6 1DE7     		b	.L38
 1299              	.LVL87:
 1300              	.L123:
 644:Drivers/STM32G0xx_HAL_Driver/Src/stm32g0xx_hal_rcc_ex.c ****         }
 1301              		.loc 1 644 11 is_stmt 1 view .LVU368
 644:Drivers/STM32G0xx_HAL_Driver/Src/stm32g0xx_hal_rcc_ex.c ****         }
 1302              		.loc 1 644 23 is_stmt 0 view .LVU369
 1303 02a8 FFF7FEFF 		bl	HAL_RCC_GetSysClockFreq
 1304              	.LVL88:
 644:Drivers/STM32G0xx_HAL_Driver/Src/stm32g0xx_hal_rcc_ex.c ****         }
 1305              		.loc 1 644 23 view .LVU370
 1306 02ac 1AE7     		b	.L38
 1307              	.LVL89:
 1308              	.L118:
 668:Drivers/STM32G0xx_HAL_Driver/Src/stm32g0xx_hal_rcc_ex.c ****         }
 1309              		.loc 1 668 11 is_stmt 1 view .LVU371
 668:Drivers/STM32G0xx_HAL_Driver/Src/stm32g0xx_hal_rcc_ex.c ****         }
 1310              		.loc 1 668 23 is_stmt 0 view .LVU372
 1311 02ae FFF7FEFF 		bl	HAL_RCC_GetSysClockFreq
 1312              	.LVL90:
 668:Drivers/STM32G0xx_HAL_Driver/Src/stm32g0xx_hal_rcc_ex.c ****         }
 1313              		.loc 1 668 23 view .LVU373
 1314 02b2 17E7     		b	.L38
ARM GAS  C:\Users\matil\AppData\Local\Temp\ccFWmvIF.s 			page 42


 1315              	.LVL91:
 1316              	.L119:
 676:Drivers/STM32G0xx_HAL_Driver/Src/stm32g0xx_hal_rcc_ex.c ****           {
 1317              		.loc 1 676 11 is_stmt 1 view .LVU374
 676:Drivers/STM32G0xx_HAL_Driver/Src/stm32g0xx_hal_rcc_ex.c ****           {
 1318              		.loc 1 676 15 is_stmt 0 view .LVU375
 1319 02b4 0B4A     		ldr	r2, .L129
 1320 02b6 D168     		ldr	r1, [r2, #12]
 1321              	.LVL92:
 676:Drivers/STM32G0xx_HAL_Driver/Src/stm32g0xx_hal_rcc_ex.c ****           {
 1322              		.loc 1 676 15 view .LVU376
 1323 02b8 8022     		movs	r2, #128
 1324 02ba 5202     		lsls	r2, r2, #9
 1325 02bc 0800     		movs	r0, r1
 1326              	.LVL93:
 676:Drivers/STM32G0xx_HAL_Driver/Src/stm32g0xx_hal_rcc_ex.c ****           {
 1327              		.loc 1 676 15 view .LVU377
 1328 02be 1040     		ands	r0, r2
 676:Drivers/STM32G0xx_HAL_Driver/Src/stm32g0xx_hal_rcc_ex.c ****           {
 1329              		.loc 1 676 14 view .LVU378
 1330 02c0 1142     		tst	r1, r2
 1331 02c2 00D1     		bne	.LCB1243
 1332 02c4 0EE7     		b	.L38	@long jump
 1333              	.LCB1243:
 679:Drivers/STM32G0xx_HAL_Driver/Src/stm32g0xx_hal_rcc_ex.c ****             frequency = (pllvco * plln) / ((READ_BIT(RCC->PLLCFGR, RCC_PLLCFGR_PLLP) >> RCC_PLLCFGR
 1334              		.loc 1 679 13 is_stmt 1 view .LVU379
 679:Drivers/STM32G0xx_HAL_Driver/Src/stm32g0xx_hal_rcc_ex.c ****             frequency = (pllvco * plln) / ((READ_BIT(RCC->PLLCFGR, RCC_PLLCFGR_PLLP) >> RCC_PLLCFGR
 1335              		.loc 1 679 20 is_stmt 0 view .LVU380
 1336 02c6 0749     		ldr	r1, .L129
 1337 02c8 CA68     		ldr	r2, [r1, #12]
 679:Drivers/STM32G0xx_HAL_Driver/Src/stm32g0xx_hal_rcc_ex.c ****             frequency = (pllvco * plln) / ((READ_BIT(RCC->PLLCFGR, RCC_PLLCFGR_PLLP) >> RCC_PLLCFGR
 1338              		.loc 1 679 61 view .LVU381
 1339 02ca 120A     		lsrs	r2, r2, #8
 679:Drivers/STM32G0xx_HAL_Driver/Src/stm32g0xx_hal_rcc_ex.c ****             frequency = (pllvco * plln) / ((READ_BIT(RCC->PLLCFGR, RCC_PLLCFGR_PLLP) >> RCC_PLLCFGR
 1340              		.loc 1 679 18 view .LVU382
 1341 02cc 7F20     		movs	r0, #127
 1342 02ce 1040     		ands	r0, r2
 1343              	.LVL94:
 680:Drivers/STM32G0xx_HAL_Driver/Src/stm32g0xx_hal_rcc_ex.c ****           }
 1344              		.loc 1 680 13 is_stmt 1 view .LVU383
 680:Drivers/STM32G0xx_HAL_Driver/Src/stm32g0xx_hal_rcc_ex.c ****           }
 1345              		.loc 1 680 33 is_stmt 0 view .LVU384
 1346 02d0 5843     		muls	r0, r3
 1347              	.LVL95:
 680:Drivers/STM32G0xx_HAL_Driver/Src/stm32g0xx_hal_rcc_ex.c ****           }
 1348              		.loc 1 680 45 view .LVU385
 1349 02d2 CB68     		ldr	r3, [r1, #12]
 1350              	.LVL96:
 680:Drivers/STM32G0xx_HAL_Driver/Src/stm32g0xx_hal_rcc_ex.c ****           }
 1351              		.loc 1 680 86 view .LVU386
 1352 02d4 5B0C     		lsrs	r3, r3, #17
 1353 02d6 1F21     		movs	r1, #31
 1354 02d8 1940     		ands	r1, r3
 680:Drivers/STM32G0xx_HAL_Driver/Src/stm32g0xx_hal_rcc_ex.c ****           }
 1355              		.loc 1 680 111 view .LVU387
 1356 02da 0131     		adds	r1, r1, #1
 680:Drivers/STM32G0xx_HAL_Driver/Src/stm32g0xx_hal_rcc_ex.c ****           }
ARM GAS  C:\Users\matil\AppData\Local\Temp\ccFWmvIF.s 			page 43


 1357              		.loc 1 680 23 view .LVU388
 1358 02dc FFF7FEFF 		bl	__aeabi_uidiv
 1359              	.LVL97:
 680:Drivers/STM32G0xx_HAL_Driver/Src/stm32g0xx_hal_rcc_ex.c ****           }
 1360              		.loc 1 680 23 view .LVU389
 1361 02e0 00E7     		b	.L38
 1362              	.L130:
 1363 02e2 C046     		.align	2
 1364              	.L129:
 1365 02e4 00100240 		.word	1073876992
 1366 02e8 00127A00 		.word	8000000
 1367 02ec 0024F400 		.word	16000000
 1368              	.LVL98:
 1369              	.L50:
 692:Drivers/STM32G0xx_HAL_Driver/Src/stm32g0xx_hal_rcc_ex.c **** 
 1370              		.loc 1 692 9 is_stmt 1 view .LVU390
 692:Drivers/STM32G0xx_HAL_Driver/Src/stm32g0xx_hal_rcc_ex.c **** 
 1371              		.loc 1 692 18 is_stmt 0 view .LVU391
 1372 02f0 6B4B     		ldr	r3, .L131
 1373 02f2 5A6D     		ldr	r2, [r3, #84]
 692:Drivers/STM32G0xx_HAL_Driver/Src/stm32g0xx_hal_rcc_ex.c **** 
 1374              		.loc 1 692 16 view .LVU392
 1375 02f4 C023     		movs	r3, #192
 1376 02f6 9B01     		lsls	r3, r3, #6
 1377 02f8 1100     		movs	r1, r2
 1378 02fa 1940     		ands	r1, r3
 1379              	.LVL99:
 694:Drivers/STM32G0xx_HAL_Driver/Src/stm32g0xx_hal_rcc_ex.c ****         {
 1380              		.loc 1 694 9 is_stmt 1 view .LVU393
 694:Drivers/STM32G0xx_HAL_Driver/Src/stm32g0xx_hal_rcc_ex.c ****         {
 1381              		.loc 1 694 12 is_stmt 0 view .LVU394
 1382 02fc 1A42     		tst	r2, r3
 1383 02fe 13D0     		beq	.L124
 698:Drivers/STM32G0xx_HAL_Driver/Src/stm32g0xx_hal_rcc_ex.c ****         {
 1384              		.loc 1 698 14 is_stmt 1 view .LVU395
 698:Drivers/STM32G0xx_HAL_Driver/Src/stm32g0xx_hal_rcc_ex.c ****         {
 1385              		.loc 1 698 17 is_stmt 0 view .LVU396
 1386 0300 8023     		movs	r3, #128
 1387 0302 5B01     		lsls	r3, r3, #5
 1388 0304 9942     		cmp	r1, r3
 1389 0306 12D0     		beq	.L125
 702:Drivers/STM32G0xx_HAL_Driver/Src/stm32g0xx_hal_rcc_ex.c ****         {
 1390              		.loc 1 702 14 is_stmt 1 view .LVU397
 702:Drivers/STM32G0xx_HAL_Driver/Src/stm32g0xx_hal_rcc_ex.c ****         {
 1391              		.loc 1 702 19 is_stmt 0 view .LVU398
 1392 0308 654B     		ldr	r3, .L131
 1393 030a 1A68     		ldr	r2, [r3]
 1394 030c 8023     		movs	r3, #128
 1395 030e DB00     		lsls	r3, r3, #3
 1396 0310 1000     		movs	r0, r2
 1397              	.LVL100:
 702:Drivers/STM32G0xx_HAL_Driver/Src/stm32g0xx_hal_rcc_ex.c ****         {
 1398              		.loc 1 702 19 view .LVU399
 1399 0312 1840     		ands	r0, r3
 702:Drivers/STM32G0xx_HAL_Driver/Src/stm32g0xx_hal_rcc_ex.c ****         {
 1400              		.loc 1 702 17 view .LVU400
 1401 0314 1A42     		tst	r2, r3
ARM GAS  C:\Users\matil\AppData\Local\Temp\ccFWmvIF.s 			page 44


 1402 0316 00D1     		bne	.LCB1304
 1403 0318 E4E6     		b	.L38	@long jump
 1404              	.LCB1304:
 702:Drivers/STM32G0xx_HAL_Driver/Src/stm32g0xx_hal_rcc_ex.c ****         {
 1405              		.loc 1 702 59 discriminator 1 view .LVU401
 1406 031a 8023     		movs	r3, #128
 1407 031c 9B01     		lsls	r3, r3, #6
 1408 031e 9942     		cmp	r1, r3
 1409 0320 00D1     		bne	.LCB1308
 1410 0322 A7E0     		b	.L97	@long jump
 1411              	.LCB1308:
 470:Drivers/STM32G0xx_HAL_Driver/Src/stm32g0xx_hal_rcc_ex.c ****   uint32_t srcclk;
 1412              		.loc 1 470 12 view .LVU402
 1413 0324 0020     		movs	r0, #0
 1414 0326 DDE6     		b	.L38
 1415              	.LVL101:
 1416              	.L124:
 696:Drivers/STM32G0xx_HAL_Driver/Src/stm32g0xx_hal_rcc_ex.c ****         }
 1417              		.loc 1 696 11 is_stmt 1 view .LVU403
 696:Drivers/STM32G0xx_HAL_Driver/Src/stm32g0xx_hal_rcc_ex.c ****         }
 1418              		.loc 1 696 23 is_stmt 0 view .LVU404
 1419 0328 FFF7FEFF 		bl	HAL_RCC_GetPCLK1Freq
 1420              	.LVL102:
 696:Drivers/STM32G0xx_HAL_Driver/Src/stm32g0xx_hal_rcc_ex.c ****         }
 1421              		.loc 1 696 23 view .LVU405
 1422 032c DAE6     		b	.L38
 1423              	.LVL103:
 1424              	.L125:
 700:Drivers/STM32G0xx_HAL_Driver/Src/stm32g0xx_hal_rcc_ex.c ****         }
 1425              		.loc 1 700 11 is_stmt 1 view .LVU406
 700:Drivers/STM32G0xx_HAL_Driver/Src/stm32g0xx_hal_rcc_ex.c ****         }
 1426              		.loc 1 700 23 is_stmt 0 view .LVU407
 1427 032e FFF7FEFF 		bl	HAL_RCC_GetSysClockFreq
 1428              	.LVL104:
 700:Drivers/STM32G0xx_HAL_Driver/Src/stm32g0xx_hal_rcc_ex.c ****         }
 1429              		.loc 1 700 23 view .LVU408
 1430 0332 D7E6     		b	.L38
 1431              	.LVL105:
 1432              	.L54:
 715:Drivers/STM32G0xx_HAL_Driver/Src/stm32g0xx_hal_rcc_ex.c **** 
 1433              		.loc 1 715 9 is_stmt 1 view .LVU409
 715:Drivers/STM32G0xx_HAL_Driver/Src/stm32g0xx_hal_rcc_ex.c **** 
 1434              		.loc 1 715 18 is_stmt 0 view .LVU410
 1435 0334 5A4A     		ldr	r2, .L131
 1436 0336 526D     		ldr	r2, [r2, #84]
 715:Drivers/STM32G0xx_HAL_Driver/Src/stm32g0xx_hal_rcc_ex.c **** 
 1437              		.loc 1 715 16 view .LVU411
 1438 0338 C021     		movs	r1, #192
 1439 033a 0902     		lsls	r1, r1, #8
 1440 033c 0A40     		ands	r2, r1
 1441              	.LVL106:
 717:Drivers/STM32G0xx_HAL_Driver/Src/stm32g0xx_hal_rcc_ex.c ****         {
 1442              		.loc 1 717 9 is_stmt 1 view .LVU412
 717:Drivers/STM32G0xx_HAL_Driver/Src/stm32g0xx_hal_rcc_ex.c ****         {
 1443              		.loc 1 717 12 is_stmt 0 view .LVU413
 1444 033e 8021     		movs	r1, #128
 1445 0340 C901     		lsls	r1, r1, #7
ARM GAS  C:\Users\matil\AppData\Local\Temp\ccFWmvIF.s 			page 45


 1446 0342 8A42     		cmp	r2, r1
 1447 0344 11D0     		beq	.L126
 726:Drivers/STM32G0xx_HAL_Driver/Src/stm32g0xx_hal_rcc_ex.c ****         {
 1448              		.loc 1 726 14 is_stmt 1 view .LVU414
 726:Drivers/STM32G0xx_HAL_Driver/Src/stm32g0xx_hal_rcc_ex.c ****         {
 1449              		.loc 1 726 17 is_stmt 0 view .LVU415
 1450 0346 002A     		cmp	r2, #0
 1451 0348 26D0     		beq	.L127
 730:Drivers/STM32G0xx_HAL_Driver/Src/stm32g0xx_hal_rcc_ex.c ****         {
 1452              		.loc 1 730 14 is_stmt 1 view .LVU416
 730:Drivers/STM32G0xx_HAL_Driver/Src/stm32g0xx_hal_rcc_ex.c ****         {
 1453              		.loc 1 730 19 is_stmt 0 view .LVU417
 1454 034a 554B     		ldr	r3, .L131
 1455 034c 1B68     		ldr	r3, [r3]
 730:Drivers/STM32G0xx_HAL_Driver/Src/stm32g0xx_hal_rcc_ex.c ****         {
 1456              		.loc 1 730 17 view .LVU418
 1457 034e 5B05     		lsls	r3, r3, #21
 1458 0350 04D5     		bpl	.L73
 730:Drivers/STM32G0xx_HAL_Driver/Src/stm32g0xx_hal_rcc_ex.c ****         {
 1459              		.loc 1 730 59 discriminator 1 view .LVU419
 1460 0352 8023     		movs	r3, #128
 1461 0354 1B02     		lsls	r3, r3, #8
 1462 0356 9A42     		cmp	r2, r3
 1463 0358 00D1     		bne	.LCB1364
 1464 035a 8DE0     		b	.L98	@long jump
 1465              	.LCB1364:
 1466              	.L73:
 734:Drivers/STM32G0xx_HAL_Driver/Src/stm32g0xx_hal_rcc_ex.c ****         {
 1467              		.loc 1 734 14 is_stmt 1 view .LVU420
 734:Drivers/STM32G0xx_HAL_Driver/Src/stm32g0xx_hal_rcc_ex.c ****         {
 1468              		.loc 1 734 17 is_stmt 0 view .LVU421
 1469 035c C023     		movs	r3, #192
 1470 035e 1B02     		lsls	r3, r3, #8
 1471 0360 9A42     		cmp	r2, r3
 1472 0362 00D1     		bne	.LCB1370
 1473 0364 8AE0     		b	.L99	@long jump
 1474              	.LCB1370:
 470:Drivers/STM32G0xx_HAL_Driver/Src/stm32g0xx_hal_rcc_ex.c ****   uint32_t srcclk;
 1475              		.loc 1 470 12 view .LVU422
 1476 0366 0020     		movs	r0, #0
 1477              	.LVL107:
 470:Drivers/STM32G0xx_HAL_Driver/Src/stm32g0xx_hal_rcc_ex.c ****   uint32_t srcclk;
 1478              		.loc 1 470 12 view .LVU423
 1479 0368 BCE6     		b	.L38
 1480              	.LVL108:
 1481              	.L126:
 719:Drivers/STM32G0xx_HAL_Driver/Src/stm32g0xx_hal_rcc_ex.c ****           {
 1482              		.loc 1 719 11 is_stmt 1 view .LVU424
 719:Drivers/STM32G0xx_HAL_Driver/Src/stm32g0xx_hal_rcc_ex.c ****           {
 1483              		.loc 1 719 15 is_stmt 0 view .LVU425
 1484 036a 4D4A     		ldr	r2, .L131
 1485              	.LVL109:
 719:Drivers/STM32G0xx_HAL_Driver/Src/stm32g0xx_hal_rcc_ex.c ****           {
 1486              		.loc 1 719 15 view .LVU426
 1487 036c D168     		ldr	r1, [r2, #12]
 1488 036e 8022     		movs	r2, #128
 1489 0370 5202     		lsls	r2, r2, #9
ARM GAS  C:\Users\matil\AppData\Local\Temp\ccFWmvIF.s 			page 46


 1490 0372 0800     		movs	r0, r1
 1491              	.LVL110:
 719:Drivers/STM32G0xx_HAL_Driver/Src/stm32g0xx_hal_rcc_ex.c ****           {
 1492              		.loc 1 719 15 view .LVU427
 1493 0374 1040     		ands	r0, r2
 719:Drivers/STM32G0xx_HAL_Driver/Src/stm32g0xx_hal_rcc_ex.c ****           {
 1494              		.loc 1 719 14 view .LVU428
 1495 0376 1142     		tst	r1, r2
 1496 0378 00D1     		bne	.LCB1388
 1497 037a B3E6     		b	.L38	@long jump
 1498              	.LCB1388:
 722:Drivers/STM32G0xx_HAL_Driver/Src/stm32g0xx_hal_rcc_ex.c ****             frequency = (pllvco * plln) / ((READ_BIT(RCC->PLLCFGR, RCC_PLLCFGR_PLLP) >> RCC_PLLCFGR
 1499              		.loc 1 722 13 is_stmt 1 view .LVU429
 722:Drivers/STM32G0xx_HAL_Driver/Src/stm32g0xx_hal_rcc_ex.c ****             frequency = (pllvco * plln) / ((READ_BIT(RCC->PLLCFGR, RCC_PLLCFGR_PLLP) >> RCC_PLLCFGR
 1500              		.loc 1 722 20 is_stmt 0 view .LVU430
 1501 037c 4849     		ldr	r1, .L131
 1502 037e CA68     		ldr	r2, [r1, #12]
 722:Drivers/STM32G0xx_HAL_Driver/Src/stm32g0xx_hal_rcc_ex.c ****             frequency = (pllvco * plln) / ((READ_BIT(RCC->PLLCFGR, RCC_PLLCFGR_PLLP) >> RCC_PLLCFGR
 1503              		.loc 1 722 61 view .LVU431
 1504 0380 120A     		lsrs	r2, r2, #8
 722:Drivers/STM32G0xx_HAL_Driver/Src/stm32g0xx_hal_rcc_ex.c ****             frequency = (pllvco * plln) / ((READ_BIT(RCC->PLLCFGR, RCC_PLLCFGR_PLLP) >> RCC_PLLCFGR
 1505              		.loc 1 722 18 view .LVU432
 1506 0382 7F20     		movs	r0, #127
 1507 0384 1040     		ands	r0, r2
 1508              	.LVL111:
 723:Drivers/STM32G0xx_HAL_Driver/Src/stm32g0xx_hal_rcc_ex.c ****           }
 1509              		.loc 1 723 13 is_stmt 1 view .LVU433
 723:Drivers/STM32G0xx_HAL_Driver/Src/stm32g0xx_hal_rcc_ex.c ****           }
 1510              		.loc 1 723 33 is_stmt 0 view .LVU434
 1511 0386 5843     		muls	r0, r3
 1512              	.LVL112:
 723:Drivers/STM32G0xx_HAL_Driver/Src/stm32g0xx_hal_rcc_ex.c ****           }
 1513              		.loc 1 723 45 view .LVU435
 1514 0388 CB68     		ldr	r3, [r1, #12]
 1515              	.LVL113:
 723:Drivers/STM32G0xx_HAL_Driver/Src/stm32g0xx_hal_rcc_ex.c ****           }
 1516              		.loc 1 723 86 view .LVU436
 1517 038a 5B0C     		lsrs	r3, r3, #17
 1518 038c 1F21     		movs	r1, #31
 1519 038e 1940     		ands	r1, r3
 723:Drivers/STM32G0xx_HAL_Driver/Src/stm32g0xx_hal_rcc_ex.c ****           }
 1520              		.loc 1 723 111 view .LVU437
 1521 0390 0131     		adds	r1, r1, #1
 723:Drivers/STM32G0xx_HAL_Driver/Src/stm32g0xx_hal_rcc_ex.c ****           }
 1522              		.loc 1 723 23 view .LVU438
 1523 0392 FFF7FEFF 		bl	__aeabi_uidiv
 1524              	.LVL114:
 723:Drivers/STM32G0xx_HAL_Driver/Src/stm32g0xx_hal_rcc_ex.c ****           }
 1525              		.loc 1 723 23 view .LVU439
 1526 0396 A5E6     		b	.L38
 1527              	.LVL115:
 1528              	.L127:
 728:Drivers/STM32G0xx_HAL_Driver/Src/stm32g0xx_hal_rcc_ex.c ****         }
 1529              		.loc 1 728 11 is_stmt 1 view .LVU440
 728:Drivers/STM32G0xx_HAL_Driver/Src/stm32g0xx_hal_rcc_ex.c ****         }
 1530              		.loc 1 728 23 is_stmt 0 view .LVU441
 1531 0398 FFF7FEFF 		bl	HAL_RCC_GetSysClockFreq
ARM GAS  C:\Users\matil\AppData\Local\Temp\ccFWmvIF.s 			page 47


 1532              	.LVL116:
 728:Drivers/STM32G0xx_HAL_Driver/Src/stm32g0xx_hal_rcc_ex.c ****         }
 1533              		.loc 1 728 23 view .LVU442
 1534 039c A2E6     		b	.L38
 1535              	.LVL117:
 1536              	.L113:
 753:Drivers/STM32G0xx_HAL_Driver/Src/stm32g0xx_hal_rcc_ex.c ****         }
 1537              		.loc 1 753 11 is_stmt 1 view .LVU443
 753:Drivers/STM32G0xx_HAL_Driver/Src/stm32g0xx_hal_rcc_ex.c ****         }
 1538              		.loc 1 753 23 is_stmt 0 view .LVU444
 1539 039e FFF7FEFF 		bl	HAL_RCC_GetPCLK1Freq
 1540              	.LVL118:
 753:Drivers/STM32G0xx_HAL_Driver/Src/stm32g0xx_hal_rcc_ex.c ****         }
 1541              		.loc 1 753 23 view .LVU445
 1542 03a2 9FE6     		b	.L38
 1543              	.LVL119:
 1544              	.L44:
 778:Drivers/STM32G0xx_HAL_Driver/Src/stm32g0xx_hal_rcc_ex.c **** 
 1545              		.loc 1 778 9 is_stmt 1 view .LVU446
 778:Drivers/STM32G0xx_HAL_Driver/Src/stm32g0xx_hal_rcc_ex.c **** 
 1546              		.loc 1 778 18 is_stmt 0 view .LVU447
 1547 03a4 3E4B     		ldr	r3, .L131
 1548 03a6 5A6D     		ldr	r2, [r3, #84]
 778:Drivers/STM32G0xx_HAL_Driver/Src/stm32g0xx_hal_rcc_ex.c **** 
 1549              		.loc 1 778 16 view .LVU448
 1550 03a8 C023     		movs	r3, #192
 1551 03aa 9B03     		lsls	r3, r3, #14
 1552 03ac 1100     		movs	r1, r2
 1553 03ae 1940     		ands	r1, r3
 1554              	.LVL120:
 780:Drivers/STM32G0xx_HAL_Driver/Src/stm32g0xx_hal_rcc_ex.c ****         {
 1555              		.loc 1 780 9 is_stmt 1 view .LVU449
 780:Drivers/STM32G0xx_HAL_Driver/Src/stm32g0xx_hal_rcc_ex.c ****         {
 1556              		.loc 1 780 12 is_stmt 0 view .LVU450
 1557 03b0 1A42     		tst	r2, r3
 1558 03b2 1DD0     		beq	.L128
 784:Drivers/STM32G0xx_HAL_Driver/Src/stm32g0xx_hal_rcc_ex.c ****         {
 1559              		.loc 1 784 14 is_stmt 1 view .LVU451
 784:Drivers/STM32G0xx_HAL_Driver/Src/stm32g0xx_hal_rcc_ex.c ****         {
 1560              		.loc 1 784 19 is_stmt 0 view .LVU452
 1561 03b4 3A4B     		ldr	r3, .L131
 1562 03b6 1B6E     		ldr	r3, [r3, #96]
 784:Drivers/STM32G0xx_HAL_Driver/Src/stm32g0xx_hal_rcc_ex.c ****         {
 1563              		.loc 1 784 17 view .LVU453
 1564 03b8 9B07     		lsls	r3, r3, #30
 1565 03ba 03D5     		bpl	.L78
 784:Drivers/STM32G0xx_HAL_Driver/Src/stm32g0xx_hal_rcc_ex.c ****         {
 1566              		.loc 1 784 61 discriminator 1 view .LVU454
 1567 03bc 8023     		movs	r3, #128
 1568 03be 5B03     		lsls	r3, r3, #13
 1569 03c0 9942     		cmp	r1, r3
 1570 03c2 65D0     		beq	.L103
 1571              	.L78:
 788:Drivers/STM32G0xx_HAL_Driver/Src/stm32g0xx_hal_rcc_ex.c ****         {
 1572              		.loc 1 788 14 is_stmt 1 view .LVU455
 788:Drivers/STM32G0xx_HAL_Driver/Src/stm32g0xx_hal_rcc_ex.c ****         {
 1573              		.loc 1 788 19 is_stmt 0 view .LVU456
ARM GAS  C:\Users\matil\AppData\Local\Temp\ccFWmvIF.s 			page 48


 1574 03c4 364B     		ldr	r3, .L131
 1575 03c6 1B68     		ldr	r3, [r3]
 788:Drivers/STM32G0xx_HAL_Driver/Src/stm32g0xx_hal_rcc_ex.c ****         {
 1576              		.loc 1 788 17 view .LVU457
 1577 03c8 5B05     		lsls	r3, r3, #21
 1578 03ca 03D5     		bpl	.L79
 788:Drivers/STM32G0xx_HAL_Driver/Src/stm32g0xx_hal_rcc_ex.c ****         {
 1579              		.loc 1 788 59 discriminator 1 view .LVU458
 1580 03cc 8023     		movs	r3, #128
 1581 03ce 9B03     		lsls	r3, r3, #14
 1582 03d0 9942     		cmp	r1, r3
 1583 03d2 60D0     		beq	.L104
 1584              	.L79:
 792:Drivers/STM32G0xx_HAL_Driver/Src/stm32g0xx_hal_rcc_ex.c ****         {
 1585              		.loc 1 792 14 is_stmt 1 view .LVU459
 792:Drivers/STM32G0xx_HAL_Driver/Src/stm32g0xx_hal_rcc_ex.c ****         {
 1586              		.loc 1 792 19 is_stmt 0 view .LVU460
 1587 03d4 324B     		ldr	r3, .L131
 1588 03d6 DB6D     		ldr	r3, [r3, #92]
 1589 03d8 0222     		movs	r2, #2
 1590 03da 1000     		movs	r0, r2
 1591              	.LVL121:
 792:Drivers/STM32G0xx_HAL_Driver/Src/stm32g0xx_hal_rcc_ex.c ****         {
 1592              		.loc 1 792 19 view .LVU461
 1593 03dc 1840     		ands	r0, r3
 792:Drivers/STM32G0xx_HAL_Driver/Src/stm32g0xx_hal_rcc_ex.c ****         {
 1594              		.loc 1 792 17 view .LVU462
 1595 03de 1A42     		tst	r2, r3
 1596 03e0 00D1     		bne	.LCB1483
 1597 03e2 7FE6     		b	.L38	@long jump
 1598              	.LCB1483:
 792:Drivers/STM32G0xx_HAL_Driver/Src/stm32g0xx_hal_rcc_ex.c ****         {
 1599              		.loc 1 792 63 discriminator 1 view .LVU463
 1600 03e4 C023     		movs	r3, #192
 1601 03e6 9B03     		lsls	r3, r3, #14
 1602 03e8 9942     		cmp	r1, r3
 1603 03ea 56D0     		beq	.L105
 470:Drivers/STM32G0xx_HAL_Driver/Src/stm32g0xx_hal_rcc_ex.c ****   uint32_t srcclk;
 1604              		.loc 1 470 12 view .LVU464
 1605 03ec 0020     		movs	r0, #0
 1606 03ee 79E6     		b	.L38
 1607              	.LVL122:
 1608              	.L128:
 782:Drivers/STM32G0xx_HAL_Driver/Src/stm32g0xx_hal_rcc_ex.c ****         }
 1609              		.loc 1 782 11 is_stmt 1 view .LVU465
 782:Drivers/STM32G0xx_HAL_Driver/Src/stm32g0xx_hal_rcc_ex.c ****         }
 1610              		.loc 1 782 23 is_stmt 0 view .LVU466
 1611 03f0 FFF7FEFF 		bl	HAL_RCC_GetPCLK1Freq
 1612              	.LVL123:
 782:Drivers/STM32G0xx_HAL_Driver/Src/stm32g0xx_hal_rcc_ex.c ****         }
 1613              		.loc 1 782 23 view .LVU467
 1614 03f4 76E6     		b	.L38
 1615              	.LVL124:
 1616              	.L56:
 807:Drivers/STM32G0xx_HAL_Driver/Src/stm32g0xx_hal_rcc_ex.c **** 
 1617              		.loc 1 807 9 is_stmt 1 view .LVU468
 807:Drivers/STM32G0xx_HAL_Driver/Src/stm32g0xx_hal_rcc_ex.c **** 
ARM GAS  C:\Users\matil\AppData\Local\Temp\ccFWmvIF.s 			page 49


 1618              		.loc 1 807 18 is_stmt 0 view .LVU469
 1619 03f6 2A4A     		ldr	r2, .L131
 1620 03f8 526D     		ldr	r2, [r2, #84]
 1621              	.LVL125:
 809:Drivers/STM32G0xx_HAL_Driver/Src/stm32g0xx_hal_rcc_ex.c ****         {
 1622              		.loc 1 809 9 is_stmt 1 view .LVU470
 809:Drivers/STM32G0xx_HAL_Driver/Src/stm32g0xx_hal_rcc_ex.c ****         {
 1623              		.loc 1 809 12 is_stmt 0 view .LVU471
 1624 03fa 5202     		lsls	r2, r2, #9
 1625 03fc 16D5     		bpl	.L80
 1626              	.LVL126:
 811:Drivers/STM32G0xx_HAL_Driver/Src/stm32g0xx_hal_rcc_ex.c ****           {
 1627              		.loc 1 811 11 is_stmt 1 view .LVU472
 811:Drivers/STM32G0xx_HAL_Driver/Src/stm32g0xx_hal_rcc_ex.c ****           {
 1628              		.loc 1 811 15 is_stmt 0 view .LVU473
 1629 03fe 284A     		ldr	r2, .L131
 1630 0400 D168     		ldr	r1, [r2, #12]
 1631 0402 8022     		movs	r2, #128
 1632 0404 5204     		lsls	r2, r2, #17
 1633 0406 0800     		movs	r0, r1
 1634              	.LVL127:
 811:Drivers/STM32G0xx_HAL_Driver/Src/stm32g0xx_hal_rcc_ex.c ****           {
 1635              		.loc 1 811 15 view .LVU474
 1636 0408 1040     		ands	r0, r2
 811:Drivers/STM32G0xx_HAL_Driver/Src/stm32g0xx_hal_rcc_ex.c ****           {
 1637              		.loc 1 811 14 view .LVU475
 1638 040a 1142     		tst	r1, r2
 1639 040c 00D1     		bne	.LCB1525
 1640 040e 69E6     		b	.L38	@long jump
 1641              	.LCB1525:
 814:Drivers/STM32G0xx_HAL_Driver/Src/stm32g0xx_hal_rcc_ex.c ****             frequency = (pllvco * plln) / ((READ_BIT(RCC->PLLCFGR, RCC_PLLCFGR_PLLQ) >> RCC_PLLCFGR
 1642              		.loc 1 814 13 is_stmt 1 view .LVU476
 814:Drivers/STM32G0xx_HAL_Driver/Src/stm32g0xx_hal_rcc_ex.c ****             frequency = (pllvco * plln) / ((READ_BIT(RCC->PLLCFGR, RCC_PLLCFGR_PLLQ) >> RCC_PLLCFGR
 1643              		.loc 1 814 20 is_stmt 0 view .LVU477
 1644 0410 2349     		ldr	r1, .L131
 1645 0412 CA68     		ldr	r2, [r1, #12]
 814:Drivers/STM32G0xx_HAL_Driver/Src/stm32g0xx_hal_rcc_ex.c ****             frequency = (pllvco * plln) / ((READ_BIT(RCC->PLLCFGR, RCC_PLLCFGR_PLLQ) >> RCC_PLLCFGR
 1646              		.loc 1 814 61 view .LVU478
 1647 0414 120A     		lsrs	r2, r2, #8
 814:Drivers/STM32G0xx_HAL_Driver/Src/stm32g0xx_hal_rcc_ex.c ****             frequency = (pllvco * plln) / ((READ_BIT(RCC->PLLCFGR, RCC_PLLCFGR_PLLQ) >> RCC_PLLCFGR
 1648              		.loc 1 814 18 view .LVU479
 1649 0416 7F20     		movs	r0, #127
 1650 0418 1040     		ands	r0, r2
 1651              	.LVL128:
 815:Drivers/STM32G0xx_HAL_Driver/Src/stm32g0xx_hal_rcc_ex.c ****           }
 1652              		.loc 1 815 13 is_stmt 1 view .LVU480
 815:Drivers/STM32G0xx_HAL_Driver/Src/stm32g0xx_hal_rcc_ex.c ****           }
 1653              		.loc 1 815 33 is_stmt 0 view .LVU481
 1654 041a 5843     		muls	r0, r3
 1655              	.LVL129:
 815:Drivers/STM32G0xx_HAL_Driver/Src/stm32g0xx_hal_rcc_ex.c ****           }
 1656              		.loc 1 815 45 view .LVU482
 1657 041c CB68     		ldr	r3, [r1, #12]
 1658              	.LVL130:
 815:Drivers/STM32G0xx_HAL_Driver/Src/stm32g0xx_hal_rcc_ex.c ****           }
 1659              		.loc 1 815 86 view .LVU483
 1660 041e 5B0E     		lsrs	r3, r3, #25
ARM GAS  C:\Users\matil\AppData\Local\Temp\ccFWmvIF.s 			page 50


 1661 0420 0721     		movs	r1, #7
 1662 0422 1940     		ands	r1, r3
 815:Drivers/STM32G0xx_HAL_Driver/Src/stm32g0xx_hal_rcc_ex.c ****           }
 1663              		.loc 1 815 111 view .LVU484
 1664 0424 0131     		adds	r1, r1, #1
 815:Drivers/STM32G0xx_HAL_Driver/Src/stm32g0xx_hal_rcc_ex.c ****           }
 1665              		.loc 1 815 23 view .LVU485
 1666 0426 FFF7FEFF 		bl	__aeabi_uidiv
 1667              	.LVL131:
 815:Drivers/STM32G0xx_HAL_Driver/Src/stm32g0xx_hal_rcc_ex.c ****           }
 1668              		.loc 1 815 23 view .LVU486
 1669 042a 5BE6     		b	.L38
 1670              	.LVL132:
 1671              	.L80:
 818:Drivers/STM32G0xx_HAL_Driver/Src/stm32g0xx_hal_rcc_ex.c ****         {
 1672              		.loc 1 818 14 is_stmt 1 view .LVU487
 820:Drivers/STM32G0xx_HAL_Driver/Src/stm32g0xx_hal_rcc_ex.c ****         }
 1673              		.loc 1 820 11 view .LVU488
 820:Drivers/STM32G0xx_HAL_Driver/Src/stm32g0xx_hal_rcc_ex.c ****         }
 1674              		.loc 1 820 23 is_stmt 0 view .LVU489
 1675 042c FFF7FEFF 		bl	HAL_RCC_GetPCLK1Freq
 1676              	.LVL133:
 820:Drivers/STM32G0xx_HAL_Driver/Src/stm32g0xx_hal_rcc_ex.c ****         }
 1677              		.loc 1 820 23 view .LVU490
 1678 0430 58E6     		b	.L38
 1679              	.LVL134:
 1680              	.L81:
 843:Drivers/STM32G0xx_HAL_Driver/Src/stm32g0xx_hal_rcc_ex.c ****         {
 1681              		.loc 1 843 14 is_stmt 1 view .LVU491
 845:Drivers/STM32G0xx_HAL_Driver/Src/stm32g0xx_hal_rcc_ex.c ****         }
 1682              		.loc 1 845 11 view .LVU492
 845:Drivers/STM32G0xx_HAL_Driver/Src/stm32g0xx_hal_rcc_ex.c ****         }
 1683              		.loc 1 845 23 is_stmt 0 view .LVU493
 1684 0432 FFF7FEFF 		bl	HAL_RCC_GetPCLK1Freq
 1685              	.LVL135:
 845:Drivers/STM32G0xx_HAL_Driver/Src/stm32g0xx_hal_rcc_ex.c ****         }
 1686              		.loc 1 845 23 view .LVU494
 1687 0436 55E6     		b	.L38
 1688              	.LVL136:
 1689              	.L82:
 489:Drivers/STM32G0xx_HAL_Driver/Src/stm32g0xx_hal_rcc_ex.c ****     }
 1690              		.loc 1 489 17 view .LVU495
 1691 0438 8020     		movs	r0, #128
 1692              	.LVL137:
 489:Drivers/STM32G0xx_HAL_Driver/Src/stm32g0xx_hal_rcc_ex.c ****     }
 1693              		.loc 1 489 17 view .LVU496
 1694 043a 0002     		lsls	r0, r0, #8
 1695 043c 52E6     		b	.L38
 1696              	.LVL138:
 1697              	.L83:
 494:Drivers/STM32G0xx_HAL_Driver/Src/stm32g0xx_hal_rcc_ex.c ****     }
 1698              		.loc 1 494 17 view .LVU497
 1699 043e FA20     		movs	r0, #250
 1700              	.LVL139:
 494:Drivers/STM32G0xx_HAL_Driver/Src/stm32g0xx_hal_rcc_ex.c ****     }
 1701              		.loc 1 494 17 view .LVU498
 1702 0440 C001     		lsls	r0, r0, #7
ARM GAS  C:\Users\matil\AppData\Local\Temp\ccFWmvIF.s 			page 51


 1703 0442 4FE6     		b	.L38
 1704              	.L84:
 499:Drivers/STM32G0xx_HAL_Driver/Src/stm32g0xx_hal_rcc_ex.c ****     }
 1705              		.loc 1 499 17 view .LVU499
 1706 0444 1748     		ldr	r0, .L131+4
 1707 0446 4DE6     		b	.L38
 1708              	.LVL140:
 1709              	.L87:
 572:Drivers/STM32G0xx_HAL_Driver/Src/stm32g0xx_hal_rcc_ex.c ****         }
 1710              		.loc 1 572 21 view .LVU500
 1711 0448 1748     		ldr	r0, .L131+8
 1712              	.LVL141:
 572:Drivers/STM32G0xx_HAL_Driver/Src/stm32g0xx_hal_rcc_ex.c ****         }
 1713              		.loc 1 572 21 view .LVU501
 1714 044a 4BE6     		b	.L38
 1715              	.L88:
 576:Drivers/STM32G0xx_HAL_Driver/Src/stm32g0xx_hal_rcc_ex.c ****         }
 1716              		.loc 1 576 21 view .LVU502
 1717 044c 8020     		movs	r0, #128
 1718 044e 0002     		lsls	r0, r0, #8
 1719 0450 48E6     		b	.L38
 1720              	.LVL142:
 1721              	.L89:
 599:Drivers/STM32G0xx_HAL_Driver/Src/stm32g0xx_hal_rcc_ex.c ****         }
 1722              		.loc 1 599 21 view .LVU503
 1723 0452 1548     		ldr	r0, .L131+8
 1724              	.LVL143:
 599:Drivers/STM32G0xx_HAL_Driver/Src/stm32g0xx_hal_rcc_ex.c ****         }
 1725              		.loc 1 599 21 view .LVU504
 1726 0454 46E6     		b	.L38
 1727              	.L90:
 603:Drivers/STM32G0xx_HAL_Driver/Src/stm32g0xx_hal_rcc_ex.c ****         }
 1728              		.loc 1 603 21 view .LVU505
 1729 0456 8020     		movs	r0, #128
 1730 0458 0002     		lsls	r0, r0, #8
 1731 045a 43E6     		b	.L38
 1732              	.LVL144:
 1733              	.L91:
 619:Drivers/STM32G0xx_HAL_Driver/Src/stm32g0xx_hal_rcc_ex.c ****         }
 1734              		.loc 1 619 21 view .LVU506
 1735 045c 1348     		ldr	r0, .L131+12
 1736              	.LVL145:
 619:Drivers/STM32G0xx_HAL_Driver/Src/stm32g0xx_hal_rcc_ex.c ****         }
 1737              		.loc 1 619 21 view .LVU507
 1738 045e 41E6     		b	.L38
 1739              	.L92:
 623:Drivers/STM32G0xx_HAL_Driver/Src/stm32g0xx_hal_rcc_ex.c ****         }
 1740              		.loc 1 623 21 view .LVU508
 1741 0460 8020     		movs	r0, #128
 1742 0462 0002     		lsls	r0, r0, #8
 1743 0464 3EE6     		b	.L38
 1744              	.LVL146:
 1745              	.L93:
 648:Drivers/STM32G0xx_HAL_Driver/Src/stm32g0xx_hal_rcc_ex.c ****         }
 1746              		.loc 1 648 21 view .LVU509
 1747 0466 1048     		ldr	r0, .L131+8
 1748              	.LVL147:
ARM GAS  C:\Users\matil\AppData\Local\Temp\ccFWmvIF.s 			page 52


 648:Drivers/STM32G0xx_HAL_Driver/Src/stm32g0xx_hal_rcc_ex.c ****         }
 1749              		.loc 1 648 21 view .LVU510
 1750 0468 3CE6     		b	.L38
 1751              	.L94:
 652:Drivers/STM32G0xx_HAL_Driver/Src/stm32g0xx_hal_rcc_ex.c ****         }
 1752              		.loc 1 652 21 view .LVU511
 1753 046a 8020     		movs	r0, #128
 1754 046c 0002     		lsls	r0, r0, #8
 1755 046e 39E6     		b	.L38
 1756              	.LVL148:
 1757              	.L95:
 672:Drivers/STM32G0xx_HAL_Driver/Src/stm32g0xx_hal_rcc_ex.c ****         }
 1758              		.loc 1 672 21 view .LVU512
 1759 0470 0D48     		ldr	r0, .L131+8
 1760              	.LVL149:
 672:Drivers/STM32G0xx_HAL_Driver/Src/stm32g0xx_hal_rcc_ex.c ****         }
 1761              		.loc 1 672 21 view .LVU513
 1762 0472 37E6     		b	.L38
 1763              	.LVL150:
 1764              	.L97:
 704:Drivers/STM32G0xx_HAL_Driver/Src/stm32g0xx_hal_rcc_ex.c ****         }
 1765              		.loc 1 704 21 view .LVU514
 1766 0474 0C48     		ldr	r0, .L131+8
 1767 0476 35E6     		b	.L38
 1768              	.LVL151:
 1769              	.L98:
 732:Drivers/STM32G0xx_HAL_Driver/Src/stm32g0xx_hal_rcc_ex.c ****         }
 1770              		.loc 1 732 21 view .LVU515
 1771 0478 0B48     		ldr	r0, .L131+8
 1772              	.LVL152:
 732:Drivers/STM32G0xx_HAL_Driver/Src/stm32g0xx_hal_rcc_ex.c ****         }
 1773              		.loc 1 732 21 view .LVU516
 1774 047a 33E6     		b	.L38
 1775              	.LVL153:
 1776              	.L99:
 737:Drivers/STM32G0xx_HAL_Driver/Src/stm32g0xx_hal_rcc_ex.c ****         }
 1777              		.loc 1 737 21 view .LVU517
 1778 047c 0C48     		ldr	r0, .L131+16
 1779              	.LVL154:
 737:Drivers/STM32G0xx_HAL_Driver/Src/stm32g0xx_hal_rcc_ex.c ****         }
 1780              		.loc 1 737 21 view .LVU518
 1781 047e 31E6     		b	.L38
 1782              	.LVL155:
 1783              	.L100:
 757:Drivers/STM32G0xx_HAL_Driver/Src/stm32g0xx_hal_rcc_ex.c ****         }
 1784              		.loc 1 757 21 view .LVU519
 1785 0480 FA20     		movs	r0, #250
 1786              	.LVL156:
 757:Drivers/STM32G0xx_HAL_Driver/Src/stm32g0xx_hal_rcc_ex.c ****         }
 1787              		.loc 1 757 21 view .LVU520
 1788 0482 C001     		lsls	r0, r0, #7
 1789 0484 2EE6     		b	.L38
 1790              	.LVL157:
 1791              	.L101:
 761:Drivers/STM32G0xx_HAL_Driver/Src/stm32g0xx_hal_rcc_ex.c ****         }
 1792              		.loc 1 761 21 view .LVU521
 1793 0486 0848     		ldr	r0, .L131+8
ARM GAS  C:\Users\matil\AppData\Local\Temp\ccFWmvIF.s 			page 53


 1794              	.LVL158:
 761:Drivers/STM32G0xx_HAL_Driver/Src/stm32g0xx_hal_rcc_ex.c ****         }
 1795              		.loc 1 761 21 view .LVU522
 1796 0488 2CE6     		b	.L38
 1797              	.L102:
 765:Drivers/STM32G0xx_HAL_Driver/Src/stm32g0xx_hal_rcc_ex.c ****         }
 1798              		.loc 1 765 21 view .LVU523
 1799 048a 8020     		movs	r0, #128
 1800 048c 0002     		lsls	r0, r0, #8
 1801 048e 29E6     		b	.L38
 1802              	.LVL159:
 1803              	.L103:
 786:Drivers/STM32G0xx_HAL_Driver/Src/stm32g0xx_hal_rcc_ex.c ****         }
 1804              		.loc 1 786 21 view .LVU524
 1805 0490 FA20     		movs	r0, #250
 1806              	.LVL160:
 786:Drivers/STM32G0xx_HAL_Driver/Src/stm32g0xx_hal_rcc_ex.c ****         }
 1807              		.loc 1 786 21 view .LVU525
 1808 0492 C001     		lsls	r0, r0, #7
 1809 0494 26E6     		b	.L38
 1810              	.LVL161:
 1811              	.L104:
 790:Drivers/STM32G0xx_HAL_Driver/Src/stm32g0xx_hal_rcc_ex.c ****         }
 1812              		.loc 1 790 21 view .LVU526
 1813 0496 0448     		ldr	r0, .L131+8
 1814              	.LVL162:
 790:Drivers/STM32G0xx_HAL_Driver/Src/stm32g0xx_hal_rcc_ex.c ****         }
 1815              		.loc 1 790 21 view .LVU527
 1816 0498 24E6     		b	.L38
 1817              	.L105:
 794:Drivers/STM32G0xx_HAL_Driver/Src/stm32g0xx_hal_rcc_ex.c ****         }
 1818              		.loc 1 794 21 view .LVU528
 1819 049a 8020     		movs	r0, #128
 1820 049c 0002     		lsls	r0, r0, #8
 1821              	.LVL163:
 859:Drivers/STM32G0xx_HAL_Driver/Src/stm32g0xx_hal_rcc_ex.c **** }
 1822              		.loc 1 859 3 is_stmt 1 view .LVU529
 859:Drivers/STM32G0xx_HAL_Driver/Src/stm32g0xx_hal_rcc_ex.c **** }
 1823              		.loc 1 859 10 is_stmt 0 view .LVU530
 1824 049e 21E6     		b	.L38
 1825              	.L132:
 1826              		.align	2
 1827              	.L131:
 1828 04a0 00100240 		.word	1073876992
 1829 04a4 90D00300 		.word	250000
 1830 04a8 0024F400 		.word	16000000
 1831 04ac 12800000 		.word	32786
 1832 04b0 80BB0000 		.word	48000
 1833              		.cfi_endproc
 1834              	.LFE175:
 1836              		.section	.text.HAL_RCCEx_EnableLSCO,"ax",%progbits
 1837              		.align	1
 1838              		.global	HAL_RCCEx_EnableLSCO
 1839              		.syntax unified
 1840              		.code	16
 1841              		.thumb_func
 1842              		.fpu softvfp
ARM GAS  C:\Users\matil\AppData\Local\Temp\ccFWmvIF.s 			page 54


 1844              	HAL_RCCEx_EnableLSCO:
 1845              	.LVL164:
 1846              	.LFB176:
 861:Drivers/STM32G0xx_HAL_Driver/Src/stm32g0xx_hal_rcc_ex.c **** 
 862:Drivers/STM32G0xx_HAL_Driver/Src/stm32g0xx_hal_rcc_ex.c **** /**
 863:Drivers/STM32G0xx_HAL_Driver/Src/stm32g0xx_hal_rcc_ex.c ****   * @}
 864:Drivers/STM32G0xx_HAL_Driver/Src/stm32g0xx_hal_rcc_ex.c ****   */
 865:Drivers/STM32G0xx_HAL_Driver/Src/stm32g0xx_hal_rcc_ex.c **** 
 866:Drivers/STM32G0xx_HAL_Driver/Src/stm32g0xx_hal_rcc_ex.c **** /** @defgroup RCCEx_Exported_Functions_Group2 Extended Clock management functions
 867:Drivers/STM32G0xx_HAL_Driver/Src/stm32g0xx_hal_rcc_ex.c ****  *  @brief  Extended Clock management functions
 868:Drivers/STM32G0xx_HAL_Driver/Src/stm32g0xx_hal_rcc_ex.c ****  *
 869:Drivers/STM32G0xx_HAL_Driver/Src/stm32g0xx_hal_rcc_ex.c **** @verbatim
 870:Drivers/STM32G0xx_HAL_Driver/Src/stm32g0xx_hal_rcc_ex.c ****  ===============================================================================
 871:Drivers/STM32G0xx_HAL_Driver/Src/stm32g0xx_hal_rcc_ex.c ****                 ##### Extended clock management functions  #####
 872:Drivers/STM32G0xx_HAL_Driver/Src/stm32g0xx_hal_rcc_ex.c ****  ===============================================================================
 873:Drivers/STM32G0xx_HAL_Driver/Src/stm32g0xx_hal_rcc_ex.c ****     [..]
 874:Drivers/STM32G0xx_HAL_Driver/Src/stm32g0xx_hal_rcc_ex.c ****     This subsection provides a set of functions allowing to control the
 875:Drivers/STM32G0xx_HAL_Driver/Src/stm32g0xx_hal_rcc_ex.c ****     activation or deactivation of LSE CSS, Low speed clock output and
 876:Drivers/STM32G0xx_HAL_Driver/Src/stm32g0xx_hal_rcc_ex.c ****     clock after wake-up from STOP mode.
 877:Drivers/STM32G0xx_HAL_Driver/Src/stm32g0xx_hal_rcc_ex.c **** @endverbatim
 878:Drivers/STM32G0xx_HAL_Driver/Src/stm32g0xx_hal_rcc_ex.c ****   * @{
 879:Drivers/STM32G0xx_HAL_Driver/Src/stm32g0xx_hal_rcc_ex.c ****   */
 880:Drivers/STM32G0xx_HAL_Driver/Src/stm32g0xx_hal_rcc_ex.c **** 
 881:Drivers/STM32G0xx_HAL_Driver/Src/stm32g0xx_hal_rcc_ex.c **** /**
 882:Drivers/STM32G0xx_HAL_Driver/Src/stm32g0xx_hal_rcc_ex.c ****   * @brief  Select the Low Speed clock source to output on LSCO pin (PA2).
 883:Drivers/STM32G0xx_HAL_Driver/Src/stm32g0xx_hal_rcc_ex.c ****   * @param  LSCOSource  specifies the Low Speed clock source to output.
 884:Drivers/STM32G0xx_HAL_Driver/Src/stm32g0xx_hal_rcc_ex.c ****   *          This parameter can be one of the following values:
 885:Drivers/STM32G0xx_HAL_Driver/Src/stm32g0xx_hal_rcc_ex.c ****   *            @arg @ref RCC_LSCOSOURCE_LSI  LSI clock selected as LSCO source
 886:Drivers/STM32G0xx_HAL_Driver/Src/stm32g0xx_hal_rcc_ex.c ****   *            @arg @ref RCC_LSCOSOURCE_LSE  LSE clock selected as LSCO source
 887:Drivers/STM32G0xx_HAL_Driver/Src/stm32g0xx_hal_rcc_ex.c ****   * @retval None
 888:Drivers/STM32G0xx_HAL_Driver/Src/stm32g0xx_hal_rcc_ex.c ****   */
 889:Drivers/STM32G0xx_HAL_Driver/Src/stm32g0xx_hal_rcc_ex.c **** void HAL_RCCEx_EnableLSCO(uint32_t LSCOSource)
 890:Drivers/STM32G0xx_HAL_Driver/Src/stm32g0xx_hal_rcc_ex.c **** {
 1847              		.loc 1 890 1 is_stmt 1 view -0
 1848              		.cfi_startproc
 1849              		@ args = 0, pretend = 0, frame = 32
 1850              		@ frame_needed = 0, uses_anonymous_args = 0
 1851              		.loc 1 890 1 is_stmt 0 view .LVU532
 1852 0000 30B5     		push	{r4, r5, lr}
 1853              	.LCFI3:
 1854              		.cfi_def_cfa_offset 12
 1855              		.cfi_offset 4, -12
 1856              		.cfi_offset 5, -8
 1857              		.cfi_offset 14, -4
 1858 0002 89B0     		sub	sp, sp, #36
 1859              	.LCFI4:
 1860              		.cfi_def_cfa_offset 48
 1861 0004 0500     		movs	r5, r0
 891:Drivers/STM32G0xx_HAL_Driver/Src/stm32g0xx_hal_rcc_ex.c ****   GPIO_InitTypeDef GPIO_InitStruct;
 1862              		.loc 1 891 3 is_stmt 1 view .LVU533
 892:Drivers/STM32G0xx_HAL_Driver/Src/stm32g0xx_hal_rcc_ex.c ****   FlagStatus       pwrclkchanged = RESET;
 1863              		.loc 1 892 3 view .LVU534
 1864              	.LVL165:
 893:Drivers/STM32G0xx_HAL_Driver/Src/stm32g0xx_hal_rcc_ex.c ****   FlagStatus       backupchanged = RESET;
 1865              		.loc 1 893 3 view .LVU535
 894:Drivers/STM32G0xx_HAL_Driver/Src/stm32g0xx_hal_rcc_ex.c **** 
 895:Drivers/STM32G0xx_HAL_Driver/Src/stm32g0xx_hal_rcc_ex.c ****   /* Check the parameters */
ARM GAS  C:\Users\matil\AppData\Local\Temp\ccFWmvIF.s 			page 55


 896:Drivers/STM32G0xx_HAL_Driver/Src/stm32g0xx_hal_rcc_ex.c ****   assert_param(IS_RCC_LSCOSOURCE(LSCOSource));
 1866              		.loc 1 896 3 view .LVU536
 897:Drivers/STM32G0xx_HAL_Driver/Src/stm32g0xx_hal_rcc_ex.c **** 
 898:Drivers/STM32G0xx_HAL_Driver/Src/stm32g0xx_hal_rcc_ex.c ****   /* LSCO Pin Clock Enable */
 899:Drivers/STM32G0xx_HAL_Driver/Src/stm32g0xx_hal_rcc_ex.c ****   LSCO_CLK_ENABLE();
 1867              		.loc 1 899 3 view .LVU537
 1868              	.LBB5:
 1869              		.loc 1 899 3 view .LVU538
 1870              		.loc 1 899 3 view .LVU539
 1871 0006 224C     		ldr	r4, .L143
 1872 0008 626B     		ldr	r2, [r4, #52]
 1873 000a 0123     		movs	r3, #1
 1874 000c 1A43     		orrs	r2, r3
 1875 000e 6263     		str	r2, [r4, #52]
 1876              		.loc 1 899 3 view .LVU540
 1877 0010 626B     		ldr	r2, [r4, #52]
 1878 0012 1340     		ands	r3, r2
 1879 0014 0193     		str	r3, [sp, #4]
 1880              		.loc 1 899 3 view .LVU541
 1881 0016 019B     		ldr	r3, [sp, #4]
 1882              	.LBE5:
 1883              		.loc 1 899 3 view .LVU542
 900:Drivers/STM32G0xx_HAL_Driver/Src/stm32g0xx_hal_rcc_ex.c **** 
 901:Drivers/STM32G0xx_HAL_Driver/Src/stm32g0xx_hal_rcc_ex.c ****   /* Configue the LSCO pin in analog mode */
 902:Drivers/STM32G0xx_HAL_Driver/Src/stm32g0xx_hal_rcc_ex.c ****   GPIO_InitStruct.Pin = LSCO_PIN;
 1884              		.loc 1 902 3 view .LVU543
 1885              		.loc 1 902 23 is_stmt 0 view .LVU544
 1886 0018 0423     		movs	r3, #4
 1887 001a 0393     		str	r3, [sp, #12]
 903:Drivers/STM32G0xx_HAL_Driver/Src/stm32g0xx_hal_rcc_ex.c ****   GPIO_InitStruct.Mode = GPIO_MODE_ANALOG;
 1888              		.loc 1 903 3 is_stmt 1 view .LVU545
 1889              		.loc 1 903 24 is_stmt 0 view .LVU546
 1890 001c 013B     		subs	r3, r3, #1
 1891 001e 0493     		str	r3, [sp, #16]
 904:Drivers/STM32G0xx_HAL_Driver/Src/stm32g0xx_hal_rcc_ex.c ****   GPIO_InitStruct.Speed = GPIO_SPEED_FREQ_VERY_HIGH;
 1892              		.loc 1 904 3 is_stmt 1 view .LVU547
 1893              		.loc 1 904 25 is_stmt 0 view .LVU548
 1894 0020 0693     		str	r3, [sp, #24]
 905:Drivers/STM32G0xx_HAL_Driver/Src/stm32g0xx_hal_rcc_ex.c ****   GPIO_InitStruct.Pull = GPIO_NOPULL;
 1895              		.loc 1 905 3 is_stmt 1 view .LVU549
 1896              		.loc 1 905 24 is_stmt 0 view .LVU550
 1897 0022 0023     		movs	r3, #0
 1898 0024 0593     		str	r3, [sp, #20]
 906:Drivers/STM32G0xx_HAL_Driver/Src/stm32g0xx_hal_rcc_ex.c ****   HAL_GPIO_Init(LSCO_GPIO_PORT, &GPIO_InitStruct);
 1899              		.loc 1 906 3 is_stmt 1 view .LVU551
 1900 0026 A020     		movs	r0, #160
 1901              	.LVL166:
 1902              		.loc 1 906 3 is_stmt 0 view .LVU552
 1903 0028 03A9     		add	r1, sp, #12
 1904 002a C005     		lsls	r0, r0, #23
 1905 002c FFF7FEFF 		bl	HAL_GPIO_Init
 1906              	.LVL167:
 907:Drivers/STM32G0xx_HAL_Driver/Src/stm32g0xx_hal_rcc_ex.c **** 
 908:Drivers/STM32G0xx_HAL_Driver/Src/stm32g0xx_hal_rcc_ex.c ****   /* Update LSCOSEL clock source in Backup Domain control register */
 909:Drivers/STM32G0xx_HAL_Driver/Src/stm32g0xx_hal_rcc_ex.c ****   if (__HAL_RCC_PWR_IS_CLK_DISABLED())
 1907              		.loc 1 909 3 is_stmt 1 view .LVU553
 1908              		.loc 1 909 7 is_stmt 0 view .LVU554
ARM GAS  C:\Users\matil\AppData\Local\Temp\ccFWmvIF.s 			page 56


 1909 0030 E36B     		ldr	r3, [r4, #60]
 1910              		.loc 1 909 6 view .LVU555
 1911 0032 DB00     		lsls	r3, r3, #3
 1912 0034 1DD4     		bmi	.L138
 910:Drivers/STM32G0xx_HAL_Driver/Src/stm32g0xx_hal_rcc_ex.c ****   {
 911:Drivers/STM32G0xx_HAL_Driver/Src/stm32g0xx_hal_rcc_ex.c ****     __HAL_RCC_PWR_CLK_ENABLE();
 1913              		.loc 1 911 5 is_stmt 1 view .LVU556
 1914              	.LBB6:
 1915              		.loc 1 911 5 view .LVU557
 1916              		.loc 1 911 5 view .LVU558
 1917 0036 E16B     		ldr	r1, [r4, #60]
 1918 0038 8020     		movs	r0, #128
 1919 003a 4005     		lsls	r0, r0, #21
 1920 003c 0143     		orrs	r1, r0
 1921 003e E163     		str	r1, [r4, #60]
 1922              		.loc 1 911 5 view .LVU559
 1923 0040 E36B     		ldr	r3, [r4, #60]
 1924 0042 0340     		ands	r3, r0
 1925 0044 0293     		str	r3, [sp, #8]
 1926              		.loc 1 911 5 view .LVU560
 1927 0046 029B     		ldr	r3, [sp, #8]
 1928              	.LBE6:
 1929              		.loc 1 911 5 view .LVU561
 912:Drivers/STM32G0xx_HAL_Driver/Src/stm32g0xx_hal_rcc_ex.c ****     pwrclkchanged = SET;
 1930              		.loc 1 912 5 view .LVU562
 1931              	.LVL168:
 1932              		.loc 1 912 19 is_stmt 0 view .LVU563
 1933 0048 0124     		movs	r4, #1
 1934              	.LVL169:
 1935              	.L134:
 913:Drivers/STM32G0xx_HAL_Driver/Src/stm32g0xx_hal_rcc_ex.c ****   }
 914:Drivers/STM32G0xx_HAL_Driver/Src/stm32g0xx_hal_rcc_ex.c ****   if (HAL_IS_BIT_CLR(PWR->CR1, PWR_CR1_DBP))
 1936              		.loc 1 914 3 is_stmt 1 view .LVU564
 1937              		.loc 1 914 7 is_stmt 0 view .LVU565
 1938 004a 124B     		ldr	r3, .L143+4
 1939 004c 1B68     		ldr	r3, [r3]
 1940              		.loc 1 914 6 view .LVU566
 1941 004e DB05     		lsls	r3, r3, #23
 1942 0050 11D5     		bpl	.L140
 893:Drivers/STM32G0xx_HAL_Driver/Src/stm32g0xx_hal_rcc_ex.c **** 
 1943              		.loc 1 893 20 view .LVU567
 1944 0052 0021     		movs	r1, #0
 1945              	.LVL170:
 1946              	.L135:
 915:Drivers/STM32G0xx_HAL_Driver/Src/stm32g0xx_hal_rcc_ex.c ****   {
 916:Drivers/STM32G0xx_HAL_Driver/Src/stm32g0xx_hal_rcc_ex.c ****     HAL_PWR_EnableBkUpAccess();
 917:Drivers/STM32G0xx_HAL_Driver/Src/stm32g0xx_hal_rcc_ex.c ****     backupchanged = SET;
 918:Drivers/STM32G0xx_HAL_Driver/Src/stm32g0xx_hal_rcc_ex.c ****   }
 919:Drivers/STM32G0xx_HAL_Driver/Src/stm32g0xx_hal_rcc_ex.c **** 
 920:Drivers/STM32G0xx_HAL_Driver/Src/stm32g0xx_hal_rcc_ex.c ****   MODIFY_REG(RCC->BDCR, RCC_BDCR_LSCOSEL | RCC_BDCR_LSCOEN, LSCOSource | RCC_BDCR_LSCOEN);
 1947              		.loc 1 920 3 is_stmt 1 view .LVU568
 1948 0054 0E4A     		ldr	r2, .L143
 1949 0056 D06D     		ldr	r0, [r2, #92]
 1950 0058 0F4B     		ldr	r3, .L143+8
 1951 005a 1840     		ands	r0, r3
 1952 005c 2843     		orrs	r0, r5
 1953 005e 8023     		movs	r3, #128
ARM GAS  C:\Users\matil\AppData\Local\Temp\ccFWmvIF.s 			page 57


 1954 0060 5B04     		lsls	r3, r3, #17
 1955 0062 1843     		orrs	r0, r3
 1956 0064 D065     		str	r0, [r2, #92]
 921:Drivers/STM32G0xx_HAL_Driver/Src/stm32g0xx_hal_rcc_ex.c **** 
 922:Drivers/STM32G0xx_HAL_Driver/Src/stm32g0xx_hal_rcc_ex.c ****   if (backupchanged == SET)
 1957              		.loc 1 922 3 view .LVU569
 1958              		.loc 1 922 6 is_stmt 0 view .LVU570
 1959 0066 0129     		cmp	r1, #1
 1960 0068 09D0     		beq	.L141
 1961              	.LVL171:
 1962              	.L136:
 923:Drivers/STM32G0xx_HAL_Driver/Src/stm32g0xx_hal_rcc_ex.c ****   {
 924:Drivers/STM32G0xx_HAL_Driver/Src/stm32g0xx_hal_rcc_ex.c ****     HAL_PWR_DisableBkUpAccess();
 925:Drivers/STM32G0xx_HAL_Driver/Src/stm32g0xx_hal_rcc_ex.c ****   }
 926:Drivers/STM32G0xx_HAL_Driver/Src/stm32g0xx_hal_rcc_ex.c ****   if (pwrclkchanged == SET)
 1963              		.loc 1 926 3 is_stmt 1 view .LVU571
 1964              		.loc 1 926 6 is_stmt 0 view .LVU572
 1965 006a 012C     		cmp	r4, #1
 1966 006c 0AD0     		beq	.L142
 1967              	.L133:
 927:Drivers/STM32G0xx_HAL_Driver/Src/stm32g0xx_hal_rcc_ex.c ****   {
 928:Drivers/STM32G0xx_HAL_Driver/Src/stm32g0xx_hal_rcc_ex.c ****     __HAL_RCC_PWR_CLK_DISABLE();
 929:Drivers/STM32G0xx_HAL_Driver/Src/stm32g0xx_hal_rcc_ex.c ****   }
 930:Drivers/STM32G0xx_HAL_Driver/Src/stm32g0xx_hal_rcc_ex.c **** }
 1968              		.loc 1 930 1 view .LVU573
 1969 006e 09B0     		add	sp, sp, #36
 1970              		@ sp needed
 1971              	.LVL172:
 1972              	.LVL173:
 1973              		.loc 1 930 1 view .LVU574
 1974 0070 30BD     		pop	{r4, r5, pc}
 1975              	.LVL174:
 1976              	.L138:
 892:Drivers/STM32G0xx_HAL_Driver/Src/stm32g0xx_hal_rcc_ex.c ****   FlagStatus       backupchanged = RESET;
 1977              		.loc 1 892 20 view .LVU575
 1978 0072 0024     		movs	r4, #0
 1979 0074 E9E7     		b	.L134
 1980              	.LVL175:
 1981              	.L140:
 916:Drivers/STM32G0xx_HAL_Driver/Src/stm32g0xx_hal_rcc_ex.c ****     backupchanged = SET;
 1982              		.loc 1 916 5 is_stmt 1 view .LVU576
 1983 0076 FFF7FEFF 		bl	HAL_PWR_EnableBkUpAccess
 1984              	.LVL176:
 917:Drivers/STM32G0xx_HAL_Driver/Src/stm32g0xx_hal_rcc_ex.c ****   }
 1985              		.loc 1 917 5 view .LVU577
 917:Drivers/STM32G0xx_HAL_Driver/Src/stm32g0xx_hal_rcc_ex.c ****   }
 1986              		.loc 1 917 19 is_stmt 0 view .LVU578
 1987 007a 0121     		movs	r1, #1
 1988 007c EAE7     		b	.L135
 1989              	.LVL177:
 1990              	.L141:
 924:Drivers/STM32G0xx_HAL_Driver/Src/stm32g0xx_hal_rcc_ex.c ****   }
 1991              		.loc 1 924 5 is_stmt 1 view .LVU579
 1992 007e FFF7FEFF 		bl	HAL_PWR_DisableBkUpAccess
 1993              	.LVL178:
 924:Drivers/STM32G0xx_HAL_Driver/Src/stm32g0xx_hal_rcc_ex.c ****   }
 1994              		.loc 1 924 5 is_stmt 0 view .LVU580
ARM GAS  C:\Users\matil\AppData\Local\Temp\ccFWmvIF.s 			page 58


 1995 0082 F2E7     		b	.L136
 1996              	.L142:
 928:Drivers/STM32G0xx_HAL_Driver/Src/stm32g0xx_hal_rcc_ex.c ****   }
 1997              		.loc 1 928 5 is_stmt 1 view .LVU581
 1998 0084 024A     		ldr	r2, .L143
 1999 0086 D36B     		ldr	r3, [r2, #60]
 2000 0088 0449     		ldr	r1, .L143+12
 2001 008a 0B40     		ands	r3, r1
 2002 008c D363     		str	r3, [r2, #60]
 2003              		.loc 1 930 1 is_stmt 0 view .LVU582
 2004 008e EEE7     		b	.L133
 2005              	.L144:
 2006              		.align	2
 2007              	.L143:
 2008 0090 00100240 		.word	1073876992
 2009 0094 00700040 		.word	1073770496
 2010 0098 FFFFFFFC 		.word	-50331649
 2011 009c FFFFFFEF 		.word	-268435457
 2012              		.cfi_endproc
 2013              	.LFE176:
 2015              		.section	.text.HAL_RCCEx_DisableLSCO,"ax",%progbits
 2016              		.align	1
 2017              		.global	HAL_RCCEx_DisableLSCO
 2018              		.syntax unified
 2019              		.code	16
 2020              		.thumb_func
 2021              		.fpu softvfp
 2023              	HAL_RCCEx_DisableLSCO:
 2024              	.LFB177:
 931:Drivers/STM32G0xx_HAL_Driver/Src/stm32g0xx_hal_rcc_ex.c **** 
 932:Drivers/STM32G0xx_HAL_Driver/Src/stm32g0xx_hal_rcc_ex.c **** /**
 933:Drivers/STM32G0xx_HAL_Driver/Src/stm32g0xx_hal_rcc_ex.c ****   * @brief  Disable the Low Speed clock output.
 934:Drivers/STM32G0xx_HAL_Driver/Src/stm32g0xx_hal_rcc_ex.c ****   * @retval None
 935:Drivers/STM32G0xx_HAL_Driver/Src/stm32g0xx_hal_rcc_ex.c ****   */
 936:Drivers/STM32G0xx_HAL_Driver/Src/stm32g0xx_hal_rcc_ex.c **** void HAL_RCCEx_DisableLSCO(void)
 937:Drivers/STM32G0xx_HAL_Driver/Src/stm32g0xx_hal_rcc_ex.c **** {
 2025              		.loc 1 937 1 is_stmt 1 view -0
 2026              		.cfi_startproc
 2027              		@ args = 0, pretend = 0, frame = 8
 2028              		@ frame_needed = 0, uses_anonymous_args = 0
 2029 0000 10B5     		push	{r4, lr}
 2030              	.LCFI5:
 2031              		.cfi_def_cfa_offset 8
 2032              		.cfi_offset 4, -8
 2033              		.cfi_offset 14, -4
 2034 0002 82B0     		sub	sp, sp, #8
 2035              	.LCFI6:
 2036              		.cfi_def_cfa_offset 16
 938:Drivers/STM32G0xx_HAL_Driver/Src/stm32g0xx_hal_rcc_ex.c ****   FlagStatus       pwrclkchanged = RESET;
 2037              		.loc 1 938 3 view .LVU584
 2038              	.LVL179:
 939:Drivers/STM32G0xx_HAL_Driver/Src/stm32g0xx_hal_rcc_ex.c ****   FlagStatus       backupchanged = RESET;
 2039              		.loc 1 939 3 view .LVU585
 940:Drivers/STM32G0xx_HAL_Driver/Src/stm32g0xx_hal_rcc_ex.c **** 
 941:Drivers/STM32G0xx_HAL_Driver/Src/stm32g0xx_hal_rcc_ex.c ****   /* Update LSCOEN bit in Backup Domain control register */
 942:Drivers/STM32G0xx_HAL_Driver/Src/stm32g0xx_hal_rcc_ex.c ****   if (__HAL_RCC_PWR_IS_CLK_DISABLED())
 2040              		.loc 1 942 3 view .LVU586
ARM GAS  C:\Users\matil\AppData\Local\Temp\ccFWmvIF.s 			page 59


 2041              		.loc 1 942 7 is_stmt 0 view .LVU587
 2042 0004 164B     		ldr	r3, .L155
 2043 0006 DB6B     		ldr	r3, [r3, #60]
 2044              		.loc 1 942 6 view .LVU588
 2045 0008 DB00     		lsls	r3, r3, #3
 2046 000a 1AD4     		bmi	.L150
 943:Drivers/STM32G0xx_HAL_Driver/Src/stm32g0xx_hal_rcc_ex.c ****   {
 944:Drivers/STM32G0xx_HAL_Driver/Src/stm32g0xx_hal_rcc_ex.c ****     __HAL_RCC_PWR_CLK_ENABLE();
 2047              		.loc 1 944 5 is_stmt 1 view .LVU589
 2048              	.LBB7:
 2049              		.loc 1 944 5 view .LVU590
 2050              		.loc 1 944 5 view .LVU591
 2051 000c 144A     		ldr	r2, .L155
 2052 000e D16B     		ldr	r1, [r2, #60]
 2053 0010 8020     		movs	r0, #128
 2054 0012 4005     		lsls	r0, r0, #21
 2055 0014 0143     		orrs	r1, r0
 2056 0016 D163     		str	r1, [r2, #60]
 2057              		.loc 1 944 5 view .LVU592
 2058 0018 D36B     		ldr	r3, [r2, #60]
 2059 001a 0340     		ands	r3, r0
 2060 001c 0193     		str	r3, [sp, #4]
 2061              		.loc 1 944 5 view .LVU593
 2062 001e 019B     		ldr	r3, [sp, #4]
 2063              	.LBE7:
 2064              		.loc 1 944 5 view .LVU594
 945:Drivers/STM32G0xx_HAL_Driver/Src/stm32g0xx_hal_rcc_ex.c ****     pwrclkchanged = SET;
 2065              		.loc 1 945 5 view .LVU595
 2066              	.LVL180:
 2067              		.loc 1 945 19 is_stmt 0 view .LVU596
 2068 0020 0124     		movs	r4, #1
 2069              	.LVL181:
 2070              	.L146:
 946:Drivers/STM32G0xx_HAL_Driver/Src/stm32g0xx_hal_rcc_ex.c ****   }
 947:Drivers/STM32G0xx_HAL_Driver/Src/stm32g0xx_hal_rcc_ex.c ****   if (HAL_IS_BIT_CLR(PWR->CR1, PWR_CR1_DBP))
 2071              		.loc 1 947 3 is_stmt 1 view .LVU597
 2072              		.loc 1 947 7 is_stmt 0 view .LVU598
 2073 0022 104B     		ldr	r3, .L155+4
 2074 0024 1B68     		ldr	r3, [r3]
 2075              		.loc 1 947 6 view .LVU599
 2076 0026 DB05     		lsls	r3, r3, #23
 2077 0028 0DD5     		bpl	.L152
 939:Drivers/STM32G0xx_HAL_Driver/Src/stm32g0xx_hal_rcc_ex.c **** 
 2078              		.loc 1 939 20 view .LVU600
 2079 002a 0021     		movs	r1, #0
 2080              	.LVL182:
 2081              	.L147:
 948:Drivers/STM32G0xx_HAL_Driver/Src/stm32g0xx_hal_rcc_ex.c ****   {
 949:Drivers/STM32G0xx_HAL_Driver/Src/stm32g0xx_hal_rcc_ex.c ****     /* Enable access to the backup domain */
 950:Drivers/STM32G0xx_HAL_Driver/Src/stm32g0xx_hal_rcc_ex.c ****     HAL_PWR_EnableBkUpAccess();
 951:Drivers/STM32G0xx_HAL_Driver/Src/stm32g0xx_hal_rcc_ex.c ****     backupchanged = SET;
 952:Drivers/STM32G0xx_HAL_Driver/Src/stm32g0xx_hal_rcc_ex.c ****   }
 953:Drivers/STM32G0xx_HAL_Driver/Src/stm32g0xx_hal_rcc_ex.c **** 
 954:Drivers/STM32G0xx_HAL_Driver/Src/stm32g0xx_hal_rcc_ex.c ****   CLEAR_BIT(RCC->BDCR, RCC_BDCR_LSCOEN);
 2082              		.loc 1 954 3 is_stmt 1 view .LVU601
 2083 002c 0C4A     		ldr	r2, .L155
 2084 002e D36D     		ldr	r3, [r2, #92]
ARM GAS  C:\Users\matil\AppData\Local\Temp\ccFWmvIF.s 			page 60


 2085 0030 0D48     		ldr	r0, .L155+8
 2086 0032 0340     		ands	r3, r0
 2087 0034 D365     		str	r3, [r2, #92]
 955:Drivers/STM32G0xx_HAL_Driver/Src/stm32g0xx_hal_rcc_ex.c **** 
 956:Drivers/STM32G0xx_HAL_Driver/Src/stm32g0xx_hal_rcc_ex.c ****   /* Restore previous configuration */
 957:Drivers/STM32G0xx_HAL_Driver/Src/stm32g0xx_hal_rcc_ex.c ****   if (backupchanged == SET)
 2088              		.loc 1 957 3 view .LVU602
 2089              		.loc 1 957 6 is_stmt 0 view .LVU603
 2090 0036 0129     		cmp	r1, #1
 2091 0038 09D0     		beq	.L153
 2092              	.LVL183:
 2093              	.L148:
 958:Drivers/STM32G0xx_HAL_Driver/Src/stm32g0xx_hal_rcc_ex.c ****   {
 959:Drivers/STM32G0xx_HAL_Driver/Src/stm32g0xx_hal_rcc_ex.c ****     /* Disable access to the backup domain */
 960:Drivers/STM32G0xx_HAL_Driver/Src/stm32g0xx_hal_rcc_ex.c ****     HAL_PWR_DisableBkUpAccess();
 961:Drivers/STM32G0xx_HAL_Driver/Src/stm32g0xx_hal_rcc_ex.c ****   }
 962:Drivers/STM32G0xx_HAL_Driver/Src/stm32g0xx_hal_rcc_ex.c ****   if (pwrclkchanged == SET)
 2094              		.loc 1 962 3 is_stmt 1 view .LVU604
 2095              		.loc 1 962 6 is_stmt 0 view .LVU605
 2096 003a 012C     		cmp	r4, #1
 2097 003c 0AD0     		beq	.L154
 2098              	.L145:
 963:Drivers/STM32G0xx_HAL_Driver/Src/stm32g0xx_hal_rcc_ex.c ****   {
 964:Drivers/STM32G0xx_HAL_Driver/Src/stm32g0xx_hal_rcc_ex.c ****     __HAL_RCC_PWR_CLK_DISABLE();
 965:Drivers/STM32G0xx_HAL_Driver/Src/stm32g0xx_hal_rcc_ex.c ****   }
 966:Drivers/STM32G0xx_HAL_Driver/Src/stm32g0xx_hal_rcc_ex.c **** }
 2099              		.loc 1 966 1 view .LVU606
 2100 003e 02B0     		add	sp, sp, #8
 2101              		@ sp needed
 2102              	.LVL184:
 2103              		.loc 1 966 1 view .LVU607
 2104 0040 10BD     		pop	{r4, pc}
 2105              	.LVL185:
 2106              	.L150:
 938:Drivers/STM32G0xx_HAL_Driver/Src/stm32g0xx_hal_rcc_ex.c ****   FlagStatus       backupchanged = RESET;
 2107              		.loc 1 938 20 view .LVU608
 2108 0042 0024     		movs	r4, #0
 2109 0044 EDE7     		b	.L146
 2110              	.LVL186:
 2111              	.L152:
 950:Drivers/STM32G0xx_HAL_Driver/Src/stm32g0xx_hal_rcc_ex.c ****     backupchanged = SET;
 2112              		.loc 1 950 5 is_stmt 1 view .LVU609
 2113 0046 FFF7FEFF 		bl	HAL_PWR_EnableBkUpAccess
 2114              	.LVL187:
 951:Drivers/STM32G0xx_HAL_Driver/Src/stm32g0xx_hal_rcc_ex.c ****   }
 2115              		.loc 1 951 5 view .LVU610
 951:Drivers/STM32G0xx_HAL_Driver/Src/stm32g0xx_hal_rcc_ex.c ****   }
 2116              		.loc 1 951 19 is_stmt 0 view .LVU611
 2117 004a 0121     		movs	r1, #1
 2118 004c EEE7     		b	.L147
 2119              	.LVL188:
 2120              	.L153:
 960:Drivers/STM32G0xx_HAL_Driver/Src/stm32g0xx_hal_rcc_ex.c ****   }
 2121              		.loc 1 960 5 is_stmt 1 view .LVU612
 2122 004e FFF7FEFF 		bl	HAL_PWR_DisableBkUpAccess
 2123              	.LVL189:
 960:Drivers/STM32G0xx_HAL_Driver/Src/stm32g0xx_hal_rcc_ex.c ****   }
ARM GAS  C:\Users\matil\AppData\Local\Temp\ccFWmvIF.s 			page 61


 2124              		.loc 1 960 5 is_stmt 0 view .LVU613
 2125 0052 F2E7     		b	.L148
 2126              	.L154:
 964:Drivers/STM32G0xx_HAL_Driver/Src/stm32g0xx_hal_rcc_ex.c ****   }
 2127              		.loc 1 964 5 is_stmt 1 view .LVU614
 2128 0054 024A     		ldr	r2, .L155
 2129 0056 D36B     		ldr	r3, [r2, #60]
 2130 0058 0449     		ldr	r1, .L155+12
 2131 005a 0B40     		ands	r3, r1
 2132 005c D363     		str	r3, [r2, #60]
 2133              		.loc 1 966 1 is_stmt 0 view .LVU615
 2134 005e EEE7     		b	.L145
 2135              	.L156:
 2136              		.align	2
 2137              	.L155:
 2138 0060 00100240 		.word	1073876992
 2139 0064 00700040 		.word	1073770496
 2140 0068 FFFFFFFE 		.word	-16777217
 2141 006c FFFFFFEF 		.word	-268435457
 2142              		.cfi_endproc
 2143              	.LFE177:
 2145              		.text
 2146              	.Letext0:
 2147              		.file 2 "c:\\gnu tools arm embedded\\arm-none-eabi\\include\\machine\\_default_types.h"
 2148              		.file 3 "c:\\gnu tools arm embedded\\arm-none-eabi\\include\\sys\\_stdint.h"
 2149              		.file 4 "Drivers/CMSIS/Device/ST/STM32G0xx/Include/system_stm32g0xx.h"
 2150              		.file 5 "Drivers/CMSIS/Device/ST/STM32G0xx/Include/stm32g071xx.h"
 2151              		.file 6 "Drivers/CMSIS/Device/ST/STM32G0xx/Include/stm32g0xx.h"
 2152              		.file 7 "Drivers/STM32G0xx_HAL_Driver/Inc/stm32g0xx_hal_def.h"
 2153              		.file 8 "Drivers/STM32G0xx_HAL_Driver/Inc/stm32g0xx_hal_rcc_ex.h"
 2154              		.file 9 "Drivers/STM32G0xx_HAL_Driver/Inc/stm32g0xx_hal_gpio.h"
 2155              		.file 10 "Drivers/STM32G0xx_HAL_Driver/Inc/stm32g0xx_hal_flash.h"
 2156              		.file 11 "Drivers/STM32G0xx_HAL_Driver/Inc/stm32g0xx_hal.h"
 2157              		.file 12 "Drivers/STM32G0xx_HAL_Driver/Inc/stm32g0xx_hal_pwr.h"
 2158              		.file 13 "Drivers/STM32G0xx_HAL_Driver/Inc/stm32g0xx_hal_rcc.h"
ARM GAS  C:\Users\matil\AppData\Local\Temp\ccFWmvIF.s 			page 62


DEFINED SYMBOLS
                            *ABS*:00000000 stm32g0xx_hal_rcc_ex.c
C:\Users\matil\AppData\Local\Temp\ccFWmvIF.s:16     .text.HAL_RCCEx_PeriphCLKConfig:00000000 $t
C:\Users\matil\AppData\Local\Temp\ccFWmvIF.s:24     .text.HAL_RCCEx_PeriphCLKConfig:00000000 HAL_RCCEx_PeriphCLKConfig
C:\Users\matil\AppData\Local\Temp\ccFWmvIF.s:503    .text.HAL_RCCEx_PeriphCLKConfig:00000214 $d
C:\Users\matil\AppData\Local\Temp\ccFWmvIF.s:520    .text.HAL_RCCEx_GetPeriphCLKConfig:00000000 $t
C:\Users\matil\AppData\Local\Temp\ccFWmvIF.s:527    .text.HAL_RCCEx_GetPeriphCLKConfig:00000000 HAL_RCCEx_GetPeriphCLKConfig
C:\Users\matil\AppData\Local\Temp\ccFWmvIF.s:644    .text.HAL_RCCEx_GetPeriphCLKConfig:00000078 $d
C:\Users\matil\AppData\Local\Temp\ccFWmvIF.s:651    .text.HAL_RCCEx_GetPeriphCLKFreq:00000000 $t
C:\Users\matil\AppData\Local\Temp\ccFWmvIF.s:658    .text.HAL_RCCEx_GetPeriphCLKFreq:00000000 HAL_RCCEx_GetPeriphCLKFreq
C:\Users\matil\AppData\Local\Temp\ccFWmvIF.s:1365   .text.HAL_RCCEx_GetPeriphCLKFreq:000002e4 $d
C:\Users\matil\AppData\Local\Temp\ccFWmvIF.s:1372   .text.HAL_RCCEx_GetPeriphCLKFreq:000002f0 $t
C:\Users\matil\AppData\Local\Temp\ccFWmvIF.s:1828   .text.HAL_RCCEx_GetPeriphCLKFreq:000004a0 $d
C:\Users\matil\AppData\Local\Temp\ccFWmvIF.s:1837   .text.HAL_RCCEx_EnableLSCO:00000000 $t
C:\Users\matil\AppData\Local\Temp\ccFWmvIF.s:1844   .text.HAL_RCCEx_EnableLSCO:00000000 HAL_RCCEx_EnableLSCO
C:\Users\matil\AppData\Local\Temp\ccFWmvIF.s:2008   .text.HAL_RCCEx_EnableLSCO:00000090 $d
C:\Users\matil\AppData\Local\Temp\ccFWmvIF.s:2016   .text.HAL_RCCEx_DisableLSCO:00000000 $t
C:\Users\matil\AppData\Local\Temp\ccFWmvIF.s:2023   .text.HAL_RCCEx_DisableLSCO:00000000 HAL_RCCEx_DisableLSCO
C:\Users\matil\AppData\Local\Temp\ccFWmvIF.s:2138   .text.HAL_RCCEx_DisableLSCO:00000060 $d

UNDEFINED SYMBOLS
HAL_GetTick
__aeabi_uidiv
HAL_RCC_GetPCLK1Freq
HAL_RCC_GetSysClockFreq
HAL_GPIO_Init
HAL_PWR_EnableBkUpAccess
HAL_PWR_DisableBkUpAccess
