ARM GAS  /tmp/ccpnpwSS.s 			page 1


   1              		.cpu cortex-m0plus
   2              		.eabi_attribute 20, 1
   3              		.eabi_attribute 21, 1
   4              		.eabi_attribute 23, 3
   5              		.eabi_attribute 24, 1
   6              		.eabi_attribute 25, 1
   7              		.eabi_attribute 26, 1
   8              		.eabi_attribute 30, 1
   9              		.eabi_attribute 34, 0
  10              		.eabi_attribute 18, 4
  11              		.file	"stm32g0xx_hal_uart_ex.c"
  12              		.text
  13              	.Ltext0:
  14              		.cfi_sections	.debug_frame
  15              		.section	.text.UARTEx_Wakeup_AddressConfig,"ax",%progbits
  16              		.align	1
  17              		.syntax unified
  18              		.code	16
  19              		.thumb_func
  20              		.fpu softvfp
  22              	UARTEx_Wakeup_AddressConfig:
  23              	.LFB185:
  24              		.file 1 "Drivers/STM32G0xx_HAL_Driver/Src/stm32g0xx_hal_uart_ex.c"
   1:Drivers/STM32G0xx_HAL_Driver/Src/stm32g0xx_hal_uart_ex.c **** /**
   2:Drivers/STM32G0xx_HAL_Driver/Src/stm32g0xx_hal_uart_ex.c ****   ******************************************************************************
   3:Drivers/STM32G0xx_HAL_Driver/Src/stm32g0xx_hal_uart_ex.c ****   * @file    stm32g0xx_hal_uart_ex.c
   4:Drivers/STM32G0xx_HAL_Driver/Src/stm32g0xx_hal_uart_ex.c ****   * @author  MCD Application Team
   5:Drivers/STM32G0xx_HAL_Driver/Src/stm32g0xx_hal_uart_ex.c ****   * @brief   Extended UART HAL module driver.
   6:Drivers/STM32G0xx_HAL_Driver/Src/stm32g0xx_hal_uart_ex.c ****   *          This file provides firmware functions to manage the following extended
   7:Drivers/STM32G0xx_HAL_Driver/Src/stm32g0xx_hal_uart_ex.c ****   *          functionalities of the Universal Asynchronous Receiver Transmitter Peripheral (UART).
   8:Drivers/STM32G0xx_HAL_Driver/Src/stm32g0xx_hal_uart_ex.c ****   *           + Initialization and de-initialization functions
   9:Drivers/STM32G0xx_HAL_Driver/Src/stm32g0xx_hal_uart_ex.c ****   *           + Peripheral Control functions
  10:Drivers/STM32G0xx_HAL_Driver/Src/stm32g0xx_hal_uart_ex.c ****   *
  11:Drivers/STM32G0xx_HAL_Driver/Src/stm32g0xx_hal_uart_ex.c ****   *
  12:Drivers/STM32G0xx_HAL_Driver/Src/stm32g0xx_hal_uart_ex.c ****   @verbatim
  13:Drivers/STM32G0xx_HAL_Driver/Src/stm32g0xx_hal_uart_ex.c ****   ==============================================================================
  14:Drivers/STM32G0xx_HAL_Driver/Src/stm32g0xx_hal_uart_ex.c ****                ##### UART peripheral extended features  #####
  15:Drivers/STM32G0xx_HAL_Driver/Src/stm32g0xx_hal_uart_ex.c ****   ==============================================================================
  16:Drivers/STM32G0xx_HAL_Driver/Src/stm32g0xx_hal_uart_ex.c **** 
  17:Drivers/STM32G0xx_HAL_Driver/Src/stm32g0xx_hal_uart_ex.c ****     (#) Declare a UART_HandleTypeDef handle structure.
  18:Drivers/STM32G0xx_HAL_Driver/Src/stm32g0xx_hal_uart_ex.c **** 
  19:Drivers/STM32G0xx_HAL_Driver/Src/stm32g0xx_hal_uart_ex.c ****     (#) For the UART RS485 Driver Enable mode, initialize the UART registers
  20:Drivers/STM32G0xx_HAL_Driver/Src/stm32g0xx_hal_uart_ex.c ****         by calling the HAL_RS485Ex_Init() API.
  21:Drivers/STM32G0xx_HAL_Driver/Src/stm32g0xx_hal_uart_ex.c **** 
  22:Drivers/STM32G0xx_HAL_Driver/Src/stm32g0xx_hal_uart_ex.c ****     (#) FIFO mode enabling/disabling and RX/TX FIFO threshold programming.
  23:Drivers/STM32G0xx_HAL_Driver/Src/stm32g0xx_hal_uart_ex.c **** 
  24:Drivers/STM32G0xx_HAL_Driver/Src/stm32g0xx_hal_uart_ex.c ****         -@- When UART operates in FIFO mode, FIFO mode must be enabled prior
  25:Drivers/STM32G0xx_HAL_Driver/Src/stm32g0xx_hal_uart_ex.c ****             starting RX/TX transfers. Also RX/TX FIFO thresholds must be
  26:Drivers/STM32G0xx_HAL_Driver/Src/stm32g0xx_hal_uart_ex.c ****             configured prior starting RX/TX transfers.
  27:Drivers/STM32G0xx_HAL_Driver/Src/stm32g0xx_hal_uart_ex.c **** 
  28:Drivers/STM32G0xx_HAL_Driver/Src/stm32g0xx_hal_uart_ex.c ****   @endverbatim
  29:Drivers/STM32G0xx_HAL_Driver/Src/stm32g0xx_hal_uart_ex.c ****   ******************************************************************************
  30:Drivers/STM32G0xx_HAL_Driver/Src/stm32g0xx_hal_uart_ex.c ****   * @attention
  31:Drivers/STM32G0xx_HAL_Driver/Src/stm32g0xx_hal_uart_ex.c ****   *
  32:Drivers/STM32G0xx_HAL_Driver/Src/stm32g0xx_hal_uart_ex.c ****   * <h2><center>&copy; Copyright (c) 2018 STMicroelectronics.
  33:Drivers/STM32G0xx_HAL_Driver/Src/stm32g0xx_hal_uart_ex.c ****   * All rights reserved.</center></h2>
  34:Drivers/STM32G0xx_HAL_Driver/Src/stm32g0xx_hal_uart_ex.c ****   *
ARM GAS  /tmp/ccpnpwSS.s 			page 2


  35:Drivers/STM32G0xx_HAL_Driver/Src/stm32g0xx_hal_uart_ex.c ****   * This software component is licensed by ST under BSD 3-Clause license,
  36:Drivers/STM32G0xx_HAL_Driver/Src/stm32g0xx_hal_uart_ex.c ****   * the "License"; You may not use this file except in compliance with the
  37:Drivers/STM32G0xx_HAL_Driver/Src/stm32g0xx_hal_uart_ex.c ****   * License. You may obtain a copy of the License at:
  38:Drivers/STM32G0xx_HAL_Driver/Src/stm32g0xx_hal_uart_ex.c ****   *                        opensource.org/licenses/BSD-3-Clause
  39:Drivers/STM32G0xx_HAL_Driver/Src/stm32g0xx_hal_uart_ex.c ****   *
  40:Drivers/STM32G0xx_HAL_Driver/Src/stm32g0xx_hal_uart_ex.c ****   ******************************************************************************
  41:Drivers/STM32G0xx_HAL_Driver/Src/stm32g0xx_hal_uart_ex.c ****   */
  42:Drivers/STM32G0xx_HAL_Driver/Src/stm32g0xx_hal_uart_ex.c **** 
  43:Drivers/STM32G0xx_HAL_Driver/Src/stm32g0xx_hal_uart_ex.c **** /* Includes ------------------------------------------------------------------*/
  44:Drivers/STM32G0xx_HAL_Driver/Src/stm32g0xx_hal_uart_ex.c **** #include "stm32g0xx_hal.h"
  45:Drivers/STM32G0xx_HAL_Driver/Src/stm32g0xx_hal_uart_ex.c **** 
  46:Drivers/STM32G0xx_HAL_Driver/Src/stm32g0xx_hal_uart_ex.c **** /** @addtogroup STM32G0xx_HAL_Driver
  47:Drivers/STM32G0xx_HAL_Driver/Src/stm32g0xx_hal_uart_ex.c ****   * @{
  48:Drivers/STM32G0xx_HAL_Driver/Src/stm32g0xx_hal_uart_ex.c ****   */
  49:Drivers/STM32G0xx_HAL_Driver/Src/stm32g0xx_hal_uart_ex.c **** 
  50:Drivers/STM32G0xx_HAL_Driver/Src/stm32g0xx_hal_uart_ex.c **** /** @defgroup UARTEx UARTEx
  51:Drivers/STM32G0xx_HAL_Driver/Src/stm32g0xx_hal_uart_ex.c ****   * @brief UART Extended HAL module driver
  52:Drivers/STM32G0xx_HAL_Driver/Src/stm32g0xx_hal_uart_ex.c ****   * @{
  53:Drivers/STM32G0xx_HAL_Driver/Src/stm32g0xx_hal_uart_ex.c ****   */
  54:Drivers/STM32G0xx_HAL_Driver/Src/stm32g0xx_hal_uart_ex.c **** 
  55:Drivers/STM32G0xx_HAL_Driver/Src/stm32g0xx_hal_uart_ex.c **** #ifdef HAL_UART_MODULE_ENABLED
  56:Drivers/STM32G0xx_HAL_Driver/Src/stm32g0xx_hal_uart_ex.c **** 
  57:Drivers/STM32G0xx_HAL_Driver/Src/stm32g0xx_hal_uart_ex.c **** /* Private typedef -----------------------------------------------------------*/
  58:Drivers/STM32G0xx_HAL_Driver/Src/stm32g0xx_hal_uart_ex.c **** /* Private define ------------------------------------------------------------*/
  59:Drivers/STM32G0xx_HAL_Driver/Src/stm32g0xx_hal_uart_ex.c **** /** @defgroup UARTEX_Private_Constants UARTEx Private Constants
  60:Drivers/STM32G0xx_HAL_Driver/Src/stm32g0xx_hal_uart_ex.c ****   * @{
  61:Drivers/STM32G0xx_HAL_Driver/Src/stm32g0xx_hal_uart_ex.c ****   */
  62:Drivers/STM32G0xx_HAL_Driver/Src/stm32g0xx_hal_uart_ex.c **** /* UART RX FIFO depth */
  63:Drivers/STM32G0xx_HAL_Driver/Src/stm32g0xx_hal_uart_ex.c **** #define RX_FIFO_DEPTH 8U
  64:Drivers/STM32G0xx_HAL_Driver/Src/stm32g0xx_hal_uart_ex.c **** 
  65:Drivers/STM32G0xx_HAL_Driver/Src/stm32g0xx_hal_uart_ex.c **** /* UART TX FIFO depth */
  66:Drivers/STM32G0xx_HAL_Driver/Src/stm32g0xx_hal_uart_ex.c **** #define TX_FIFO_DEPTH 8U
  67:Drivers/STM32G0xx_HAL_Driver/Src/stm32g0xx_hal_uart_ex.c **** /**
  68:Drivers/STM32G0xx_HAL_Driver/Src/stm32g0xx_hal_uart_ex.c ****   * @}
  69:Drivers/STM32G0xx_HAL_Driver/Src/stm32g0xx_hal_uart_ex.c ****   */
  70:Drivers/STM32G0xx_HAL_Driver/Src/stm32g0xx_hal_uart_ex.c **** 
  71:Drivers/STM32G0xx_HAL_Driver/Src/stm32g0xx_hal_uart_ex.c **** /* Private macros ------------------------------------------------------------*/
  72:Drivers/STM32G0xx_HAL_Driver/Src/stm32g0xx_hal_uart_ex.c **** /* Private variables ---------------------------------------------------------*/
  73:Drivers/STM32G0xx_HAL_Driver/Src/stm32g0xx_hal_uart_ex.c **** /* Private function prototypes -----------------------------------------------*/
  74:Drivers/STM32G0xx_HAL_Driver/Src/stm32g0xx_hal_uart_ex.c **** /** @defgroup UARTEx_Private_Functions UARTEx Private Functions
  75:Drivers/STM32G0xx_HAL_Driver/Src/stm32g0xx_hal_uart_ex.c ****   * @{
  76:Drivers/STM32G0xx_HAL_Driver/Src/stm32g0xx_hal_uart_ex.c ****   */
  77:Drivers/STM32G0xx_HAL_Driver/Src/stm32g0xx_hal_uart_ex.c **** static void UARTEx_Wakeup_AddressConfig(UART_HandleTypeDef *huart, UART_WakeUpTypeDef WakeUpSelecti
  78:Drivers/STM32G0xx_HAL_Driver/Src/stm32g0xx_hal_uart_ex.c **** static void UARTEx_SetNbDataToProcess(UART_HandleTypeDef *huart);
  79:Drivers/STM32G0xx_HAL_Driver/Src/stm32g0xx_hal_uart_ex.c **** /**
  80:Drivers/STM32G0xx_HAL_Driver/Src/stm32g0xx_hal_uart_ex.c ****   * @}
  81:Drivers/STM32G0xx_HAL_Driver/Src/stm32g0xx_hal_uart_ex.c ****   */
  82:Drivers/STM32G0xx_HAL_Driver/Src/stm32g0xx_hal_uart_ex.c **** 
  83:Drivers/STM32G0xx_HAL_Driver/Src/stm32g0xx_hal_uart_ex.c **** /* Exported functions --------------------------------------------------------*/
  84:Drivers/STM32G0xx_HAL_Driver/Src/stm32g0xx_hal_uart_ex.c **** 
  85:Drivers/STM32G0xx_HAL_Driver/Src/stm32g0xx_hal_uart_ex.c **** /** @defgroup UARTEx_Exported_Functions  UARTEx Exported Functions
  86:Drivers/STM32G0xx_HAL_Driver/Src/stm32g0xx_hal_uart_ex.c ****   * @{
  87:Drivers/STM32G0xx_HAL_Driver/Src/stm32g0xx_hal_uart_ex.c ****   */
  88:Drivers/STM32G0xx_HAL_Driver/Src/stm32g0xx_hal_uart_ex.c **** 
  89:Drivers/STM32G0xx_HAL_Driver/Src/stm32g0xx_hal_uart_ex.c **** /** @defgroup UARTEx_Exported_Functions_Group1 Initialization and de-initialization functions
  90:Drivers/STM32G0xx_HAL_Driver/Src/stm32g0xx_hal_uart_ex.c ****   * @brief    Extended Initialization and Configuration Functions
  91:Drivers/STM32G0xx_HAL_Driver/Src/stm32g0xx_hal_uart_ex.c ****   *
ARM GAS  /tmp/ccpnpwSS.s 			page 3


  92:Drivers/STM32G0xx_HAL_Driver/Src/stm32g0xx_hal_uart_ex.c **** @verbatim
  93:Drivers/STM32G0xx_HAL_Driver/Src/stm32g0xx_hal_uart_ex.c **** ===============================================================================
  94:Drivers/STM32G0xx_HAL_Driver/Src/stm32g0xx_hal_uart_ex.c ****             ##### Initialization and Configuration functions #####
  95:Drivers/STM32G0xx_HAL_Driver/Src/stm32g0xx_hal_uart_ex.c ****  ===============================================================================
  96:Drivers/STM32G0xx_HAL_Driver/Src/stm32g0xx_hal_uart_ex.c ****     [..]
  97:Drivers/STM32G0xx_HAL_Driver/Src/stm32g0xx_hal_uart_ex.c ****     This subsection provides a set of functions allowing to initialize the USARTx or the UARTy
  98:Drivers/STM32G0xx_HAL_Driver/Src/stm32g0xx_hal_uart_ex.c ****     in asynchronous mode.
  99:Drivers/STM32G0xx_HAL_Driver/Src/stm32g0xx_hal_uart_ex.c ****       (+) For the asynchronous mode the parameters below can be configured:
 100:Drivers/STM32G0xx_HAL_Driver/Src/stm32g0xx_hal_uart_ex.c ****         (++) Baud Rate
 101:Drivers/STM32G0xx_HAL_Driver/Src/stm32g0xx_hal_uart_ex.c ****         (++) Word Length
 102:Drivers/STM32G0xx_HAL_Driver/Src/stm32g0xx_hal_uart_ex.c ****         (++) Stop Bit
 103:Drivers/STM32G0xx_HAL_Driver/Src/stm32g0xx_hal_uart_ex.c ****         (++) Parity: If the parity is enabled, then the MSB bit of the data written
 104:Drivers/STM32G0xx_HAL_Driver/Src/stm32g0xx_hal_uart_ex.c ****              in the data register is transmitted but is changed by the parity bit.
 105:Drivers/STM32G0xx_HAL_Driver/Src/stm32g0xx_hal_uart_ex.c ****         (++) Hardware flow control
 106:Drivers/STM32G0xx_HAL_Driver/Src/stm32g0xx_hal_uart_ex.c ****         (++) Receiver/transmitter modes
 107:Drivers/STM32G0xx_HAL_Driver/Src/stm32g0xx_hal_uart_ex.c ****         (++) Over Sampling Method
 108:Drivers/STM32G0xx_HAL_Driver/Src/stm32g0xx_hal_uart_ex.c ****         (++) One-Bit Sampling Method
 109:Drivers/STM32G0xx_HAL_Driver/Src/stm32g0xx_hal_uart_ex.c ****       (+) For the asynchronous mode, the following advanced features can be configured as well:
 110:Drivers/STM32G0xx_HAL_Driver/Src/stm32g0xx_hal_uart_ex.c ****         (++) TX and/or RX pin level inversion
 111:Drivers/STM32G0xx_HAL_Driver/Src/stm32g0xx_hal_uart_ex.c ****         (++) data logical level inversion
 112:Drivers/STM32G0xx_HAL_Driver/Src/stm32g0xx_hal_uart_ex.c ****         (++) RX and TX pins swap
 113:Drivers/STM32G0xx_HAL_Driver/Src/stm32g0xx_hal_uart_ex.c ****         (++) RX overrun detection disabling
 114:Drivers/STM32G0xx_HAL_Driver/Src/stm32g0xx_hal_uart_ex.c ****         (++) DMA disabling on RX error
 115:Drivers/STM32G0xx_HAL_Driver/Src/stm32g0xx_hal_uart_ex.c ****         (++) MSB first on communication line
 116:Drivers/STM32G0xx_HAL_Driver/Src/stm32g0xx_hal_uart_ex.c ****         (++) auto Baud rate detection
 117:Drivers/STM32G0xx_HAL_Driver/Src/stm32g0xx_hal_uart_ex.c ****     [..]
 118:Drivers/STM32G0xx_HAL_Driver/Src/stm32g0xx_hal_uart_ex.c ****     The HAL_RS485Ex_Init() API follows the UART RS485 mode configuration
 119:Drivers/STM32G0xx_HAL_Driver/Src/stm32g0xx_hal_uart_ex.c ****      procedures (details for the procedures are available in reference manual).
 120:Drivers/STM32G0xx_HAL_Driver/Src/stm32g0xx_hal_uart_ex.c **** 
 121:Drivers/STM32G0xx_HAL_Driver/Src/stm32g0xx_hal_uart_ex.c **** @endverbatim
 122:Drivers/STM32G0xx_HAL_Driver/Src/stm32g0xx_hal_uart_ex.c **** 
 123:Drivers/STM32G0xx_HAL_Driver/Src/stm32g0xx_hal_uart_ex.c ****   Depending on the frame length defined by the M1 and M0 bits (7-bit,
 124:Drivers/STM32G0xx_HAL_Driver/Src/stm32g0xx_hal_uart_ex.c ****   8-bit or 9-bit), the possible UART formats are listed in the
 125:Drivers/STM32G0xx_HAL_Driver/Src/stm32g0xx_hal_uart_ex.c ****   following table.
 126:Drivers/STM32G0xx_HAL_Driver/Src/stm32g0xx_hal_uart_ex.c **** 
 127:Drivers/STM32G0xx_HAL_Driver/Src/stm32g0xx_hal_uart_ex.c ****     Table 1. UART frame format.
 128:Drivers/STM32G0xx_HAL_Driver/Src/stm32g0xx_hal_uart_ex.c ****     +-----------------------------------------------------------------------+
 129:Drivers/STM32G0xx_HAL_Driver/Src/stm32g0xx_hal_uart_ex.c ****     |  M1 bit |  M0 bit |  PCE bit  |             UART frame                |
 130:Drivers/STM32G0xx_HAL_Driver/Src/stm32g0xx_hal_uart_ex.c ****     |---------|---------|-----------|---------------------------------------|
 131:Drivers/STM32G0xx_HAL_Driver/Src/stm32g0xx_hal_uart_ex.c ****     |    0    |    0    |    0      |    | SB |    8 bit data   | STB |     |
 132:Drivers/STM32G0xx_HAL_Driver/Src/stm32g0xx_hal_uart_ex.c ****     |---------|---------|-----------|---------------------------------------|
 133:Drivers/STM32G0xx_HAL_Driver/Src/stm32g0xx_hal_uart_ex.c ****     |    0    |    0    |    1      |    | SB | 7 bit data | PB | STB |     |
 134:Drivers/STM32G0xx_HAL_Driver/Src/stm32g0xx_hal_uart_ex.c ****     |---------|---------|-----------|---------------------------------------|
 135:Drivers/STM32G0xx_HAL_Driver/Src/stm32g0xx_hal_uart_ex.c ****     |    0    |    1    |    0      |    | SB |    9 bit data   | STB |     |
 136:Drivers/STM32G0xx_HAL_Driver/Src/stm32g0xx_hal_uart_ex.c ****     |---------|---------|-----------|---------------------------------------|
 137:Drivers/STM32G0xx_HAL_Driver/Src/stm32g0xx_hal_uart_ex.c ****     |    0    |    1    |    1      |    | SB | 8 bit data | PB | STB |     |
 138:Drivers/STM32G0xx_HAL_Driver/Src/stm32g0xx_hal_uart_ex.c ****     |---------|---------|-----------|---------------------------------------|
 139:Drivers/STM32G0xx_HAL_Driver/Src/stm32g0xx_hal_uart_ex.c ****     |    1    |    0    |    0      |    | SB |    7 bit data   | STB |     |
 140:Drivers/STM32G0xx_HAL_Driver/Src/stm32g0xx_hal_uart_ex.c ****     |---------|---------|-----------|---------------------------------------|
 141:Drivers/STM32G0xx_HAL_Driver/Src/stm32g0xx_hal_uart_ex.c ****     |    1    |    0    |    1      |    | SB | 6 bit data | PB | STB |     |
 142:Drivers/STM32G0xx_HAL_Driver/Src/stm32g0xx_hal_uart_ex.c ****     +-----------------------------------------------------------------------+
 143:Drivers/STM32G0xx_HAL_Driver/Src/stm32g0xx_hal_uart_ex.c **** 
 144:Drivers/STM32G0xx_HAL_Driver/Src/stm32g0xx_hal_uart_ex.c ****   * @{
 145:Drivers/STM32G0xx_HAL_Driver/Src/stm32g0xx_hal_uart_ex.c ****   */
 146:Drivers/STM32G0xx_HAL_Driver/Src/stm32g0xx_hal_uart_ex.c **** 
 147:Drivers/STM32G0xx_HAL_Driver/Src/stm32g0xx_hal_uart_ex.c **** /**
 148:Drivers/STM32G0xx_HAL_Driver/Src/stm32g0xx_hal_uart_ex.c ****   * @brief Initialize the RS485 Driver enable feature according to the specified
ARM GAS  /tmp/ccpnpwSS.s 			page 4


 149:Drivers/STM32G0xx_HAL_Driver/Src/stm32g0xx_hal_uart_ex.c ****   *         parameters in the UART_InitTypeDef and creates the associated handle.
 150:Drivers/STM32G0xx_HAL_Driver/Src/stm32g0xx_hal_uart_ex.c ****   * @param huart            UART handle.
 151:Drivers/STM32G0xx_HAL_Driver/Src/stm32g0xx_hal_uart_ex.c ****   * @param Polarity         Select the driver enable polarity.
 152:Drivers/STM32G0xx_HAL_Driver/Src/stm32g0xx_hal_uart_ex.c ****   *          This parameter can be one of the following values:
 153:Drivers/STM32G0xx_HAL_Driver/Src/stm32g0xx_hal_uart_ex.c ****   *          @arg @ref UART_DE_POLARITY_HIGH DE signal is active high
 154:Drivers/STM32G0xx_HAL_Driver/Src/stm32g0xx_hal_uart_ex.c ****   *          @arg @ref UART_DE_POLARITY_LOW  DE signal is active low
 155:Drivers/STM32G0xx_HAL_Driver/Src/stm32g0xx_hal_uart_ex.c ****   * @param AssertionTime    Driver Enable assertion time:
 156:Drivers/STM32G0xx_HAL_Driver/Src/stm32g0xx_hal_uart_ex.c ****   *       5-bit value defining the time between the activation of the DE (Driver Enable)
 157:Drivers/STM32G0xx_HAL_Driver/Src/stm32g0xx_hal_uart_ex.c ****   *       signal and the beginning of the start bit. It is expressed in sample time
 158:Drivers/STM32G0xx_HAL_Driver/Src/stm32g0xx_hal_uart_ex.c ****   *       units (1/8 or 1/16 bit time, depending on the oversampling rate)
 159:Drivers/STM32G0xx_HAL_Driver/Src/stm32g0xx_hal_uart_ex.c ****   * @param DeassertionTime  Driver Enable deassertion time:
 160:Drivers/STM32G0xx_HAL_Driver/Src/stm32g0xx_hal_uart_ex.c ****   *       5-bit value defining the time between the end of the last stop bit, in a
 161:Drivers/STM32G0xx_HAL_Driver/Src/stm32g0xx_hal_uart_ex.c ****   *       transmitted message, and the de-activation of the DE (Driver Enable) signal.
 162:Drivers/STM32G0xx_HAL_Driver/Src/stm32g0xx_hal_uart_ex.c ****   *       It is expressed in sample time units (1/8 or 1/16 bit time, depending on the
 163:Drivers/STM32G0xx_HAL_Driver/Src/stm32g0xx_hal_uart_ex.c ****   *       oversampling rate).
 164:Drivers/STM32G0xx_HAL_Driver/Src/stm32g0xx_hal_uart_ex.c ****   * @retval HAL status
 165:Drivers/STM32G0xx_HAL_Driver/Src/stm32g0xx_hal_uart_ex.c ****   */
 166:Drivers/STM32G0xx_HAL_Driver/Src/stm32g0xx_hal_uart_ex.c **** HAL_StatusTypeDef HAL_RS485Ex_Init(UART_HandleTypeDef *huart, uint32_t Polarity, uint32_t Assertion
 167:Drivers/STM32G0xx_HAL_Driver/Src/stm32g0xx_hal_uart_ex.c ****                                    uint32_t DeassertionTime)
 168:Drivers/STM32G0xx_HAL_Driver/Src/stm32g0xx_hal_uart_ex.c **** {
 169:Drivers/STM32G0xx_HAL_Driver/Src/stm32g0xx_hal_uart_ex.c ****   uint32_t temp;
 170:Drivers/STM32G0xx_HAL_Driver/Src/stm32g0xx_hal_uart_ex.c **** 
 171:Drivers/STM32G0xx_HAL_Driver/Src/stm32g0xx_hal_uart_ex.c ****   /* Check the UART handle allocation */
 172:Drivers/STM32G0xx_HAL_Driver/Src/stm32g0xx_hal_uart_ex.c ****   if (huart == NULL)
 173:Drivers/STM32G0xx_HAL_Driver/Src/stm32g0xx_hal_uart_ex.c ****   {
 174:Drivers/STM32G0xx_HAL_Driver/Src/stm32g0xx_hal_uart_ex.c ****     return HAL_ERROR;
 175:Drivers/STM32G0xx_HAL_Driver/Src/stm32g0xx_hal_uart_ex.c ****   }
 176:Drivers/STM32G0xx_HAL_Driver/Src/stm32g0xx_hal_uart_ex.c ****   /* Check the Driver Enable UART instance */
 177:Drivers/STM32G0xx_HAL_Driver/Src/stm32g0xx_hal_uart_ex.c ****   assert_param(IS_UART_DRIVER_ENABLE_INSTANCE(huart->Instance));
 178:Drivers/STM32G0xx_HAL_Driver/Src/stm32g0xx_hal_uart_ex.c **** 
 179:Drivers/STM32G0xx_HAL_Driver/Src/stm32g0xx_hal_uart_ex.c ****   /* Check the Driver Enable polarity */
 180:Drivers/STM32G0xx_HAL_Driver/Src/stm32g0xx_hal_uart_ex.c ****   assert_param(IS_UART_DE_POLARITY(Polarity));
 181:Drivers/STM32G0xx_HAL_Driver/Src/stm32g0xx_hal_uart_ex.c **** 
 182:Drivers/STM32G0xx_HAL_Driver/Src/stm32g0xx_hal_uart_ex.c ****   /* Check the Driver Enable assertion time */
 183:Drivers/STM32G0xx_HAL_Driver/Src/stm32g0xx_hal_uart_ex.c ****   assert_param(IS_UART_ASSERTIONTIME(AssertionTime));
 184:Drivers/STM32G0xx_HAL_Driver/Src/stm32g0xx_hal_uart_ex.c **** 
 185:Drivers/STM32G0xx_HAL_Driver/Src/stm32g0xx_hal_uart_ex.c ****   /* Check the Driver Enable deassertion time */
 186:Drivers/STM32G0xx_HAL_Driver/Src/stm32g0xx_hal_uart_ex.c ****   assert_param(IS_UART_DEASSERTIONTIME(DeassertionTime));
 187:Drivers/STM32G0xx_HAL_Driver/Src/stm32g0xx_hal_uart_ex.c **** 
 188:Drivers/STM32G0xx_HAL_Driver/Src/stm32g0xx_hal_uart_ex.c ****   if (huart->gState == HAL_UART_STATE_RESET)
 189:Drivers/STM32G0xx_HAL_Driver/Src/stm32g0xx_hal_uart_ex.c ****   {
 190:Drivers/STM32G0xx_HAL_Driver/Src/stm32g0xx_hal_uart_ex.c ****     /* Allocate lock resource and initialize it */
 191:Drivers/STM32G0xx_HAL_Driver/Src/stm32g0xx_hal_uart_ex.c ****     huart->Lock = HAL_UNLOCKED;
 192:Drivers/STM32G0xx_HAL_Driver/Src/stm32g0xx_hal_uart_ex.c **** 
 193:Drivers/STM32G0xx_HAL_Driver/Src/stm32g0xx_hal_uart_ex.c **** #if (USE_HAL_UART_REGISTER_CALLBACKS == 1)
 194:Drivers/STM32G0xx_HAL_Driver/Src/stm32g0xx_hal_uart_ex.c ****     UART_InitCallbacksToDefault(huart);
 195:Drivers/STM32G0xx_HAL_Driver/Src/stm32g0xx_hal_uart_ex.c **** 
 196:Drivers/STM32G0xx_HAL_Driver/Src/stm32g0xx_hal_uart_ex.c ****     if (huart->MspInitCallback == NULL)
 197:Drivers/STM32G0xx_HAL_Driver/Src/stm32g0xx_hal_uart_ex.c ****     {
 198:Drivers/STM32G0xx_HAL_Driver/Src/stm32g0xx_hal_uart_ex.c ****       huart->MspInitCallback = HAL_UART_MspInit;
 199:Drivers/STM32G0xx_HAL_Driver/Src/stm32g0xx_hal_uart_ex.c ****     }
 200:Drivers/STM32G0xx_HAL_Driver/Src/stm32g0xx_hal_uart_ex.c **** 
 201:Drivers/STM32G0xx_HAL_Driver/Src/stm32g0xx_hal_uart_ex.c ****     /* Init the low level hardware */
 202:Drivers/STM32G0xx_HAL_Driver/Src/stm32g0xx_hal_uart_ex.c ****     huart->MspInitCallback(huart);
 203:Drivers/STM32G0xx_HAL_Driver/Src/stm32g0xx_hal_uart_ex.c **** #else
 204:Drivers/STM32G0xx_HAL_Driver/Src/stm32g0xx_hal_uart_ex.c ****     /* Init the low level hardware : GPIO, CLOCK, CORTEX */
 205:Drivers/STM32G0xx_HAL_Driver/Src/stm32g0xx_hal_uart_ex.c ****     HAL_UART_MspInit(huart);
ARM GAS  /tmp/ccpnpwSS.s 			page 5


 206:Drivers/STM32G0xx_HAL_Driver/Src/stm32g0xx_hal_uart_ex.c **** #endif /* (USE_HAL_UART_REGISTER_CALLBACKS) */
 207:Drivers/STM32G0xx_HAL_Driver/Src/stm32g0xx_hal_uart_ex.c ****   }
 208:Drivers/STM32G0xx_HAL_Driver/Src/stm32g0xx_hal_uart_ex.c **** 
 209:Drivers/STM32G0xx_HAL_Driver/Src/stm32g0xx_hal_uart_ex.c ****   huart->gState = HAL_UART_STATE_BUSY;
 210:Drivers/STM32G0xx_HAL_Driver/Src/stm32g0xx_hal_uart_ex.c **** 
 211:Drivers/STM32G0xx_HAL_Driver/Src/stm32g0xx_hal_uart_ex.c ****   /* Disable the Peripheral */
 212:Drivers/STM32G0xx_HAL_Driver/Src/stm32g0xx_hal_uart_ex.c ****   __HAL_UART_DISABLE(huart);
 213:Drivers/STM32G0xx_HAL_Driver/Src/stm32g0xx_hal_uart_ex.c **** 
 214:Drivers/STM32G0xx_HAL_Driver/Src/stm32g0xx_hal_uart_ex.c ****   /* Set the UART Communication parameters */
 215:Drivers/STM32G0xx_HAL_Driver/Src/stm32g0xx_hal_uart_ex.c ****   if (UART_SetConfig(huart) == HAL_ERROR)
 216:Drivers/STM32G0xx_HAL_Driver/Src/stm32g0xx_hal_uart_ex.c ****   {
 217:Drivers/STM32G0xx_HAL_Driver/Src/stm32g0xx_hal_uart_ex.c ****     return HAL_ERROR;
 218:Drivers/STM32G0xx_HAL_Driver/Src/stm32g0xx_hal_uart_ex.c ****   }
 219:Drivers/STM32G0xx_HAL_Driver/Src/stm32g0xx_hal_uart_ex.c **** 
 220:Drivers/STM32G0xx_HAL_Driver/Src/stm32g0xx_hal_uart_ex.c ****   if (huart->AdvancedInit.AdvFeatureInit != UART_ADVFEATURE_NO_INIT)
 221:Drivers/STM32G0xx_HAL_Driver/Src/stm32g0xx_hal_uart_ex.c ****   {
 222:Drivers/STM32G0xx_HAL_Driver/Src/stm32g0xx_hal_uart_ex.c ****     UART_AdvFeatureConfig(huart);
 223:Drivers/STM32G0xx_HAL_Driver/Src/stm32g0xx_hal_uart_ex.c ****   }
 224:Drivers/STM32G0xx_HAL_Driver/Src/stm32g0xx_hal_uart_ex.c **** 
 225:Drivers/STM32G0xx_HAL_Driver/Src/stm32g0xx_hal_uart_ex.c ****   /* Enable the Driver Enable mode by setting the DEM bit in the CR3 register */
 226:Drivers/STM32G0xx_HAL_Driver/Src/stm32g0xx_hal_uart_ex.c ****   SET_BIT(huart->Instance->CR3, USART_CR3_DEM);
 227:Drivers/STM32G0xx_HAL_Driver/Src/stm32g0xx_hal_uart_ex.c **** 
 228:Drivers/STM32G0xx_HAL_Driver/Src/stm32g0xx_hal_uart_ex.c ****   /* Set the Driver Enable polarity */
 229:Drivers/STM32G0xx_HAL_Driver/Src/stm32g0xx_hal_uart_ex.c ****   MODIFY_REG(huart->Instance->CR3, USART_CR3_DEP, Polarity);
 230:Drivers/STM32G0xx_HAL_Driver/Src/stm32g0xx_hal_uart_ex.c **** 
 231:Drivers/STM32G0xx_HAL_Driver/Src/stm32g0xx_hal_uart_ex.c ****   /* Set the Driver Enable assertion and deassertion times */
 232:Drivers/STM32G0xx_HAL_Driver/Src/stm32g0xx_hal_uart_ex.c ****   temp = (AssertionTime << UART_CR1_DEAT_ADDRESS_LSB_POS);
 233:Drivers/STM32G0xx_HAL_Driver/Src/stm32g0xx_hal_uart_ex.c ****   temp |= (DeassertionTime << UART_CR1_DEDT_ADDRESS_LSB_POS);
 234:Drivers/STM32G0xx_HAL_Driver/Src/stm32g0xx_hal_uart_ex.c ****   MODIFY_REG(huart->Instance->CR1, (USART_CR1_DEDT | USART_CR1_DEAT), temp);
 235:Drivers/STM32G0xx_HAL_Driver/Src/stm32g0xx_hal_uart_ex.c **** 
 236:Drivers/STM32G0xx_HAL_Driver/Src/stm32g0xx_hal_uart_ex.c ****   /* Enable the Peripheral */
 237:Drivers/STM32G0xx_HAL_Driver/Src/stm32g0xx_hal_uart_ex.c ****   __HAL_UART_ENABLE(huart);
 238:Drivers/STM32G0xx_HAL_Driver/Src/stm32g0xx_hal_uart_ex.c **** 
 239:Drivers/STM32G0xx_HAL_Driver/Src/stm32g0xx_hal_uart_ex.c ****   /* TEACK and/or REACK to check before moving huart->gState and huart->RxState to Ready */
 240:Drivers/STM32G0xx_HAL_Driver/Src/stm32g0xx_hal_uart_ex.c ****   return (UART_CheckIdleState(huart));
 241:Drivers/STM32G0xx_HAL_Driver/Src/stm32g0xx_hal_uart_ex.c **** }
 242:Drivers/STM32G0xx_HAL_Driver/Src/stm32g0xx_hal_uart_ex.c **** 
 243:Drivers/STM32G0xx_HAL_Driver/Src/stm32g0xx_hal_uart_ex.c **** /**
 244:Drivers/STM32G0xx_HAL_Driver/Src/stm32g0xx_hal_uart_ex.c ****   * @}
 245:Drivers/STM32G0xx_HAL_Driver/Src/stm32g0xx_hal_uart_ex.c ****   */
 246:Drivers/STM32G0xx_HAL_Driver/Src/stm32g0xx_hal_uart_ex.c **** 
 247:Drivers/STM32G0xx_HAL_Driver/Src/stm32g0xx_hal_uart_ex.c **** /** @defgroup UARTEx_Exported_Functions_Group2 IO operation functions
 248:Drivers/STM32G0xx_HAL_Driver/Src/stm32g0xx_hal_uart_ex.c ****   *  @brief Extended functions
 249:Drivers/STM32G0xx_HAL_Driver/Src/stm32g0xx_hal_uart_ex.c ****   *
 250:Drivers/STM32G0xx_HAL_Driver/Src/stm32g0xx_hal_uart_ex.c **** @verbatim
 251:Drivers/STM32G0xx_HAL_Driver/Src/stm32g0xx_hal_uart_ex.c ****  ===============================================================================
 252:Drivers/STM32G0xx_HAL_Driver/Src/stm32g0xx_hal_uart_ex.c ****                       ##### IO operation functions #####
 253:Drivers/STM32G0xx_HAL_Driver/Src/stm32g0xx_hal_uart_ex.c ****  ===============================================================================
 254:Drivers/STM32G0xx_HAL_Driver/Src/stm32g0xx_hal_uart_ex.c ****     This subsection provides a set of Wakeup and FIFO mode related callback functions.
 255:Drivers/STM32G0xx_HAL_Driver/Src/stm32g0xx_hal_uart_ex.c **** 
 256:Drivers/STM32G0xx_HAL_Driver/Src/stm32g0xx_hal_uart_ex.c ****     (#) Wakeup from Stop mode Callback:
 257:Drivers/STM32G0xx_HAL_Driver/Src/stm32g0xx_hal_uart_ex.c ****         (+) HAL_UARTEx_WakeupCallback()
 258:Drivers/STM32G0xx_HAL_Driver/Src/stm32g0xx_hal_uart_ex.c **** 
 259:Drivers/STM32G0xx_HAL_Driver/Src/stm32g0xx_hal_uart_ex.c ****     (#) TX/RX Fifos Callbacks:
 260:Drivers/STM32G0xx_HAL_Driver/Src/stm32g0xx_hal_uart_ex.c ****         (+) HAL_UARTEx_RxFifoFullCallback()
 261:Drivers/STM32G0xx_HAL_Driver/Src/stm32g0xx_hal_uart_ex.c ****         (+) HAL_UARTEx_TxFifoEmptyCallback()
 262:Drivers/STM32G0xx_HAL_Driver/Src/stm32g0xx_hal_uart_ex.c **** 
ARM GAS  /tmp/ccpnpwSS.s 			page 6


 263:Drivers/STM32G0xx_HAL_Driver/Src/stm32g0xx_hal_uart_ex.c **** @endverbatim
 264:Drivers/STM32G0xx_HAL_Driver/Src/stm32g0xx_hal_uart_ex.c ****   * @{
 265:Drivers/STM32G0xx_HAL_Driver/Src/stm32g0xx_hal_uart_ex.c ****   */
 266:Drivers/STM32G0xx_HAL_Driver/Src/stm32g0xx_hal_uart_ex.c **** 
 267:Drivers/STM32G0xx_HAL_Driver/Src/stm32g0xx_hal_uart_ex.c **** /**
 268:Drivers/STM32G0xx_HAL_Driver/Src/stm32g0xx_hal_uart_ex.c ****   * @brief UART wakeup from Stop mode callback.
 269:Drivers/STM32G0xx_HAL_Driver/Src/stm32g0xx_hal_uart_ex.c ****   * @param huart UART handle.
 270:Drivers/STM32G0xx_HAL_Driver/Src/stm32g0xx_hal_uart_ex.c ****   * @retval None
 271:Drivers/STM32G0xx_HAL_Driver/Src/stm32g0xx_hal_uart_ex.c ****   */
 272:Drivers/STM32G0xx_HAL_Driver/Src/stm32g0xx_hal_uart_ex.c **** __weak void HAL_UARTEx_WakeupCallback(UART_HandleTypeDef *huart)
 273:Drivers/STM32G0xx_HAL_Driver/Src/stm32g0xx_hal_uart_ex.c **** {
 274:Drivers/STM32G0xx_HAL_Driver/Src/stm32g0xx_hal_uart_ex.c ****   /* Prevent unused argument(s) compilation warning */
 275:Drivers/STM32G0xx_HAL_Driver/Src/stm32g0xx_hal_uart_ex.c ****   UNUSED(huart);
 276:Drivers/STM32G0xx_HAL_Driver/Src/stm32g0xx_hal_uart_ex.c **** 
 277:Drivers/STM32G0xx_HAL_Driver/Src/stm32g0xx_hal_uart_ex.c ****   /* NOTE : This function should not be modified, when the callback is needed,
 278:Drivers/STM32G0xx_HAL_Driver/Src/stm32g0xx_hal_uart_ex.c ****             the HAL_UARTEx_WakeupCallback can be implemented in the user file.
 279:Drivers/STM32G0xx_HAL_Driver/Src/stm32g0xx_hal_uart_ex.c ****    */
 280:Drivers/STM32G0xx_HAL_Driver/Src/stm32g0xx_hal_uart_ex.c **** }
 281:Drivers/STM32G0xx_HAL_Driver/Src/stm32g0xx_hal_uart_ex.c **** 
 282:Drivers/STM32G0xx_HAL_Driver/Src/stm32g0xx_hal_uart_ex.c **** /**
 283:Drivers/STM32G0xx_HAL_Driver/Src/stm32g0xx_hal_uart_ex.c ****   * @brief  UART RX Fifo full callback.
 284:Drivers/STM32G0xx_HAL_Driver/Src/stm32g0xx_hal_uart_ex.c ****   * @param  huart UART handle.
 285:Drivers/STM32G0xx_HAL_Driver/Src/stm32g0xx_hal_uart_ex.c ****   * @retval None
 286:Drivers/STM32G0xx_HAL_Driver/Src/stm32g0xx_hal_uart_ex.c ****   */
 287:Drivers/STM32G0xx_HAL_Driver/Src/stm32g0xx_hal_uart_ex.c **** __weak void HAL_UARTEx_RxFifoFullCallback(UART_HandleTypeDef *huart)
 288:Drivers/STM32G0xx_HAL_Driver/Src/stm32g0xx_hal_uart_ex.c **** {
 289:Drivers/STM32G0xx_HAL_Driver/Src/stm32g0xx_hal_uart_ex.c ****   /* Prevent unused argument(s) compilation warning */
 290:Drivers/STM32G0xx_HAL_Driver/Src/stm32g0xx_hal_uart_ex.c ****   UNUSED(huart);
 291:Drivers/STM32G0xx_HAL_Driver/Src/stm32g0xx_hal_uart_ex.c **** 
 292:Drivers/STM32G0xx_HAL_Driver/Src/stm32g0xx_hal_uart_ex.c ****   /* NOTE : This function should not be modified, when the callback is needed,
 293:Drivers/STM32G0xx_HAL_Driver/Src/stm32g0xx_hal_uart_ex.c ****             the HAL_UARTEx_RxFifoFullCallback can be implemented in the user file.
 294:Drivers/STM32G0xx_HAL_Driver/Src/stm32g0xx_hal_uart_ex.c ****    */
 295:Drivers/STM32G0xx_HAL_Driver/Src/stm32g0xx_hal_uart_ex.c **** }
 296:Drivers/STM32G0xx_HAL_Driver/Src/stm32g0xx_hal_uart_ex.c **** 
 297:Drivers/STM32G0xx_HAL_Driver/Src/stm32g0xx_hal_uart_ex.c **** /**
 298:Drivers/STM32G0xx_HAL_Driver/Src/stm32g0xx_hal_uart_ex.c ****   * @brief  UART TX Fifo empty callback.
 299:Drivers/STM32G0xx_HAL_Driver/Src/stm32g0xx_hal_uart_ex.c ****   * @param  huart UART handle.
 300:Drivers/STM32G0xx_HAL_Driver/Src/stm32g0xx_hal_uart_ex.c ****   * @retval None
 301:Drivers/STM32G0xx_HAL_Driver/Src/stm32g0xx_hal_uart_ex.c ****   */
 302:Drivers/STM32G0xx_HAL_Driver/Src/stm32g0xx_hal_uart_ex.c **** __weak void HAL_UARTEx_TxFifoEmptyCallback(UART_HandleTypeDef *huart)
 303:Drivers/STM32G0xx_HAL_Driver/Src/stm32g0xx_hal_uart_ex.c **** {
 304:Drivers/STM32G0xx_HAL_Driver/Src/stm32g0xx_hal_uart_ex.c ****   /* Prevent unused argument(s) compilation warning */
 305:Drivers/STM32G0xx_HAL_Driver/Src/stm32g0xx_hal_uart_ex.c ****   UNUSED(huart);
 306:Drivers/STM32G0xx_HAL_Driver/Src/stm32g0xx_hal_uart_ex.c **** 
 307:Drivers/STM32G0xx_HAL_Driver/Src/stm32g0xx_hal_uart_ex.c ****   /* NOTE : This function should not be modified, when the callback is needed,
 308:Drivers/STM32G0xx_HAL_Driver/Src/stm32g0xx_hal_uart_ex.c ****             the HAL_UARTEx_TxFifoEmptyCallback can be implemented in the user file.
 309:Drivers/STM32G0xx_HAL_Driver/Src/stm32g0xx_hal_uart_ex.c ****    */
 310:Drivers/STM32G0xx_HAL_Driver/Src/stm32g0xx_hal_uart_ex.c **** }
 311:Drivers/STM32G0xx_HAL_Driver/Src/stm32g0xx_hal_uart_ex.c **** 
 312:Drivers/STM32G0xx_HAL_Driver/Src/stm32g0xx_hal_uart_ex.c **** /**
 313:Drivers/STM32G0xx_HAL_Driver/Src/stm32g0xx_hal_uart_ex.c ****   * @}
 314:Drivers/STM32G0xx_HAL_Driver/Src/stm32g0xx_hal_uart_ex.c ****   */
 315:Drivers/STM32G0xx_HAL_Driver/Src/stm32g0xx_hal_uart_ex.c **** 
 316:Drivers/STM32G0xx_HAL_Driver/Src/stm32g0xx_hal_uart_ex.c **** /** @defgroup UARTEx_Exported_Functions_Group3 Peripheral Control functions
 317:Drivers/STM32G0xx_HAL_Driver/Src/stm32g0xx_hal_uart_ex.c ****   * @brief    Extended Peripheral Control functions
 318:Drivers/STM32G0xx_HAL_Driver/Src/stm32g0xx_hal_uart_ex.c ****   *
 319:Drivers/STM32G0xx_HAL_Driver/Src/stm32g0xx_hal_uart_ex.c **** @verbatim
ARM GAS  /tmp/ccpnpwSS.s 			page 7


 320:Drivers/STM32G0xx_HAL_Driver/Src/stm32g0xx_hal_uart_ex.c ****  ===============================================================================
 321:Drivers/STM32G0xx_HAL_Driver/Src/stm32g0xx_hal_uart_ex.c ****                       ##### Peripheral Control functions #####
 322:Drivers/STM32G0xx_HAL_Driver/Src/stm32g0xx_hal_uart_ex.c ****  ===============================================================================
 323:Drivers/STM32G0xx_HAL_Driver/Src/stm32g0xx_hal_uart_ex.c ****     [..] This section provides the following functions:
 324:Drivers/STM32G0xx_HAL_Driver/Src/stm32g0xx_hal_uart_ex.c ****      (+) HAL_MultiProcessorEx_AddressLength_Set() API optionally sets the UART node address
 325:Drivers/STM32G0xx_HAL_Driver/Src/stm32g0xx_hal_uart_ex.c ****          detection length to more than 4 bits for multiprocessor address mark wake up.
 326:Drivers/STM32G0xx_HAL_Driver/Src/stm32g0xx_hal_uart_ex.c ****      (+) HAL_UARTEx_StopModeWakeUpSourceConfig() API defines the wake-up from stop mode
 327:Drivers/STM32G0xx_HAL_Driver/Src/stm32g0xx_hal_uart_ex.c ****          trigger: address match, Start Bit detection or RXNE bit status.
 328:Drivers/STM32G0xx_HAL_Driver/Src/stm32g0xx_hal_uart_ex.c ****      (+) HAL_UARTEx_EnableStopMode() API enables the UART to wake up the MCU from stop mode
 329:Drivers/STM32G0xx_HAL_Driver/Src/stm32g0xx_hal_uart_ex.c ****      (+) HAL_UARTEx_DisableStopMode() API disables the above functionality
 330:Drivers/STM32G0xx_HAL_Driver/Src/stm32g0xx_hal_uart_ex.c ****      (+) HAL_UARTEx_EnableFifoMode() API enables the FIFO mode
 331:Drivers/STM32G0xx_HAL_Driver/Src/stm32g0xx_hal_uart_ex.c ****      (+) HAL_UARTEx_DisableFifoMode() API disables the FIFO mode
 332:Drivers/STM32G0xx_HAL_Driver/Src/stm32g0xx_hal_uart_ex.c ****      (+) HAL_UARTEx_SetTxFifoThreshold() API sets the TX FIFO threshold
 333:Drivers/STM32G0xx_HAL_Driver/Src/stm32g0xx_hal_uart_ex.c ****      (+) HAL_UARTEx_SetRxFifoThreshold() API sets the RX FIFO threshold
 334:Drivers/STM32G0xx_HAL_Driver/Src/stm32g0xx_hal_uart_ex.c **** 
 335:Drivers/STM32G0xx_HAL_Driver/Src/stm32g0xx_hal_uart_ex.c **** @endverbatim
 336:Drivers/STM32G0xx_HAL_Driver/Src/stm32g0xx_hal_uart_ex.c ****   * @{
 337:Drivers/STM32G0xx_HAL_Driver/Src/stm32g0xx_hal_uart_ex.c ****   */
 338:Drivers/STM32G0xx_HAL_Driver/Src/stm32g0xx_hal_uart_ex.c **** 
 339:Drivers/STM32G0xx_HAL_Driver/Src/stm32g0xx_hal_uart_ex.c **** 
 340:Drivers/STM32G0xx_HAL_Driver/Src/stm32g0xx_hal_uart_ex.c **** 
 341:Drivers/STM32G0xx_HAL_Driver/Src/stm32g0xx_hal_uart_ex.c **** 
 342:Drivers/STM32G0xx_HAL_Driver/Src/stm32g0xx_hal_uart_ex.c **** /**
 343:Drivers/STM32G0xx_HAL_Driver/Src/stm32g0xx_hal_uart_ex.c ****   * @brief By default in multiprocessor mode, when the wake up method is set
 344:Drivers/STM32G0xx_HAL_Driver/Src/stm32g0xx_hal_uart_ex.c ****   *        to address mark, the UART handles only 4-bit long addresses detection;
 345:Drivers/STM32G0xx_HAL_Driver/Src/stm32g0xx_hal_uart_ex.c ****   *        this API allows to enable longer addresses detection (6-, 7- or 8-bit
 346:Drivers/STM32G0xx_HAL_Driver/Src/stm32g0xx_hal_uart_ex.c ****   *        long).
 347:Drivers/STM32G0xx_HAL_Driver/Src/stm32g0xx_hal_uart_ex.c ****   * @note  Addresses detection lengths are: 6-bit address detection in 7-bit data mode,
 348:Drivers/STM32G0xx_HAL_Driver/Src/stm32g0xx_hal_uart_ex.c ****   *        7-bit address detection in 8-bit data mode, 8-bit address detection in 9-bit data mode.
 349:Drivers/STM32G0xx_HAL_Driver/Src/stm32g0xx_hal_uart_ex.c ****   * @param huart         UART handle.
 350:Drivers/STM32G0xx_HAL_Driver/Src/stm32g0xx_hal_uart_ex.c ****   * @param AddressLength This parameter can be one of the following values:
 351:Drivers/STM32G0xx_HAL_Driver/Src/stm32g0xx_hal_uart_ex.c ****   *          @arg @ref UART_ADDRESS_DETECT_4B 4-bit long address
 352:Drivers/STM32G0xx_HAL_Driver/Src/stm32g0xx_hal_uart_ex.c ****   *          @arg @ref UART_ADDRESS_DETECT_7B 6-, 7- or 8-bit long address
 353:Drivers/STM32G0xx_HAL_Driver/Src/stm32g0xx_hal_uart_ex.c ****   * @retval HAL status
 354:Drivers/STM32G0xx_HAL_Driver/Src/stm32g0xx_hal_uart_ex.c ****   */
 355:Drivers/STM32G0xx_HAL_Driver/Src/stm32g0xx_hal_uart_ex.c **** HAL_StatusTypeDef HAL_MultiProcessorEx_AddressLength_Set(UART_HandleTypeDef *huart, uint32_t Addres
 356:Drivers/STM32G0xx_HAL_Driver/Src/stm32g0xx_hal_uart_ex.c **** {
 357:Drivers/STM32G0xx_HAL_Driver/Src/stm32g0xx_hal_uart_ex.c ****   /* Check the UART handle allocation */
 358:Drivers/STM32G0xx_HAL_Driver/Src/stm32g0xx_hal_uart_ex.c ****   if (huart == NULL)
 359:Drivers/STM32G0xx_HAL_Driver/Src/stm32g0xx_hal_uart_ex.c ****   {
 360:Drivers/STM32G0xx_HAL_Driver/Src/stm32g0xx_hal_uart_ex.c ****     return HAL_ERROR;
 361:Drivers/STM32G0xx_HAL_Driver/Src/stm32g0xx_hal_uart_ex.c ****   }
 362:Drivers/STM32G0xx_HAL_Driver/Src/stm32g0xx_hal_uart_ex.c **** 
 363:Drivers/STM32G0xx_HAL_Driver/Src/stm32g0xx_hal_uart_ex.c ****   /* Check the address length parameter */
 364:Drivers/STM32G0xx_HAL_Driver/Src/stm32g0xx_hal_uart_ex.c ****   assert_param(IS_UART_ADDRESSLENGTH_DETECT(AddressLength));
 365:Drivers/STM32G0xx_HAL_Driver/Src/stm32g0xx_hal_uart_ex.c **** 
 366:Drivers/STM32G0xx_HAL_Driver/Src/stm32g0xx_hal_uart_ex.c ****   huart->gState = HAL_UART_STATE_BUSY;
 367:Drivers/STM32G0xx_HAL_Driver/Src/stm32g0xx_hal_uart_ex.c **** 
 368:Drivers/STM32G0xx_HAL_Driver/Src/stm32g0xx_hal_uart_ex.c ****   /* Disable the Peripheral */
 369:Drivers/STM32G0xx_HAL_Driver/Src/stm32g0xx_hal_uart_ex.c ****   __HAL_UART_DISABLE(huart);
 370:Drivers/STM32G0xx_HAL_Driver/Src/stm32g0xx_hal_uart_ex.c **** 
 371:Drivers/STM32G0xx_HAL_Driver/Src/stm32g0xx_hal_uart_ex.c ****   /* Set the address length */
 372:Drivers/STM32G0xx_HAL_Driver/Src/stm32g0xx_hal_uart_ex.c ****   MODIFY_REG(huart->Instance->CR2, USART_CR2_ADDM7, AddressLength);
 373:Drivers/STM32G0xx_HAL_Driver/Src/stm32g0xx_hal_uart_ex.c **** 
 374:Drivers/STM32G0xx_HAL_Driver/Src/stm32g0xx_hal_uart_ex.c ****   /* Enable the Peripheral */
 375:Drivers/STM32G0xx_HAL_Driver/Src/stm32g0xx_hal_uart_ex.c ****   __HAL_UART_ENABLE(huart);
 376:Drivers/STM32G0xx_HAL_Driver/Src/stm32g0xx_hal_uart_ex.c **** 
ARM GAS  /tmp/ccpnpwSS.s 			page 8


 377:Drivers/STM32G0xx_HAL_Driver/Src/stm32g0xx_hal_uart_ex.c ****   /* TEACK and/or REACK to check before moving huart->gState to Ready */
 378:Drivers/STM32G0xx_HAL_Driver/Src/stm32g0xx_hal_uart_ex.c ****   return (UART_CheckIdleState(huart));
 379:Drivers/STM32G0xx_HAL_Driver/Src/stm32g0xx_hal_uart_ex.c **** }
 380:Drivers/STM32G0xx_HAL_Driver/Src/stm32g0xx_hal_uart_ex.c **** 
 381:Drivers/STM32G0xx_HAL_Driver/Src/stm32g0xx_hal_uart_ex.c **** /**
 382:Drivers/STM32G0xx_HAL_Driver/Src/stm32g0xx_hal_uart_ex.c ****   * @brief Set Wakeup from Stop mode interrupt flag selection.
 383:Drivers/STM32G0xx_HAL_Driver/Src/stm32g0xx_hal_uart_ex.c ****   * @note It is the application responsibility to enable the interrupt used as
 384:Drivers/STM32G0xx_HAL_Driver/Src/stm32g0xx_hal_uart_ex.c ****   *       usart_wkup interrupt source before entering low-power mode.
 385:Drivers/STM32G0xx_HAL_Driver/Src/stm32g0xx_hal_uart_ex.c ****   * @param huart           UART handle.
 386:Drivers/STM32G0xx_HAL_Driver/Src/stm32g0xx_hal_uart_ex.c ****   * @param WakeUpSelection Address match, Start Bit detection or RXNE/RXFNE bit status.
 387:Drivers/STM32G0xx_HAL_Driver/Src/stm32g0xx_hal_uart_ex.c ****   *          This parameter can be one of the following values:
 388:Drivers/STM32G0xx_HAL_Driver/Src/stm32g0xx_hal_uart_ex.c ****   *          @arg @ref UART_WAKEUP_ON_ADDRESS
 389:Drivers/STM32G0xx_HAL_Driver/Src/stm32g0xx_hal_uart_ex.c ****   *          @arg @ref UART_WAKEUP_ON_STARTBIT
 390:Drivers/STM32G0xx_HAL_Driver/Src/stm32g0xx_hal_uart_ex.c ****   *          @arg @ref UART_WAKEUP_ON_READDATA_NONEMPTY
 391:Drivers/STM32G0xx_HAL_Driver/Src/stm32g0xx_hal_uart_ex.c ****   * @retval HAL status
 392:Drivers/STM32G0xx_HAL_Driver/Src/stm32g0xx_hal_uart_ex.c ****   */
 393:Drivers/STM32G0xx_HAL_Driver/Src/stm32g0xx_hal_uart_ex.c **** HAL_StatusTypeDef HAL_UARTEx_StopModeWakeUpSourceConfig(UART_HandleTypeDef *huart, UART_WakeUpTypeD
 394:Drivers/STM32G0xx_HAL_Driver/Src/stm32g0xx_hal_uart_ex.c **** {
 395:Drivers/STM32G0xx_HAL_Driver/Src/stm32g0xx_hal_uart_ex.c ****   HAL_StatusTypeDef status = HAL_OK;
 396:Drivers/STM32G0xx_HAL_Driver/Src/stm32g0xx_hal_uart_ex.c ****   uint32_t tickstart;
 397:Drivers/STM32G0xx_HAL_Driver/Src/stm32g0xx_hal_uart_ex.c **** 
 398:Drivers/STM32G0xx_HAL_Driver/Src/stm32g0xx_hal_uart_ex.c ****   /* check the wake-up from stop mode UART instance */
 399:Drivers/STM32G0xx_HAL_Driver/Src/stm32g0xx_hal_uart_ex.c ****   assert_param(IS_UART_WAKEUP_FROMSTOP_INSTANCE(huart->Instance));
 400:Drivers/STM32G0xx_HAL_Driver/Src/stm32g0xx_hal_uart_ex.c ****   /* check the wake-up selection parameter */
 401:Drivers/STM32G0xx_HAL_Driver/Src/stm32g0xx_hal_uart_ex.c ****   assert_param(IS_UART_WAKEUP_SELECTION(WakeUpSelection.WakeUpEvent));
 402:Drivers/STM32G0xx_HAL_Driver/Src/stm32g0xx_hal_uart_ex.c **** 
 403:Drivers/STM32G0xx_HAL_Driver/Src/stm32g0xx_hal_uart_ex.c ****   /* Process Locked */
 404:Drivers/STM32G0xx_HAL_Driver/Src/stm32g0xx_hal_uart_ex.c ****   __HAL_LOCK(huart);
 405:Drivers/STM32G0xx_HAL_Driver/Src/stm32g0xx_hal_uart_ex.c **** 
 406:Drivers/STM32G0xx_HAL_Driver/Src/stm32g0xx_hal_uart_ex.c ****   huart->gState = HAL_UART_STATE_BUSY;
 407:Drivers/STM32G0xx_HAL_Driver/Src/stm32g0xx_hal_uart_ex.c **** 
 408:Drivers/STM32G0xx_HAL_Driver/Src/stm32g0xx_hal_uart_ex.c ****   /* Disable the Peripheral */
 409:Drivers/STM32G0xx_HAL_Driver/Src/stm32g0xx_hal_uart_ex.c ****   __HAL_UART_DISABLE(huart);
 410:Drivers/STM32G0xx_HAL_Driver/Src/stm32g0xx_hal_uart_ex.c **** 
 411:Drivers/STM32G0xx_HAL_Driver/Src/stm32g0xx_hal_uart_ex.c ****   /* Set the wake-up selection scheme */
 412:Drivers/STM32G0xx_HAL_Driver/Src/stm32g0xx_hal_uart_ex.c ****   MODIFY_REG(huart->Instance->CR3, USART_CR3_WUS, WakeUpSelection.WakeUpEvent);
 413:Drivers/STM32G0xx_HAL_Driver/Src/stm32g0xx_hal_uart_ex.c **** 
 414:Drivers/STM32G0xx_HAL_Driver/Src/stm32g0xx_hal_uart_ex.c ****   if (WakeUpSelection.WakeUpEvent == UART_WAKEUP_ON_ADDRESS)
 415:Drivers/STM32G0xx_HAL_Driver/Src/stm32g0xx_hal_uart_ex.c ****   {
 416:Drivers/STM32G0xx_HAL_Driver/Src/stm32g0xx_hal_uart_ex.c ****     UARTEx_Wakeup_AddressConfig(huart, WakeUpSelection);
 417:Drivers/STM32G0xx_HAL_Driver/Src/stm32g0xx_hal_uart_ex.c ****   }
 418:Drivers/STM32G0xx_HAL_Driver/Src/stm32g0xx_hal_uart_ex.c **** 
 419:Drivers/STM32G0xx_HAL_Driver/Src/stm32g0xx_hal_uart_ex.c ****   /* Enable the Peripheral */
 420:Drivers/STM32G0xx_HAL_Driver/Src/stm32g0xx_hal_uart_ex.c ****   __HAL_UART_ENABLE(huart);
 421:Drivers/STM32G0xx_HAL_Driver/Src/stm32g0xx_hal_uart_ex.c **** 
 422:Drivers/STM32G0xx_HAL_Driver/Src/stm32g0xx_hal_uart_ex.c ****   /* Init tickstart for timeout managment*/
 423:Drivers/STM32G0xx_HAL_Driver/Src/stm32g0xx_hal_uart_ex.c ****   tickstart = HAL_GetTick();
 424:Drivers/STM32G0xx_HAL_Driver/Src/stm32g0xx_hal_uart_ex.c **** 
 425:Drivers/STM32G0xx_HAL_Driver/Src/stm32g0xx_hal_uart_ex.c ****   /* Wait until REACK flag is set */
 426:Drivers/STM32G0xx_HAL_Driver/Src/stm32g0xx_hal_uart_ex.c ****   if (UART_WaitOnFlagUntilTimeout(huart, USART_ISR_REACK, RESET, tickstart, HAL_UART_TIMEOUT_VALUE)
 427:Drivers/STM32G0xx_HAL_Driver/Src/stm32g0xx_hal_uart_ex.c ****   {
 428:Drivers/STM32G0xx_HAL_Driver/Src/stm32g0xx_hal_uart_ex.c ****     status = HAL_TIMEOUT;
 429:Drivers/STM32G0xx_HAL_Driver/Src/stm32g0xx_hal_uart_ex.c ****   }
 430:Drivers/STM32G0xx_HAL_Driver/Src/stm32g0xx_hal_uart_ex.c ****   else
 431:Drivers/STM32G0xx_HAL_Driver/Src/stm32g0xx_hal_uart_ex.c ****   {
 432:Drivers/STM32G0xx_HAL_Driver/Src/stm32g0xx_hal_uart_ex.c ****     /* Initialize the UART State */
 433:Drivers/STM32G0xx_HAL_Driver/Src/stm32g0xx_hal_uart_ex.c ****     huart->gState = HAL_UART_STATE_READY;
ARM GAS  /tmp/ccpnpwSS.s 			page 9


 434:Drivers/STM32G0xx_HAL_Driver/Src/stm32g0xx_hal_uart_ex.c ****   }
 435:Drivers/STM32G0xx_HAL_Driver/Src/stm32g0xx_hal_uart_ex.c **** 
 436:Drivers/STM32G0xx_HAL_Driver/Src/stm32g0xx_hal_uart_ex.c ****   /* Process Unlocked */
 437:Drivers/STM32G0xx_HAL_Driver/Src/stm32g0xx_hal_uart_ex.c ****   __HAL_UNLOCK(huart);
 438:Drivers/STM32G0xx_HAL_Driver/Src/stm32g0xx_hal_uart_ex.c **** 
 439:Drivers/STM32G0xx_HAL_Driver/Src/stm32g0xx_hal_uart_ex.c ****   return status;
 440:Drivers/STM32G0xx_HAL_Driver/Src/stm32g0xx_hal_uart_ex.c **** }
 441:Drivers/STM32G0xx_HAL_Driver/Src/stm32g0xx_hal_uart_ex.c **** 
 442:Drivers/STM32G0xx_HAL_Driver/Src/stm32g0xx_hal_uart_ex.c **** /**
 443:Drivers/STM32G0xx_HAL_Driver/Src/stm32g0xx_hal_uart_ex.c ****   * @brief Enable UART Stop Mode.
 444:Drivers/STM32G0xx_HAL_Driver/Src/stm32g0xx_hal_uart_ex.c ****   * @note The UART is able to wake up the MCU from Stop 1 mode as long as UART clock is HSI or LSE.
 445:Drivers/STM32G0xx_HAL_Driver/Src/stm32g0xx_hal_uart_ex.c ****   * @param huart UART handle.
 446:Drivers/STM32G0xx_HAL_Driver/Src/stm32g0xx_hal_uart_ex.c ****   * @retval HAL status
 447:Drivers/STM32G0xx_HAL_Driver/Src/stm32g0xx_hal_uart_ex.c ****   */
 448:Drivers/STM32G0xx_HAL_Driver/Src/stm32g0xx_hal_uart_ex.c **** HAL_StatusTypeDef HAL_UARTEx_EnableStopMode(UART_HandleTypeDef *huart)
 449:Drivers/STM32G0xx_HAL_Driver/Src/stm32g0xx_hal_uart_ex.c **** {
 450:Drivers/STM32G0xx_HAL_Driver/Src/stm32g0xx_hal_uart_ex.c ****   /* Process Locked */
 451:Drivers/STM32G0xx_HAL_Driver/Src/stm32g0xx_hal_uart_ex.c ****   __HAL_LOCK(huart);
 452:Drivers/STM32G0xx_HAL_Driver/Src/stm32g0xx_hal_uart_ex.c **** 
 453:Drivers/STM32G0xx_HAL_Driver/Src/stm32g0xx_hal_uart_ex.c ****   /* Set UESM bit */
 454:Drivers/STM32G0xx_HAL_Driver/Src/stm32g0xx_hal_uart_ex.c ****   SET_BIT(huart->Instance->CR1, USART_CR1_UESM);
 455:Drivers/STM32G0xx_HAL_Driver/Src/stm32g0xx_hal_uart_ex.c **** 
 456:Drivers/STM32G0xx_HAL_Driver/Src/stm32g0xx_hal_uart_ex.c ****   /* Process Unlocked */
 457:Drivers/STM32G0xx_HAL_Driver/Src/stm32g0xx_hal_uart_ex.c ****   __HAL_UNLOCK(huart);
 458:Drivers/STM32G0xx_HAL_Driver/Src/stm32g0xx_hal_uart_ex.c **** 
 459:Drivers/STM32G0xx_HAL_Driver/Src/stm32g0xx_hal_uart_ex.c ****   return HAL_OK;
 460:Drivers/STM32G0xx_HAL_Driver/Src/stm32g0xx_hal_uart_ex.c **** }
 461:Drivers/STM32G0xx_HAL_Driver/Src/stm32g0xx_hal_uart_ex.c **** 
 462:Drivers/STM32G0xx_HAL_Driver/Src/stm32g0xx_hal_uart_ex.c **** /**
 463:Drivers/STM32G0xx_HAL_Driver/Src/stm32g0xx_hal_uart_ex.c ****   * @brief Disable UART Stop Mode.
 464:Drivers/STM32G0xx_HAL_Driver/Src/stm32g0xx_hal_uart_ex.c ****   * @param huart UART handle.
 465:Drivers/STM32G0xx_HAL_Driver/Src/stm32g0xx_hal_uart_ex.c ****   * @retval HAL status
 466:Drivers/STM32G0xx_HAL_Driver/Src/stm32g0xx_hal_uart_ex.c ****   */
 467:Drivers/STM32G0xx_HAL_Driver/Src/stm32g0xx_hal_uart_ex.c **** HAL_StatusTypeDef HAL_UARTEx_DisableStopMode(UART_HandleTypeDef *huart)
 468:Drivers/STM32G0xx_HAL_Driver/Src/stm32g0xx_hal_uart_ex.c **** {
 469:Drivers/STM32G0xx_HAL_Driver/Src/stm32g0xx_hal_uart_ex.c ****   /* Process Locked */
 470:Drivers/STM32G0xx_HAL_Driver/Src/stm32g0xx_hal_uart_ex.c ****   __HAL_LOCK(huart);
 471:Drivers/STM32G0xx_HAL_Driver/Src/stm32g0xx_hal_uart_ex.c **** 
 472:Drivers/STM32G0xx_HAL_Driver/Src/stm32g0xx_hal_uart_ex.c ****   /* Clear UESM bit */
 473:Drivers/STM32G0xx_HAL_Driver/Src/stm32g0xx_hal_uart_ex.c ****   CLEAR_BIT(huart->Instance->CR1, USART_CR1_UESM);
 474:Drivers/STM32G0xx_HAL_Driver/Src/stm32g0xx_hal_uart_ex.c **** 
 475:Drivers/STM32G0xx_HAL_Driver/Src/stm32g0xx_hal_uart_ex.c ****   /* Process Unlocked */
 476:Drivers/STM32G0xx_HAL_Driver/Src/stm32g0xx_hal_uart_ex.c ****   __HAL_UNLOCK(huart);
 477:Drivers/STM32G0xx_HAL_Driver/Src/stm32g0xx_hal_uart_ex.c **** 
 478:Drivers/STM32G0xx_HAL_Driver/Src/stm32g0xx_hal_uart_ex.c ****   return HAL_OK;
 479:Drivers/STM32G0xx_HAL_Driver/Src/stm32g0xx_hal_uart_ex.c **** }
 480:Drivers/STM32G0xx_HAL_Driver/Src/stm32g0xx_hal_uart_ex.c **** 
 481:Drivers/STM32G0xx_HAL_Driver/Src/stm32g0xx_hal_uart_ex.c **** /**
 482:Drivers/STM32G0xx_HAL_Driver/Src/stm32g0xx_hal_uart_ex.c ****   * @brief  Enable the FIFO mode.
 483:Drivers/STM32G0xx_HAL_Driver/Src/stm32g0xx_hal_uart_ex.c ****   * @param huart      UART handle.
 484:Drivers/STM32G0xx_HAL_Driver/Src/stm32g0xx_hal_uart_ex.c ****   * @retval HAL status
 485:Drivers/STM32G0xx_HAL_Driver/Src/stm32g0xx_hal_uart_ex.c ****   */
 486:Drivers/STM32G0xx_HAL_Driver/Src/stm32g0xx_hal_uart_ex.c **** HAL_StatusTypeDef HAL_UARTEx_EnableFifoMode(UART_HandleTypeDef *huart)
 487:Drivers/STM32G0xx_HAL_Driver/Src/stm32g0xx_hal_uart_ex.c **** {
 488:Drivers/STM32G0xx_HAL_Driver/Src/stm32g0xx_hal_uart_ex.c ****   uint32_t tmpcr1;
 489:Drivers/STM32G0xx_HAL_Driver/Src/stm32g0xx_hal_uart_ex.c **** 
 490:Drivers/STM32G0xx_HAL_Driver/Src/stm32g0xx_hal_uart_ex.c ****   /* Check parameters */
ARM GAS  /tmp/ccpnpwSS.s 			page 10


 491:Drivers/STM32G0xx_HAL_Driver/Src/stm32g0xx_hal_uart_ex.c ****   assert_param(IS_UART_FIFO_INSTANCE(huart->Instance));
 492:Drivers/STM32G0xx_HAL_Driver/Src/stm32g0xx_hal_uart_ex.c **** 
 493:Drivers/STM32G0xx_HAL_Driver/Src/stm32g0xx_hal_uart_ex.c ****   /* Process Locked */
 494:Drivers/STM32G0xx_HAL_Driver/Src/stm32g0xx_hal_uart_ex.c ****   __HAL_LOCK(huart);
 495:Drivers/STM32G0xx_HAL_Driver/Src/stm32g0xx_hal_uart_ex.c **** 
 496:Drivers/STM32G0xx_HAL_Driver/Src/stm32g0xx_hal_uart_ex.c ****   huart->gState = HAL_UART_STATE_BUSY;
 497:Drivers/STM32G0xx_HAL_Driver/Src/stm32g0xx_hal_uart_ex.c **** 
 498:Drivers/STM32G0xx_HAL_Driver/Src/stm32g0xx_hal_uart_ex.c ****   /* Save actual UART configuration */
 499:Drivers/STM32G0xx_HAL_Driver/Src/stm32g0xx_hal_uart_ex.c ****   tmpcr1 = READ_REG(huart->Instance->CR1);
 500:Drivers/STM32G0xx_HAL_Driver/Src/stm32g0xx_hal_uart_ex.c **** 
 501:Drivers/STM32G0xx_HAL_Driver/Src/stm32g0xx_hal_uart_ex.c ****   /* Disable UART */
 502:Drivers/STM32G0xx_HAL_Driver/Src/stm32g0xx_hal_uart_ex.c ****   __HAL_UART_DISABLE(huart);
 503:Drivers/STM32G0xx_HAL_Driver/Src/stm32g0xx_hal_uart_ex.c **** 
 504:Drivers/STM32G0xx_HAL_Driver/Src/stm32g0xx_hal_uart_ex.c ****   /* Enable FIFO mode */
 505:Drivers/STM32G0xx_HAL_Driver/Src/stm32g0xx_hal_uart_ex.c ****   SET_BIT(tmpcr1, USART_CR1_FIFOEN);
 506:Drivers/STM32G0xx_HAL_Driver/Src/stm32g0xx_hal_uart_ex.c ****   huart->FifoMode = UART_FIFOMODE_ENABLE;
 507:Drivers/STM32G0xx_HAL_Driver/Src/stm32g0xx_hal_uart_ex.c **** 
 508:Drivers/STM32G0xx_HAL_Driver/Src/stm32g0xx_hal_uart_ex.c ****   /* Restore UART configuration */
 509:Drivers/STM32G0xx_HAL_Driver/Src/stm32g0xx_hal_uart_ex.c ****   WRITE_REG(huart->Instance->CR1, tmpcr1);
 510:Drivers/STM32G0xx_HAL_Driver/Src/stm32g0xx_hal_uart_ex.c **** 
 511:Drivers/STM32G0xx_HAL_Driver/Src/stm32g0xx_hal_uart_ex.c ****   /* Determine the number of data to process during RX/TX ISR execution */
 512:Drivers/STM32G0xx_HAL_Driver/Src/stm32g0xx_hal_uart_ex.c ****   UARTEx_SetNbDataToProcess(huart);
 513:Drivers/STM32G0xx_HAL_Driver/Src/stm32g0xx_hal_uart_ex.c **** 
 514:Drivers/STM32G0xx_HAL_Driver/Src/stm32g0xx_hal_uart_ex.c ****   huart->gState = HAL_UART_STATE_READY;
 515:Drivers/STM32G0xx_HAL_Driver/Src/stm32g0xx_hal_uart_ex.c **** 
 516:Drivers/STM32G0xx_HAL_Driver/Src/stm32g0xx_hal_uart_ex.c ****   /* Process Unlocked */
 517:Drivers/STM32G0xx_HAL_Driver/Src/stm32g0xx_hal_uart_ex.c ****   __HAL_UNLOCK(huart);
 518:Drivers/STM32G0xx_HAL_Driver/Src/stm32g0xx_hal_uart_ex.c **** 
 519:Drivers/STM32G0xx_HAL_Driver/Src/stm32g0xx_hal_uart_ex.c ****   return HAL_OK;
 520:Drivers/STM32G0xx_HAL_Driver/Src/stm32g0xx_hal_uart_ex.c **** }
 521:Drivers/STM32G0xx_HAL_Driver/Src/stm32g0xx_hal_uart_ex.c **** 
 522:Drivers/STM32G0xx_HAL_Driver/Src/stm32g0xx_hal_uart_ex.c **** /**
 523:Drivers/STM32G0xx_HAL_Driver/Src/stm32g0xx_hal_uart_ex.c ****   * @brief  Disable the FIFO mode.
 524:Drivers/STM32G0xx_HAL_Driver/Src/stm32g0xx_hal_uart_ex.c ****   * @param huart      UART handle.
 525:Drivers/STM32G0xx_HAL_Driver/Src/stm32g0xx_hal_uart_ex.c ****   * @retval HAL status
 526:Drivers/STM32G0xx_HAL_Driver/Src/stm32g0xx_hal_uart_ex.c ****   */
 527:Drivers/STM32G0xx_HAL_Driver/Src/stm32g0xx_hal_uart_ex.c **** HAL_StatusTypeDef HAL_UARTEx_DisableFifoMode(UART_HandleTypeDef *huart)
 528:Drivers/STM32G0xx_HAL_Driver/Src/stm32g0xx_hal_uart_ex.c **** {
 529:Drivers/STM32G0xx_HAL_Driver/Src/stm32g0xx_hal_uart_ex.c ****   uint32_t tmpcr1;
 530:Drivers/STM32G0xx_HAL_Driver/Src/stm32g0xx_hal_uart_ex.c **** 
 531:Drivers/STM32G0xx_HAL_Driver/Src/stm32g0xx_hal_uart_ex.c ****   /* Check parameters */
 532:Drivers/STM32G0xx_HAL_Driver/Src/stm32g0xx_hal_uart_ex.c ****   assert_param(IS_UART_FIFO_INSTANCE(huart->Instance));
 533:Drivers/STM32G0xx_HAL_Driver/Src/stm32g0xx_hal_uart_ex.c **** 
 534:Drivers/STM32G0xx_HAL_Driver/Src/stm32g0xx_hal_uart_ex.c ****   /* Process Locked */
 535:Drivers/STM32G0xx_HAL_Driver/Src/stm32g0xx_hal_uart_ex.c ****   __HAL_LOCK(huart);
 536:Drivers/STM32G0xx_HAL_Driver/Src/stm32g0xx_hal_uart_ex.c **** 
 537:Drivers/STM32G0xx_HAL_Driver/Src/stm32g0xx_hal_uart_ex.c ****   huart->gState = HAL_UART_STATE_BUSY;
 538:Drivers/STM32G0xx_HAL_Driver/Src/stm32g0xx_hal_uart_ex.c **** 
 539:Drivers/STM32G0xx_HAL_Driver/Src/stm32g0xx_hal_uart_ex.c ****   /* Save actual UART configuration */
 540:Drivers/STM32G0xx_HAL_Driver/Src/stm32g0xx_hal_uart_ex.c ****   tmpcr1 = READ_REG(huart->Instance->CR1);
 541:Drivers/STM32G0xx_HAL_Driver/Src/stm32g0xx_hal_uart_ex.c **** 
 542:Drivers/STM32G0xx_HAL_Driver/Src/stm32g0xx_hal_uart_ex.c ****   /* Disable UART */
 543:Drivers/STM32G0xx_HAL_Driver/Src/stm32g0xx_hal_uart_ex.c ****   __HAL_UART_DISABLE(huart);
 544:Drivers/STM32G0xx_HAL_Driver/Src/stm32g0xx_hal_uart_ex.c **** 
 545:Drivers/STM32G0xx_HAL_Driver/Src/stm32g0xx_hal_uart_ex.c ****   /* Enable FIFO mode */
 546:Drivers/STM32G0xx_HAL_Driver/Src/stm32g0xx_hal_uart_ex.c ****   CLEAR_BIT(tmpcr1, USART_CR1_FIFOEN);
 547:Drivers/STM32G0xx_HAL_Driver/Src/stm32g0xx_hal_uart_ex.c ****   huart->FifoMode = UART_FIFOMODE_DISABLE;
ARM GAS  /tmp/ccpnpwSS.s 			page 11


 548:Drivers/STM32G0xx_HAL_Driver/Src/stm32g0xx_hal_uart_ex.c **** 
 549:Drivers/STM32G0xx_HAL_Driver/Src/stm32g0xx_hal_uart_ex.c ****   /* Restore UART configuration */
 550:Drivers/STM32G0xx_HAL_Driver/Src/stm32g0xx_hal_uart_ex.c ****   WRITE_REG(huart->Instance->CR1, tmpcr1);
 551:Drivers/STM32G0xx_HAL_Driver/Src/stm32g0xx_hal_uart_ex.c **** 
 552:Drivers/STM32G0xx_HAL_Driver/Src/stm32g0xx_hal_uart_ex.c ****   huart->gState = HAL_UART_STATE_READY;
 553:Drivers/STM32G0xx_HAL_Driver/Src/stm32g0xx_hal_uart_ex.c **** 
 554:Drivers/STM32G0xx_HAL_Driver/Src/stm32g0xx_hal_uart_ex.c ****   /* Process Unlocked */
 555:Drivers/STM32G0xx_HAL_Driver/Src/stm32g0xx_hal_uart_ex.c ****   __HAL_UNLOCK(huart);
 556:Drivers/STM32G0xx_HAL_Driver/Src/stm32g0xx_hal_uart_ex.c **** 
 557:Drivers/STM32G0xx_HAL_Driver/Src/stm32g0xx_hal_uart_ex.c ****   return HAL_OK;
 558:Drivers/STM32G0xx_HAL_Driver/Src/stm32g0xx_hal_uart_ex.c **** }
 559:Drivers/STM32G0xx_HAL_Driver/Src/stm32g0xx_hal_uart_ex.c **** 
 560:Drivers/STM32G0xx_HAL_Driver/Src/stm32g0xx_hal_uart_ex.c **** /**
 561:Drivers/STM32G0xx_HAL_Driver/Src/stm32g0xx_hal_uart_ex.c ****   * @brief  Set the TXFIFO threshold.
 562:Drivers/STM32G0xx_HAL_Driver/Src/stm32g0xx_hal_uart_ex.c ****   * @param huart      UART handle.
 563:Drivers/STM32G0xx_HAL_Driver/Src/stm32g0xx_hal_uart_ex.c ****   * @param Threshold  TX FIFO threshold value
 564:Drivers/STM32G0xx_HAL_Driver/Src/stm32g0xx_hal_uart_ex.c ****   *          This parameter can be one of the following values:
 565:Drivers/STM32G0xx_HAL_Driver/Src/stm32g0xx_hal_uart_ex.c ****   *            @arg @ref UART_TXFIFO_THRESHOLD_1_8
 566:Drivers/STM32G0xx_HAL_Driver/Src/stm32g0xx_hal_uart_ex.c ****   *            @arg @ref UART_TXFIFO_THRESHOLD_1_4
 567:Drivers/STM32G0xx_HAL_Driver/Src/stm32g0xx_hal_uart_ex.c ****   *            @arg @ref UART_TXFIFO_THRESHOLD_1_2
 568:Drivers/STM32G0xx_HAL_Driver/Src/stm32g0xx_hal_uart_ex.c ****   *            @arg @ref UART_TXFIFO_THRESHOLD_3_4
 569:Drivers/STM32G0xx_HAL_Driver/Src/stm32g0xx_hal_uart_ex.c ****   *            @arg @ref UART_TXFIFO_THRESHOLD_7_8
 570:Drivers/STM32G0xx_HAL_Driver/Src/stm32g0xx_hal_uart_ex.c ****   *            @arg @ref UART_TXFIFO_THRESHOLD_8_8
 571:Drivers/STM32G0xx_HAL_Driver/Src/stm32g0xx_hal_uart_ex.c ****   * @retval HAL status
 572:Drivers/STM32G0xx_HAL_Driver/Src/stm32g0xx_hal_uart_ex.c ****   */
 573:Drivers/STM32G0xx_HAL_Driver/Src/stm32g0xx_hal_uart_ex.c **** HAL_StatusTypeDef HAL_UARTEx_SetTxFifoThreshold(UART_HandleTypeDef *huart, uint32_t Threshold)
 574:Drivers/STM32G0xx_HAL_Driver/Src/stm32g0xx_hal_uart_ex.c **** {
 575:Drivers/STM32G0xx_HAL_Driver/Src/stm32g0xx_hal_uart_ex.c ****   uint32_t tmpcr1;
 576:Drivers/STM32G0xx_HAL_Driver/Src/stm32g0xx_hal_uart_ex.c **** 
 577:Drivers/STM32G0xx_HAL_Driver/Src/stm32g0xx_hal_uart_ex.c ****   /* Check parameters */
 578:Drivers/STM32G0xx_HAL_Driver/Src/stm32g0xx_hal_uart_ex.c ****   assert_param(IS_UART_FIFO_INSTANCE(huart->Instance));
 579:Drivers/STM32G0xx_HAL_Driver/Src/stm32g0xx_hal_uart_ex.c ****   assert_param(IS_UART_TXFIFO_THRESHOLD(Threshold));
 580:Drivers/STM32G0xx_HAL_Driver/Src/stm32g0xx_hal_uart_ex.c **** 
 581:Drivers/STM32G0xx_HAL_Driver/Src/stm32g0xx_hal_uart_ex.c ****   /* Process Locked */
 582:Drivers/STM32G0xx_HAL_Driver/Src/stm32g0xx_hal_uart_ex.c ****   __HAL_LOCK(huart);
 583:Drivers/STM32G0xx_HAL_Driver/Src/stm32g0xx_hal_uart_ex.c **** 
 584:Drivers/STM32G0xx_HAL_Driver/Src/stm32g0xx_hal_uart_ex.c ****   huart->gState = HAL_UART_STATE_BUSY;
 585:Drivers/STM32G0xx_HAL_Driver/Src/stm32g0xx_hal_uart_ex.c **** 
 586:Drivers/STM32G0xx_HAL_Driver/Src/stm32g0xx_hal_uart_ex.c ****   /* Save actual UART configuration */
 587:Drivers/STM32G0xx_HAL_Driver/Src/stm32g0xx_hal_uart_ex.c ****   tmpcr1 = READ_REG(huart->Instance->CR1);
 588:Drivers/STM32G0xx_HAL_Driver/Src/stm32g0xx_hal_uart_ex.c **** 
 589:Drivers/STM32G0xx_HAL_Driver/Src/stm32g0xx_hal_uart_ex.c ****   /* Disable UART */
 590:Drivers/STM32G0xx_HAL_Driver/Src/stm32g0xx_hal_uart_ex.c ****   __HAL_UART_DISABLE(huart);
 591:Drivers/STM32G0xx_HAL_Driver/Src/stm32g0xx_hal_uart_ex.c **** 
 592:Drivers/STM32G0xx_HAL_Driver/Src/stm32g0xx_hal_uart_ex.c ****   /* Update TX threshold configuration */
 593:Drivers/STM32G0xx_HAL_Driver/Src/stm32g0xx_hal_uart_ex.c ****   MODIFY_REG(huart->Instance->CR3, USART_CR3_TXFTCFG, Threshold);
 594:Drivers/STM32G0xx_HAL_Driver/Src/stm32g0xx_hal_uart_ex.c **** 
 595:Drivers/STM32G0xx_HAL_Driver/Src/stm32g0xx_hal_uart_ex.c ****   /* Determine the number of data to process during RX/TX ISR execution */
 596:Drivers/STM32G0xx_HAL_Driver/Src/stm32g0xx_hal_uart_ex.c ****   UARTEx_SetNbDataToProcess(huart);
 597:Drivers/STM32G0xx_HAL_Driver/Src/stm32g0xx_hal_uart_ex.c **** 
 598:Drivers/STM32G0xx_HAL_Driver/Src/stm32g0xx_hal_uart_ex.c ****   /* Restore UART configuration */
 599:Drivers/STM32G0xx_HAL_Driver/Src/stm32g0xx_hal_uart_ex.c ****   WRITE_REG(huart->Instance->CR1, tmpcr1);
 600:Drivers/STM32G0xx_HAL_Driver/Src/stm32g0xx_hal_uart_ex.c **** 
 601:Drivers/STM32G0xx_HAL_Driver/Src/stm32g0xx_hal_uart_ex.c ****   huart->gState = HAL_UART_STATE_READY;
 602:Drivers/STM32G0xx_HAL_Driver/Src/stm32g0xx_hal_uart_ex.c **** 
 603:Drivers/STM32G0xx_HAL_Driver/Src/stm32g0xx_hal_uart_ex.c ****   /* Process Unlocked */
 604:Drivers/STM32G0xx_HAL_Driver/Src/stm32g0xx_hal_uart_ex.c ****   __HAL_UNLOCK(huart);
ARM GAS  /tmp/ccpnpwSS.s 			page 12


 605:Drivers/STM32G0xx_HAL_Driver/Src/stm32g0xx_hal_uart_ex.c **** 
 606:Drivers/STM32G0xx_HAL_Driver/Src/stm32g0xx_hal_uart_ex.c ****   return HAL_OK;
 607:Drivers/STM32G0xx_HAL_Driver/Src/stm32g0xx_hal_uart_ex.c **** }
 608:Drivers/STM32G0xx_HAL_Driver/Src/stm32g0xx_hal_uart_ex.c **** 
 609:Drivers/STM32G0xx_HAL_Driver/Src/stm32g0xx_hal_uart_ex.c **** /**
 610:Drivers/STM32G0xx_HAL_Driver/Src/stm32g0xx_hal_uart_ex.c ****   * @brief  Set the RXFIFO threshold.
 611:Drivers/STM32G0xx_HAL_Driver/Src/stm32g0xx_hal_uart_ex.c ****   * @param huart      UART handle.
 612:Drivers/STM32G0xx_HAL_Driver/Src/stm32g0xx_hal_uart_ex.c ****   * @param Threshold  RX FIFO threshold value
 613:Drivers/STM32G0xx_HAL_Driver/Src/stm32g0xx_hal_uart_ex.c ****   *          This parameter can be one of the following values:
 614:Drivers/STM32G0xx_HAL_Driver/Src/stm32g0xx_hal_uart_ex.c ****   *            @arg @ref UART_RXFIFO_THRESHOLD_1_8
 615:Drivers/STM32G0xx_HAL_Driver/Src/stm32g0xx_hal_uart_ex.c ****   *            @arg @ref UART_RXFIFO_THRESHOLD_1_4
 616:Drivers/STM32G0xx_HAL_Driver/Src/stm32g0xx_hal_uart_ex.c ****   *            @arg @ref UART_RXFIFO_THRESHOLD_1_2
 617:Drivers/STM32G0xx_HAL_Driver/Src/stm32g0xx_hal_uart_ex.c ****   *            @arg @ref UART_RXFIFO_THRESHOLD_3_4
 618:Drivers/STM32G0xx_HAL_Driver/Src/stm32g0xx_hal_uart_ex.c ****   *            @arg @ref UART_RXFIFO_THRESHOLD_7_8
 619:Drivers/STM32G0xx_HAL_Driver/Src/stm32g0xx_hal_uart_ex.c ****   *            @arg @ref UART_RXFIFO_THRESHOLD_8_8
 620:Drivers/STM32G0xx_HAL_Driver/Src/stm32g0xx_hal_uart_ex.c ****   * @retval HAL status
 621:Drivers/STM32G0xx_HAL_Driver/Src/stm32g0xx_hal_uart_ex.c ****   */
 622:Drivers/STM32G0xx_HAL_Driver/Src/stm32g0xx_hal_uart_ex.c **** HAL_StatusTypeDef HAL_UARTEx_SetRxFifoThreshold(UART_HandleTypeDef *huart, uint32_t Threshold)
 623:Drivers/STM32G0xx_HAL_Driver/Src/stm32g0xx_hal_uart_ex.c **** {
 624:Drivers/STM32G0xx_HAL_Driver/Src/stm32g0xx_hal_uart_ex.c ****   uint32_t tmpcr1;
 625:Drivers/STM32G0xx_HAL_Driver/Src/stm32g0xx_hal_uart_ex.c **** 
 626:Drivers/STM32G0xx_HAL_Driver/Src/stm32g0xx_hal_uart_ex.c ****   /* Check the parameters */
 627:Drivers/STM32G0xx_HAL_Driver/Src/stm32g0xx_hal_uart_ex.c ****   assert_param(IS_UART_FIFO_INSTANCE(huart->Instance));
 628:Drivers/STM32G0xx_HAL_Driver/Src/stm32g0xx_hal_uart_ex.c ****   assert_param(IS_UART_RXFIFO_THRESHOLD(Threshold));
 629:Drivers/STM32G0xx_HAL_Driver/Src/stm32g0xx_hal_uart_ex.c **** 
 630:Drivers/STM32G0xx_HAL_Driver/Src/stm32g0xx_hal_uart_ex.c ****   /* Process Locked */
 631:Drivers/STM32G0xx_HAL_Driver/Src/stm32g0xx_hal_uart_ex.c ****   __HAL_LOCK(huart);
 632:Drivers/STM32G0xx_HAL_Driver/Src/stm32g0xx_hal_uart_ex.c **** 
 633:Drivers/STM32G0xx_HAL_Driver/Src/stm32g0xx_hal_uart_ex.c ****   huart->gState = HAL_UART_STATE_BUSY;
 634:Drivers/STM32G0xx_HAL_Driver/Src/stm32g0xx_hal_uart_ex.c **** 
 635:Drivers/STM32G0xx_HAL_Driver/Src/stm32g0xx_hal_uart_ex.c ****   /* Save actual UART configuration */
 636:Drivers/STM32G0xx_HAL_Driver/Src/stm32g0xx_hal_uart_ex.c ****   tmpcr1 = READ_REG(huart->Instance->CR1);
 637:Drivers/STM32G0xx_HAL_Driver/Src/stm32g0xx_hal_uart_ex.c **** 
 638:Drivers/STM32G0xx_HAL_Driver/Src/stm32g0xx_hal_uart_ex.c ****   /* Disable UART */
 639:Drivers/STM32G0xx_HAL_Driver/Src/stm32g0xx_hal_uart_ex.c ****   __HAL_UART_DISABLE(huart);
 640:Drivers/STM32G0xx_HAL_Driver/Src/stm32g0xx_hal_uart_ex.c **** 
 641:Drivers/STM32G0xx_HAL_Driver/Src/stm32g0xx_hal_uart_ex.c ****   /* Update RX threshold configuration */
 642:Drivers/STM32G0xx_HAL_Driver/Src/stm32g0xx_hal_uart_ex.c ****   MODIFY_REG(huart->Instance->CR3, USART_CR3_RXFTCFG, Threshold);
 643:Drivers/STM32G0xx_HAL_Driver/Src/stm32g0xx_hal_uart_ex.c **** 
 644:Drivers/STM32G0xx_HAL_Driver/Src/stm32g0xx_hal_uart_ex.c ****   /* Determine the number of data to process during RX/TX ISR execution */
 645:Drivers/STM32G0xx_HAL_Driver/Src/stm32g0xx_hal_uart_ex.c ****   UARTEx_SetNbDataToProcess(huart);
 646:Drivers/STM32G0xx_HAL_Driver/Src/stm32g0xx_hal_uart_ex.c **** 
 647:Drivers/STM32G0xx_HAL_Driver/Src/stm32g0xx_hal_uart_ex.c ****   /* Restore UART configuration */
 648:Drivers/STM32G0xx_HAL_Driver/Src/stm32g0xx_hal_uart_ex.c ****   WRITE_REG(huart->Instance->CR1, tmpcr1);
 649:Drivers/STM32G0xx_HAL_Driver/Src/stm32g0xx_hal_uart_ex.c **** 
 650:Drivers/STM32G0xx_HAL_Driver/Src/stm32g0xx_hal_uart_ex.c ****   huart->gState = HAL_UART_STATE_READY;
 651:Drivers/STM32G0xx_HAL_Driver/Src/stm32g0xx_hal_uart_ex.c **** 
 652:Drivers/STM32G0xx_HAL_Driver/Src/stm32g0xx_hal_uart_ex.c ****   /* Process Unlocked */
 653:Drivers/STM32G0xx_HAL_Driver/Src/stm32g0xx_hal_uart_ex.c ****   __HAL_UNLOCK(huart);
 654:Drivers/STM32G0xx_HAL_Driver/Src/stm32g0xx_hal_uart_ex.c **** 
 655:Drivers/STM32G0xx_HAL_Driver/Src/stm32g0xx_hal_uart_ex.c ****   return HAL_OK;
 656:Drivers/STM32G0xx_HAL_Driver/Src/stm32g0xx_hal_uart_ex.c **** }
 657:Drivers/STM32G0xx_HAL_Driver/Src/stm32g0xx_hal_uart_ex.c **** 
 658:Drivers/STM32G0xx_HAL_Driver/Src/stm32g0xx_hal_uart_ex.c **** /**
 659:Drivers/STM32G0xx_HAL_Driver/Src/stm32g0xx_hal_uart_ex.c ****   * @}
 660:Drivers/STM32G0xx_HAL_Driver/Src/stm32g0xx_hal_uart_ex.c ****   */
 661:Drivers/STM32G0xx_HAL_Driver/Src/stm32g0xx_hal_uart_ex.c **** 
ARM GAS  /tmp/ccpnpwSS.s 			page 13


 662:Drivers/STM32G0xx_HAL_Driver/Src/stm32g0xx_hal_uart_ex.c **** /**
 663:Drivers/STM32G0xx_HAL_Driver/Src/stm32g0xx_hal_uart_ex.c ****   * @}
 664:Drivers/STM32G0xx_HAL_Driver/Src/stm32g0xx_hal_uart_ex.c ****   */
 665:Drivers/STM32G0xx_HAL_Driver/Src/stm32g0xx_hal_uart_ex.c **** 
 666:Drivers/STM32G0xx_HAL_Driver/Src/stm32g0xx_hal_uart_ex.c **** /** @addtogroup UARTEx_Private_Functions
 667:Drivers/STM32G0xx_HAL_Driver/Src/stm32g0xx_hal_uart_ex.c ****   * @{
 668:Drivers/STM32G0xx_HAL_Driver/Src/stm32g0xx_hal_uart_ex.c ****   */
 669:Drivers/STM32G0xx_HAL_Driver/Src/stm32g0xx_hal_uart_ex.c **** 
 670:Drivers/STM32G0xx_HAL_Driver/Src/stm32g0xx_hal_uart_ex.c **** /**
 671:Drivers/STM32G0xx_HAL_Driver/Src/stm32g0xx_hal_uart_ex.c ****   * @brief Initialize the UART wake-up from stop mode parameters when triggered by address detectio
 672:Drivers/STM32G0xx_HAL_Driver/Src/stm32g0xx_hal_uart_ex.c ****   * @param huart           UART handle.
 673:Drivers/STM32G0xx_HAL_Driver/Src/stm32g0xx_hal_uart_ex.c ****   * @param WakeUpSelection UART wake up from stop mode parameters.
 674:Drivers/STM32G0xx_HAL_Driver/Src/stm32g0xx_hal_uart_ex.c ****   * @retval None
 675:Drivers/STM32G0xx_HAL_Driver/Src/stm32g0xx_hal_uart_ex.c ****   */
 676:Drivers/STM32G0xx_HAL_Driver/Src/stm32g0xx_hal_uart_ex.c **** static void UARTEx_Wakeup_AddressConfig(UART_HandleTypeDef *huart, UART_WakeUpTypeDef WakeUpSelecti
 677:Drivers/STM32G0xx_HAL_Driver/Src/stm32g0xx_hal_uart_ex.c **** {
  25              		.loc 1 677 0
  26              		.cfi_startproc
  27              		@ args = 0, pretend = 0, frame = 8
  28              		@ frame_needed = 0, uses_anonymous_args = 0
  29              		@ link register save eliminated.
  30              	.LVL0:
  31 0000 82B0     		sub	sp, sp, #8
  32              	.LCFI0:
  33              		.cfi_def_cfa_offset 8
  34 0002 0091     		str	r1, [sp]
  35 0004 0192     		str	r2, [sp, #4]
 678:Drivers/STM32G0xx_HAL_Driver/Src/stm32g0xx_hal_uart_ex.c ****   assert_param(IS_UART_ADDRESSLENGTH_DETECT(WakeUpSelection.AddressLength));
 679:Drivers/STM32G0xx_HAL_Driver/Src/stm32g0xx_hal_uart_ex.c **** 
 680:Drivers/STM32G0xx_HAL_Driver/Src/stm32g0xx_hal_uart_ex.c ****   /* Set the USART address length */
 681:Drivers/STM32G0xx_HAL_Driver/Src/stm32g0xx_hal_uart_ex.c ****   MODIFY_REG(huart->Instance->CR2, USART_CR2_ADDM7, WakeUpSelection.AddressLength);
  36              		.loc 1 681 0
  37 0006 0268     		ldr	r2, [r0]
  38 0008 5368     		ldr	r3, [r2, #4]
  39 000a 1021     		movs	r1, #16
  40 000c 8B43     		bics	r3, r1
  41 000e 6946     		mov	r1, sp
  42 0010 8988     		ldrh	r1, [r1, #4]
  43 0012 0B43     		orrs	r3, r1
  44 0014 5360     		str	r3, [r2, #4]
 682:Drivers/STM32G0xx_HAL_Driver/Src/stm32g0xx_hal_uart_ex.c **** 
 683:Drivers/STM32G0xx_HAL_Driver/Src/stm32g0xx_hal_uart_ex.c ****   /* Set the USART address node */
 684:Drivers/STM32G0xx_HAL_Driver/Src/stm32g0xx_hal_uart_ex.c ****   MODIFY_REG(huart->Instance->CR2, USART_CR2_ADD, ((uint32_t)WakeUpSelection.Address << UART_CR2_AD
  45              		.loc 1 684 0
  46 0016 0168     		ldr	r1, [r0]
  47 0018 4B68     		ldr	r3, [r1, #4]
  48 001a 1B02     		lsls	r3, r3, #8
  49 001c 1B0A     		lsrs	r3, r3, #8
  50 001e 6A46     		mov	r2, sp
  51 0020 9279     		ldrb	r2, [r2, #6]
  52 0022 1206     		lsls	r2, r2, #24
  53 0024 1343     		orrs	r3, r2
  54 0026 4B60     		str	r3, [r1, #4]
 685:Drivers/STM32G0xx_HAL_Driver/Src/stm32g0xx_hal_uart_ex.c **** }
  55              		.loc 1 685 0
  56 0028 02B0     		add	sp, sp, #8
  57              		@ sp needed
ARM GAS  /tmp/ccpnpwSS.s 			page 14


  58 002a 7047     		bx	lr
  59              		.cfi_endproc
  60              	.LFE185:
  62              		.global	__aeabi_idiv
  63              		.section	.text.UARTEx_SetNbDataToProcess,"ax",%progbits
  64              		.align	1
  65              		.syntax unified
  66              		.code	16
  67              		.thumb_func
  68              		.fpu softvfp
  70              	UARTEx_SetNbDataToProcess:
  71              	.LFB186:
 686:Drivers/STM32G0xx_HAL_Driver/Src/stm32g0xx_hal_uart_ex.c **** 
 687:Drivers/STM32G0xx_HAL_Driver/Src/stm32g0xx_hal_uart_ex.c **** /**
 688:Drivers/STM32G0xx_HAL_Driver/Src/stm32g0xx_hal_uart_ex.c ****   * @brief Calculate the number of data to process in RX/TX ISR.
 689:Drivers/STM32G0xx_HAL_Driver/Src/stm32g0xx_hal_uart_ex.c ****   * @note The RX FIFO depth and the TX FIFO depth is extracted from
 690:Drivers/STM32G0xx_HAL_Driver/Src/stm32g0xx_hal_uart_ex.c ****   *       the UART configuration registers.
 691:Drivers/STM32G0xx_HAL_Driver/Src/stm32g0xx_hal_uart_ex.c ****   * @param huart UART handle.
 692:Drivers/STM32G0xx_HAL_Driver/Src/stm32g0xx_hal_uart_ex.c ****   * @retval None
 693:Drivers/STM32G0xx_HAL_Driver/Src/stm32g0xx_hal_uart_ex.c ****   */
 694:Drivers/STM32G0xx_HAL_Driver/Src/stm32g0xx_hal_uart_ex.c **** static void UARTEx_SetNbDataToProcess(UART_HandleTypeDef *huart)
 695:Drivers/STM32G0xx_HAL_Driver/Src/stm32g0xx_hal_uart_ex.c **** {
  72              		.loc 1 695 0
  73              		.cfi_startproc
  74              		@ args = 0, pretend = 0, frame = 16
  75              		@ frame_needed = 0, uses_anonymous_args = 0
  76              	.LVL1:
  77 0000 70B5     		push	{r4, r5, r6, lr}
  78              	.LCFI1:
  79              		.cfi_def_cfa_offset 16
  80              		.cfi_offset 4, -16
  81              		.cfi_offset 5, -12
  82              		.cfi_offset 6, -8
  83              		.cfi_offset 14, -4
  84 0002 84B0     		sub	sp, sp, #16
  85              	.LCFI2:
  86              		.cfi_def_cfa_offset 32
  87 0004 0400     		movs	r4, r0
 696:Drivers/STM32G0xx_HAL_Driver/Src/stm32g0xx_hal_uart_ex.c ****   uint8_t rx_fifo_depth;
 697:Drivers/STM32G0xx_HAL_Driver/Src/stm32g0xx_hal_uart_ex.c ****   uint8_t tx_fifo_depth;
 698:Drivers/STM32G0xx_HAL_Driver/Src/stm32g0xx_hal_uart_ex.c ****   uint8_t rx_fifo_threshold;
 699:Drivers/STM32G0xx_HAL_Driver/Src/stm32g0xx_hal_uart_ex.c ****   uint8_t tx_fifo_threshold;
 700:Drivers/STM32G0xx_HAL_Driver/Src/stm32g0xx_hal_uart_ex.c ****   uint8_t numerator[] = {1U, 1U, 1U, 3U, 7U, 1U, 0U, 0U};
  88              		.loc 1 700 0
  89 0006 02A9     		add	r1, sp, #8
  90 0008 154A     		ldr	r2, .L6
  91 000a 1300     		movs	r3, r2
  92 000c 05CB     		ldmia	r3!, {r0, r2}
  93 000e 05C1     		stmia	r1!, {r0, r2}
  94              	.LVL2:
 701:Drivers/STM32G0xx_HAL_Driver/Src/stm32g0xx_hal_uart_ex.c ****   uint8_t denominator[] = {8U, 4U, 2U, 4U, 8U, 1U, 1U, 1U};
  95              		.loc 1 701 0
  96 0010 6A46     		mov	r2, sp
  97 0012 03CB     		ldmia	r3!, {r0, r1}
  98 0014 03C2     		stmia	r2!, {r0, r1}
 702:Drivers/STM32G0xx_HAL_Driver/Src/stm32g0xx_hal_uart_ex.c **** 
 703:Drivers/STM32G0xx_HAL_Driver/Src/stm32g0xx_hal_uart_ex.c ****   if (huart->FifoMode == UART_FIFOMODE_DISABLE)
ARM GAS  /tmp/ccpnpwSS.s 			page 15


  99              		.loc 1 703 0
 100 0016 636E     		ldr	r3, [r4, #100]
 101 0018 002B     		cmp	r3, #0
 102 001a 1AD0     		beq	.L5
 103              	.LVL3:
 704:Drivers/STM32G0xx_HAL_Driver/Src/stm32g0xx_hal_uart_ex.c ****   {
 705:Drivers/STM32G0xx_HAL_Driver/Src/stm32g0xx_hal_uart_ex.c ****     huart->NbTxDataToProcess = 1U;
 706:Drivers/STM32G0xx_HAL_Driver/Src/stm32g0xx_hal_uart_ex.c ****     huart->NbRxDataToProcess = 1U;
 707:Drivers/STM32G0xx_HAL_Driver/Src/stm32g0xx_hal_uart_ex.c ****   }
 708:Drivers/STM32G0xx_HAL_Driver/Src/stm32g0xx_hal_uart_ex.c ****   else
 709:Drivers/STM32G0xx_HAL_Driver/Src/stm32g0xx_hal_uart_ex.c ****   {
 710:Drivers/STM32G0xx_HAL_Driver/Src/stm32g0xx_hal_uart_ex.c ****     rx_fifo_depth = RX_FIFO_DEPTH;
 711:Drivers/STM32G0xx_HAL_Driver/Src/stm32g0xx_hal_uart_ex.c ****     tx_fifo_depth = TX_FIFO_DEPTH;
 712:Drivers/STM32G0xx_HAL_Driver/Src/stm32g0xx_hal_uart_ex.c ****     rx_fifo_threshold = (uint8_t)(READ_BIT(huart->Instance->CR3, USART_CR3_RXFTCFG) >> USART_CR3_RX
 104              		.loc 1 712 0
 105 001c 2268     		ldr	r2, [r4]
 106 001e 9568     		ldr	r5, [r2, #8]
 107 0020 6D0E     		lsrs	r5, r5, #25
 108 0022 0723     		movs	r3, #7
 109 0024 1D40     		ands	r5, r3
 110              	.LVL4:
 713:Drivers/STM32G0xx_HAL_Driver/Src/stm32g0xx_hal_uart_ex.c ****     tx_fifo_threshold = (uint8_t)(READ_BIT(huart->Instance->CR3, USART_CR3_TXFTCFG) >> USART_CR3_TX
 111              		.loc 1 713 0
 112 0026 9268     		ldr	r2, [r2, #8]
 113 0028 520F     		lsrs	r2, r2, #29
 114 002a 1340     		ands	r3, r2
 115              	.LVL5:
 714:Drivers/STM32G0xx_HAL_Driver/Src/stm32g0xx_hal_uart_ex.c ****     huart->NbTxDataToProcess = ((uint16_t)tx_fifo_depth * numerator[tx_fifo_threshold]) / (uint16_t
 116              		.loc 1 714 0
 117 002c 02AE     		add	r6, sp, #8
 118 002e F05C     		ldrb	r0, [r6, r3]
 119 0030 C000     		lsls	r0, r0, #3
 120 0032 6A46     		mov	r2, sp
 121 0034 D15C     		ldrb	r1, [r2, r3]
 122 0036 FFF7FEFF 		bl	__aeabi_idiv
 123              	.LVL6:
 124 003a 6A23     		movs	r3, #106
 125 003c E052     		strh	r0, [r4, r3]
 715:Drivers/STM32G0xx_HAL_Driver/Src/stm32g0xx_hal_uart_ex.c ****     huart->NbRxDataToProcess = ((uint16_t)rx_fifo_depth * numerator[rx_fifo_threshold]) / (uint16_t
 126              		.loc 1 715 0
 127 003e 705D     		ldrb	r0, [r6, r5]
 128 0040 C000     		lsls	r0, r0, #3
 129 0042 6B46     		mov	r3, sp
 130 0044 595D     		ldrb	r1, [r3, r5]
 131 0046 FFF7FEFF 		bl	__aeabi_idiv
 132              	.LVL7:
 133 004a 6823     		movs	r3, #104
 134 004c E052     		strh	r0, [r4, r3]
 135              	.LVL8:
 136              	.L2:
 716:Drivers/STM32G0xx_HAL_Driver/Src/stm32g0xx_hal_uart_ex.c ****   }
 717:Drivers/STM32G0xx_HAL_Driver/Src/stm32g0xx_hal_uart_ex.c **** }
 137              		.loc 1 717 0
 138 004e 04B0     		add	sp, sp, #16
 139              		@ sp needed
 140              	.LVL9:
 141 0050 70BD     		pop	{r4, r5, r6, pc}
ARM GAS  /tmp/ccpnpwSS.s 			page 16


 142              	.LVL10:
 143              	.L5:
 705:Drivers/STM32G0xx_HAL_Driver/Src/stm32g0xx_hal_uart_ex.c ****     huart->NbRxDataToProcess = 1U;
 144              		.loc 1 705 0
 145 0052 0133     		adds	r3, r3, #1
 146 0054 6A22     		movs	r2, #106
 147 0056 A352     		strh	r3, [r4, r2]
 706:Drivers/STM32G0xx_HAL_Driver/Src/stm32g0xx_hal_uart_ex.c ****   }
 148              		.loc 1 706 0
 149 0058 023A     		subs	r2, r2, #2
 150 005a A352     		strh	r3, [r4, r2]
 151 005c F7E7     		b	.L2
 152              	.L7:
 153 005e C046     		.align	2
 154              	.L6:
 155 0060 00000000 		.word	.LANCHOR0
 156              		.cfi_endproc
 157              	.LFE186:
 159              		.section	.text.HAL_RS485Ex_Init,"ax",%progbits
 160              		.align	1
 161              		.global	HAL_RS485Ex_Init
 162              		.syntax unified
 163              		.code	16
 164              		.thumb_func
 165              		.fpu softvfp
 167              	HAL_RS485Ex_Init:
 168              	.LFB173:
 168:Drivers/STM32G0xx_HAL_Driver/Src/stm32g0xx_hal_uart_ex.c ****   uint32_t temp;
 169              		.loc 1 168 0
 170              		.cfi_startproc
 171              		@ args = 0, pretend = 0, frame = 0
 172              		@ frame_needed = 0, uses_anonymous_args = 0
 173              	.LVL11:
 174 0000 F8B5     		push	{r3, r4, r5, r6, r7, lr}
 175              	.LCFI3:
 176              		.cfi_def_cfa_offset 24
 177              		.cfi_offset 3, -24
 178              		.cfi_offset 4, -20
 179              		.cfi_offset 5, -16
 180              		.cfi_offset 6, -12
 181              		.cfi_offset 7, -8
 182              		.cfi_offset 14, -4
 183 0002 0400     		movs	r4, r0
 184 0004 0F00     		movs	r7, r1
 185 0006 1600     		movs	r6, r2
 186 0008 1D00     		movs	r5, r3
 172:Drivers/STM32G0xx_HAL_Driver/Src/stm32g0xx_hal_uart_ex.c ****   {
 187              		.loc 1 172 0
 188 000a 0028     		cmp	r0, #0
 189 000c 3BD0     		beq	.L12
 188:Drivers/STM32G0xx_HAL_Driver/Src/stm32g0xx_hal_uart_ex.c ****   {
 190              		.loc 1 188 0
 191 000e 8023     		movs	r3, #128
 192              	.LVL12:
 193 0010 C358     		ldr	r3, [r0, r3]
 194 0012 002B     		cmp	r3, #0
 195 0014 2DD0     		beq	.L13
ARM GAS  /tmp/ccpnpwSS.s 			page 17


 196              	.LVL13:
 197              	.L10:
 209:Drivers/STM32G0xx_HAL_Driver/Src/stm32g0xx_hal_uart_ex.c **** 
 198              		.loc 1 209 0
 199 0016 8023     		movs	r3, #128
 200 0018 2422     		movs	r2, #36
 201 001a E250     		str	r2, [r4, r3]
 212:Drivers/STM32G0xx_HAL_Driver/Src/stm32g0xx_hal_uart_ex.c **** 
 202              		.loc 1 212 0
 203 001c 2268     		ldr	r2, [r4]
 204 001e 1368     		ldr	r3, [r2]
 205 0020 0121     		movs	r1, #1
 206 0022 8B43     		bics	r3, r1
 207 0024 1360     		str	r3, [r2]
 215:Drivers/STM32G0xx_HAL_Driver/Src/stm32g0xx_hal_uart_ex.c ****   {
 208              		.loc 1 215 0
 209 0026 2000     		movs	r0, r4
 210 0028 FFF7FEFF 		bl	UART_SetConfig
 211              	.LVL14:
 212 002c 0128     		cmp	r0, #1
 213 002e 1FD0     		beq	.L9
 220:Drivers/STM32G0xx_HAL_Driver/Src/stm32g0xx_hal_uart_ex.c ****   {
 214              		.loc 1 220 0
 215 0030 A36A     		ldr	r3, [r4, #40]
 216 0032 002B     		cmp	r3, #0
 217 0034 23D1     		bne	.L14
 218              	.L11:
 226:Drivers/STM32G0xx_HAL_Driver/Src/stm32g0xx_hal_uart_ex.c **** 
 219              		.loc 1 226 0
 220 0036 2268     		ldr	r2, [r4]
 221 0038 9168     		ldr	r1, [r2, #8]
 222 003a 8023     		movs	r3, #128
 223 003c DB01     		lsls	r3, r3, #7
 224 003e 0B43     		orrs	r3, r1
 225 0040 9360     		str	r3, [r2, #8]
 229:Drivers/STM32G0xx_HAL_Driver/Src/stm32g0xx_hal_uart_ex.c **** 
 226              		.loc 1 229 0
 227 0042 2268     		ldr	r2, [r4]
 228 0044 9368     		ldr	r3, [r2, #8]
 229 0046 1149     		ldr	r1, .L15
 230 0048 0B40     		ands	r3, r1
 231 004a 1F43     		orrs	r7, r3
 232              	.LVL15:
 233 004c 9760     		str	r7, [r2, #8]
 232:Drivers/STM32G0xx_HAL_Driver/Src/stm32g0xx_hal_uart_ex.c ****   temp |= (DeassertionTime << UART_CR1_DEDT_ADDRESS_LSB_POS);
 234              		.loc 1 232 0
 235 004e 7605     		lsls	r6, r6, #21
 236              	.LVL16:
 233:Drivers/STM32G0xx_HAL_Driver/Src/stm32g0xx_hal_uart_ex.c ****   MODIFY_REG(huart->Instance->CR1, (USART_CR1_DEDT | USART_CR1_DEAT), temp);
 237              		.loc 1 233 0
 238 0050 2D04     		lsls	r5, r5, #16
 239              	.LVL17:
 240 0052 2E43     		orrs	r6, r5
 241              	.LVL18:
 234:Drivers/STM32G0xx_HAL_Driver/Src/stm32g0xx_hal_uart_ex.c **** 
 242              		.loc 1 234 0
 243 0054 2368     		ldr	r3, [r4]
ARM GAS  /tmp/ccpnpwSS.s 			page 18


 244 0056 1D68     		ldr	r5, [r3]
 245 0058 0D4A     		ldr	r2, .L15+4
 246 005a 1540     		ands	r5, r2
 247 005c 2E43     		orrs	r6, r5
 248              	.LVL19:
 249 005e 1E60     		str	r6, [r3]
 237:Drivers/STM32G0xx_HAL_Driver/Src/stm32g0xx_hal_uart_ex.c **** 
 250              		.loc 1 237 0
 251 0060 2268     		ldr	r2, [r4]
 252 0062 1368     		ldr	r3, [r2]
 253 0064 0121     		movs	r1, #1
 254 0066 0B43     		orrs	r3, r1
 255 0068 1360     		str	r3, [r2]
 240:Drivers/STM32G0xx_HAL_Driver/Src/stm32g0xx_hal_uart_ex.c **** }
 256              		.loc 1 240 0
 257 006a 2000     		movs	r0, r4
 258 006c FFF7FEFF 		bl	UART_CheckIdleState
 259              	.LVL20:
 260              	.L9:
 241:Drivers/STM32G0xx_HAL_Driver/Src/stm32g0xx_hal_uart_ex.c **** 
 261              		.loc 1 241 0
 262              		@ sp needed
 263              	.LVL21:
 264 0070 F8BD     		pop	{r3, r4, r5, r6, r7, pc}
 265              	.LVL22:
 266              	.L13:
 191:Drivers/STM32G0xx_HAL_Driver/Src/stm32g0xx_hal_uart_ex.c **** 
 267              		.loc 1 191 0
 268 0072 7C33     		adds	r3, r3, #124
 269 0074 0022     		movs	r2, #0
 270              	.LVL23:
 271 0076 C254     		strb	r2, [r0, r3]
 205:Drivers/STM32G0xx_HAL_Driver/Src/stm32g0xx_hal_uart_ex.c **** #endif /* (USE_HAL_UART_REGISTER_CALLBACKS) */
 272              		.loc 1 205 0
 273 0078 FFF7FEFF 		bl	HAL_UART_MspInit
 274              	.LVL24:
 275 007c CBE7     		b	.L10
 276              	.L14:
 222:Drivers/STM32G0xx_HAL_Driver/Src/stm32g0xx_hal_uart_ex.c ****   }
 277              		.loc 1 222 0
 278 007e 2000     		movs	r0, r4
 279 0080 FFF7FEFF 		bl	UART_AdvFeatureConfig
 280              	.LVL25:
 281 0084 D7E7     		b	.L11
 282              	.LVL26:
 283              	.L12:
 174:Drivers/STM32G0xx_HAL_Driver/Src/stm32g0xx_hal_uart_ex.c ****   }
 284              		.loc 1 174 0
 285 0086 0120     		movs	r0, #1
 286              	.LVL27:
 287 0088 F2E7     		b	.L9
 288              	.L16:
 289 008a C046     		.align	2
 290              	.L15:
 291 008c FF7FFFFF 		.word	-32769
 292 0090 FFFF00FC 		.word	-67043329
 293              		.cfi_endproc
ARM GAS  /tmp/ccpnpwSS.s 			page 19


 294              	.LFE173:
 296              		.section	.text.HAL_UARTEx_WakeupCallback,"ax",%progbits
 297              		.align	1
 298              		.weak	HAL_UARTEx_WakeupCallback
 299              		.syntax unified
 300              		.code	16
 301              		.thumb_func
 302              		.fpu softvfp
 304              	HAL_UARTEx_WakeupCallback:
 305              	.LFB174:
 273:Drivers/STM32G0xx_HAL_Driver/Src/stm32g0xx_hal_uart_ex.c ****   /* Prevent unused argument(s) compilation warning */
 306              		.loc 1 273 0
 307              		.cfi_startproc
 308              		@ args = 0, pretend = 0, frame = 0
 309              		@ frame_needed = 0, uses_anonymous_args = 0
 310              		@ link register save eliminated.
 311              	.LVL28:
 280:Drivers/STM32G0xx_HAL_Driver/Src/stm32g0xx_hal_uart_ex.c **** 
 312              		.loc 1 280 0
 313              		@ sp needed
 314 0000 7047     		bx	lr
 315              		.cfi_endproc
 316              	.LFE174:
 318              		.section	.text.HAL_UARTEx_RxFifoFullCallback,"ax",%progbits
 319              		.align	1
 320              		.weak	HAL_UARTEx_RxFifoFullCallback
 321              		.syntax unified
 322              		.code	16
 323              		.thumb_func
 324              		.fpu softvfp
 326              	HAL_UARTEx_RxFifoFullCallback:
 327              	.LFB175:
 288:Drivers/STM32G0xx_HAL_Driver/Src/stm32g0xx_hal_uart_ex.c ****   /* Prevent unused argument(s) compilation warning */
 328              		.loc 1 288 0
 329              		.cfi_startproc
 330              		@ args = 0, pretend = 0, frame = 0
 331              		@ frame_needed = 0, uses_anonymous_args = 0
 332              		@ link register save eliminated.
 333              	.LVL29:
 295:Drivers/STM32G0xx_HAL_Driver/Src/stm32g0xx_hal_uart_ex.c **** 
 334              		.loc 1 295 0
 335              		@ sp needed
 336 0000 7047     		bx	lr
 337              		.cfi_endproc
 338              	.LFE175:
 340              		.section	.text.HAL_UARTEx_TxFifoEmptyCallback,"ax",%progbits
 341              		.align	1
 342              		.weak	HAL_UARTEx_TxFifoEmptyCallback
 343              		.syntax unified
 344              		.code	16
 345              		.thumb_func
 346              		.fpu softvfp
 348              	HAL_UARTEx_TxFifoEmptyCallback:
 349              	.LFB176:
 303:Drivers/STM32G0xx_HAL_Driver/Src/stm32g0xx_hal_uart_ex.c ****   /* Prevent unused argument(s) compilation warning */
 350              		.loc 1 303 0
 351              		.cfi_startproc
ARM GAS  /tmp/ccpnpwSS.s 			page 20


 352              		@ args = 0, pretend = 0, frame = 0
 353              		@ frame_needed = 0, uses_anonymous_args = 0
 354              		@ link register save eliminated.
 355              	.LVL30:
 310:Drivers/STM32G0xx_HAL_Driver/Src/stm32g0xx_hal_uart_ex.c **** 
 356              		.loc 1 310 0
 357              		@ sp needed
 358 0000 7047     		bx	lr
 359              		.cfi_endproc
 360              	.LFE176:
 362              		.section	.text.HAL_MultiProcessorEx_AddressLength_Set,"ax",%progbits
 363              		.align	1
 364              		.global	HAL_MultiProcessorEx_AddressLength_Set
 365              		.syntax unified
 366              		.code	16
 367              		.thumb_func
 368              		.fpu softvfp
 370              	HAL_MultiProcessorEx_AddressLength_Set:
 371              	.LFB177:
 356:Drivers/STM32G0xx_HAL_Driver/Src/stm32g0xx_hal_uart_ex.c ****   /* Check the UART handle allocation */
 372              		.loc 1 356 0
 373              		.cfi_startproc
 374              		@ args = 0, pretend = 0, frame = 0
 375              		@ frame_needed = 0, uses_anonymous_args = 0
 376              	.LVL31:
 377 0000 70B5     		push	{r4, r5, r6, lr}
 378              	.LCFI4:
 379              		.cfi_def_cfa_offset 16
 380              		.cfi_offset 4, -16
 381              		.cfi_offset 5, -12
 382              		.cfi_offset 6, -8
 383              		.cfi_offset 14, -4
 358:Drivers/STM32G0xx_HAL_Driver/Src/stm32g0xx_hal_uart_ex.c ****   {
 384              		.loc 1 358 0
 385 0002 0028     		cmp	r0, #0
 386 0004 14D0     		beq	.L22
 366:Drivers/STM32G0xx_HAL_Driver/Src/stm32g0xx_hal_uart_ex.c **** 
 387              		.loc 1 366 0
 388 0006 8023     		movs	r3, #128
 389 0008 2422     		movs	r2, #36
 390 000a C250     		str	r2, [r0, r3]
 369:Drivers/STM32G0xx_HAL_Driver/Src/stm32g0xx_hal_uart_ex.c **** 
 391              		.loc 1 369 0
 392 000c 0368     		ldr	r3, [r0]
 393 000e 1A68     		ldr	r2, [r3]
 394 0010 0124     		movs	r4, #1
 395 0012 A243     		bics	r2, r4
 396 0014 1A60     		str	r2, [r3]
 372:Drivers/STM32G0xx_HAL_Driver/Src/stm32g0xx_hal_uart_ex.c **** 
 397              		.loc 1 372 0
 398 0016 0268     		ldr	r2, [r0]
 399 0018 5368     		ldr	r3, [r2, #4]
 400 001a 1025     		movs	r5, #16
 401 001c AB43     		bics	r3, r5
 402 001e 1943     		orrs	r1, r3
 403              	.LVL32:
 404 0020 5160     		str	r1, [r2, #4]
ARM GAS  /tmp/ccpnpwSS.s 			page 21


 375:Drivers/STM32G0xx_HAL_Driver/Src/stm32g0xx_hal_uart_ex.c **** 
 405              		.loc 1 375 0
 406 0022 0268     		ldr	r2, [r0]
 407 0024 1368     		ldr	r3, [r2]
 408 0026 2343     		orrs	r3, r4
 409 0028 1360     		str	r3, [r2]
 378:Drivers/STM32G0xx_HAL_Driver/Src/stm32g0xx_hal_uart_ex.c **** }
 410              		.loc 1 378 0
 411 002a FFF7FEFF 		bl	UART_CheckIdleState
 412              	.LVL33:
 413              	.L21:
 379:Drivers/STM32G0xx_HAL_Driver/Src/stm32g0xx_hal_uart_ex.c **** 
 414              		.loc 1 379 0
 415              		@ sp needed
 416 002e 70BD     		pop	{r4, r5, r6, pc}
 417              	.LVL34:
 418              	.L22:
 360:Drivers/STM32G0xx_HAL_Driver/Src/stm32g0xx_hal_uart_ex.c ****   }
 419              		.loc 1 360 0
 420 0030 0120     		movs	r0, #1
 421              	.LVL35:
 422 0032 FCE7     		b	.L21
 423              		.cfi_endproc
 424              	.LFE177:
 426              		.section	.text.HAL_UARTEx_StopModeWakeUpSourceConfig,"ax",%progbits
 427              		.align	1
 428              		.global	HAL_UARTEx_StopModeWakeUpSourceConfig
 429              		.syntax unified
 430              		.code	16
 431              		.thumb_func
 432              		.fpu softvfp
 434              	HAL_UARTEx_StopModeWakeUpSourceConfig:
 435              	.LFB178:
 394:Drivers/STM32G0xx_HAL_Driver/Src/stm32g0xx_hal_uart_ex.c ****   HAL_StatusTypeDef status = HAL_OK;
 436              		.loc 1 394 0
 437              		.cfi_startproc
 438              		@ args = 0, pretend = 0, frame = 8
 439              		@ frame_needed = 0, uses_anonymous_args = 0
 440              	.LVL36:
 441 0000 10B5     		push	{r4, lr}
 442              	.LCFI5:
 443              		.cfi_def_cfa_offset 8
 444              		.cfi_offset 4, -8
 445              		.cfi_offset 14, -4
 446 0002 84B0     		sub	sp, sp, #16
 447              	.LCFI6:
 448              		.cfi_def_cfa_offset 24
 449 0004 0400     		movs	r4, r0
 450 0006 0291     		str	r1, [sp, #8]
 451 0008 0392     		str	r2, [sp, #12]
 452              	.LVL37:
 404:Drivers/STM32G0xx_HAL_Driver/Src/stm32g0xx_hal_uart_ex.c **** 
 453              		.loc 1 404 0
 454 000a 7C23     		movs	r3, #124
 455 000c C35C     		ldrb	r3, [r0, r3]
 456 000e 012B     		cmp	r3, #1
 457 0010 33D0     		beq	.L27
ARM GAS  /tmp/ccpnpwSS.s 			page 22


 404:Drivers/STM32G0xx_HAL_Driver/Src/stm32g0xx_hal_uart_ex.c **** 
 458              		.loc 1 404 0 is_stmt 0 discriminator 2
 459 0012 0121     		movs	r1, #1
 460 0014 7C23     		movs	r3, #124
 461 0016 C154     		strb	r1, [r0, r3]
 406:Drivers/STM32G0xx_HAL_Driver/Src/stm32g0xx_hal_uart_ex.c **** 
 462              		.loc 1 406 0 is_stmt 1 discriminator 2
 463 0018 0433     		adds	r3, r3, #4
 464 001a 2422     		movs	r2, #36
 465 001c C250     		str	r2, [r0, r3]
 409:Drivers/STM32G0xx_HAL_Driver/Src/stm32g0xx_hal_uart_ex.c **** 
 466              		.loc 1 409 0 discriminator 2
 467 001e 0268     		ldr	r2, [r0]
 468 0020 1368     		ldr	r3, [r2]
 469 0022 8B43     		bics	r3, r1
 470 0024 1360     		str	r3, [r2]
 412:Drivers/STM32G0xx_HAL_Driver/Src/stm32g0xx_hal_uart_ex.c **** 
 471              		.loc 1 412 0 discriminator 2
 472 0026 0168     		ldr	r1, [r0]
 473 0028 8B68     		ldr	r3, [r1, #8]
 474 002a 154A     		ldr	r2, .L30
 475 002c 1340     		ands	r3, r2
 476 002e 029A     		ldr	r2, [sp, #8]
 477 0030 1343     		orrs	r3, r2
 478 0032 8B60     		str	r3, [r1, #8]
 414:Drivers/STM32G0xx_HAL_Driver/Src/stm32g0xx_hal_uart_ex.c ****   {
 479              		.loc 1 414 0 discriminator 2
 480 0034 002A     		cmp	r2, #0
 481 0036 15D0     		beq	.L29
 482              	.LVL38:
 483              	.L25:
 420:Drivers/STM32G0xx_HAL_Driver/Src/stm32g0xx_hal_uart_ex.c **** 
 484              		.loc 1 420 0
 485 0038 2268     		ldr	r2, [r4]
 486 003a 1368     		ldr	r3, [r2]
 487 003c 0121     		movs	r1, #1
 488 003e 0B43     		orrs	r3, r1
 489 0040 1360     		str	r3, [r2]
 423:Drivers/STM32G0xx_HAL_Driver/Src/stm32g0xx_hal_uart_ex.c **** 
 490              		.loc 1 423 0
 491 0042 FFF7FEFF 		bl	HAL_GetTick
 492              	.LVL39:
 493 0046 0300     		movs	r3, r0
 494              	.LVL40:
 426:Drivers/STM32G0xx_HAL_Driver/Src/stm32g0xx_hal_uart_ex.c ****   {
 495              		.loc 1 426 0
 496 0048 8021     		movs	r1, #128
 497 004a 0E4A     		ldr	r2, .L30+4
 498 004c 0092     		str	r2, [sp]
 499 004e 0022     		movs	r2, #0
 500 0050 C903     		lsls	r1, r1, #15
 501 0052 2000     		movs	r0, r4
 502              	.LVL41:
 503 0054 FFF7FEFF 		bl	UART_WaitOnFlagUntilTimeout
 504              	.LVL42:
 505 0058 0028     		cmp	r0, #0
 506 005a 08D1     		bne	.L28
ARM GAS  /tmp/ccpnpwSS.s 			page 23


 433:Drivers/STM32G0xx_HAL_Driver/Src/stm32g0xx_hal_uart_ex.c ****   }
 507              		.loc 1 433 0
 508 005c 8023     		movs	r3, #128
 509 005e 2022     		movs	r2, #32
 510 0060 E250     		str	r2, [r4, r3]
 511 0062 05E0     		b	.L26
 512              	.LVL43:
 513              	.L29:
 416:Drivers/STM32G0xx_HAL_Driver/Src/stm32g0xx_hal_uart_ex.c ****   }
 514              		.loc 1 416 0
 515 0064 1100     		movs	r1, r2
 516 0066 039A     		ldr	r2, [sp, #12]
 517 0068 FFF7FEFF 		bl	UARTEx_Wakeup_AddressConfig
 518              	.LVL44:
 519 006c E4E7     		b	.L25
 520              	.L28:
 428:Drivers/STM32G0xx_HAL_Driver/Src/stm32g0xx_hal_uart_ex.c ****   }
 521              		.loc 1 428 0
 522 006e 0320     		movs	r0, #3
 523              	.L26:
 524              	.LVL45:
 437:Drivers/STM32G0xx_HAL_Driver/Src/stm32g0xx_hal_uart_ex.c **** 
 525              		.loc 1 437 0
 526 0070 7C23     		movs	r3, #124
 527 0072 0022     		movs	r2, #0
 528 0074 E254     		strb	r2, [r4, r3]
 529              	.LVL46:
 530              	.L24:
 440:Drivers/STM32G0xx_HAL_Driver/Src/stm32g0xx_hal_uart_ex.c **** 
 531              		.loc 1 440 0
 532 0076 04B0     		add	sp, sp, #16
 533              		@ sp needed
 534              	.LVL47:
 535 0078 10BD     		pop	{r4, pc}
 536              	.LVL48:
 537              	.L27:
 404:Drivers/STM32G0xx_HAL_Driver/Src/stm32g0xx_hal_uart_ex.c **** 
 538              		.loc 1 404 0
 539 007a 0220     		movs	r0, #2
 540              	.LVL49:
 541 007c FBE7     		b	.L24
 542              	.L31:
 543 007e C046     		.align	2
 544              	.L30:
 545 0080 FFFFCFFF 		.word	-3145729
 546 0084 FFFFFF01 		.word	33554431
 547              		.cfi_endproc
 548              	.LFE178:
 550              		.section	.text.HAL_UARTEx_EnableStopMode,"ax",%progbits
 551              		.align	1
 552              		.global	HAL_UARTEx_EnableStopMode
 553              		.syntax unified
 554              		.code	16
 555              		.thumb_func
 556              		.fpu softvfp
 558              	HAL_UARTEx_EnableStopMode:
 559              	.LFB179:
ARM GAS  /tmp/ccpnpwSS.s 			page 24


 449:Drivers/STM32G0xx_HAL_Driver/Src/stm32g0xx_hal_uart_ex.c ****   /* Process Locked */
 560              		.loc 1 449 0
 561              		.cfi_startproc
 562              		@ args = 0, pretend = 0, frame = 0
 563              		@ frame_needed = 0, uses_anonymous_args = 0
 564              	.LVL50:
 565 0000 10B5     		push	{r4, lr}
 566              	.LCFI7:
 567              		.cfi_def_cfa_offset 8
 568              		.cfi_offset 4, -8
 569              		.cfi_offset 14, -4
 451:Drivers/STM32G0xx_HAL_Driver/Src/stm32g0xx_hal_uart_ex.c **** 
 570              		.loc 1 451 0
 571 0002 7C23     		movs	r3, #124
 572 0004 C35C     		ldrb	r3, [r0, r3]
 573 0006 012B     		cmp	r3, #1
 574 0008 0BD0     		beq	.L34
 451:Drivers/STM32G0xx_HAL_Driver/Src/stm32g0xx_hal_uart_ex.c **** 
 575              		.loc 1 451 0 is_stmt 0 discriminator 2
 576 000a 7C22     		movs	r2, #124
 577 000c 0123     		movs	r3, #1
 578 000e 8354     		strb	r3, [r0, r2]
 454:Drivers/STM32G0xx_HAL_Driver/Src/stm32g0xx_hal_uart_ex.c **** 
 579              		.loc 1 454 0 is_stmt 1 discriminator 2
 580 0010 0168     		ldr	r1, [r0]
 581 0012 0B68     		ldr	r3, [r1]
 582 0014 0224     		movs	r4, #2
 583 0016 2343     		orrs	r3, r4
 584 0018 0B60     		str	r3, [r1]
 457:Drivers/STM32G0xx_HAL_Driver/Src/stm32g0xx_hal_uart_ex.c **** 
 585              		.loc 1 457 0 discriminator 2
 586 001a 0023     		movs	r3, #0
 587 001c 8354     		strb	r3, [r0, r2]
 459:Drivers/STM32G0xx_HAL_Driver/Src/stm32g0xx_hal_uart_ex.c **** }
 588              		.loc 1 459 0 discriminator 2
 589 001e 0020     		movs	r0, #0
 590              	.LVL51:
 591              	.L33:
 460:Drivers/STM32G0xx_HAL_Driver/Src/stm32g0xx_hal_uart_ex.c **** 
 592              		.loc 1 460 0
 593              		@ sp needed
 594 0020 10BD     		pop	{r4, pc}
 595              	.LVL52:
 596              	.L34:
 451:Drivers/STM32G0xx_HAL_Driver/Src/stm32g0xx_hal_uart_ex.c **** 
 597              		.loc 1 451 0
 598 0022 0220     		movs	r0, #2
 599              	.LVL53:
 600 0024 FCE7     		b	.L33
 601              		.cfi_endproc
 602              	.LFE179:
 604              		.section	.text.HAL_UARTEx_DisableStopMode,"ax",%progbits
 605              		.align	1
 606              		.global	HAL_UARTEx_DisableStopMode
 607              		.syntax unified
 608              		.code	16
 609              		.thumb_func
ARM GAS  /tmp/ccpnpwSS.s 			page 25


 610              		.fpu softvfp
 612              	HAL_UARTEx_DisableStopMode:
 613              	.LFB180:
 468:Drivers/STM32G0xx_HAL_Driver/Src/stm32g0xx_hal_uart_ex.c ****   /* Process Locked */
 614              		.loc 1 468 0
 615              		.cfi_startproc
 616              		@ args = 0, pretend = 0, frame = 0
 617              		@ frame_needed = 0, uses_anonymous_args = 0
 618              	.LVL54:
 619 0000 10B5     		push	{r4, lr}
 620              	.LCFI8:
 621              		.cfi_def_cfa_offset 8
 622              		.cfi_offset 4, -8
 623              		.cfi_offset 14, -4
 470:Drivers/STM32G0xx_HAL_Driver/Src/stm32g0xx_hal_uart_ex.c **** 
 624              		.loc 1 470 0
 625 0002 7C23     		movs	r3, #124
 626 0004 C35C     		ldrb	r3, [r0, r3]
 627 0006 012B     		cmp	r3, #1
 628 0008 0BD0     		beq	.L37
 470:Drivers/STM32G0xx_HAL_Driver/Src/stm32g0xx_hal_uart_ex.c **** 
 629              		.loc 1 470 0 is_stmt 0 discriminator 2
 630 000a 7C22     		movs	r2, #124
 631 000c 0123     		movs	r3, #1
 632 000e 8354     		strb	r3, [r0, r2]
 473:Drivers/STM32G0xx_HAL_Driver/Src/stm32g0xx_hal_uart_ex.c **** 
 633              		.loc 1 473 0 is_stmt 1 discriminator 2
 634 0010 0168     		ldr	r1, [r0]
 635 0012 0B68     		ldr	r3, [r1]
 636 0014 0224     		movs	r4, #2
 637 0016 A343     		bics	r3, r4
 638 0018 0B60     		str	r3, [r1]
 476:Drivers/STM32G0xx_HAL_Driver/Src/stm32g0xx_hal_uart_ex.c **** 
 639              		.loc 1 476 0 discriminator 2
 640 001a 0023     		movs	r3, #0
 641 001c 8354     		strb	r3, [r0, r2]
 478:Drivers/STM32G0xx_HAL_Driver/Src/stm32g0xx_hal_uart_ex.c **** }
 642              		.loc 1 478 0 discriminator 2
 643 001e 0020     		movs	r0, #0
 644              	.LVL55:
 645              	.L36:
 479:Drivers/STM32G0xx_HAL_Driver/Src/stm32g0xx_hal_uart_ex.c **** 
 646              		.loc 1 479 0
 647              		@ sp needed
 648 0020 10BD     		pop	{r4, pc}
 649              	.LVL56:
 650              	.L37:
 470:Drivers/STM32G0xx_HAL_Driver/Src/stm32g0xx_hal_uart_ex.c **** 
 651              		.loc 1 470 0
 652 0022 0220     		movs	r0, #2
 653              	.LVL57:
 654 0024 FCE7     		b	.L36
 655              		.cfi_endproc
 656              	.LFE180:
 658              		.section	.text.HAL_UARTEx_EnableFifoMode,"ax",%progbits
 659              		.align	1
 660              		.global	HAL_UARTEx_EnableFifoMode
ARM GAS  /tmp/ccpnpwSS.s 			page 26


 661              		.syntax unified
 662              		.code	16
 663              		.thumb_func
 664              		.fpu softvfp
 666              	HAL_UARTEx_EnableFifoMode:
 667              	.LFB181:
 487:Drivers/STM32G0xx_HAL_Driver/Src/stm32g0xx_hal_uart_ex.c ****   uint32_t tmpcr1;
 668              		.loc 1 487 0
 669              		.cfi_startproc
 670              		@ args = 0, pretend = 0, frame = 0
 671              		@ frame_needed = 0, uses_anonymous_args = 0
 672              	.LVL58:
 673 0000 70B5     		push	{r4, r5, r6, lr}
 674              	.LCFI9:
 675              		.cfi_def_cfa_offset 16
 676              		.cfi_offset 4, -16
 677              		.cfi_offset 5, -12
 678              		.cfi_offset 6, -8
 679              		.cfi_offset 14, -4
 680 0002 0400     		movs	r4, r0
 494:Drivers/STM32G0xx_HAL_Driver/Src/stm32g0xx_hal_uart_ex.c **** 
 681              		.loc 1 494 0
 682 0004 7C23     		movs	r3, #124
 683 0006 C35C     		ldrb	r3, [r0, r3]
 684 0008 012B     		cmp	r3, #1
 685 000a 19D0     		beq	.L40
 494:Drivers/STM32G0xx_HAL_Driver/Src/stm32g0xx_hal_uart_ex.c **** 
 686              		.loc 1 494 0 is_stmt 0 discriminator 2
 687 000c 7C25     		movs	r5, #124
 688 000e 0120     		movs	r0, #1
 689              	.LVL59:
 690 0010 6055     		strb	r0, [r4, r5]
 496:Drivers/STM32G0xx_HAL_Driver/Src/stm32g0xx_hal_uart_ex.c **** 
 691              		.loc 1 496 0 is_stmt 1 discriminator 2
 692 0012 8026     		movs	r6, #128
 693 0014 2423     		movs	r3, #36
 694 0016 A351     		str	r3, [r4, r6]
 499:Drivers/STM32G0xx_HAL_Driver/Src/stm32g0xx_hal_uart_ex.c **** 
 695              		.loc 1 499 0 discriminator 2
 696 0018 2268     		ldr	r2, [r4]
 697 001a 1368     		ldr	r3, [r2]
 698              	.LVL60:
 502:Drivers/STM32G0xx_HAL_Driver/Src/stm32g0xx_hal_uart_ex.c **** 
 699              		.loc 1 502 0 discriminator 2
 700 001c 1168     		ldr	r1, [r2]
 701 001e 8143     		bics	r1, r0
 702 0020 1160     		str	r1, [r2]
 505:Drivers/STM32G0xx_HAL_Driver/Src/stm32g0xx_hal_uart_ex.c ****   huart->FifoMode = UART_FIFOMODE_ENABLE;
 703              		.loc 1 505 0 discriminator 2
 704 0022 8022     		movs	r2, #128
 705 0024 9205     		lsls	r2, r2, #22
 706 0026 1343     		orrs	r3, r2
 707              	.LVL61:
 506:Drivers/STM32G0xx_HAL_Driver/Src/stm32g0xx_hal_uart_ex.c **** 
 708              		.loc 1 506 0 discriminator 2
 709 0028 6266     		str	r2, [r4, #100]
 509:Drivers/STM32G0xx_HAL_Driver/Src/stm32g0xx_hal_uart_ex.c **** 
ARM GAS  /tmp/ccpnpwSS.s 			page 27


 710              		.loc 1 509 0 discriminator 2
 711 002a 2268     		ldr	r2, [r4]
 712 002c 1360     		str	r3, [r2]
 512:Drivers/STM32G0xx_HAL_Driver/Src/stm32g0xx_hal_uart_ex.c **** 
 713              		.loc 1 512 0 discriminator 2
 714 002e 2000     		movs	r0, r4
 715 0030 FFF7FEFF 		bl	UARTEx_SetNbDataToProcess
 716              	.LVL62:
 514:Drivers/STM32G0xx_HAL_Driver/Src/stm32g0xx_hal_uart_ex.c **** 
 717              		.loc 1 514 0 discriminator 2
 718 0034 2023     		movs	r3, #32
 719 0036 A351     		str	r3, [r4, r6]
 517:Drivers/STM32G0xx_HAL_Driver/Src/stm32g0xx_hal_uart_ex.c **** 
 720              		.loc 1 517 0 discriminator 2
 721 0038 0023     		movs	r3, #0
 722 003a 6355     		strb	r3, [r4, r5]
 519:Drivers/STM32G0xx_HAL_Driver/Src/stm32g0xx_hal_uart_ex.c **** }
 723              		.loc 1 519 0 discriminator 2
 724 003c 0020     		movs	r0, #0
 725              	.L39:
 520:Drivers/STM32G0xx_HAL_Driver/Src/stm32g0xx_hal_uart_ex.c **** 
 726              		.loc 1 520 0
 727              		@ sp needed
 728              	.LVL63:
 729 003e 70BD     		pop	{r4, r5, r6, pc}
 730              	.LVL64:
 731              	.L40:
 494:Drivers/STM32G0xx_HAL_Driver/Src/stm32g0xx_hal_uart_ex.c **** 
 732              		.loc 1 494 0
 733 0040 0220     		movs	r0, #2
 734              	.LVL65:
 735 0042 FCE7     		b	.L39
 736              		.cfi_endproc
 737              	.LFE181:
 739              		.section	.text.HAL_UARTEx_DisableFifoMode,"ax",%progbits
 740              		.align	1
 741              		.global	HAL_UARTEx_DisableFifoMode
 742              		.syntax unified
 743              		.code	16
 744              		.thumb_func
 745              		.fpu softvfp
 747              	HAL_UARTEx_DisableFifoMode:
 748              	.LFB182:
 528:Drivers/STM32G0xx_HAL_Driver/Src/stm32g0xx_hal_uart_ex.c ****   uint32_t tmpcr1;
 749              		.loc 1 528 0
 750              		.cfi_startproc
 751              		@ args = 0, pretend = 0, frame = 0
 752              		@ frame_needed = 0, uses_anonymous_args = 0
 753              	.LVL66:
 754 0000 70B5     		push	{r4, r5, r6, lr}
 755              	.LCFI10:
 756              		.cfi_def_cfa_offset 16
 757              		.cfi_offset 4, -16
 758              		.cfi_offset 5, -12
 759              		.cfi_offset 6, -8
 760              		.cfi_offset 14, -4
 535:Drivers/STM32G0xx_HAL_Driver/Src/stm32g0xx_hal_uart_ex.c **** 
ARM GAS  /tmp/ccpnpwSS.s 			page 28


 761              		.loc 1 535 0
 762 0002 7C23     		movs	r3, #124
 763 0004 C35C     		ldrb	r3, [r0, r3]
 764 0006 012B     		cmp	r3, #1
 765 0008 15D0     		beq	.L43
 535:Drivers/STM32G0xx_HAL_Driver/Src/stm32g0xx_hal_uart_ex.c **** 
 766              		.loc 1 535 0 is_stmt 0 discriminator 2
 767 000a 7C24     		movs	r4, #124
 768 000c 0126     		movs	r6, #1
 769 000e 0655     		strb	r6, [r0, r4]
 537:Drivers/STM32G0xx_HAL_Driver/Src/stm32g0xx_hal_uart_ex.c **** 
 770              		.loc 1 537 0 is_stmt 1 discriminator 2
 771 0010 8025     		movs	r5, #128
 772 0012 2423     		movs	r3, #36
 773 0014 4351     		str	r3, [r0, r5]
 540:Drivers/STM32G0xx_HAL_Driver/Src/stm32g0xx_hal_uart_ex.c **** 
 774              		.loc 1 540 0 discriminator 2
 775 0016 0268     		ldr	r2, [r0]
 776 0018 1368     		ldr	r3, [r2]
 777              	.LVL67:
 543:Drivers/STM32G0xx_HAL_Driver/Src/stm32g0xx_hal_uart_ex.c **** 
 778              		.loc 1 543 0 discriminator 2
 779 001a 1168     		ldr	r1, [r2]
 780 001c B143     		bics	r1, r6
 781 001e 1160     		str	r1, [r2]
 546:Drivers/STM32G0xx_HAL_Driver/Src/stm32g0xx_hal_uart_ex.c ****   huart->FifoMode = UART_FIFOMODE_DISABLE;
 782              		.loc 1 546 0 discriminator 2
 783 0020 064A     		ldr	r2, .L44
 784 0022 1340     		ands	r3, r2
 785              	.LVL68:
 547:Drivers/STM32G0xx_HAL_Driver/Src/stm32g0xx_hal_uart_ex.c **** 
 786              		.loc 1 547 0 discriminator 2
 787 0024 0022     		movs	r2, #0
 788 0026 4266     		str	r2, [r0, #100]
 550:Drivers/STM32G0xx_HAL_Driver/Src/stm32g0xx_hal_uart_ex.c **** 
 789              		.loc 1 550 0 discriminator 2
 790 0028 0168     		ldr	r1, [r0]
 791 002a 0B60     		str	r3, [r1]
 552:Drivers/STM32G0xx_HAL_Driver/Src/stm32g0xx_hal_uart_ex.c **** 
 792              		.loc 1 552 0 discriminator 2
 793 002c 2023     		movs	r3, #32
 794              	.LVL69:
 795 002e 4351     		str	r3, [r0, r5]
 796              	.LVL70:
 555:Drivers/STM32G0xx_HAL_Driver/Src/stm32g0xx_hal_uart_ex.c **** 
 797              		.loc 1 555 0 discriminator 2
 798 0030 0255     		strb	r2, [r0, r4]
 557:Drivers/STM32G0xx_HAL_Driver/Src/stm32g0xx_hal_uart_ex.c **** }
 799              		.loc 1 557 0 discriminator 2
 800 0032 0020     		movs	r0, #0
 801              	.LVL71:
 802              	.L42:
 558:Drivers/STM32G0xx_HAL_Driver/Src/stm32g0xx_hal_uart_ex.c **** 
 803              		.loc 1 558 0
 804              		@ sp needed
 805 0034 70BD     		pop	{r4, r5, r6, pc}
 806              	.LVL72:
ARM GAS  /tmp/ccpnpwSS.s 			page 29


 807              	.L43:
 535:Drivers/STM32G0xx_HAL_Driver/Src/stm32g0xx_hal_uart_ex.c **** 
 808              		.loc 1 535 0
 809 0036 0220     		movs	r0, #2
 810              	.LVL73:
 811 0038 FCE7     		b	.L42
 812              	.L45:
 813 003a C046     		.align	2
 814              	.L44:
 815 003c FFFFFFDF 		.word	-536870913
 816              		.cfi_endproc
 817              	.LFE182:
 819              		.section	.text.HAL_UARTEx_SetTxFifoThreshold,"ax",%progbits
 820              		.align	1
 821              		.global	HAL_UARTEx_SetTxFifoThreshold
 822              		.syntax unified
 823              		.code	16
 824              		.thumb_func
 825              		.fpu softvfp
 827              	HAL_UARTEx_SetTxFifoThreshold:
 828              	.LFB183:
 574:Drivers/STM32G0xx_HAL_Driver/Src/stm32g0xx_hal_uart_ex.c ****   uint32_t tmpcr1;
 829              		.loc 1 574 0
 830              		.cfi_startproc
 831              		@ args = 0, pretend = 0, frame = 0
 832              		@ frame_needed = 0, uses_anonymous_args = 0
 833              	.LVL74:
 834 0000 F8B5     		push	{r3, r4, r5, r6, r7, lr}
 835              	.LCFI11:
 836              		.cfi_def_cfa_offset 24
 837              		.cfi_offset 3, -24
 838              		.cfi_offset 4, -20
 839              		.cfi_offset 5, -16
 840              		.cfi_offset 6, -12
 841              		.cfi_offset 7, -8
 842              		.cfi_offset 14, -4
 843 0002 0400     		movs	r4, r0
 582:Drivers/STM32G0xx_HAL_Driver/Src/stm32g0xx_hal_uart_ex.c **** 
 844              		.loc 1 582 0
 845 0004 7C23     		movs	r3, #124
 846 0006 C35C     		ldrb	r3, [r0, r3]
 847 0008 012B     		cmp	r3, #1
 848 000a 1BD0     		beq	.L48
 582:Drivers/STM32G0xx_HAL_Driver/Src/stm32g0xx_hal_uart_ex.c **** 
 849              		.loc 1 582 0 is_stmt 0 discriminator 2
 850 000c 7C25     		movs	r5, #124
 851 000e 0120     		movs	r0, #1
 852              	.LVL75:
 853 0010 6055     		strb	r0, [r4, r5]
 584:Drivers/STM32G0xx_HAL_Driver/Src/stm32g0xx_hal_uart_ex.c **** 
 854              		.loc 1 584 0 is_stmt 1 discriminator 2
 855 0012 8026     		movs	r6, #128
 856 0014 2423     		movs	r3, #36
 857 0016 A351     		str	r3, [r4, r6]
 587:Drivers/STM32G0xx_HAL_Driver/Src/stm32g0xx_hal_uart_ex.c **** 
 858              		.loc 1 587 0 discriminator 2
 859 0018 2368     		ldr	r3, [r4]
ARM GAS  /tmp/ccpnpwSS.s 			page 30


 860 001a 1F68     		ldr	r7, [r3]
 861              	.LVL76:
 590:Drivers/STM32G0xx_HAL_Driver/Src/stm32g0xx_hal_uart_ex.c **** 
 862              		.loc 1 590 0 discriminator 2
 863 001c 1A68     		ldr	r2, [r3]
 864 001e 8243     		bics	r2, r0
 865 0020 1A60     		str	r2, [r3]
 593:Drivers/STM32G0xx_HAL_Driver/Src/stm32g0xx_hal_uart_ex.c **** 
 866              		.loc 1 593 0 discriminator 2
 867 0022 2268     		ldr	r2, [r4]
 868 0024 9368     		ldr	r3, [r2, #8]
 869 0026 DB00     		lsls	r3, r3, #3
 870 0028 DB08     		lsrs	r3, r3, #3
 871 002a 1943     		orrs	r1, r3
 872              	.LVL77:
 873 002c 9160     		str	r1, [r2, #8]
 596:Drivers/STM32G0xx_HAL_Driver/Src/stm32g0xx_hal_uart_ex.c **** 
 874              		.loc 1 596 0 discriminator 2
 875 002e 2000     		movs	r0, r4
 876 0030 FFF7FEFF 		bl	UARTEx_SetNbDataToProcess
 877              	.LVL78:
 599:Drivers/STM32G0xx_HAL_Driver/Src/stm32g0xx_hal_uart_ex.c **** 
 878              		.loc 1 599 0 discriminator 2
 879 0034 2368     		ldr	r3, [r4]
 880 0036 1F60     		str	r7, [r3]
 601:Drivers/STM32G0xx_HAL_Driver/Src/stm32g0xx_hal_uart_ex.c **** 
 881              		.loc 1 601 0 discriminator 2
 882 0038 2023     		movs	r3, #32
 883 003a A351     		str	r3, [r4, r6]
 604:Drivers/STM32G0xx_HAL_Driver/Src/stm32g0xx_hal_uart_ex.c **** 
 884              		.loc 1 604 0 discriminator 2
 885 003c 0023     		movs	r3, #0
 886 003e 6355     		strb	r3, [r4, r5]
 606:Drivers/STM32G0xx_HAL_Driver/Src/stm32g0xx_hal_uart_ex.c **** }
 887              		.loc 1 606 0 discriminator 2
 888 0040 0020     		movs	r0, #0
 889              	.LVL79:
 890              	.L47:
 607:Drivers/STM32G0xx_HAL_Driver/Src/stm32g0xx_hal_uart_ex.c **** 
 891              		.loc 1 607 0
 892              		@ sp needed
 893              	.LVL80:
 894 0042 F8BD     		pop	{r3, r4, r5, r6, r7, pc}
 895              	.LVL81:
 896              	.L48:
 582:Drivers/STM32G0xx_HAL_Driver/Src/stm32g0xx_hal_uart_ex.c **** 
 897              		.loc 1 582 0
 898 0044 0220     		movs	r0, #2
 899              	.LVL82:
 900 0046 FCE7     		b	.L47
 901              		.cfi_endproc
 902              	.LFE183:
 904              		.section	.text.HAL_UARTEx_SetRxFifoThreshold,"ax",%progbits
 905              		.align	1
 906              		.global	HAL_UARTEx_SetRxFifoThreshold
 907              		.syntax unified
 908              		.code	16
ARM GAS  /tmp/ccpnpwSS.s 			page 31


 909              		.thumb_func
 910              		.fpu softvfp
 912              	HAL_UARTEx_SetRxFifoThreshold:
 913              	.LFB184:
 623:Drivers/STM32G0xx_HAL_Driver/Src/stm32g0xx_hal_uart_ex.c ****   uint32_t tmpcr1;
 914              		.loc 1 623 0
 915              		.cfi_startproc
 916              		@ args = 0, pretend = 0, frame = 0
 917              		@ frame_needed = 0, uses_anonymous_args = 0
 918              	.LVL83:
 919 0000 F8B5     		push	{r3, r4, r5, r6, r7, lr}
 920              	.LCFI12:
 921              		.cfi_def_cfa_offset 24
 922              		.cfi_offset 3, -24
 923              		.cfi_offset 4, -20
 924              		.cfi_offset 5, -16
 925              		.cfi_offset 6, -12
 926              		.cfi_offset 7, -8
 927              		.cfi_offset 14, -4
 928 0002 0400     		movs	r4, r0
 631:Drivers/STM32G0xx_HAL_Driver/Src/stm32g0xx_hal_uart_ex.c **** 
 929              		.loc 1 631 0
 930 0004 7C23     		movs	r3, #124
 931 0006 C35C     		ldrb	r3, [r0, r3]
 932 0008 012B     		cmp	r3, #1
 933 000a 1BD0     		beq	.L51
 631:Drivers/STM32G0xx_HAL_Driver/Src/stm32g0xx_hal_uart_ex.c **** 
 934              		.loc 1 631 0 is_stmt 0 discriminator 2
 935 000c 7C25     		movs	r5, #124
 936 000e 0120     		movs	r0, #1
 937              	.LVL84:
 938 0010 6055     		strb	r0, [r4, r5]
 633:Drivers/STM32G0xx_HAL_Driver/Src/stm32g0xx_hal_uart_ex.c **** 
 939              		.loc 1 633 0 is_stmt 1 discriminator 2
 940 0012 8026     		movs	r6, #128
 941 0014 2423     		movs	r3, #36
 942 0016 A351     		str	r3, [r4, r6]
 636:Drivers/STM32G0xx_HAL_Driver/Src/stm32g0xx_hal_uart_ex.c **** 
 943              		.loc 1 636 0 discriminator 2
 944 0018 2368     		ldr	r3, [r4]
 945 001a 1F68     		ldr	r7, [r3]
 946              	.LVL85:
 639:Drivers/STM32G0xx_HAL_Driver/Src/stm32g0xx_hal_uart_ex.c **** 
 947              		.loc 1 639 0 discriminator 2
 948 001c 1A68     		ldr	r2, [r3]
 949 001e 8243     		bics	r2, r0
 950 0020 1A60     		str	r2, [r3]
 642:Drivers/STM32G0xx_HAL_Driver/Src/stm32g0xx_hal_uart_ex.c **** 
 951              		.loc 1 642 0 discriminator 2
 952 0022 2268     		ldr	r2, [r4]
 953 0024 9368     		ldr	r3, [r2, #8]
 954 0026 0848     		ldr	r0, .L52
 955 0028 0340     		ands	r3, r0
 956 002a 1943     		orrs	r1, r3
 957              	.LVL86:
 958 002c 9160     		str	r1, [r2, #8]
 645:Drivers/STM32G0xx_HAL_Driver/Src/stm32g0xx_hal_uart_ex.c **** 
ARM GAS  /tmp/ccpnpwSS.s 			page 32


 959              		.loc 1 645 0 discriminator 2
 960 002e 2000     		movs	r0, r4
 961 0030 FFF7FEFF 		bl	UARTEx_SetNbDataToProcess
 962              	.LVL87:
 648:Drivers/STM32G0xx_HAL_Driver/Src/stm32g0xx_hal_uart_ex.c **** 
 963              		.loc 1 648 0 discriminator 2
 964 0034 2368     		ldr	r3, [r4]
 965 0036 1F60     		str	r7, [r3]
 650:Drivers/STM32G0xx_HAL_Driver/Src/stm32g0xx_hal_uart_ex.c **** 
 966              		.loc 1 650 0 discriminator 2
 967 0038 2023     		movs	r3, #32
 968 003a A351     		str	r3, [r4, r6]
 653:Drivers/STM32G0xx_HAL_Driver/Src/stm32g0xx_hal_uart_ex.c **** 
 969              		.loc 1 653 0 discriminator 2
 970 003c 0023     		movs	r3, #0
 971 003e 6355     		strb	r3, [r4, r5]
 655:Drivers/STM32G0xx_HAL_Driver/Src/stm32g0xx_hal_uart_ex.c **** }
 972              		.loc 1 655 0 discriminator 2
 973 0040 0020     		movs	r0, #0
 974              	.LVL88:
 975              	.L50:
 656:Drivers/STM32G0xx_HAL_Driver/Src/stm32g0xx_hal_uart_ex.c **** 
 976              		.loc 1 656 0
 977              		@ sp needed
 978              	.LVL89:
 979 0042 F8BD     		pop	{r3, r4, r5, r6, r7, pc}
 980              	.LVL90:
 981              	.L51:
 631:Drivers/STM32G0xx_HAL_Driver/Src/stm32g0xx_hal_uart_ex.c **** 
 982              		.loc 1 631 0
 983 0044 0220     		movs	r0, #2
 984              	.LVL91:
 985 0046 FCE7     		b	.L50
 986              	.L53:
 987              		.align	2
 988              	.L52:
 989 0048 FFFFFFF1 		.word	-234881025
 990              		.cfi_endproc
 991              	.LFE184:
 993              		.section	.rodata
 994              		.align	2
 995              		.set	.LANCHOR0,. + 0
 996              	.LC0:
 997 0000 01       		.byte	1
 998 0001 01       		.byte	1
 999 0002 01       		.byte	1
 1000 0003 03       		.byte	3
 1001 0004 07       		.byte	7
 1002 0005 01       		.byte	1
 1003 0006 00       		.byte	0
 1004 0007 00       		.byte	0
 1005              	.LC1:
 1006 0008 08       		.byte	8
 1007 0009 04       		.byte	4
 1008 000a 02       		.byte	2
 1009 000b 04       		.byte	4
 1010 000c 08       		.byte	8
ARM GAS  /tmp/ccpnpwSS.s 			page 33


 1011 000d 01       		.byte	1
 1012 000e 01       		.byte	1
 1013 000f 01       		.byte	1
 1014              		.text
 1015              	.Letext0:
 1016              		.file 2 "/usr/include/newlib/machine/_default_types.h"
 1017              		.file 3 "/usr/include/newlib/sys/_stdint.h"
 1018              		.file 4 "Drivers/CMSIS/Device/ST/STM32G0xx/Include/system_stm32g0xx.h"
 1019              		.file 5 "Drivers/CMSIS/Device/ST/STM32G0xx/Include/stm32g071xx.h"
 1020              		.file 6 "Drivers/CMSIS/Device/ST/STM32G0xx/Include/stm32g0xx.h"
 1021              		.file 7 "Drivers/STM32G0xx_HAL_Driver/Inc/stm32g0xx_hal_def.h"
 1022              		.file 8 "Drivers/STM32G0xx_HAL_Driver/Inc/stm32g0xx_hal_dma.h"
 1023              		.file 9 "Drivers/STM32G0xx_HAL_Driver/Inc/stm32g0xx_hal_flash.h"
 1024              		.file 10 "Drivers/STM32G0xx_HAL_Driver/Inc/stm32g0xx_hal_uart.h"
 1025              		.file 11 "Drivers/STM32G0xx_HAL_Driver/Inc/stm32g0xx_hal_uart_ex.h"
 1026              		.file 12 "Drivers/STM32G0xx_HAL_Driver/Inc/stm32g0xx_hal.h"
ARM GAS  /tmp/ccpnpwSS.s 			page 34

