ARM GAS  C:\Users\matil\AppData\Local\Temp\cc9YAXdg.s 			page 1


   1              		.cpu cortex-m0plus
   2              		.eabi_attribute 20, 1
   3              		.eabi_attribute 21, 1
   4              		.eabi_attribute 23, 3
   5              		.eabi_attribute 24, 1
   6              		.eabi_attribute 25, 1
   7              		.eabi_attribute 26, 1
   8              		.eabi_attribute 30, 1
   9              		.eabi_attribute 34, 0
  10              		.eabi_attribute 18, 4
  11              		.file	"stm32g0xx_hal_flash_ex.c"
  12              		.text
  13              	.Ltext0:
  14              		.cfi_sections	.debug_frame
  15              		.section	.text.FLASH_MassErase,"ax",%progbits
  16              		.align	1
  17              		.arch armv6s-m
  18              		.syntax unified
  19              		.code	16
  20              		.thumb_func
  21              		.fpu softvfp
  23              	FLASH_MassErase:
  24              	.LFB182:
  25              		.file 1 "Drivers/STM32G0xx_HAL_Driver/Src/stm32g0xx_hal_flash_ex.c"
   1:Drivers/STM32G0xx_HAL_Driver/Src/stm32g0xx_hal_flash_ex.c **** /**
   2:Drivers/STM32G0xx_HAL_Driver/Src/stm32g0xx_hal_flash_ex.c ****   ******************************************************************************
   3:Drivers/STM32G0xx_HAL_Driver/Src/stm32g0xx_hal_flash_ex.c ****   * @file    stm32g0xx_hal_flash_ex.c
   4:Drivers/STM32G0xx_HAL_Driver/Src/stm32g0xx_hal_flash_ex.c ****   * @author  MCD Application Team
   5:Drivers/STM32G0xx_HAL_Driver/Src/stm32g0xx_hal_flash_ex.c ****   * @brief   Extended FLASH HAL module driver.
   6:Drivers/STM32G0xx_HAL_Driver/Src/stm32g0xx_hal_flash_ex.c ****   *          This file provides firmware functions to manage the following
   7:Drivers/STM32G0xx_HAL_Driver/Src/stm32g0xx_hal_flash_ex.c ****   *          functionalities of the FLASH extended peripheral:
   8:Drivers/STM32G0xx_HAL_Driver/Src/stm32g0xx_hal_flash_ex.c ****   *           + Extended programming operations functions
   9:Drivers/STM32G0xx_HAL_Driver/Src/stm32g0xx_hal_flash_ex.c ****   *
  10:Drivers/STM32G0xx_HAL_Driver/Src/stm32g0xx_hal_flash_ex.c ****  @verbatim
  11:Drivers/STM32G0xx_HAL_Driver/Src/stm32g0xx_hal_flash_ex.c ****  ==============================================================================
  12:Drivers/STM32G0xx_HAL_Driver/Src/stm32g0xx_hal_flash_ex.c ****                    ##### Flash Extended features #####
  13:Drivers/STM32G0xx_HAL_Driver/Src/stm32g0xx_hal_flash_ex.c ****   ==============================================================================
  14:Drivers/STM32G0xx_HAL_Driver/Src/stm32g0xx_hal_flash_ex.c **** 
  15:Drivers/STM32G0xx_HAL_Driver/Src/stm32g0xx_hal_flash_ex.c ****   [..] Comparing to other previous devices, the FLASH interface for STM32G0xx
  16:Drivers/STM32G0xx_HAL_Driver/Src/stm32g0xx_hal_flash_ex.c ****        devices contains the following additional features
  17:Drivers/STM32G0xx_HAL_Driver/Src/stm32g0xx_hal_flash_ex.c **** 
  18:Drivers/STM32G0xx_HAL_Driver/Src/stm32g0xx_hal_flash_ex.c ****        (+) Capacity up to 128 Kbytes with single bank architecture supporting read-while-write
  19:Drivers/STM32G0xx_HAL_Driver/Src/stm32g0xx_hal_flash_ex.c ****            capability (RWW)
  20:Drivers/STM32G0xx_HAL_Driver/Src/stm32g0xx_hal_flash_ex.c ****        (+) Single bank memory organization
  21:Drivers/STM32G0xx_HAL_Driver/Src/stm32g0xx_hal_flash_ex.c ****        (+) PCROP protection
  22:Drivers/STM32G0xx_HAL_Driver/Src/stm32g0xx_hal_flash_ex.c **** 
  23:Drivers/STM32G0xx_HAL_Driver/Src/stm32g0xx_hal_flash_ex.c ****                         ##### How to use this driver #####
  24:Drivers/STM32G0xx_HAL_Driver/Src/stm32g0xx_hal_flash_ex.c ****  ==============================================================================
  25:Drivers/STM32G0xx_HAL_Driver/Src/stm32g0xx_hal_flash_ex.c ****   [..] This driver provides functions to configure and program the FLASH memory
  26:Drivers/STM32G0xx_HAL_Driver/Src/stm32g0xx_hal_flash_ex.c ****        of all STM32G0xx devices. It includes
  27:Drivers/STM32G0xx_HAL_Driver/Src/stm32g0xx_hal_flash_ex.c ****       (#) Flash Memory Erase functions:
  28:Drivers/STM32G0xx_HAL_Driver/Src/stm32g0xx_hal_flash_ex.c ****            (++) Lock and Unlock the FLASH interface using HAL_FLASH_Unlock() and
  29:Drivers/STM32G0xx_HAL_Driver/Src/stm32g0xx_hal_flash_ex.c ****                 HAL_FLASH_Lock() functions
  30:Drivers/STM32G0xx_HAL_Driver/Src/stm32g0xx_hal_flash_ex.c ****            (++) Erase function: Erase page, erase all sectors
  31:Drivers/STM32G0xx_HAL_Driver/Src/stm32g0xx_hal_flash_ex.c ****            (++) There are two modes of erase :
  32:Drivers/STM32G0xx_HAL_Driver/Src/stm32g0xx_hal_flash_ex.c ****              (+++) Polling Mode using HAL_FLASHEx_Erase()
  33:Drivers/STM32G0xx_HAL_Driver/Src/stm32g0xx_hal_flash_ex.c ****              (+++) Interrupt Mode using HAL_FLASHEx_Erase_IT()
ARM GAS  C:\Users\matil\AppData\Local\Temp\cc9YAXdg.s 			page 2


  34:Drivers/STM32G0xx_HAL_Driver/Src/stm32g0xx_hal_flash_ex.c **** 
  35:Drivers/STM32G0xx_HAL_Driver/Src/stm32g0xx_hal_flash_ex.c ****       (#) Option Bytes Programming function: Use HAL_FLASHEx_OBProgram() to :
  36:Drivers/STM32G0xx_HAL_Driver/Src/stm32g0xx_hal_flash_ex.c ****         (++) Set/Reset the write protection
  37:Drivers/STM32G0xx_HAL_Driver/Src/stm32g0xx_hal_flash_ex.c ****         (++) Set the Read protection Level
  38:Drivers/STM32G0xx_HAL_Driver/Src/stm32g0xx_hal_flash_ex.c ****         (++) Program the user Option Bytes
  39:Drivers/STM32G0xx_HAL_Driver/Src/stm32g0xx_hal_flash_ex.c ****         (++) Configure the PCROP protection
  40:Drivers/STM32G0xx_HAL_Driver/Src/stm32g0xx_hal_flash_ex.c ****         (++) Set Securable memory area and boot entry point
  41:Drivers/STM32G0xx_HAL_Driver/Src/stm32g0xx_hal_flash_ex.c **** 
  42:Drivers/STM32G0xx_HAL_Driver/Src/stm32g0xx_hal_flash_ex.c ****       (#) Get Option Bytes Configuration function: Use HAL_FLASHEx_OBGetConfig() to :
  43:Drivers/STM32G0xx_HAL_Driver/Src/stm32g0xx_hal_flash_ex.c ****         (++) Get the value of a write protection area
  44:Drivers/STM32G0xx_HAL_Driver/Src/stm32g0xx_hal_flash_ex.c ****         (++) Know if the read protection is activated
  45:Drivers/STM32G0xx_HAL_Driver/Src/stm32g0xx_hal_flash_ex.c ****         (++) Get the value of the user Option Bytes
  46:Drivers/STM32G0xx_HAL_Driver/Src/stm32g0xx_hal_flash_ex.c ****         (++) Get Securable memory area and boot entry point informations
  47:Drivers/STM32G0xx_HAL_Driver/Src/stm32g0xx_hal_flash_ex.c **** 
  48:Drivers/STM32G0xx_HAL_Driver/Src/stm32g0xx_hal_flash_ex.c ****       (#) Enable or disable debugger usage using HAL_FLASHEx_EnableDebugger and
  49:Drivers/STM32G0xx_HAL_Driver/Src/stm32g0xx_hal_flash_ex.c ****           HAL_FLASHEx_DisableDebugger.
  50:Drivers/STM32G0xx_HAL_Driver/Src/stm32g0xx_hal_flash_ex.c **** 
  51:Drivers/STM32G0xx_HAL_Driver/Src/stm32g0xx_hal_flash_ex.c ****       (#) Check is flash content is empty or not using HAL_FLASHEx_FlashEmptyCheck.
  52:Drivers/STM32G0xx_HAL_Driver/Src/stm32g0xx_hal_flash_ex.c ****           and modify this setting (for flash loader purpose e.g.) using
  53:Drivers/STM32G0xx_HAL_Driver/Src/stm32g0xx_hal_flash_ex.c ****           HAL_FLASHEx_ForceFlashEmpty.
  54:Drivers/STM32G0xx_HAL_Driver/Src/stm32g0xx_hal_flash_ex.c **** 
  55:Drivers/STM32G0xx_HAL_Driver/Src/stm32g0xx_hal_flash_ex.c ****       (#) Enable securable memory area protectionusing HAL_FLASHEx_EnableSecMemProtection
  56:Drivers/STM32G0xx_HAL_Driver/Src/stm32g0xx_hal_flash_ex.c **** 
  57:Drivers/STM32G0xx_HAL_Driver/Src/stm32g0xx_hal_flash_ex.c ****  @endverbatim
  58:Drivers/STM32G0xx_HAL_Driver/Src/stm32g0xx_hal_flash_ex.c ****   ******************************************************************************
  59:Drivers/STM32G0xx_HAL_Driver/Src/stm32g0xx_hal_flash_ex.c ****   * @attention
  60:Drivers/STM32G0xx_HAL_Driver/Src/stm32g0xx_hal_flash_ex.c ****   *
  61:Drivers/STM32G0xx_HAL_Driver/Src/stm32g0xx_hal_flash_ex.c ****   * <h2><center>&copy; Copyright (c) 2018 STMicroelectronics.
  62:Drivers/STM32G0xx_HAL_Driver/Src/stm32g0xx_hal_flash_ex.c ****   * All rights reserved.</center></h2>
  63:Drivers/STM32G0xx_HAL_Driver/Src/stm32g0xx_hal_flash_ex.c ****   *
  64:Drivers/STM32G0xx_HAL_Driver/Src/stm32g0xx_hal_flash_ex.c ****   * This software component is licensed by ST under BSD 3-Clause license,
  65:Drivers/STM32G0xx_HAL_Driver/Src/stm32g0xx_hal_flash_ex.c ****   * the "License"; You may not use this file except in compliance with the
  66:Drivers/STM32G0xx_HAL_Driver/Src/stm32g0xx_hal_flash_ex.c ****   * License. You may obtain a copy of the License at:
  67:Drivers/STM32G0xx_HAL_Driver/Src/stm32g0xx_hal_flash_ex.c ****   *                        opensource.org/licenses/BSD-3-Clause
  68:Drivers/STM32G0xx_HAL_Driver/Src/stm32g0xx_hal_flash_ex.c ****   *
  69:Drivers/STM32G0xx_HAL_Driver/Src/stm32g0xx_hal_flash_ex.c ****   ******************************************************************************
  70:Drivers/STM32G0xx_HAL_Driver/Src/stm32g0xx_hal_flash_ex.c ****   */
  71:Drivers/STM32G0xx_HAL_Driver/Src/stm32g0xx_hal_flash_ex.c **** 
  72:Drivers/STM32G0xx_HAL_Driver/Src/stm32g0xx_hal_flash_ex.c **** /* Includes ------------------------------------------------------------------*/
  73:Drivers/STM32G0xx_HAL_Driver/Src/stm32g0xx_hal_flash_ex.c **** #include "stm32g0xx_hal.h"
  74:Drivers/STM32G0xx_HAL_Driver/Src/stm32g0xx_hal_flash_ex.c **** 
  75:Drivers/STM32G0xx_HAL_Driver/Src/stm32g0xx_hal_flash_ex.c **** /** @addtogroup STM32G0xx_HAL_Driver
  76:Drivers/STM32G0xx_HAL_Driver/Src/stm32g0xx_hal_flash_ex.c ****   * @{
  77:Drivers/STM32G0xx_HAL_Driver/Src/stm32g0xx_hal_flash_ex.c ****   */
  78:Drivers/STM32G0xx_HAL_Driver/Src/stm32g0xx_hal_flash_ex.c **** 
  79:Drivers/STM32G0xx_HAL_Driver/Src/stm32g0xx_hal_flash_ex.c **** /** @defgroup FLASHEx FLASHEx
  80:Drivers/STM32G0xx_HAL_Driver/Src/stm32g0xx_hal_flash_ex.c ****   * @brief FLASH Extended HAL module driver
  81:Drivers/STM32G0xx_HAL_Driver/Src/stm32g0xx_hal_flash_ex.c ****   * @{
  82:Drivers/STM32G0xx_HAL_Driver/Src/stm32g0xx_hal_flash_ex.c ****   */
  83:Drivers/STM32G0xx_HAL_Driver/Src/stm32g0xx_hal_flash_ex.c **** 
  84:Drivers/STM32G0xx_HAL_Driver/Src/stm32g0xx_hal_flash_ex.c **** #ifdef HAL_FLASH_MODULE_ENABLED
  85:Drivers/STM32G0xx_HAL_Driver/Src/stm32g0xx_hal_flash_ex.c **** 
  86:Drivers/STM32G0xx_HAL_Driver/Src/stm32g0xx_hal_flash_ex.c **** /* Private typedef -----------------------------------------------------------*/
  87:Drivers/STM32G0xx_HAL_Driver/Src/stm32g0xx_hal_flash_ex.c **** /* Private define ------------------------------------------------------------*/
  88:Drivers/STM32G0xx_HAL_Driver/Src/stm32g0xx_hal_flash_ex.c **** /* Private macro -------------------------------------------------------------*/
  89:Drivers/STM32G0xx_HAL_Driver/Src/stm32g0xx_hal_flash_ex.c **** /* Private variables ---------------------------------------------------------*/
  90:Drivers/STM32G0xx_HAL_Driver/Src/stm32g0xx_hal_flash_ex.c **** /* Private function prototypes -----------------------------------------------*/
ARM GAS  C:\Users\matil\AppData\Local\Temp\cc9YAXdg.s 			page 3


  91:Drivers/STM32G0xx_HAL_Driver/Src/stm32g0xx_hal_flash_ex.c **** /** @defgroup FLASHEx_Private_Functions FLASHEx Private Functions
  92:Drivers/STM32G0xx_HAL_Driver/Src/stm32g0xx_hal_flash_ex.c ****  * @{
  93:Drivers/STM32G0xx_HAL_Driver/Src/stm32g0xx_hal_flash_ex.c ****  */
  94:Drivers/STM32G0xx_HAL_Driver/Src/stm32g0xx_hal_flash_ex.c **** static void               FLASH_MassErase(void);
  95:Drivers/STM32G0xx_HAL_Driver/Src/stm32g0xx_hal_flash_ex.c **** void                      FLASH_FlushCaches(void);
  96:Drivers/STM32G0xx_HAL_Driver/Src/stm32g0xx_hal_flash_ex.c **** static void               FLASH_OB_WRPConfig(uint32_t WRPArea, uint32_t WRPStartOffset, uint32_t WR
  97:Drivers/STM32G0xx_HAL_Driver/Src/stm32g0xx_hal_flash_ex.c **** static void               FLASH_OB_OptrConfig(uint32_t UserType, uint32_t UserConfig, uint32_t RDPL
  98:Drivers/STM32G0xx_HAL_Driver/Src/stm32g0xx_hal_flash_ex.c **** #if defined(FLASH_PCROP_SUPPORT)
  99:Drivers/STM32G0xx_HAL_Driver/Src/stm32g0xx_hal_flash_ex.c **** static void               FLASH_OB_PCROP1AConfig(uint32_t PCROPConfig, uint32_t PCROP1AStartAddr, u
 100:Drivers/STM32G0xx_HAL_Driver/Src/stm32g0xx_hal_flash_ex.c **** static void               FLASH_OB_PCROP1BConfig(uint32_t PCROP1BStartAddr, uint32_t PCROP1BEndAddr
 101:Drivers/STM32G0xx_HAL_Driver/Src/stm32g0xx_hal_flash_ex.c **** #endif
 102:Drivers/STM32G0xx_HAL_Driver/Src/stm32g0xx_hal_flash_ex.c **** #if defined(FLASH_SECURABLE_MEMORY_SUPPORT)
 103:Drivers/STM32G0xx_HAL_Driver/Src/stm32g0xx_hal_flash_ex.c **** static void               FLASH_OB_SecMemConfig(uint32_t BootEntry, uint32_t SecSize);
 104:Drivers/STM32G0xx_HAL_Driver/Src/stm32g0xx_hal_flash_ex.c **** #endif
 105:Drivers/STM32G0xx_HAL_Driver/Src/stm32g0xx_hal_flash_ex.c **** static void               FLASH_OB_GetWRP(uint32_t WRPArea, uint32_t *WRPStartOffset, uint32_t *WRD
 106:Drivers/STM32G0xx_HAL_Driver/Src/stm32g0xx_hal_flash_ex.c **** static uint32_t           FLASH_OB_GetRDP(void);
 107:Drivers/STM32G0xx_HAL_Driver/Src/stm32g0xx_hal_flash_ex.c **** static uint32_t           FLASH_OB_GetUser(void);
 108:Drivers/STM32G0xx_HAL_Driver/Src/stm32g0xx_hal_flash_ex.c **** #if defined(FLASH_PCROP_SUPPORT)
 109:Drivers/STM32G0xx_HAL_Driver/Src/stm32g0xx_hal_flash_ex.c **** static void               FLASH_OB_GetPCROP1A(uint32_t *PCROPConfig, uint32_t *PCROP1AStartAddr, ui
 110:Drivers/STM32G0xx_HAL_Driver/Src/stm32g0xx_hal_flash_ex.c **** static void               FLASH_OB_GetPCROP1B(uint32_t *PCROP1BStartAddr, uint32_t *PCROP1BEndAddr)
 111:Drivers/STM32G0xx_HAL_Driver/Src/stm32g0xx_hal_flash_ex.c **** #endif
 112:Drivers/STM32G0xx_HAL_Driver/Src/stm32g0xx_hal_flash_ex.c **** #if defined(FLASH_SECURABLE_MEMORY_SUPPORT)
 113:Drivers/STM32G0xx_HAL_Driver/Src/stm32g0xx_hal_flash_ex.c **** static void               FLASH_OB_GetSecMem(uint32_t *BootEntry, uint32_t *SecSize);
 114:Drivers/STM32G0xx_HAL_Driver/Src/stm32g0xx_hal_flash_ex.c **** #endif
 115:Drivers/STM32G0xx_HAL_Driver/Src/stm32g0xx_hal_flash_ex.c **** /**
 116:Drivers/STM32G0xx_HAL_Driver/Src/stm32g0xx_hal_flash_ex.c ****   * @}
 117:Drivers/STM32G0xx_HAL_Driver/Src/stm32g0xx_hal_flash_ex.c ****   */
 118:Drivers/STM32G0xx_HAL_Driver/Src/stm32g0xx_hal_flash_ex.c **** 
 119:Drivers/STM32G0xx_HAL_Driver/Src/stm32g0xx_hal_flash_ex.c **** /* Exported functions -------------------------------------------------------*/
 120:Drivers/STM32G0xx_HAL_Driver/Src/stm32g0xx_hal_flash_ex.c **** /** @defgroup FLASHEx_Exported_Functions FLASH Extended Exported Functions
 121:Drivers/STM32G0xx_HAL_Driver/Src/stm32g0xx_hal_flash_ex.c ****   * @{
 122:Drivers/STM32G0xx_HAL_Driver/Src/stm32g0xx_hal_flash_ex.c ****   */
 123:Drivers/STM32G0xx_HAL_Driver/Src/stm32g0xx_hal_flash_ex.c **** 
 124:Drivers/STM32G0xx_HAL_Driver/Src/stm32g0xx_hal_flash_ex.c **** /** @defgroup FLASHEx_Exported_Functions_Group1 Extended IO operation functions
 125:Drivers/STM32G0xx_HAL_Driver/Src/stm32g0xx_hal_flash_ex.c ****  *  @brief   Extended IO operation functions
 126:Drivers/STM32G0xx_HAL_Driver/Src/stm32g0xx_hal_flash_ex.c ****  *
 127:Drivers/STM32G0xx_HAL_Driver/Src/stm32g0xx_hal_flash_ex.c **** @verbatim
 128:Drivers/STM32G0xx_HAL_Driver/Src/stm32g0xx_hal_flash_ex.c ****  ===============================================================================
 129:Drivers/STM32G0xx_HAL_Driver/Src/stm32g0xx_hal_flash_ex.c ****                 ##### Extended programming operation functions #####
 130:Drivers/STM32G0xx_HAL_Driver/Src/stm32g0xx_hal_flash_ex.c ****  ===============================================================================
 131:Drivers/STM32G0xx_HAL_Driver/Src/stm32g0xx_hal_flash_ex.c ****     [..]
 132:Drivers/STM32G0xx_HAL_Driver/Src/stm32g0xx_hal_flash_ex.c ****     This subsection provides a set of functions allowing to manage the Extended FLASH
 133:Drivers/STM32G0xx_HAL_Driver/Src/stm32g0xx_hal_flash_ex.c ****     programming operations Operations.
 134:Drivers/STM32G0xx_HAL_Driver/Src/stm32g0xx_hal_flash_ex.c **** 
 135:Drivers/STM32G0xx_HAL_Driver/Src/stm32g0xx_hal_flash_ex.c **** @endverbatim
 136:Drivers/STM32G0xx_HAL_Driver/Src/stm32g0xx_hal_flash_ex.c ****   * @{
 137:Drivers/STM32G0xx_HAL_Driver/Src/stm32g0xx_hal_flash_ex.c ****   */
 138:Drivers/STM32G0xx_HAL_Driver/Src/stm32g0xx_hal_flash_ex.c **** /**
 139:Drivers/STM32G0xx_HAL_Driver/Src/stm32g0xx_hal_flash_ex.c ****   * @brief  Perform a mass erase or erase the specified FLASH memory pages.
 140:Drivers/STM32G0xx_HAL_Driver/Src/stm32g0xx_hal_flash_ex.c ****   * @param[in]  pEraseInit Pointer to an @ref FLASH_EraseInitTypeDef structure that
 141:Drivers/STM32G0xx_HAL_Driver/Src/stm32g0xx_hal_flash_ex.c ****   *         contains the configuration information for the erasing.
 142:Drivers/STM32G0xx_HAL_Driver/Src/stm32g0xx_hal_flash_ex.c ****   * @param[out]  PageError Pointer to variable that contains the configuration
 143:Drivers/STM32G0xx_HAL_Driver/Src/stm32g0xx_hal_flash_ex.c ****   *         information on faulty page in case of error (0xFFFFFFFF means that all
 144:Drivers/STM32G0xx_HAL_Driver/Src/stm32g0xx_hal_flash_ex.c ****   *         the pages have been correctly erased)
 145:Drivers/STM32G0xx_HAL_Driver/Src/stm32g0xx_hal_flash_ex.c ****   * @retval HAL Status
 146:Drivers/STM32G0xx_HAL_Driver/Src/stm32g0xx_hal_flash_ex.c ****   */
 147:Drivers/STM32G0xx_HAL_Driver/Src/stm32g0xx_hal_flash_ex.c **** HAL_StatusTypeDef HAL_FLASHEx_Erase(FLASH_EraseInitTypeDef *pEraseInit, uint32_t *PageError)
ARM GAS  C:\Users\matil\AppData\Local\Temp\cc9YAXdg.s 			page 4


 148:Drivers/STM32G0xx_HAL_Driver/Src/stm32g0xx_hal_flash_ex.c **** {
 149:Drivers/STM32G0xx_HAL_Driver/Src/stm32g0xx_hal_flash_ex.c ****   HAL_StatusTypeDef status;
 150:Drivers/STM32G0xx_HAL_Driver/Src/stm32g0xx_hal_flash_ex.c ****   uint32_t index;
 151:Drivers/STM32G0xx_HAL_Driver/Src/stm32g0xx_hal_flash_ex.c **** 
 152:Drivers/STM32G0xx_HAL_Driver/Src/stm32g0xx_hal_flash_ex.c ****   /* Check the parameters */
 153:Drivers/STM32G0xx_HAL_Driver/Src/stm32g0xx_hal_flash_ex.c ****   assert_param(IS_FLASH_TYPEERASE(pEraseInit->TypeErase));
 154:Drivers/STM32G0xx_HAL_Driver/Src/stm32g0xx_hal_flash_ex.c **** 
 155:Drivers/STM32G0xx_HAL_Driver/Src/stm32g0xx_hal_flash_ex.c ****   /* Process Locked */
 156:Drivers/STM32G0xx_HAL_Driver/Src/stm32g0xx_hal_flash_ex.c ****   __HAL_LOCK(&pFlash);
 157:Drivers/STM32G0xx_HAL_Driver/Src/stm32g0xx_hal_flash_ex.c **** 
 158:Drivers/STM32G0xx_HAL_Driver/Src/stm32g0xx_hal_flash_ex.c ****   /* Reset error code */
 159:Drivers/STM32G0xx_HAL_Driver/Src/stm32g0xx_hal_flash_ex.c ****   pFlash.ErrorCode = HAL_FLASH_ERROR_NONE;
 160:Drivers/STM32G0xx_HAL_Driver/Src/stm32g0xx_hal_flash_ex.c **** 
 161:Drivers/STM32G0xx_HAL_Driver/Src/stm32g0xx_hal_flash_ex.c ****   /* Wait for last operation to be completed */
 162:Drivers/STM32G0xx_HAL_Driver/Src/stm32g0xx_hal_flash_ex.c ****   status = FLASH_WaitForLastOperation(FLASH_TIMEOUT_VALUE);
 163:Drivers/STM32G0xx_HAL_Driver/Src/stm32g0xx_hal_flash_ex.c **** 
 164:Drivers/STM32G0xx_HAL_Driver/Src/stm32g0xx_hal_flash_ex.c ****   if (status == HAL_OK)
 165:Drivers/STM32G0xx_HAL_Driver/Src/stm32g0xx_hal_flash_ex.c ****   {
 166:Drivers/STM32G0xx_HAL_Driver/Src/stm32g0xx_hal_flash_ex.c ****     if (pEraseInit->TypeErase == FLASH_TYPEERASE_MASS)
 167:Drivers/STM32G0xx_HAL_Driver/Src/stm32g0xx_hal_flash_ex.c ****     {
 168:Drivers/STM32G0xx_HAL_Driver/Src/stm32g0xx_hal_flash_ex.c ****       /* Mass erase to be done */
 169:Drivers/STM32G0xx_HAL_Driver/Src/stm32g0xx_hal_flash_ex.c ****       FLASH_MassErase();
 170:Drivers/STM32G0xx_HAL_Driver/Src/stm32g0xx_hal_flash_ex.c **** 
 171:Drivers/STM32G0xx_HAL_Driver/Src/stm32g0xx_hal_flash_ex.c ****       /* Wait for last operation to be completed */
 172:Drivers/STM32G0xx_HAL_Driver/Src/stm32g0xx_hal_flash_ex.c ****       status = FLASH_WaitForLastOperation(FLASH_TIMEOUT_VALUE);
 173:Drivers/STM32G0xx_HAL_Driver/Src/stm32g0xx_hal_flash_ex.c ****     }
 174:Drivers/STM32G0xx_HAL_Driver/Src/stm32g0xx_hal_flash_ex.c ****     else
 175:Drivers/STM32G0xx_HAL_Driver/Src/stm32g0xx_hal_flash_ex.c ****     {
 176:Drivers/STM32G0xx_HAL_Driver/Src/stm32g0xx_hal_flash_ex.c ****       /*Initialization of PageError variable*/
 177:Drivers/STM32G0xx_HAL_Driver/Src/stm32g0xx_hal_flash_ex.c ****       *PageError = 0xFFFFFFFFU;
 178:Drivers/STM32G0xx_HAL_Driver/Src/stm32g0xx_hal_flash_ex.c **** 
 179:Drivers/STM32G0xx_HAL_Driver/Src/stm32g0xx_hal_flash_ex.c ****       for (index = pEraseInit->Page; index < (pEraseInit->Page + pEraseInit->NbPages); index++)
 180:Drivers/STM32G0xx_HAL_Driver/Src/stm32g0xx_hal_flash_ex.c ****       {
 181:Drivers/STM32G0xx_HAL_Driver/Src/stm32g0xx_hal_flash_ex.c ****         /* Start erase page */
 182:Drivers/STM32G0xx_HAL_Driver/Src/stm32g0xx_hal_flash_ex.c ****         FLASH_PageErase(index);
 183:Drivers/STM32G0xx_HAL_Driver/Src/stm32g0xx_hal_flash_ex.c **** 
 184:Drivers/STM32G0xx_HAL_Driver/Src/stm32g0xx_hal_flash_ex.c ****         /* Wait for last operation to be completed */
 185:Drivers/STM32G0xx_HAL_Driver/Src/stm32g0xx_hal_flash_ex.c ****         status = FLASH_WaitForLastOperation(FLASH_TIMEOUT_VALUE);
 186:Drivers/STM32G0xx_HAL_Driver/Src/stm32g0xx_hal_flash_ex.c **** 
 187:Drivers/STM32G0xx_HAL_Driver/Src/stm32g0xx_hal_flash_ex.c ****         if (status != HAL_OK)
 188:Drivers/STM32G0xx_HAL_Driver/Src/stm32g0xx_hal_flash_ex.c ****         {
 189:Drivers/STM32G0xx_HAL_Driver/Src/stm32g0xx_hal_flash_ex.c ****           /* In case of error, stop erase procedure and return the faulty address */
 190:Drivers/STM32G0xx_HAL_Driver/Src/stm32g0xx_hal_flash_ex.c ****           *PageError = index;
 191:Drivers/STM32G0xx_HAL_Driver/Src/stm32g0xx_hal_flash_ex.c ****           break;
 192:Drivers/STM32G0xx_HAL_Driver/Src/stm32g0xx_hal_flash_ex.c ****         }
 193:Drivers/STM32G0xx_HAL_Driver/Src/stm32g0xx_hal_flash_ex.c ****       }
 194:Drivers/STM32G0xx_HAL_Driver/Src/stm32g0xx_hal_flash_ex.c **** 
 195:Drivers/STM32G0xx_HAL_Driver/Src/stm32g0xx_hal_flash_ex.c ****       /* If operation is completed or interrupted, disable the Page Erase Bit */
 196:Drivers/STM32G0xx_HAL_Driver/Src/stm32g0xx_hal_flash_ex.c ****       CLEAR_BIT(FLASH->CR, FLASH_CR_PER);
 197:Drivers/STM32G0xx_HAL_Driver/Src/stm32g0xx_hal_flash_ex.c ****     }
 198:Drivers/STM32G0xx_HAL_Driver/Src/stm32g0xx_hal_flash_ex.c ****   }
 199:Drivers/STM32G0xx_HAL_Driver/Src/stm32g0xx_hal_flash_ex.c **** 
 200:Drivers/STM32G0xx_HAL_Driver/Src/stm32g0xx_hal_flash_ex.c ****   /* Process Unlocked */
 201:Drivers/STM32G0xx_HAL_Driver/Src/stm32g0xx_hal_flash_ex.c ****   __HAL_UNLOCK(&pFlash);
 202:Drivers/STM32G0xx_HAL_Driver/Src/stm32g0xx_hal_flash_ex.c **** 
 203:Drivers/STM32G0xx_HAL_Driver/Src/stm32g0xx_hal_flash_ex.c ****   /* return status */
 204:Drivers/STM32G0xx_HAL_Driver/Src/stm32g0xx_hal_flash_ex.c ****   return status;
ARM GAS  C:\Users\matil\AppData\Local\Temp\cc9YAXdg.s 			page 5


 205:Drivers/STM32G0xx_HAL_Driver/Src/stm32g0xx_hal_flash_ex.c **** }
 206:Drivers/STM32G0xx_HAL_Driver/Src/stm32g0xx_hal_flash_ex.c **** 
 207:Drivers/STM32G0xx_HAL_Driver/Src/stm32g0xx_hal_flash_ex.c **** 
 208:Drivers/STM32G0xx_HAL_Driver/Src/stm32g0xx_hal_flash_ex.c **** /**
 209:Drivers/STM32G0xx_HAL_Driver/Src/stm32g0xx_hal_flash_ex.c ****   * @brief  Perform a mass erase or erase the specified FLASH memory pages with interrupt enabled.
 210:Drivers/STM32G0xx_HAL_Driver/Src/stm32g0xx_hal_flash_ex.c ****   * @param  pEraseInit Pointer to an @ref FLASH_EraseInitTypeDef structure that
 211:Drivers/STM32G0xx_HAL_Driver/Src/stm32g0xx_hal_flash_ex.c ****   *         contains the configuration information for the erasing.
 212:Drivers/STM32G0xx_HAL_Driver/Src/stm32g0xx_hal_flash_ex.c ****   * @retval HAL Status
 213:Drivers/STM32G0xx_HAL_Driver/Src/stm32g0xx_hal_flash_ex.c ****   */
 214:Drivers/STM32G0xx_HAL_Driver/Src/stm32g0xx_hal_flash_ex.c **** HAL_StatusTypeDef HAL_FLASHEx_Erase_IT(FLASH_EraseInitTypeDef *pEraseInit)
 215:Drivers/STM32G0xx_HAL_Driver/Src/stm32g0xx_hal_flash_ex.c **** {
 216:Drivers/STM32G0xx_HAL_Driver/Src/stm32g0xx_hal_flash_ex.c ****   HAL_StatusTypeDef status;
 217:Drivers/STM32G0xx_HAL_Driver/Src/stm32g0xx_hal_flash_ex.c **** 
 218:Drivers/STM32G0xx_HAL_Driver/Src/stm32g0xx_hal_flash_ex.c ****   /* Check the parameters */
 219:Drivers/STM32G0xx_HAL_Driver/Src/stm32g0xx_hal_flash_ex.c ****   assert_param(IS_FLASH_TYPEERASE(pEraseInit->TypeErase));
 220:Drivers/STM32G0xx_HAL_Driver/Src/stm32g0xx_hal_flash_ex.c **** 
 221:Drivers/STM32G0xx_HAL_Driver/Src/stm32g0xx_hal_flash_ex.c ****   /* Process Locked */
 222:Drivers/STM32G0xx_HAL_Driver/Src/stm32g0xx_hal_flash_ex.c ****   __HAL_LOCK(&pFlash);
 223:Drivers/STM32G0xx_HAL_Driver/Src/stm32g0xx_hal_flash_ex.c **** 
 224:Drivers/STM32G0xx_HAL_Driver/Src/stm32g0xx_hal_flash_ex.c ****   /* Reset error code */
 225:Drivers/STM32G0xx_HAL_Driver/Src/stm32g0xx_hal_flash_ex.c ****   pFlash.ErrorCode = HAL_FLASH_ERROR_NONE;
 226:Drivers/STM32G0xx_HAL_Driver/Src/stm32g0xx_hal_flash_ex.c **** 
 227:Drivers/STM32G0xx_HAL_Driver/Src/stm32g0xx_hal_flash_ex.c ****   /* save procedure for interrupt treatment */
 228:Drivers/STM32G0xx_HAL_Driver/Src/stm32g0xx_hal_flash_ex.c ****   pFlash.ProcedureOnGoing = pEraseInit->TypeErase;
 229:Drivers/STM32G0xx_HAL_Driver/Src/stm32g0xx_hal_flash_ex.c **** 
 230:Drivers/STM32G0xx_HAL_Driver/Src/stm32g0xx_hal_flash_ex.c ****   /* Wait for last operation to be completed */
 231:Drivers/STM32G0xx_HAL_Driver/Src/stm32g0xx_hal_flash_ex.c ****   status = FLASH_WaitForLastOperation(FLASH_TIMEOUT_VALUE);
 232:Drivers/STM32G0xx_HAL_Driver/Src/stm32g0xx_hal_flash_ex.c **** 
 233:Drivers/STM32G0xx_HAL_Driver/Src/stm32g0xx_hal_flash_ex.c ****   if (status != HAL_OK)
 234:Drivers/STM32G0xx_HAL_Driver/Src/stm32g0xx_hal_flash_ex.c ****   {
 235:Drivers/STM32G0xx_HAL_Driver/Src/stm32g0xx_hal_flash_ex.c ****     /* Process Unlocked */
 236:Drivers/STM32G0xx_HAL_Driver/Src/stm32g0xx_hal_flash_ex.c ****     __HAL_UNLOCK(&pFlash);
 237:Drivers/STM32G0xx_HAL_Driver/Src/stm32g0xx_hal_flash_ex.c ****   }
 238:Drivers/STM32G0xx_HAL_Driver/Src/stm32g0xx_hal_flash_ex.c ****   else
 239:Drivers/STM32G0xx_HAL_Driver/Src/stm32g0xx_hal_flash_ex.c ****   {
 240:Drivers/STM32G0xx_HAL_Driver/Src/stm32g0xx_hal_flash_ex.c ****     /* Enable End of Operation and Error interrupts */
 241:Drivers/STM32G0xx_HAL_Driver/Src/stm32g0xx_hal_flash_ex.c ****     __HAL_FLASH_ENABLE_IT(FLASH_IT_EOP | FLASH_IT_OPERR);
 242:Drivers/STM32G0xx_HAL_Driver/Src/stm32g0xx_hal_flash_ex.c **** 
 243:Drivers/STM32G0xx_HAL_Driver/Src/stm32g0xx_hal_flash_ex.c ****     if (pEraseInit->TypeErase == FLASH_TYPEERASE_MASS)
 244:Drivers/STM32G0xx_HAL_Driver/Src/stm32g0xx_hal_flash_ex.c ****     {
 245:Drivers/STM32G0xx_HAL_Driver/Src/stm32g0xx_hal_flash_ex.c ****       /* Set Page to 0 for Interrupt callback managment */
 246:Drivers/STM32G0xx_HAL_Driver/Src/stm32g0xx_hal_flash_ex.c ****       pFlash.Page = 0;
 247:Drivers/STM32G0xx_HAL_Driver/Src/stm32g0xx_hal_flash_ex.c **** 
 248:Drivers/STM32G0xx_HAL_Driver/Src/stm32g0xx_hal_flash_ex.c ****       /* Proceed to Mass Erase */
 249:Drivers/STM32G0xx_HAL_Driver/Src/stm32g0xx_hal_flash_ex.c ****       FLASH_MassErase();
 250:Drivers/STM32G0xx_HAL_Driver/Src/stm32g0xx_hal_flash_ex.c ****     }
 251:Drivers/STM32G0xx_HAL_Driver/Src/stm32g0xx_hal_flash_ex.c ****     else
 252:Drivers/STM32G0xx_HAL_Driver/Src/stm32g0xx_hal_flash_ex.c ****     {
 253:Drivers/STM32G0xx_HAL_Driver/Src/stm32g0xx_hal_flash_ex.c ****       /* Erase by page to be done */
 254:Drivers/STM32G0xx_HAL_Driver/Src/stm32g0xx_hal_flash_ex.c ****       pFlash.NbPagesToErase = pEraseInit->NbPages;
 255:Drivers/STM32G0xx_HAL_Driver/Src/stm32g0xx_hal_flash_ex.c ****       pFlash.Page = pEraseInit->Page;
 256:Drivers/STM32G0xx_HAL_Driver/Src/stm32g0xx_hal_flash_ex.c **** 
 257:Drivers/STM32G0xx_HAL_Driver/Src/stm32g0xx_hal_flash_ex.c ****       /*Erase 1st page and wait for IT */
 258:Drivers/STM32G0xx_HAL_Driver/Src/stm32g0xx_hal_flash_ex.c ****       FLASH_PageErase(pEraseInit->Page);
 259:Drivers/STM32G0xx_HAL_Driver/Src/stm32g0xx_hal_flash_ex.c ****     }
 260:Drivers/STM32G0xx_HAL_Driver/Src/stm32g0xx_hal_flash_ex.c ****   }
 261:Drivers/STM32G0xx_HAL_Driver/Src/stm32g0xx_hal_flash_ex.c **** 
ARM GAS  C:\Users\matil\AppData\Local\Temp\cc9YAXdg.s 			page 6


 262:Drivers/STM32G0xx_HAL_Driver/Src/stm32g0xx_hal_flash_ex.c ****   /* return status */
 263:Drivers/STM32G0xx_HAL_Driver/Src/stm32g0xx_hal_flash_ex.c ****   return status;
 264:Drivers/STM32G0xx_HAL_Driver/Src/stm32g0xx_hal_flash_ex.c **** }
 265:Drivers/STM32G0xx_HAL_Driver/Src/stm32g0xx_hal_flash_ex.c **** 
 266:Drivers/STM32G0xx_HAL_Driver/Src/stm32g0xx_hal_flash_ex.c **** /**
 267:Drivers/STM32G0xx_HAL_Driver/Src/stm32g0xx_hal_flash_ex.c ****   * @brief  Program Option bytes.
 268:Drivers/STM32G0xx_HAL_Driver/Src/stm32g0xx_hal_flash_ex.c ****   * @param  pOBInit Pointer to an @ref FLASH_OBProgramInitTypeDef structure that
 269:Drivers/STM32G0xx_HAL_Driver/Src/stm32g0xx_hal_flash_ex.c ****   *         contains the configuration information for the programming.
 270:Drivers/STM32G0xx_HAL_Driver/Src/stm32g0xx_hal_flash_ex.c ****   * @note   To configure any option bytes, the option lock bit OPTLOCK must be
 271:Drivers/STM32G0xx_HAL_Driver/Src/stm32g0xx_hal_flash_ex.c ****   *         cleared with the call of @ref HAL_FLASH_OB_Unlock() function.
 272:Drivers/STM32G0xx_HAL_Driver/Src/stm32g0xx_hal_flash_ex.c ****   * @note   New option bytes configuration will be taken into account only
 273:Drivers/STM32G0xx_HAL_Driver/Src/stm32g0xx_hal_flash_ex.c ****   *         - after an option bytes launch through the call of @ref HAL_FLASH_OB_Launch()
 274:Drivers/STM32G0xx_HAL_Driver/Src/stm32g0xx_hal_flash_ex.c ****   *         - a Power On Reset
 275:Drivers/STM32G0xx_HAL_Driver/Src/stm32g0xx_hal_flash_ex.c ****   *         - an exit from Standby or Shutdown mode.
 276:Drivers/STM32G0xx_HAL_Driver/Src/stm32g0xx_hal_flash_ex.c ****   * @retval HAL Status
 277:Drivers/STM32G0xx_HAL_Driver/Src/stm32g0xx_hal_flash_ex.c ****   */
 278:Drivers/STM32G0xx_HAL_Driver/Src/stm32g0xx_hal_flash_ex.c **** HAL_StatusTypeDef HAL_FLASHEx_OBProgram(FLASH_OBProgramInitTypeDef *pOBInit)
 279:Drivers/STM32G0xx_HAL_Driver/Src/stm32g0xx_hal_flash_ex.c **** {
 280:Drivers/STM32G0xx_HAL_Driver/Src/stm32g0xx_hal_flash_ex.c ****   uint32_t optr;
 281:Drivers/STM32G0xx_HAL_Driver/Src/stm32g0xx_hal_flash_ex.c ****   HAL_StatusTypeDef status;
 282:Drivers/STM32G0xx_HAL_Driver/Src/stm32g0xx_hal_flash_ex.c **** 
 283:Drivers/STM32G0xx_HAL_Driver/Src/stm32g0xx_hal_flash_ex.c ****   /* Check the parameters */
 284:Drivers/STM32G0xx_HAL_Driver/Src/stm32g0xx_hal_flash_ex.c ****   assert_param(IS_OPTIONBYTE(pOBInit->OptionType));
 285:Drivers/STM32G0xx_HAL_Driver/Src/stm32g0xx_hal_flash_ex.c **** 
 286:Drivers/STM32G0xx_HAL_Driver/Src/stm32g0xx_hal_flash_ex.c ****   /* Process Locked */
 287:Drivers/STM32G0xx_HAL_Driver/Src/stm32g0xx_hal_flash_ex.c ****   __HAL_LOCK(&pFlash);
 288:Drivers/STM32G0xx_HAL_Driver/Src/stm32g0xx_hal_flash_ex.c **** 
 289:Drivers/STM32G0xx_HAL_Driver/Src/stm32g0xx_hal_flash_ex.c ****   pFlash.ErrorCode = HAL_FLASH_ERROR_NONE;
 290:Drivers/STM32G0xx_HAL_Driver/Src/stm32g0xx_hal_flash_ex.c **** 
 291:Drivers/STM32G0xx_HAL_Driver/Src/stm32g0xx_hal_flash_ex.c ****   /* Write protection configuration */
 292:Drivers/STM32G0xx_HAL_Driver/Src/stm32g0xx_hal_flash_ex.c ****   if ((pOBInit->OptionType & OPTIONBYTE_WRP) != 0x00U)
 293:Drivers/STM32G0xx_HAL_Driver/Src/stm32g0xx_hal_flash_ex.c ****   {
 294:Drivers/STM32G0xx_HAL_Driver/Src/stm32g0xx_hal_flash_ex.c ****     /* Configure of Write protection on the selected area */
 295:Drivers/STM32G0xx_HAL_Driver/Src/stm32g0xx_hal_flash_ex.c ****     FLASH_OB_WRPConfig(pOBInit->WRPArea, pOBInit->WRPStartOffset, pOBInit->WRPEndOffset);
 296:Drivers/STM32G0xx_HAL_Driver/Src/stm32g0xx_hal_flash_ex.c ****   }
 297:Drivers/STM32G0xx_HAL_Driver/Src/stm32g0xx_hal_flash_ex.c **** 
 298:Drivers/STM32G0xx_HAL_Driver/Src/stm32g0xx_hal_flash_ex.c ****   /* Option register */
 299:Drivers/STM32G0xx_HAL_Driver/Src/stm32g0xx_hal_flash_ex.c ****   if ((pOBInit->OptionType & (OPTIONBYTE_RDP | OPTIONBYTE_USER)) == (OPTIONBYTE_RDP | OPTIONBYTE_US
 300:Drivers/STM32G0xx_HAL_Driver/Src/stm32g0xx_hal_flash_ex.c ****   {
 301:Drivers/STM32G0xx_HAL_Driver/Src/stm32g0xx_hal_flash_ex.c ****     /* Fully modify OPTR register with RDP & user datas */
 302:Drivers/STM32G0xx_HAL_Driver/Src/stm32g0xx_hal_flash_ex.c ****     FLASH_OB_OptrConfig(pOBInit->USERType, pOBInit->USERConfig, pOBInit->RDPLevel);
 303:Drivers/STM32G0xx_HAL_Driver/Src/stm32g0xx_hal_flash_ex.c ****   }
 304:Drivers/STM32G0xx_HAL_Driver/Src/stm32g0xx_hal_flash_ex.c ****   else if ((pOBInit->OptionType & OPTIONBYTE_RDP) != 0x00U)
 305:Drivers/STM32G0xx_HAL_Driver/Src/stm32g0xx_hal_flash_ex.c ****   {
 306:Drivers/STM32G0xx_HAL_Driver/Src/stm32g0xx_hal_flash_ex.c ****     /* Only modify RDP so get current user data */
 307:Drivers/STM32G0xx_HAL_Driver/Src/stm32g0xx_hal_flash_ex.c ****     optr = FLASH_OB_GetUser();
 308:Drivers/STM32G0xx_HAL_Driver/Src/stm32g0xx_hal_flash_ex.c ****     FLASH_OB_OptrConfig(optr, optr, pOBInit->RDPLevel);
 309:Drivers/STM32G0xx_HAL_Driver/Src/stm32g0xx_hal_flash_ex.c ****   }
 310:Drivers/STM32G0xx_HAL_Driver/Src/stm32g0xx_hal_flash_ex.c ****   else if ((pOBInit->OptionType & OPTIONBYTE_USER) != 0x00U)
 311:Drivers/STM32G0xx_HAL_Driver/Src/stm32g0xx_hal_flash_ex.c ****   {
 312:Drivers/STM32G0xx_HAL_Driver/Src/stm32g0xx_hal_flash_ex.c ****     /* Only modify user so get current RDP level */
 313:Drivers/STM32G0xx_HAL_Driver/Src/stm32g0xx_hal_flash_ex.c ****     optr = FLASH_OB_GetRDP();
 314:Drivers/STM32G0xx_HAL_Driver/Src/stm32g0xx_hal_flash_ex.c ****     FLASH_OB_OptrConfig(pOBInit->USERType, pOBInit->USERConfig, optr);
 315:Drivers/STM32G0xx_HAL_Driver/Src/stm32g0xx_hal_flash_ex.c ****   }
 316:Drivers/STM32G0xx_HAL_Driver/Src/stm32g0xx_hal_flash_ex.c ****   else
 317:Drivers/STM32G0xx_HAL_Driver/Src/stm32g0xx_hal_flash_ex.c ****   {
 318:Drivers/STM32G0xx_HAL_Driver/Src/stm32g0xx_hal_flash_ex.c ****     /* nothing to do */
ARM GAS  C:\Users\matil\AppData\Local\Temp\cc9YAXdg.s 			page 7


 319:Drivers/STM32G0xx_HAL_Driver/Src/stm32g0xx_hal_flash_ex.c ****   }
 320:Drivers/STM32G0xx_HAL_Driver/Src/stm32g0xx_hal_flash_ex.c **** 
 321:Drivers/STM32G0xx_HAL_Driver/Src/stm32g0xx_hal_flash_ex.c **** #if defined(FLASH_PCROP_SUPPORT)
 322:Drivers/STM32G0xx_HAL_Driver/Src/stm32g0xx_hal_flash_ex.c ****   /* PCROP Configuration */
 323:Drivers/STM32G0xx_HAL_Driver/Src/stm32g0xx_hal_flash_ex.c ****   if ((pOBInit->OptionType & OPTIONBYTE_PCROP) != 0x00U)
 324:Drivers/STM32G0xx_HAL_Driver/Src/stm32g0xx_hal_flash_ex.c ****   {
 325:Drivers/STM32G0xx_HAL_Driver/Src/stm32g0xx_hal_flash_ex.c ****     /* Check the parameters */
 326:Drivers/STM32G0xx_HAL_Driver/Src/stm32g0xx_hal_flash_ex.c ****     assert_param(IS_OB_PCROP_CONFIG(pOBInit->PCROPConfig));
 327:Drivers/STM32G0xx_HAL_Driver/Src/stm32g0xx_hal_flash_ex.c **** 
 328:Drivers/STM32G0xx_HAL_Driver/Src/stm32g0xx_hal_flash_ex.c ****     if ((pOBInit->PCROPConfig & (OB_PCROP_ZONE_A | OB_PCROP_RDP_ERASE)) != 0x00U)
 329:Drivers/STM32G0xx_HAL_Driver/Src/stm32g0xx_hal_flash_ex.c ****     {
 330:Drivers/STM32G0xx_HAL_Driver/Src/stm32g0xx_hal_flash_ex.c ****       /* Configure the 1A Proprietary code readout protection */
 331:Drivers/STM32G0xx_HAL_Driver/Src/stm32g0xx_hal_flash_ex.c ****       FLASH_OB_PCROP1AConfig(pOBInit->PCROPConfig, pOBInit->PCROP1AStartAddr, pOBInit->PCROP1AEndAd
 332:Drivers/STM32G0xx_HAL_Driver/Src/stm32g0xx_hal_flash_ex.c ****     }
 333:Drivers/STM32G0xx_HAL_Driver/Src/stm32g0xx_hal_flash_ex.c **** 
 334:Drivers/STM32G0xx_HAL_Driver/Src/stm32g0xx_hal_flash_ex.c ****     if ((pOBInit->PCROPConfig & OB_PCROP_ZONE_B) != 0x00U)
 335:Drivers/STM32G0xx_HAL_Driver/Src/stm32g0xx_hal_flash_ex.c ****     {
 336:Drivers/STM32G0xx_HAL_Driver/Src/stm32g0xx_hal_flash_ex.c ****       /* Configure the 1B Proprietary code readout protection */
 337:Drivers/STM32G0xx_HAL_Driver/Src/stm32g0xx_hal_flash_ex.c ****       FLASH_OB_PCROP1BConfig(pOBInit->PCROP1BStartAddr, pOBInit->PCROP1BEndAddr);
 338:Drivers/STM32G0xx_HAL_Driver/Src/stm32g0xx_hal_flash_ex.c ****     }
 339:Drivers/STM32G0xx_HAL_Driver/Src/stm32g0xx_hal_flash_ex.c ****   }
 340:Drivers/STM32G0xx_HAL_Driver/Src/stm32g0xx_hal_flash_ex.c **** #endif
 341:Drivers/STM32G0xx_HAL_Driver/Src/stm32g0xx_hal_flash_ex.c **** #if defined(FLASH_SECURABLE_MEMORY_SUPPORT)
 342:Drivers/STM32G0xx_HAL_Driver/Src/stm32g0xx_hal_flash_ex.c ****   /* Securable Memory Area Configuration */
 343:Drivers/STM32G0xx_HAL_Driver/Src/stm32g0xx_hal_flash_ex.c ****   if ((pOBInit->OptionType & OPTIONBYTE_SEC) != 0x00U)
 344:Drivers/STM32G0xx_HAL_Driver/Src/stm32g0xx_hal_flash_ex.c ****   {
 345:Drivers/STM32G0xx_HAL_Driver/Src/stm32g0xx_hal_flash_ex.c ****     /* Configure the securable memory area protection */
 346:Drivers/STM32G0xx_HAL_Driver/Src/stm32g0xx_hal_flash_ex.c ****     FLASH_OB_SecMemConfig(pOBInit->BootEntryPoint, pOBInit->SecSize);
 347:Drivers/STM32G0xx_HAL_Driver/Src/stm32g0xx_hal_flash_ex.c ****   }
 348:Drivers/STM32G0xx_HAL_Driver/Src/stm32g0xx_hal_flash_ex.c **** #endif
 349:Drivers/STM32G0xx_HAL_Driver/Src/stm32g0xx_hal_flash_ex.c **** 
 350:Drivers/STM32G0xx_HAL_Driver/Src/stm32g0xx_hal_flash_ex.c ****   /* Wait for last operation to be completed */
 351:Drivers/STM32G0xx_HAL_Driver/Src/stm32g0xx_hal_flash_ex.c ****   status = FLASH_WaitForLastOperation(FLASH_TIMEOUT_VALUE);
 352:Drivers/STM32G0xx_HAL_Driver/Src/stm32g0xx_hal_flash_ex.c **** 
 353:Drivers/STM32G0xx_HAL_Driver/Src/stm32g0xx_hal_flash_ex.c ****   if (status == HAL_OK)
 354:Drivers/STM32G0xx_HAL_Driver/Src/stm32g0xx_hal_flash_ex.c ****   {
 355:Drivers/STM32G0xx_HAL_Driver/Src/stm32g0xx_hal_flash_ex.c ****     /* Set OPTSTRT Bit */
 356:Drivers/STM32G0xx_HAL_Driver/Src/stm32g0xx_hal_flash_ex.c ****     SET_BIT(FLASH->CR, FLASH_CR_OPTSTRT);
 357:Drivers/STM32G0xx_HAL_Driver/Src/stm32g0xx_hal_flash_ex.c **** 
 358:Drivers/STM32G0xx_HAL_Driver/Src/stm32g0xx_hal_flash_ex.c ****     /* Wait for last operation to be completed */
 359:Drivers/STM32G0xx_HAL_Driver/Src/stm32g0xx_hal_flash_ex.c ****     status = FLASH_WaitForLastOperation(FLASH_TIMEOUT_VALUE);
 360:Drivers/STM32G0xx_HAL_Driver/Src/stm32g0xx_hal_flash_ex.c **** 
 361:Drivers/STM32G0xx_HAL_Driver/Src/stm32g0xx_hal_flash_ex.c ****     /* If the option byte program operation is completed, disable the OPTSTRT Bit */
 362:Drivers/STM32G0xx_HAL_Driver/Src/stm32g0xx_hal_flash_ex.c ****     CLEAR_BIT(FLASH->CR, FLASH_CR_OPTSTRT);
 363:Drivers/STM32G0xx_HAL_Driver/Src/stm32g0xx_hal_flash_ex.c ****   }
 364:Drivers/STM32G0xx_HAL_Driver/Src/stm32g0xx_hal_flash_ex.c **** 
 365:Drivers/STM32G0xx_HAL_Driver/Src/stm32g0xx_hal_flash_ex.c ****   /* Process Unlocked */
 366:Drivers/STM32G0xx_HAL_Driver/Src/stm32g0xx_hal_flash_ex.c ****   __HAL_UNLOCK(&pFlash);
 367:Drivers/STM32G0xx_HAL_Driver/Src/stm32g0xx_hal_flash_ex.c **** 
 368:Drivers/STM32G0xx_HAL_Driver/Src/stm32g0xx_hal_flash_ex.c ****   /* return status */
 369:Drivers/STM32G0xx_HAL_Driver/Src/stm32g0xx_hal_flash_ex.c ****   return status;
 370:Drivers/STM32G0xx_HAL_Driver/Src/stm32g0xx_hal_flash_ex.c **** }
 371:Drivers/STM32G0xx_HAL_Driver/Src/stm32g0xx_hal_flash_ex.c **** 
 372:Drivers/STM32G0xx_HAL_Driver/Src/stm32g0xx_hal_flash_ex.c **** /**
 373:Drivers/STM32G0xx_HAL_Driver/Src/stm32g0xx_hal_flash_ex.c ****   * @brief  Get the Option bytes configuration.
 374:Drivers/STM32G0xx_HAL_Driver/Src/stm32g0xx_hal_flash_ex.c ****   * @note   warning: this API only read flash register, it does not reflect any
 375:Drivers/STM32G0xx_HAL_Driver/Src/stm32g0xx_hal_flash_ex.c ****   *         change that would have been programmed between previous Option byte
ARM GAS  C:\Users\matil\AppData\Local\Temp\cc9YAXdg.s 			page 8


 376:Drivers/STM32G0xx_HAL_Driver/Src/stm32g0xx_hal_flash_ex.c ****   *         loading and current call.
 377:Drivers/STM32G0xx_HAL_Driver/Src/stm32g0xx_hal_flash_ex.c ****   * @param  pOBInit Pointer to an @ref FLASH_OBProgramInitTypeDef structure that contains the
 378:Drivers/STM32G0xx_HAL_Driver/Src/stm32g0xx_hal_flash_ex.c ****   *                  configuration information. The fields pOBInit->WRPArea and
 379:Drivers/STM32G0xx_HAL_Driver/Src/stm32g0xx_hal_flash_ex.c ****   *                  pOBInit->PCROPConfig should indicate which area is requested
 380:Drivers/STM32G0xx_HAL_Driver/Src/stm32g0xx_hal_flash_ex.c ****   *                  for the WRP and PCROP.
 381:Drivers/STM32G0xx_HAL_Driver/Src/stm32g0xx_hal_flash_ex.c ****   * @retval None
 382:Drivers/STM32G0xx_HAL_Driver/Src/stm32g0xx_hal_flash_ex.c ****   */
 383:Drivers/STM32G0xx_HAL_Driver/Src/stm32g0xx_hal_flash_ex.c **** void HAL_FLASHEx_OBGetConfig(FLASH_OBProgramInitTypeDef *pOBInit)
 384:Drivers/STM32G0xx_HAL_Driver/Src/stm32g0xx_hal_flash_ex.c **** {
 385:Drivers/STM32G0xx_HAL_Driver/Src/stm32g0xx_hal_flash_ex.c ****   pOBInit->OptionType = OPTIONBYTE_ALL;
 386:Drivers/STM32G0xx_HAL_Driver/Src/stm32g0xx_hal_flash_ex.c **** 
 387:Drivers/STM32G0xx_HAL_Driver/Src/stm32g0xx_hal_flash_ex.c ****   /* Get write protection on the selected area */
 388:Drivers/STM32G0xx_HAL_Driver/Src/stm32g0xx_hal_flash_ex.c ****   FLASH_OB_GetWRP(pOBInit->WRPArea, &(pOBInit->WRPStartOffset), &(pOBInit->WRPEndOffset));
 389:Drivers/STM32G0xx_HAL_Driver/Src/stm32g0xx_hal_flash_ex.c **** 
 390:Drivers/STM32G0xx_HAL_Driver/Src/stm32g0xx_hal_flash_ex.c ****   /* Get Read protection level */
 391:Drivers/STM32G0xx_HAL_Driver/Src/stm32g0xx_hal_flash_ex.c ****   pOBInit->RDPLevel = FLASH_OB_GetRDP();
 392:Drivers/STM32G0xx_HAL_Driver/Src/stm32g0xx_hal_flash_ex.c **** 
 393:Drivers/STM32G0xx_HAL_Driver/Src/stm32g0xx_hal_flash_ex.c ****   /* Get the user option bytes */
 394:Drivers/STM32G0xx_HAL_Driver/Src/stm32g0xx_hal_flash_ex.c ****   pOBInit->USERConfig = FLASH_OB_GetUser();
 395:Drivers/STM32G0xx_HAL_Driver/Src/stm32g0xx_hal_flash_ex.c ****   pOBInit->USERType = OB_USER_ALL;
 396:Drivers/STM32G0xx_HAL_Driver/Src/stm32g0xx_hal_flash_ex.c **** 
 397:Drivers/STM32G0xx_HAL_Driver/Src/stm32g0xx_hal_flash_ex.c **** #if defined(FLASH_PCROP_SUPPORT)
 398:Drivers/STM32G0xx_HAL_Driver/Src/stm32g0xx_hal_flash_ex.c ****   /* Get the Proprietary code readout protection */
 399:Drivers/STM32G0xx_HAL_Driver/Src/stm32g0xx_hal_flash_ex.c ****   FLASH_OB_GetPCROP1A(&(pOBInit->PCROPConfig), &(pOBInit->PCROP1AStartAddr), &(pOBInit->PCROP1AEndA
 400:Drivers/STM32G0xx_HAL_Driver/Src/stm32g0xx_hal_flash_ex.c ****   FLASH_OB_GetPCROP1B(&(pOBInit->PCROP1BStartAddr), &(pOBInit->PCROP1BEndAddr));
 401:Drivers/STM32G0xx_HAL_Driver/Src/stm32g0xx_hal_flash_ex.c ****   pOBInit->PCROPConfig |= (OB_PCROP_ZONE_A | OB_PCROP_ZONE_B);
 402:Drivers/STM32G0xx_HAL_Driver/Src/stm32g0xx_hal_flash_ex.c **** #endif
 403:Drivers/STM32G0xx_HAL_Driver/Src/stm32g0xx_hal_flash_ex.c **** 
 404:Drivers/STM32G0xx_HAL_Driver/Src/stm32g0xx_hal_flash_ex.c **** #if defined(FLASH_SECURABLE_MEMORY_SUPPORT)
 405:Drivers/STM32G0xx_HAL_Driver/Src/stm32g0xx_hal_flash_ex.c ****   /* Get the Securable Memory Area protection */
 406:Drivers/STM32G0xx_HAL_Driver/Src/stm32g0xx_hal_flash_ex.c ****   FLASH_OB_GetSecMem(&(pOBInit->BootEntryPoint), &(pOBInit->SecSize));
 407:Drivers/STM32G0xx_HAL_Driver/Src/stm32g0xx_hal_flash_ex.c **** #endif
 408:Drivers/STM32G0xx_HAL_Driver/Src/stm32g0xx_hal_flash_ex.c **** }
 409:Drivers/STM32G0xx_HAL_Driver/Src/stm32g0xx_hal_flash_ex.c **** 
 410:Drivers/STM32G0xx_HAL_Driver/Src/stm32g0xx_hal_flash_ex.c **** #if defined(FLASH_ACR_DBG_SWEN)
 411:Drivers/STM32G0xx_HAL_Driver/Src/stm32g0xx_hal_flash_ex.c **** /**
 412:Drivers/STM32G0xx_HAL_Driver/Src/stm32g0xx_hal_flash_ex.c ****   * @brief  Enable Debugger.
 413:Drivers/STM32G0xx_HAL_Driver/Src/stm32g0xx_hal_flash_ex.c ****   * @note   After calling this API, flash interface allow debugger intrusion.
 414:Drivers/STM32G0xx_HAL_Driver/Src/stm32g0xx_hal_flash_ex.c ****   * @retval None
 415:Drivers/STM32G0xx_HAL_Driver/Src/stm32g0xx_hal_flash_ex.c ****   */
 416:Drivers/STM32G0xx_HAL_Driver/Src/stm32g0xx_hal_flash_ex.c **** void HAL_FLASHEx_EnableDebugger(void)
 417:Drivers/STM32G0xx_HAL_Driver/Src/stm32g0xx_hal_flash_ex.c **** {
 418:Drivers/STM32G0xx_HAL_Driver/Src/stm32g0xx_hal_flash_ex.c ****   FLASH->ACR |= FLASH_ACR_DBG_SWEN;
 419:Drivers/STM32G0xx_HAL_Driver/Src/stm32g0xx_hal_flash_ex.c **** }
 420:Drivers/STM32G0xx_HAL_Driver/Src/stm32g0xx_hal_flash_ex.c **** 
 421:Drivers/STM32G0xx_HAL_Driver/Src/stm32g0xx_hal_flash_ex.c **** 
 422:Drivers/STM32G0xx_HAL_Driver/Src/stm32g0xx_hal_flash_ex.c **** /**
 423:Drivers/STM32G0xx_HAL_Driver/Src/stm32g0xx_hal_flash_ex.c ****   * @brief  Disable Debugger.
 424:Drivers/STM32G0xx_HAL_Driver/Src/stm32g0xx_hal_flash_ex.c ****   * @note   After calling this API, Debugger is disabled: it is no more possible to
 425:Drivers/STM32G0xx_HAL_Driver/Src/stm32g0xx_hal_flash_ex.c ****   *         break, see CPU register, etc...
 426:Drivers/STM32G0xx_HAL_Driver/Src/stm32g0xx_hal_flash_ex.c ****   * @retval None
 427:Drivers/STM32G0xx_HAL_Driver/Src/stm32g0xx_hal_flash_ex.c ****   */
 428:Drivers/STM32G0xx_HAL_Driver/Src/stm32g0xx_hal_flash_ex.c **** void HAL_FLASHEx_DisableDebugger(void)
 429:Drivers/STM32G0xx_HAL_Driver/Src/stm32g0xx_hal_flash_ex.c **** {
 430:Drivers/STM32G0xx_HAL_Driver/Src/stm32g0xx_hal_flash_ex.c ****   FLASH->ACR &= ~FLASH_ACR_DBG_SWEN;
 431:Drivers/STM32G0xx_HAL_Driver/Src/stm32g0xx_hal_flash_ex.c **** }
 432:Drivers/STM32G0xx_HAL_Driver/Src/stm32g0xx_hal_flash_ex.c **** #endif /* FLASH_ACR_DBG_SWEN */
ARM GAS  C:\Users\matil\AppData\Local\Temp\cc9YAXdg.s 			page 9


 433:Drivers/STM32G0xx_HAL_Driver/Src/stm32g0xx_hal_flash_ex.c **** 
 434:Drivers/STM32G0xx_HAL_Driver/Src/stm32g0xx_hal_flash_ex.c **** /**
 435:Drivers/STM32G0xx_HAL_Driver/Src/stm32g0xx_hal_flash_ex.c ****   * @brief  Flash Empy check
 436:Drivers/STM32G0xx_HAL_Driver/Src/stm32g0xx_hal_flash_ex.c ****   * @note   This API checks if first location in Flash is programmed or not.
 437:Drivers/STM32G0xx_HAL_Driver/Src/stm32g0xx_hal_flash_ex.c ****   *         This check is done once by Option Byte Loader.
 438:Drivers/STM32G0xx_HAL_Driver/Src/stm32g0xx_hal_flash_ex.c ****   * @retval 0 if 1st location is not programmed else
 439:Drivers/STM32G0xx_HAL_Driver/Src/stm32g0xx_hal_flash_ex.c ****   */
 440:Drivers/STM32G0xx_HAL_Driver/Src/stm32g0xx_hal_flash_ex.c **** uint32_t HAL_FLASHEx_FlashEmptyCheck(void)
 441:Drivers/STM32G0xx_HAL_Driver/Src/stm32g0xx_hal_flash_ex.c **** {
 442:Drivers/STM32G0xx_HAL_Driver/Src/stm32g0xx_hal_flash_ex.c ****   return ((FLASH->ACR & FLASH_ACR_PROGEMPTY));
 443:Drivers/STM32G0xx_HAL_Driver/Src/stm32g0xx_hal_flash_ex.c **** }
 444:Drivers/STM32G0xx_HAL_Driver/Src/stm32g0xx_hal_flash_ex.c **** 
 445:Drivers/STM32G0xx_HAL_Driver/Src/stm32g0xx_hal_flash_ex.c **** 
 446:Drivers/STM32G0xx_HAL_Driver/Src/stm32g0xx_hal_flash_ex.c **** /**
 447:Drivers/STM32G0xx_HAL_Driver/Src/stm32g0xx_hal_flash_ex.c ****   * @brief  Force Empty check value.
 448:Drivers/STM32G0xx_HAL_Driver/Src/stm32g0xx_hal_flash_ex.c ****   * @note   Allows to modify program empty check value in order to force this
 449:Drivers/STM32G0xx_HAL_Driver/Src/stm32g0xx_hal_flash_ex.c ****   *         infrmation in Flash Interface, for all next reset that do not launch
 450:Drivers/STM32G0xx_HAL_Driver/Src/stm32g0xx_hal_flash_ex.c ****   *         Option Byte Loader.
 451:Drivers/STM32G0xx_HAL_Driver/Src/stm32g0xx_hal_flash_ex.c ****   * @param  FlashEmpty this parameter can be a value of @ref FLASHEx_Empty_Check
 452:Drivers/STM32G0xx_HAL_Driver/Src/stm32g0xx_hal_flash_ex.c ****   * @retval None
 453:Drivers/STM32G0xx_HAL_Driver/Src/stm32g0xx_hal_flash_ex.c ****   */
 454:Drivers/STM32G0xx_HAL_Driver/Src/stm32g0xx_hal_flash_ex.c **** void HAL_FLASHEx_ForceFlashEmpty(uint32_t FlashEmpty)
 455:Drivers/STM32G0xx_HAL_Driver/Src/stm32g0xx_hal_flash_ex.c **** {
 456:Drivers/STM32G0xx_HAL_Driver/Src/stm32g0xx_hal_flash_ex.c ****   uint32_t acr;
 457:Drivers/STM32G0xx_HAL_Driver/Src/stm32g0xx_hal_flash_ex.c ****   assert_param(IS_FLASH_EMPTY_CHECK(FlashEmpty));
 458:Drivers/STM32G0xx_HAL_Driver/Src/stm32g0xx_hal_flash_ex.c **** 
 459:Drivers/STM32G0xx_HAL_Driver/Src/stm32g0xx_hal_flash_ex.c ****   acr = (FLASH->ACR & ~FLASH_ACR_PROGEMPTY);
 460:Drivers/STM32G0xx_HAL_Driver/Src/stm32g0xx_hal_flash_ex.c ****   FLASH->ACR = (acr | FlashEmpty);
 461:Drivers/STM32G0xx_HAL_Driver/Src/stm32g0xx_hal_flash_ex.c **** }
 462:Drivers/STM32G0xx_HAL_Driver/Src/stm32g0xx_hal_flash_ex.c **** 
 463:Drivers/STM32G0xx_HAL_Driver/Src/stm32g0xx_hal_flash_ex.c **** 
 464:Drivers/STM32G0xx_HAL_Driver/Src/stm32g0xx_hal_flash_ex.c **** #if defined(FLASH_SECURABLE_MEMORY_SUPPORT)
 465:Drivers/STM32G0xx_HAL_Driver/Src/stm32g0xx_hal_flash_ex.c **** /**
 466:Drivers/STM32G0xx_HAL_Driver/Src/stm32g0xx_hal_flash_ex.c ****   * @brief  Securable memory area protection enable
 467:Drivers/STM32G0xx_HAL_Driver/Src/stm32g0xx_hal_flash_ex.c ****   * @param  Bank Select Bank to be secured. On G0, there is only 1 bank so
 468:Drivers/STM32G0xx_HAL_Driver/Src/stm32g0xx_hal_flash_ex.c ****   *         parameter has to be set to 0.
 469:Drivers/STM32G0xx_HAL_Driver/Src/stm32g0xx_hal_flash_ex.c ****   * @note   This API locks Securable memory area which is defined in SEC_SIZE option byte
 470:Drivers/STM32G0xx_HAL_Driver/Src/stm32g0xx_hal_flash_ex.c ****   *         (that can be retrieved calling HAL_FLASHEx_OBGetConfig API and checking
 471:Drivers/STM32G0xx_HAL_Driver/Src/stm32g0xx_hal_flash_ex.c ****   *         Secsize).
 472:Drivers/STM32G0xx_HAL_Driver/Src/stm32g0xx_hal_flash_ex.c ****   * @note   SEC_PROT bit can only be set, it will be reset by system reset.
 473:Drivers/STM32G0xx_HAL_Driver/Src/stm32g0xx_hal_flash_ex.c ****   * @retval None
 474:Drivers/STM32G0xx_HAL_Driver/Src/stm32g0xx_hal_flash_ex.c ****   */
 475:Drivers/STM32G0xx_HAL_Driver/Src/stm32g0xx_hal_flash_ex.c **** void HAL_FLASHEx_EnableSecMemProtection(uint32_t Bank)
 476:Drivers/STM32G0xx_HAL_Driver/Src/stm32g0xx_hal_flash_ex.c **** {
 477:Drivers/STM32G0xx_HAL_Driver/Src/stm32g0xx_hal_flash_ex.c ****   assert_param(IS_FLASH_BANK(Bank));
 478:Drivers/STM32G0xx_HAL_Driver/Src/stm32g0xx_hal_flash_ex.c ****   FLASH->CR |= FLASH_CR_SEC_PROT;
 479:Drivers/STM32G0xx_HAL_Driver/Src/stm32g0xx_hal_flash_ex.c **** }
 480:Drivers/STM32G0xx_HAL_Driver/Src/stm32g0xx_hal_flash_ex.c **** #endif
 481:Drivers/STM32G0xx_HAL_Driver/Src/stm32g0xx_hal_flash_ex.c **** /**
 482:Drivers/STM32G0xx_HAL_Driver/Src/stm32g0xx_hal_flash_ex.c ****   * @}
 483:Drivers/STM32G0xx_HAL_Driver/Src/stm32g0xx_hal_flash_ex.c ****   */
 484:Drivers/STM32G0xx_HAL_Driver/Src/stm32g0xx_hal_flash_ex.c **** 
 485:Drivers/STM32G0xx_HAL_Driver/Src/stm32g0xx_hal_flash_ex.c **** /**
 486:Drivers/STM32G0xx_HAL_Driver/Src/stm32g0xx_hal_flash_ex.c ****   * @}
 487:Drivers/STM32G0xx_HAL_Driver/Src/stm32g0xx_hal_flash_ex.c ****   */
 488:Drivers/STM32G0xx_HAL_Driver/Src/stm32g0xx_hal_flash_ex.c **** 
 489:Drivers/STM32G0xx_HAL_Driver/Src/stm32g0xx_hal_flash_ex.c **** /* Private functions ---------------------------------------------------------*/
ARM GAS  C:\Users\matil\AppData\Local\Temp\cc9YAXdg.s 			page 10


 490:Drivers/STM32G0xx_HAL_Driver/Src/stm32g0xx_hal_flash_ex.c **** /** @addtogroup FLASHEx_Private_Functions
 491:Drivers/STM32G0xx_HAL_Driver/Src/stm32g0xx_hal_flash_ex.c ****   * @{
 492:Drivers/STM32G0xx_HAL_Driver/Src/stm32g0xx_hal_flash_ex.c ****   */
 493:Drivers/STM32G0xx_HAL_Driver/Src/stm32g0xx_hal_flash_ex.c **** 
 494:Drivers/STM32G0xx_HAL_Driver/Src/stm32g0xx_hal_flash_ex.c **** /**
 495:Drivers/STM32G0xx_HAL_Driver/Src/stm32g0xx_hal_flash_ex.c ****   * @brief  Mass erase of FLASH memory.
 496:Drivers/STM32G0xx_HAL_Driver/Src/stm32g0xx_hal_flash_ex.c ****   * @retval None
 497:Drivers/STM32G0xx_HAL_Driver/Src/stm32g0xx_hal_flash_ex.c ****   */
 498:Drivers/STM32G0xx_HAL_Driver/Src/stm32g0xx_hal_flash_ex.c **** static void FLASH_MassErase(void)
 499:Drivers/STM32G0xx_HAL_Driver/Src/stm32g0xx_hal_flash_ex.c **** {
  26              		.loc 1 499 1 view -0
  27              		.cfi_startproc
  28              		@ args = 0, pretend = 0, frame = 0
  29              		@ frame_needed = 0, uses_anonymous_args = 0
  30              		@ link register save eliminated.
 500:Drivers/STM32G0xx_HAL_Driver/Src/stm32g0xx_hal_flash_ex.c ****   /* Set the Mass Erase Bit and start bit */
 501:Drivers/STM32G0xx_HAL_Driver/Src/stm32g0xx_hal_flash_ex.c ****   FLASH->CR |= (FLASH_CR_STRT | FLASH_CR_MER1);
  31              		.loc 1 501 3 view .LVU1
  32              		.loc 1 501 13 is_stmt 0 view .LVU2
  33 0000 024A     		ldr	r2, .L2
  34 0002 5169     		ldr	r1, [r2, #20]
  35 0004 024B     		ldr	r3, .L2+4
  36 0006 0B43     		orrs	r3, r1
  37 0008 5361     		str	r3, [r2, #20]
 502:Drivers/STM32G0xx_HAL_Driver/Src/stm32g0xx_hal_flash_ex.c **** }
  38              		.loc 1 502 1 view .LVU3
  39              		@ sp needed
  40 000a 7047     		bx	lr
  41              	.L3:
  42              		.align	2
  43              	.L2:
  44 000c 00200240 		.word	1073881088
  45 0010 04000100 		.word	65540
  46              		.cfi_endproc
  47              	.LFE182:
  49              		.section	.text.FLASH_OB_WRPConfig,"ax",%progbits
  50              		.align	1
  51              		.syntax unified
  52              		.code	16
  53              		.thumb_func
  54              		.fpu softvfp
  56              	FLASH_OB_WRPConfig:
  57              	.LVL0:
  58              	.LFB185:
 503:Drivers/STM32G0xx_HAL_Driver/Src/stm32g0xx_hal_flash_ex.c **** 
 504:Drivers/STM32G0xx_HAL_Driver/Src/stm32g0xx_hal_flash_ex.c **** /**
 505:Drivers/STM32G0xx_HAL_Driver/Src/stm32g0xx_hal_flash_ex.c ****   * @brief  Erase the specified FLASH memory page.
 506:Drivers/STM32G0xx_HAL_Driver/Src/stm32g0xx_hal_flash_ex.c ****   * @param  Page FLASH page to erase
 507:Drivers/STM32G0xx_HAL_Driver/Src/stm32g0xx_hal_flash_ex.c ****   *         This parameter must be a value between 0 and (max number of pages in Flash - 1)
 508:Drivers/STM32G0xx_HAL_Driver/Src/stm32g0xx_hal_flash_ex.c ****   * @retval None
 509:Drivers/STM32G0xx_HAL_Driver/Src/stm32g0xx_hal_flash_ex.c ****   */
 510:Drivers/STM32G0xx_HAL_Driver/Src/stm32g0xx_hal_flash_ex.c **** void FLASH_PageErase(uint32_t Page)
 511:Drivers/STM32G0xx_HAL_Driver/Src/stm32g0xx_hal_flash_ex.c **** {
 512:Drivers/STM32G0xx_HAL_Driver/Src/stm32g0xx_hal_flash_ex.c ****   uint32_t tmp;
 513:Drivers/STM32G0xx_HAL_Driver/Src/stm32g0xx_hal_flash_ex.c **** 
 514:Drivers/STM32G0xx_HAL_Driver/Src/stm32g0xx_hal_flash_ex.c ****   /* Check the parameters */
 515:Drivers/STM32G0xx_HAL_Driver/Src/stm32g0xx_hal_flash_ex.c ****   assert_param(IS_FLASH_PAGE(Page));
ARM GAS  C:\Users\matil\AppData\Local\Temp\cc9YAXdg.s 			page 11


 516:Drivers/STM32G0xx_HAL_Driver/Src/stm32g0xx_hal_flash_ex.c **** 
 517:Drivers/STM32G0xx_HAL_Driver/Src/stm32g0xx_hal_flash_ex.c ****   /* Get configuration register, then clear page number */
 518:Drivers/STM32G0xx_HAL_Driver/Src/stm32g0xx_hal_flash_ex.c ****   tmp = (FLASH->CR & ~FLASH_CR_PNB);
 519:Drivers/STM32G0xx_HAL_Driver/Src/stm32g0xx_hal_flash_ex.c **** 
 520:Drivers/STM32G0xx_HAL_Driver/Src/stm32g0xx_hal_flash_ex.c ****   /* Set page number, Page Erase bit & Start bit */
 521:Drivers/STM32G0xx_HAL_Driver/Src/stm32g0xx_hal_flash_ex.c ****   FLASH->CR = (tmp | (FLASH_CR_STRT | (Page <<  FLASH_CR_PNB_Pos) | FLASH_CR_PER));
 522:Drivers/STM32G0xx_HAL_Driver/Src/stm32g0xx_hal_flash_ex.c **** }
 523:Drivers/STM32G0xx_HAL_Driver/Src/stm32g0xx_hal_flash_ex.c **** 
 524:Drivers/STM32G0xx_HAL_Driver/Src/stm32g0xx_hal_flash_ex.c **** /**
 525:Drivers/STM32G0xx_HAL_Driver/Src/stm32g0xx_hal_flash_ex.c ****   * @brief  Flush the instruction cache.
 526:Drivers/STM32G0xx_HAL_Driver/Src/stm32g0xx_hal_flash_ex.c ****   * @retval None
 527:Drivers/STM32G0xx_HAL_Driver/Src/stm32g0xx_hal_flash_ex.c ****   */
 528:Drivers/STM32G0xx_HAL_Driver/Src/stm32g0xx_hal_flash_ex.c **** void FLASH_FlushCaches(void)
 529:Drivers/STM32G0xx_HAL_Driver/Src/stm32g0xx_hal_flash_ex.c **** {
 530:Drivers/STM32G0xx_HAL_Driver/Src/stm32g0xx_hal_flash_ex.c ****   /* Flush instruction cache  */
 531:Drivers/STM32G0xx_HAL_Driver/Src/stm32g0xx_hal_flash_ex.c ****   if (READ_BIT(FLASH->ACR, FLASH_ACR_ICEN) != 0U)
 532:Drivers/STM32G0xx_HAL_Driver/Src/stm32g0xx_hal_flash_ex.c ****   {
 533:Drivers/STM32G0xx_HAL_Driver/Src/stm32g0xx_hal_flash_ex.c ****     /* Disable instruction cache  */
 534:Drivers/STM32G0xx_HAL_Driver/Src/stm32g0xx_hal_flash_ex.c ****     __HAL_FLASH_INSTRUCTION_CACHE_DISABLE();
 535:Drivers/STM32G0xx_HAL_Driver/Src/stm32g0xx_hal_flash_ex.c ****     /* Reset instruction cache */
 536:Drivers/STM32G0xx_HAL_Driver/Src/stm32g0xx_hal_flash_ex.c ****     __HAL_FLASH_INSTRUCTION_CACHE_RESET();
 537:Drivers/STM32G0xx_HAL_Driver/Src/stm32g0xx_hal_flash_ex.c ****     /* Enable instruction cache */
 538:Drivers/STM32G0xx_HAL_Driver/Src/stm32g0xx_hal_flash_ex.c ****     __HAL_FLASH_INSTRUCTION_CACHE_ENABLE();
 539:Drivers/STM32G0xx_HAL_Driver/Src/stm32g0xx_hal_flash_ex.c ****   }
 540:Drivers/STM32G0xx_HAL_Driver/Src/stm32g0xx_hal_flash_ex.c **** }
 541:Drivers/STM32G0xx_HAL_Driver/Src/stm32g0xx_hal_flash_ex.c **** 
 542:Drivers/STM32G0xx_HAL_Driver/Src/stm32g0xx_hal_flash_ex.c **** 
 543:Drivers/STM32G0xx_HAL_Driver/Src/stm32g0xx_hal_flash_ex.c **** /**
 544:Drivers/STM32G0xx_HAL_Driver/Src/stm32g0xx_hal_flash_ex.c ****   * @brief  Configure the write protection of the desired pages.
 545:Drivers/STM32G0xx_HAL_Driver/Src/stm32g0xx_hal_flash_ex.c ****   * @note   When WRP is active in a zone, it cannot be erased or programmed.
 546:Drivers/STM32G0xx_HAL_Driver/Src/stm32g0xx_hal_flash_ex.c ****   *         Consequently, a software mass erase cannot be performed if one zone
 547:Drivers/STM32G0xx_HAL_Driver/Src/stm32g0xx_hal_flash_ex.c ****   *         is write-protected.
 548:Drivers/STM32G0xx_HAL_Driver/Src/stm32g0xx_hal_flash_ex.c ****   * @note   When the memory read protection level is selected (RDP level = 1),
 549:Drivers/STM32G0xx_HAL_Driver/Src/stm32g0xx_hal_flash_ex.c ****   *         it is not possible to program or erase Flash memory if the CPU debug
 550:Drivers/STM32G0xx_HAL_Driver/Src/stm32g0xx_hal_flash_ex.c ****   *         features are connected (JTAG or single wire) or boot code is being
 551:Drivers/STM32G0xx_HAL_Driver/Src/stm32g0xx_hal_flash_ex.c ****   *         executed from RAM or System flash, even if WRP is not activated.
 552:Drivers/STM32G0xx_HAL_Driver/Src/stm32g0xx_hal_flash_ex.c ****   * @param  WRPArea  Specifies the area to be configured.
 553:Drivers/STM32G0xx_HAL_Driver/Src/stm32g0xx_hal_flash_ex.c ****   *         This parameter can be one of the following values:
 554:Drivers/STM32G0xx_HAL_Driver/Src/stm32g0xx_hal_flash_ex.c ****   *            @arg  @ref OB_WRPAREA_ZONE_A Flash Zone A
 555:Drivers/STM32G0xx_HAL_Driver/Src/stm32g0xx_hal_flash_ex.c ****   *            @arg  @ref OB_WRPAREA_ZONE_B Flash Zone B
 556:Drivers/STM32G0xx_HAL_Driver/Src/stm32g0xx_hal_flash_ex.c ****   * @param  WRPStartOffset  Specifies the start page of the write protected area
 557:Drivers/STM32G0xx_HAL_Driver/Src/stm32g0xx_hal_flash_ex.c ****   *         This parameter can be page number between 0 and (max number of pages in the Flash - 1)
 558:Drivers/STM32G0xx_HAL_Driver/Src/stm32g0xx_hal_flash_ex.c ****   * @param  WRDPEndOffset  Specifies the end page of the write protected area
 559:Drivers/STM32G0xx_HAL_Driver/Src/stm32g0xx_hal_flash_ex.c ****   *         This parameter can be page number between WRPStartOffset and (max number of pages in th
 560:Drivers/STM32G0xx_HAL_Driver/Src/stm32g0xx_hal_flash_ex.c ****   * @retval None
 561:Drivers/STM32G0xx_HAL_Driver/Src/stm32g0xx_hal_flash_ex.c ****   */
 562:Drivers/STM32G0xx_HAL_Driver/Src/stm32g0xx_hal_flash_ex.c **** static void FLASH_OB_WRPConfig(uint32_t WRPArea, uint32_t WRPStartOffset, uint32_t WRDPEndOffset)
 563:Drivers/STM32G0xx_HAL_Driver/Src/stm32g0xx_hal_flash_ex.c **** {
  59              		.loc 1 563 1 is_stmt 1 view -0
  60              		.cfi_startproc
  61              		@ args = 0, pretend = 0, frame = 0
  62              		@ frame_needed = 0, uses_anonymous_args = 0
  63              		@ link register save eliminated.
 564:Drivers/STM32G0xx_HAL_Driver/Src/stm32g0xx_hal_flash_ex.c ****   /* Check the parameters */
 565:Drivers/STM32G0xx_HAL_Driver/Src/stm32g0xx_hal_flash_ex.c ****   assert_param(IS_OB_WRPAREA(WRPArea));
  64              		.loc 1 565 3 view .LVU5
 566:Drivers/STM32G0xx_HAL_Driver/Src/stm32g0xx_hal_flash_ex.c ****   assert_param(IS_FLASH_PAGE(WRPStartOffset));
ARM GAS  C:\Users\matil\AppData\Local\Temp\cc9YAXdg.s 			page 12


  65              		.loc 1 566 3 view .LVU6
 567:Drivers/STM32G0xx_HAL_Driver/Src/stm32g0xx_hal_flash_ex.c ****   assert_param(IS_FLASH_PAGE(WRDPEndOffset));
  66              		.loc 1 567 3 view .LVU7
 568:Drivers/STM32G0xx_HAL_Driver/Src/stm32g0xx_hal_flash_ex.c **** 
 569:Drivers/STM32G0xx_HAL_Driver/Src/stm32g0xx_hal_flash_ex.c ****   /* Configure the write protected area */
 570:Drivers/STM32G0xx_HAL_Driver/Src/stm32g0xx_hal_flash_ex.c ****   if (WRPArea != OB_WRPAREA_ZONE_A)
  67              		.loc 1 570 3 view .LVU8
  68              		.loc 1 570 6 is_stmt 0 view .LVU9
  69 0000 0128     		cmp	r0, #1
  70 0002 04D0     		beq	.L5
 571:Drivers/STM32G0xx_HAL_Driver/Src/stm32g0xx_hal_flash_ex.c ****   {
 572:Drivers/STM32G0xx_HAL_Driver/Src/stm32g0xx_hal_flash_ex.c ****     FLASH->WRP1BR = ((WRDPEndOffset << FLASH_WRP1AR_WRP1A_END_Pos) | WRPStartOffset);
  71              		.loc 1 572 5 is_stmt 1 view .LVU10
  72              		.loc 1 572 37 is_stmt 0 view .LVU11
  73 0004 1204     		lsls	r2, r2, #16
  74              	.LVL1:
  75              		.loc 1 572 68 view .LVU12
  76 0006 0A43     		orrs	r2, r1
  77              		.loc 1 572 19 view .LVU13
  78 0008 034B     		ldr	r3, .L7
  79 000a 1A63     		str	r2, [r3, #48]
  80              	.L4:
 573:Drivers/STM32G0xx_HAL_Driver/Src/stm32g0xx_hal_flash_ex.c ****   }
 574:Drivers/STM32G0xx_HAL_Driver/Src/stm32g0xx_hal_flash_ex.c ****   else
 575:Drivers/STM32G0xx_HAL_Driver/Src/stm32g0xx_hal_flash_ex.c ****   {
 576:Drivers/STM32G0xx_HAL_Driver/Src/stm32g0xx_hal_flash_ex.c ****     FLASH->WRP1AR = ((WRDPEndOffset << FLASH_WRP1BR_WRP1B_END_Pos) | WRPStartOffset);
 577:Drivers/STM32G0xx_HAL_Driver/Src/stm32g0xx_hal_flash_ex.c ****   }
 578:Drivers/STM32G0xx_HAL_Driver/Src/stm32g0xx_hal_flash_ex.c **** }
  81              		.loc 1 578 1 view .LVU14
  82              		@ sp needed
  83 000c 7047     		bx	lr
  84              	.LVL2:
  85              	.L5:
 576:Drivers/STM32G0xx_HAL_Driver/Src/stm32g0xx_hal_flash_ex.c ****   }
  86              		.loc 1 576 5 is_stmt 1 view .LVU15
 576:Drivers/STM32G0xx_HAL_Driver/Src/stm32g0xx_hal_flash_ex.c ****   }
  87              		.loc 1 576 37 is_stmt 0 view .LVU16
  88 000e 1204     		lsls	r2, r2, #16
  89              	.LVL3:
 576:Drivers/STM32G0xx_HAL_Driver/Src/stm32g0xx_hal_flash_ex.c ****   }
  90              		.loc 1 576 68 view .LVU17
  91 0010 0A43     		orrs	r2, r1
 576:Drivers/STM32G0xx_HAL_Driver/Src/stm32g0xx_hal_flash_ex.c ****   }
  92              		.loc 1 576 19 view .LVU18
  93 0012 014B     		ldr	r3, .L7
  94 0014 DA62     		str	r2, [r3, #44]
  95              		.loc 1 578 1 view .LVU19
  96 0016 F9E7     		b	.L4
  97              	.L8:
  98              		.align	2
  99              	.L7:
 100 0018 00200240 		.word	1073881088
 101              		.cfi_endproc
 102              	.LFE185:
 104              		.section	.text.FLASH_OB_OptrConfig,"ax",%progbits
 105              		.align	1
 106              		.syntax unified
ARM GAS  C:\Users\matil\AppData\Local\Temp\cc9YAXdg.s 			page 13


 107              		.code	16
 108              		.thumb_func
 109              		.fpu softvfp
 111              	FLASH_OB_OptrConfig:
 112              	.LVL4:
 113              	.LFB186:
 579:Drivers/STM32G0xx_HAL_Driver/Src/stm32g0xx_hal_flash_ex.c **** 
 580:Drivers/STM32G0xx_HAL_Driver/Src/stm32g0xx_hal_flash_ex.c **** /**
 581:Drivers/STM32G0xx_HAL_Driver/Src/stm32g0xx_hal_flash_ex.c ****   * @brief  Set user & RDP configuration
 582:Drivers/STM32G0xx_HAL_Driver/Src/stm32g0xx_hal_flash_ex.c ****   * @note   !!! Warning : When enabling OB_RDP level 2 it is no more possible
 583:Drivers/STM32G0xx_HAL_Driver/Src/stm32g0xx_hal_flash_ex.c ****   *         to go back to level 1 or 0 !!!
 584:Drivers/STM32G0xx_HAL_Driver/Src/stm32g0xx_hal_flash_ex.c ****   * @param  UserType  The FLASH User Option Bytes to be modified.
 585:Drivers/STM32G0xx_HAL_Driver/Src/stm32g0xx_hal_flash_ex.c ****   *         This parameter can be a combination of @ref FLASH_OB_USER_Type
 586:Drivers/STM32G0xx_HAL_Driver/Src/stm32g0xx_hal_flash_ex.c ****   * @param  UserConfig  The FLASH User Option Bytes values.
 587:Drivers/STM32G0xx_HAL_Driver/Src/stm32g0xx_hal_flash_ex.c ****   *         This parameter can be a combination of:
 588:Drivers/STM32G0xx_HAL_Driver/Src/stm32g0xx_hal_flash_ex.c ****   *         @arg @ref FLASH_OB_USER_BOR_ENABLE(*),
 589:Drivers/STM32G0xx_HAL_Driver/Src/stm32g0xx_hal_flash_ex.c ****   *         @arg @ref FLASH_OB_USER_BOR_LEVEL(*),
 590:Drivers/STM32G0xx_HAL_Driver/Src/stm32g0xx_hal_flash_ex.c ****   *         @arg @ref FLASH_OB_USER_RESET_CONFIG(*),
 591:Drivers/STM32G0xx_HAL_Driver/Src/stm32g0xx_hal_flash_ex.c ****   *         @arg @ref FLASH_OB_USER_nRST_STOP,
 592:Drivers/STM32G0xx_HAL_Driver/Src/stm32g0xx_hal_flash_ex.c ****   *         @arg @ref FLASH_OB_USER_nRST_STANDBY,
 593:Drivers/STM32G0xx_HAL_Driver/Src/stm32g0xx_hal_flash_ex.c ****   *         @arg @ref FLASH_OB_USER_nRST_SHUTDOWN(*),
 594:Drivers/STM32G0xx_HAL_Driver/Src/stm32g0xx_hal_flash_ex.c ****   *         @arg @ref FLASH_OB_USER_IWDG_SW,
 595:Drivers/STM32G0xx_HAL_Driver/Src/stm32g0xx_hal_flash_ex.c ****   *         @arg @ref FLASH_OB_USER_IWDG_STOP,
 596:Drivers/STM32G0xx_HAL_Driver/Src/stm32g0xx_hal_flash_ex.c ****   *         @arg @ref FLASH_OB_USER_IWDG_STANDBY,
 597:Drivers/STM32G0xx_HAL_Driver/Src/stm32g0xx_hal_flash_ex.c ****   *         @arg @ref FLASH_OB_USER_WWDG_SW,
 598:Drivers/STM32G0xx_HAL_Driver/Src/stm32g0xx_hal_flash_ex.c ****   *         @arg @ref FLASH_OB_USER_SRAM_PARITY,
 599:Drivers/STM32G0xx_HAL_Driver/Src/stm32g0xx_hal_flash_ex.c ****   *         @arg @ref FLASH_OB_USER_nBOOT_SEL,
 600:Drivers/STM32G0xx_HAL_Driver/Src/stm32g0xx_hal_flash_ex.c ****   *         @arg @ref FLASH_OB_USER_nBOOT1,
 601:Drivers/STM32G0xx_HAL_Driver/Src/stm32g0xx_hal_flash_ex.c ****   *         @arg @ref FLASH_OB_USER_nBOOT0,
 602:Drivers/STM32G0xx_HAL_Driver/Src/stm32g0xx_hal_flash_ex.c ****   *         @arg @ref FLASH_OB_USER_INPUT_RESET_HOLDER(*)
 603:Drivers/STM32G0xx_HAL_Driver/Src/stm32g0xx_hal_flash_ex.c ****   * @param  RDPLevel  specifies the read protection level.
 604:Drivers/STM32G0xx_HAL_Driver/Src/stm32g0xx_hal_flash_ex.c ****   *         This parameter can be one of the following values:
 605:Drivers/STM32G0xx_HAL_Driver/Src/stm32g0xx_hal_flash_ex.c ****   *            @arg @ref OB_RDP_LEVEL_0 No protection
 606:Drivers/STM32G0xx_HAL_Driver/Src/stm32g0xx_hal_flash_ex.c ****   *            @arg @ref OB_RDP_LEVEL_1 Memory Read protection
 607:Drivers/STM32G0xx_HAL_Driver/Src/stm32g0xx_hal_flash_ex.c ****   *            @arg @ref OB_RDP_LEVEL_2 Full chip protection
 608:Drivers/STM32G0xx_HAL_Driver/Src/stm32g0xx_hal_flash_ex.c ****   * @note  (*) availability depends on devices
 609:Drivers/STM32G0xx_HAL_Driver/Src/stm32g0xx_hal_flash_ex.c ****   * @retval None
 610:Drivers/STM32G0xx_HAL_Driver/Src/stm32g0xx_hal_flash_ex.c ****   */
 611:Drivers/STM32G0xx_HAL_Driver/Src/stm32g0xx_hal_flash_ex.c **** static void FLASH_OB_OptrConfig(uint32_t UserType, uint32_t UserConfig, uint32_t RDPLevel)
 612:Drivers/STM32G0xx_HAL_Driver/Src/stm32g0xx_hal_flash_ex.c **** {
 114              		.loc 1 612 1 is_stmt 1 view -0
 115              		.cfi_startproc
 116              		@ args = 0, pretend = 0, frame = 0
 117              		@ frame_needed = 0, uses_anonymous_args = 0
 118              		.loc 1 612 1 is_stmt 0 view .LVU21
 119 0000 30B5     		push	{r4, r5, lr}
 120              	.LCFI0:
 121              		.cfi_def_cfa_offset 12
 122              		.cfi_offset 4, -12
 123              		.cfi_offset 5, -8
 124              		.cfi_offset 14, -4
 613:Drivers/STM32G0xx_HAL_Driver/Src/stm32g0xx_hal_flash_ex.c ****   uint32_t optr;
 125              		.loc 1 613 3 is_stmt 1 view .LVU22
 614:Drivers/STM32G0xx_HAL_Driver/Src/stm32g0xx_hal_flash_ex.c **** 
 615:Drivers/STM32G0xx_HAL_Driver/Src/stm32g0xx_hal_flash_ex.c ****   /* Check the parameters */
 616:Drivers/STM32G0xx_HAL_Driver/Src/stm32g0xx_hal_flash_ex.c ****   assert_param(IS_OB_USER_TYPE(UserType));
 126              		.loc 1 616 3 view .LVU23
ARM GAS  C:\Users\matil\AppData\Local\Temp\cc9YAXdg.s 			page 14


 617:Drivers/STM32G0xx_HAL_Driver/Src/stm32g0xx_hal_flash_ex.c ****   assert_param(IS_OB_USER_CONFIG(UserType, UserConfig));
 127              		.loc 1 617 3 view .LVU24
 618:Drivers/STM32G0xx_HAL_Driver/Src/stm32g0xx_hal_flash_ex.c ****   assert_param(IS_OB_RDP_LEVEL(RDPLevel));
 128              		.loc 1 618 3 view .LVU25
 619:Drivers/STM32G0xx_HAL_Driver/Src/stm32g0xx_hal_flash_ex.c **** 
 620:Drivers/STM32G0xx_HAL_Driver/Src/stm32g0xx_hal_flash_ex.c ****   /* Configure the RDP level in the option bytes register */
 621:Drivers/STM32G0xx_HAL_Driver/Src/stm32g0xx_hal_flash_ex.c ****   optr = FLASH->OPTR;
 129              		.loc 1 621 3 view .LVU26
 130              		.loc 1 621 8 is_stmt 0 view .LVU27
 131 0002 044C     		ldr	r4, .L10
 132 0004 236A     		ldr	r3, [r4, #32]
 133              	.LVL5:
 622:Drivers/STM32G0xx_HAL_Driver/Src/stm32g0xx_hal_flash_ex.c ****   optr &= ~(UserType | FLASH_OPTR_RDP);
 134              		.loc 1 622 3 is_stmt 1 view .LVU28
 135              		.loc 1 622 22 is_stmt 0 view .LVU29
 136 0006 FF25     		movs	r5, #255
 137 0008 2843     		orrs	r0, r5
 138              	.LVL6:
 139              		.loc 1 622 8 view .LVU30
 140 000a 8343     		bics	r3, r0
 141              	.LVL7:
 623:Drivers/STM32G0xx_HAL_Driver/Src/stm32g0xx_hal_flash_ex.c ****   FLASH->OPTR = (optr | UserConfig | RDPLevel);
 142              		.loc 1 623 3 is_stmt 1 view .LVU31
 143              		.loc 1 623 23 is_stmt 0 view .LVU32
 144 000c 0B43     		orrs	r3, r1
 145              	.LVL8:
 146              		.loc 1 623 36 view .LVU33
 147 000e 1343     		orrs	r3, r2
 148              		.loc 1 623 15 view .LVU34
 149 0010 2362     		str	r3, [r4, #32]
 624:Drivers/STM32G0xx_HAL_Driver/Src/stm32g0xx_hal_flash_ex.c **** }
 150              		.loc 1 624 1 view .LVU35
 151              		@ sp needed
 152 0012 30BD     		pop	{r4, r5, pc}
 153              	.L11:
 154              		.align	2
 155              	.L10:
 156 0014 00200240 		.word	1073881088
 157              		.cfi_endproc
 158              	.LFE186:
 160              		.section	.text.FLASH_OB_PCROP1AConfig,"ax",%progbits
 161              		.align	1
 162              		.syntax unified
 163              		.code	16
 164              		.thumb_func
 165              		.fpu softvfp
 167              	FLASH_OB_PCROP1AConfig:
 168              	.LVL9:
 169              	.LFB187:
 625:Drivers/STM32G0xx_HAL_Driver/Src/stm32g0xx_hal_flash_ex.c **** 
 626:Drivers/STM32G0xx_HAL_Driver/Src/stm32g0xx_hal_flash_ex.c **** #if defined(FLASH_PCROP_SUPPORT)
 627:Drivers/STM32G0xx_HAL_Driver/Src/stm32g0xx_hal_flash_ex.c **** /**
 628:Drivers/STM32G0xx_HAL_Driver/Src/stm32g0xx_hal_flash_ex.c ****   * @brief  Configure the 1A Proprietary code readout protection & erase configuration on RDP regre
 629:Drivers/STM32G0xx_HAL_Driver/Src/stm32g0xx_hal_flash_ex.c ****   * @note   It is recommended to align PCROP zone with page granularity when using PCROP_RDP or avo
 630:Drivers/STM32G0xx_HAL_Driver/Src/stm32g0xx_hal_flash_ex.c ****   *         having some executable code in a page where PCROP zone starts or ends.
 631:Drivers/STM32G0xx_HAL_Driver/Src/stm32g0xx_hal_flash_ex.c ****   * @note   Minimum PCROP area size is 2 times the chosen granularity: PCROPA_STRT and PCROPA_END.
 632:Drivers/STM32G0xx_HAL_Driver/Src/stm32g0xx_hal_flash_ex.c ****   *         So if the requirement is to be able to read-protect 1KB areas, the ROP granularity
ARM GAS  C:\Users\matil\AppData\Local\Temp\cc9YAXdg.s 			page 15


 633:Drivers/STM32G0xx_HAL_Driver/Src/stm32g0xx_hal_flash_ex.c ****   *         has to be set to 512 Bytes
 634:Drivers/STM32G0xx_HAL_Driver/Src/stm32g0xx_hal_flash_ex.c ****   * @param  PCROPConfig  specifies the erase configuration (OB_PCROP_RDP_NOT_ERASE or OB_PCROP_RDP_
 635:Drivers/STM32G0xx_HAL_Driver/Src/stm32g0xx_hal_flash_ex.c ****   *         on RDP level 1 regression.
 636:Drivers/STM32G0xx_HAL_Driver/Src/stm32g0xx_hal_flash_ex.c ****   * @param  PCROP1AStartAddr Specifies the Zone 1A Start address of the Proprietary code readout pr
 637:Drivers/STM32G0xx_HAL_Driver/Src/stm32g0xx_hal_flash_ex.c ****   *          This parameter can be an address between begin and end of the flash
 638:Drivers/STM32G0xx_HAL_Driver/Src/stm32g0xx_hal_flash_ex.c ****   * @param  PCROP1AEndAddr Specifies the Zone 1A end address of the Proprietary code readout protec
 639:Drivers/STM32G0xx_HAL_Driver/Src/stm32g0xx_hal_flash_ex.c ****   *          This parameter can be an address between PCROP1AStartAddr and end of the flash
 640:Drivers/STM32G0xx_HAL_Driver/Src/stm32g0xx_hal_flash_ex.c ****   * @retval None
 641:Drivers/STM32G0xx_HAL_Driver/Src/stm32g0xx_hal_flash_ex.c ****   */
 642:Drivers/STM32G0xx_HAL_Driver/Src/stm32g0xx_hal_flash_ex.c **** static void FLASH_OB_PCROP1AConfig(uint32_t PCROPConfig, uint32_t PCROP1AStartAddr, uint32_t PCROP1
 643:Drivers/STM32G0xx_HAL_Driver/Src/stm32g0xx_hal_flash_ex.c **** {
 170              		.loc 1 643 1 is_stmt 1 view -0
 171              		.cfi_startproc
 172              		@ args = 0, pretend = 0, frame = 0
 173              		@ frame_needed = 0, uses_anonymous_args = 0
 174              		.loc 1 643 1 is_stmt 0 view .LVU37
 175 0000 10B5     		push	{r4, lr}
 176              	.LCFI1:
 177              		.cfi_def_cfa_offset 8
 178              		.cfi_offset 4, -8
 179              		.cfi_offset 14, -4
 644:Drivers/STM32G0xx_HAL_Driver/Src/stm32g0xx_hal_flash_ex.c ****   uint32_t startoffset;
 180              		.loc 1 644 3 is_stmt 1 view .LVU38
 645:Drivers/STM32G0xx_HAL_Driver/Src/stm32g0xx_hal_flash_ex.c ****   uint32_t endoffset;
 181              		.loc 1 645 3 view .LVU39
 646:Drivers/STM32G0xx_HAL_Driver/Src/stm32g0xx_hal_flash_ex.c ****   uint32_t pcrop1aend;
 182              		.loc 1 646 3 view .LVU40
 647:Drivers/STM32G0xx_HAL_Driver/Src/stm32g0xx_hal_flash_ex.c **** 
 648:Drivers/STM32G0xx_HAL_Driver/Src/stm32g0xx_hal_flash_ex.c ****   /* Check the parameters */
 649:Drivers/STM32G0xx_HAL_Driver/Src/stm32g0xx_hal_flash_ex.c ****   assert_param(IS_OB_PCROP_CONFIG(PCROPConfig));
 183              		.loc 1 649 3 view .LVU41
 650:Drivers/STM32G0xx_HAL_Driver/Src/stm32g0xx_hal_flash_ex.c ****   assert_param(IS_FLASH_MAIN_MEM_ADDRESS(PCROP1AStartAddr));
 184              		.loc 1 650 3 view .LVU42
 651:Drivers/STM32G0xx_HAL_Driver/Src/stm32g0xx_hal_flash_ex.c ****   assert_param(IS_FLASH_MAIN_MEM_ADDRESS(PCROP1AEndAddr));
 185              		.loc 1 651 3 view .LVU43
 652:Drivers/STM32G0xx_HAL_Driver/Src/stm32g0xx_hal_flash_ex.c **** 
 653:Drivers/STM32G0xx_HAL_Driver/Src/stm32g0xx_hal_flash_ex.c ****   /* get pcrop 1A end register */
 654:Drivers/STM32G0xx_HAL_Driver/Src/stm32g0xx_hal_flash_ex.c ****   pcrop1aend = FLASH->PCROP1AER;
 186              		.loc 1 654 3 view .LVU44
 187              		.loc 1 654 14 is_stmt 0 view .LVU45
 188 0002 0C4B     		ldr	r3, .L16
 189 0004 9B6A     		ldr	r3, [r3, #40]
 190              	.LVL10:
 655:Drivers/STM32G0xx_HAL_Driver/Src/stm32g0xx_hal_flash_ex.c **** 
 656:Drivers/STM32G0xx_HAL_Driver/Src/stm32g0xx_hal_flash_ex.c ****   /* Configure the Proprietary code readout protection offset */
 657:Drivers/STM32G0xx_HAL_Driver/Src/stm32g0xx_hal_flash_ex.c ****   if ((PCROPConfig & OB_PCROP_ZONE_A) != 0x00U)
 191              		.loc 1 657 3 is_stmt 1 view .LVU46
 192              		.loc 1 657 6 is_stmt 0 view .LVU47
 193 0006 C407     		lsls	r4, r0, #31
 194 0008 0BD5     		bpl	.L13
 658:Drivers/STM32G0xx_HAL_Driver/Src/stm32g0xx_hal_flash_ex.c ****   {
 659:Drivers/STM32G0xx_HAL_Driver/Src/stm32g0xx_hal_flash_ex.c ****     /* Compute offset depending on pcrop granularity */
 660:Drivers/STM32G0xx_HAL_Driver/Src/stm32g0xx_hal_flash_ex.c ****     startoffset = ((PCROP1AStartAddr - FLASH_BASE) >> FLASH_PCROP_GRANULARITY_OFFSET);
 195              		.loc 1 660 5 is_stmt 1 view .LVU48
 196              		.loc 1 660 38 is_stmt 0 view .LVU49
 197 000a F824     		movs	r4, #248
 198 000c 2406     		lsls	r4, r4, #24
ARM GAS  C:\Users\matil\AppData\Local\Temp\cc9YAXdg.s 			page 16


 199 000e A446     		mov	ip, r4
 200 0010 6144     		add	r1, r1, ip
 201              	.LVL11:
 202              		.loc 1 660 17 view .LVU50
 203 0012 490A     		lsrs	r1, r1, #9
 204              	.LVL12:
 661:Drivers/STM32G0xx_HAL_Driver/Src/stm32g0xx_hal_flash_ex.c ****     endoffset = ((PCROP1AEndAddr - FLASH_BASE) >> FLASH_PCROP_GRANULARITY_OFFSET);
 205              		.loc 1 661 5 is_stmt 1 view .LVU51
 206              		.loc 1 661 34 is_stmt 0 view .LVU52
 207 0014 6244     		add	r2, r2, ip
 208              	.LVL13:
 209              		.loc 1 661 15 view .LVU53
 210 0016 520A     		lsrs	r2, r2, #9
 211              	.LVL14:
 662:Drivers/STM32G0xx_HAL_Driver/Src/stm32g0xx_hal_flash_ex.c **** 
 663:Drivers/STM32G0xx_HAL_Driver/Src/stm32g0xx_hal_flash_ex.c ****     /* Set Zone A start offset */
 664:Drivers/STM32G0xx_HAL_Driver/Src/stm32g0xx_hal_flash_ex.c ****     FLASH->PCROP1ASR = startoffset;
 212              		.loc 1 664 5 is_stmt 1 view .LVU54
 213              		.loc 1 664 22 is_stmt 0 view .LVU55
 214 0018 064C     		ldr	r4, .L16
 215 001a 6162     		str	r1, [r4, #36]
 665:Drivers/STM32G0xx_HAL_Driver/Src/stm32g0xx_hal_flash_ex.c **** 
 666:Drivers/STM32G0xx_HAL_Driver/Src/stm32g0xx_hal_flash_ex.c ****     /* Set Zone A end offset */
 667:Drivers/STM32G0xx_HAL_Driver/Src/stm32g0xx_hal_flash_ex.c ****     pcrop1aend &= ~FLASH_PCROP1AER_PCROP1A_END;
 216              		.loc 1 667 5 is_stmt 1 view .LVU56
 217              		.loc 1 667 16 is_stmt 0 view .LVU57
 218 001c FF21     		movs	r1, #255
 219              	.LVL15:
 220              		.loc 1 667 16 view .LVU58
 221 001e 8B43     		bics	r3, r1
 222              	.LVL16:
 668:Drivers/STM32G0xx_HAL_Driver/Src/stm32g0xx_hal_flash_ex.c ****     pcrop1aend |= endoffset;
 223              		.loc 1 668 5 is_stmt 1 view .LVU59
 224              		.loc 1 668 16 is_stmt 0 view .LVU60
 225 0020 1343     		orrs	r3, r2
 226              	.LVL17:
 227              	.L13:
 669:Drivers/STM32G0xx_HAL_Driver/Src/stm32g0xx_hal_flash_ex.c ****   }
 670:Drivers/STM32G0xx_HAL_Driver/Src/stm32g0xx_hal_flash_ex.c **** 
 671:Drivers/STM32G0xx_HAL_Driver/Src/stm32g0xx_hal_flash_ex.c ****   /* Set RDP erase protection if needed. This bit is only set & will be reset by mass erase */
 672:Drivers/STM32G0xx_HAL_Driver/Src/stm32g0xx_hal_flash_ex.c ****   if ((PCROPConfig & OB_PCROP_RDP_ERASE) != 0x00U)
 228              		.loc 1 672 3 is_stmt 1 view .LVU61
 229              		.loc 1 672 6 is_stmt 0 view .LVU62
 230 0022 0028     		cmp	r0, #0
 231 0024 02DB     		blt	.L15
 232              	.L14:
 673:Drivers/STM32G0xx_HAL_Driver/Src/stm32g0xx_hal_flash_ex.c ****   {
 674:Drivers/STM32G0xx_HAL_Driver/Src/stm32g0xx_hal_flash_ex.c ****     pcrop1aend |= FLASH_PCROP1AER_PCROP_RDP;
 675:Drivers/STM32G0xx_HAL_Driver/Src/stm32g0xx_hal_flash_ex.c ****   }
 676:Drivers/STM32G0xx_HAL_Driver/Src/stm32g0xx_hal_flash_ex.c **** 
 677:Drivers/STM32G0xx_HAL_Driver/Src/stm32g0xx_hal_flash_ex.c ****   /* set 1A End register */
 678:Drivers/STM32G0xx_HAL_Driver/Src/stm32g0xx_hal_flash_ex.c ****   FLASH->PCROP1AER = pcrop1aend;
 233              		.loc 1 678 3 is_stmt 1 view .LVU63
 234              		.loc 1 678 20 is_stmt 0 view .LVU64
 235 0026 034A     		ldr	r2, .L16
 236 0028 9362     		str	r3, [r2, #40]
 679:Drivers/STM32G0xx_HAL_Driver/Src/stm32g0xx_hal_flash_ex.c **** }
ARM GAS  C:\Users\matil\AppData\Local\Temp\cc9YAXdg.s 			page 17


 237              		.loc 1 679 1 view .LVU65
 238              		@ sp needed
 239 002a 10BD     		pop	{r4, pc}
 240              	.L15:
 674:Drivers/STM32G0xx_HAL_Driver/Src/stm32g0xx_hal_flash_ex.c ****   }
 241              		.loc 1 674 5 is_stmt 1 view .LVU66
 674:Drivers/STM32G0xx_HAL_Driver/Src/stm32g0xx_hal_flash_ex.c ****   }
 242              		.loc 1 674 16 is_stmt 0 view .LVU67
 243 002c 8022     		movs	r2, #128
 244 002e 1206     		lsls	r2, r2, #24
 245 0030 1343     		orrs	r3, r2
 246              	.LVL18:
 674:Drivers/STM32G0xx_HAL_Driver/Src/stm32g0xx_hal_flash_ex.c ****   }
 247              		.loc 1 674 16 view .LVU68
 248 0032 F8E7     		b	.L14
 249              	.L17:
 250              		.align	2
 251              	.L16:
 252 0034 00200240 		.word	1073881088
 253              		.cfi_endproc
 254              	.LFE187:
 256              		.section	.text.FLASH_OB_PCROP1BConfig,"ax",%progbits
 257              		.align	1
 258              		.syntax unified
 259              		.code	16
 260              		.thumb_func
 261              		.fpu softvfp
 263              	FLASH_OB_PCROP1BConfig:
 264              	.LVL19:
 265              	.LFB188:
 680:Drivers/STM32G0xx_HAL_Driver/Src/stm32g0xx_hal_flash_ex.c **** 
 681:Drivers/STM32G0xx_HAL_Driver/Src/stm32g0xx_hal_flash_ex.c **** /**
 682:Drivers/STM32G0xx_HAL_Driver/Src/stm32g0xx_hal_flash_ex.c ****   * @brief  Configure the 1B Proprietary code readout protection.
 683:Drivers/STM32G0xx_HAL_Driver/Src/stm32g0xx_hal_flash_ex.c ****   * @note   It is recommended to align PCROP zone with page granularity when using PCROP_RDP or avo
 684:Drivers/STM32G0xx_HAL_Driver/Src/stm32g0xx_hal_flash_ex.c ****   *         having some executable code in a page where PCROP zone starts or ends.
 685:Drivers/STM32G0xx_HAL_Driver/Src/stm32g0xx_hal_flash_ex.c ****   * @note   Minimum PCROP area size is 2 times the chosen granularity: PCROPA_STRT and PCROPA_END.
 686:Drivers/STM32G0xx_HAL_Driver/Src/stm32g0xx_hal_flash_ex.c ****   *         So if the requirement is to be able to read-protect 1KB areas, the ROP granularity
 687:Drivers/STM32G0xx_HAL_Driver/Src/stm32g0xx_hal_flash_ex.c ****   *         has to be set to 512 Bytes
 688:Drivers/STM32G0xx_HAL_Driver/Src/stm32g0xx_hal_flash_ex.c ****   * @param  PCROP1BStartAddr  Specifies the Zone 1B Start address of the Proprietary code readout p
 689:Drivers/STM32G0xx_HAL_Driver/Src/stm32g0xx_hal_flash_ex.c ****   *         This parameter can be an address between begin and end of the flash
 690:Drivers/STM32G0xx_HAL_Driver/Src/stm32g0xx_hal_flash_ex.c ****   * @param  PCROP1BEndAddr  Specifies the Zone 1B end address of the Proprietary code readout prote
 691:Drivers/STM32G0xx_HAL_Driver/Src/stm32g0xx_hal_flash_ex.c ****   *         This parameter can be an address between PCROP1BStartAddr and end of the flash
 692:Drivers/STM32G0xx_HAL_Driver/Src/stm32g0xx_hal_flash_ex.c ****   * @retval None
 693:Drivers/STM32G0xx_HAL_Driver/Src/stm32g0xx_hal_flash_ex.c ****   */
 694:Drivers/STM32G0xx_HAL_Driver/Src/stm32g0xx_hal_flash_ex.c **** static void FLASH_OB_PCROP1BConfig(uint32_t PCROP1BStartAddr, uint32_t PCROP1BEndAddr)
 695:Drivers/STM32G0xx_HAL_Driver/Src/stm32g0xx_hal_flash_ex.c **** {
 266              		.loc 1 695 1 is_stmt 1 view -0
 267              		.cfi_startproc
 268              		@ args = 0, pretend = 0, frame = 0
 269              		@ frame_needed = 0, uses_anonymous_args = 0
 270              		@ link register save eliminated.
 696:Drivers/STM32G0xx_HAL_Driver/Src/stm32g0xx_hal_flash_ex.c ****   uint32_t startoffset;
 271              		.loc 1 696 3 view .LVU70
 697:Drivers/STM32G0xx_HAL_Driver/Src/stm32g0xx_hal_flash_ex.c ****   uint32_t endoffset;
 272              		.loc 1 697 3 view .LVU71
 698:Drivers/STM32G0xx_HAL_Driver/Src/stm32g0xx_hal_flash_ex.c **** 
 699:Drivers/STM32G0xx_HAL_Driver/Src/stm32g0xx_hal_flash_ex.c ****   /* Check the parameters */
ARM GAS  C:\Users\matil\AppData\Local\Temp\cc9YAXdg.s 			page 18


 700:Drivers/STM32G0xx_HAL_Driver/Src/stm32g0xx_hal_flash_ex.c ****   assert_param(IS_FLASH_MAIN_MEM_ADDRESS(PCROP1BStartAddr));
 273              		.loc 1 700 3 view .LVU72
 701:Drivers/STM32G0xx_HAL_Driver/Src/stm32g0xx_hal_flash_ex.c ****   assert_param(IS_FLASH_MAIN_MEM_ADDRESS(PCROP1BEndAddr));
 274              		.loc 1 701 3 view .LVU73
 702:Drivers/STM32G0xx_HAL_Driver/Src/stm32g0xx_hal_flash_ex.c **** 
 703:Drivers/STM32G0xx_HAL_Driver/Src/stm32g0xx_hal_flash_ex.c ****   /* Configure the Proprietary code readout protection offset */
 704:Drivers/STM32G0xx_HAL_Driver/Src/stm32g0xx_hal_flash_ex.c ****   startoffset = ((PCROP1BStartAddr - FLASH_BASE) >> FLASH_PCROP_GRANULARITY_OFFSET);
 275              		.loc 1 704 3 view .LVU74
 276              		.loc 1 704 36 is_stmt 0 view .LVU75
 277 0000 F823     		movs	r3, #248
 278 0002 1B06     		lsls	r3, r3, #24
 279 0004 9C46     		mov	ip, r3
 280 0006 6044     		add	r0, r0, ip
 281              	.LVL20:
 282              		.loc 1 704 15 view .LVU76
 283 0008 400A     		lsrs	r0, r0, #9
 284              	.LVL21:
 705:Drivers/STM32G0xx_HAL_Driver/Src/stm32g0xx_hal_flash_ex.c ****   endoffset = ((PCROP1BEndAddr - FLASH_BASE) >> FLASH_PCROP_GRANULARITY_OFFSET);
 285              		.loc 1 705 3 is_stmt 1 view .LVU77
 286              		.loc 1 705 32 is_stmt 0 view .LVU78
 287 000a 6144     		add	r1, r1, ip
 288              	.LVL22:
 289              		.loc 1 705 13 view .LVU79
 290 000c 490A     		lsrs	r1, r1, #9
 291              	.LVL23:
 706:Drivers/STM32G0xx_HAL_Driver/Src/stm32g0xx_hal_flash_ex.c **** 
 707:Drivers/STM32G0xx_HAL_Driver/Src/stm32g0xx_hal_flash_ex.c ****   /* Set Zone B start offset */
 708:Drivers/STM32G0xx_HAL_Driver/Src/stm32g0xx_hal_flash_ex.c ****   FLASH->PCROP1BSR = startoffset;
 292              		.loc 1 708 3 is_stmt 1 view .LVU80
 293              		.loc 1 708 20 is_stmt 0 view .LVU81
 294 000e 024B     		ldr	r3, .L19
 295 0010 5863     		str	r0, [r3, #52]
 709:Drivers/STM32G0xx_HAL_Driver/Src/stm32g0xx_hal_flash_ex.c ****   /* Set Zone B end offset */
 710:Drivers/STM32G0xx_HAL_Driver/Src/stm32g0xx_hal_flash_ex.c ****   FLASH->PCROP1BER = endoffset;
 296              		.loc 1 710 3 is_stmt 1 view .LVU82
 297              		.loc 1 710 20 is_stmt 0 view .LVU83
 298 0012 9963     		str	r1, [r3, #56]
 711:Drivers/STM32G0xx_HAL_Driver/Src/stm32g0xx_hal_flash_ex.c **** }
 299              		.loc 1 711 1 view .LVU84
 300              		@ sp needed
 301 0014 7047     		bx	lr
 302              	.L20:
 303 0016 C046     		.align	2
 304              	.L19:
 305 0018 00200240 		.word	1073881088
 306              		.cfi_endproc
 307              	.LFE188:
 309              		.section	.text.FLASH_OB_SecMemConfig,"ax",%progbits
 310              		.align	1
 311              		.syntax unified
 312              		.code	16
 313              		.thumb_func
 314              		.fpu softvfp
 316              	FLASH_OB_SecMemConfig:
 317              	.LVL24:
 318              	.LFB189:
 712:Drivers/STM32G0xx_HAL_Driver/Src/stm32g0xx_hal_flash_ex.c **** #endif
ARM GAS  C:\Users\matil\AppData\Local\Temp\cc9YAXdg.s 			page 19


 713:Drivers/STM32G0xx_HAL_Driver/Src/stm32g0xx_hal_flash_ex.c **** 
 714:Drivers/STM32G0xx_HAL_Driver/Src/stm32g0xx_hal_flash_ex.c **** #if defined(FLASH_SECURABLE_MEMORY_SUPPORT)
 715:Drivers/STM32G0xx_HAL_Driver/Src/stm32g0xx_hal_flash_ex.c **** /**
 716:Drivers/STM32G0xx_HAL_Driver/Src/stm32g0xx_hal_flash_ex.c ****   * @brief  Configure Securable Memory area feature.
 717:Drivers/STM32G0xx_HAL_Driver/Src/stm32g0xx_hal_flash_ex.c ****   * @param  BootEntry  specifies if boot scheme is forced to Flash (System or user) or not
 718:Drivers/STM32G0xx_HAL_Driver/Src/stm32g0xx_hal_flash_ex.c ****   *         This parameter can be one of the following values:
 719:Drivers/STM32G0xx_HAL_Driver/Src/stm32g0xx_hal_flash_ex.c ****   *           @arg @ref OB_BOOT_ENTRY_FORCED_NONE No boot entry forced
 720:Drivers/STM32G0xx_HAL_Driver/Src/stm32g0xx_hal_flash_ex.c ****   *           @arg @ref OB_BOOT_ENTRY_FORCED_FLASH FLash selected as unique entry boot
 721:Drivers/STM32G0xx_HAL_Driver/Src/stm32g0xx_hal_flash_ex.c ****   * @param  SecSize specifies number of pages to protect as securable memory area, starting from
 722:Drivers/STM32G0xx_HAL_Driver/Src/stm32g0xx_hal_flash_ex.c ****   *         beginning of the Flash (page 0).
 723:Drivers/STM32G0xx_HAL_Driver/Src/stm32g0xx_hal_flash_ex.c ****   * @retval None
 724:Drivers/STM32G0xx_HAL_Driver/Src/stm32g0xx_hal_flash_ex.c ****   */
 725:Drivers/STM32G0xx_HAL_Driver/Src/stm32g0xx_hal_flash_ex.c **** static void FLASH_OB_SecMemConfig(uint32_t BootEntry, uint32_t SecSize)
 726:Drivers/STM32G0xx_HAL_Driver/Src/stm32g0xx_hal_flash_ex.c **** {
 319              		.loc 1 726 1 is_stmt 1 view -0
 320              		.cfi_startproc
 321              		@ args = 0, pretend = 0, frame = 0
 322              		@ frame_needed = 0, uses_anonymous_args = 0
 323              		.loc 1 726 1 is_stmt 0 view .LVU86
 324 0000 30B5     		push	{r4, r5, lr}
 325              	.LCFI2:
 326              		.cfi_def_cfa_offset 12
 327              		.cfi_offset 4, -12
 328              		.cfi_offset 5, -8
 329              		.cfi_offset 14, -4
 727:Drivers/STM32G0xx_HAL_Driver/Src/stm32g0xx_hal_flash_ex.c ****   uint32_t secmem;
 330              		.loc 1 727 3 is_stmt 1 view .LVU87
 728:Drivers/STM32G0xx_HAL_Driver/Src/stm32g0xx_hal_flash_ex.c **** 
 729:Drivers/STM32G0xx_HAL_Driver/Src/stm32g0xx_hal_flash_ex.c ****   /* Check the parameters */
 730:Drivers/STM32G0xx_HAL_Driver/Src/stm32g0xx_hal_flash_ex.c ****   assert_param(IS_OB_SEC_BOOT_LOCK(BootEntry));
 331              		.loc 1 730 3 view .LVU88
 731:Drivers/STM32G0xx_HAL_Driver/Src/stm32g0xx_hal_flash_ex.c ****   assert_param(IS_OB_SEC_SIZE(SecSize));
 332              		.loc 1 731 3 view .LVU89
 732:Drivers/STM32G0xx_HAL_Driver/Src/stm32g0xx_hal_flash_ex.c **** 
 733:Drivers/STM32G0xx_HAL_Driver/Src/stm32g0xx_hal_flash_ex.c ****   /* Set securable memory area configuration */
 734:Drivers/STM32G0xx_HAL_Driver/Src/stm32g0xx_hal_flash_ex.c ****   secmem = (FLASH->SECR & ~(FLASH_SECR_BOOT_LOCK | FLASH_SECR_SEC_SIZE));
 333              		.loc 1 734 3 view .LVU90
 334              		.loc 1 734 18 is_stmt 0 view .LVU91
 335 0002 044C     		ldr	r4, .L22
 336 0004 8022     		movs	r2, #128
 337 0006 A358     		ldr	r3, [r4, r2]
 338              		.loc 1 734 10 view .LVU92
 339 0008 034D     		ldr	r5, .L22+4
 340 000a 2B40     		ands	r3, r5
 341              	.LVL25:
 735:Drivers/STM32G0xx_HAL_Driver/Src/stm32g0xx_hal_flash_ex.c ****   FLASH->SECR = (secmem | BootEntry | SecSize);
 342              		.loc 1 735 3 is_stmt 1 view .LVU93
 343              		.loc 1 735 25 is_stmt 0 view .LVU94
 344 000c 0343     		orrs	r3, r0
 345              	.LVL26:
 346              		.loc 1 735 37 view .LVU95
 347 000e 0B43     		orrs	r3, r1
 348              		.loc 1 735 15 view .LVU96
 349 0010 A350     		str	r3, [r4, r2]
 736:Drivers/STM32G0xx_HAL_Driver/Src/stm32g0xx_hal_flash_ex.c **** }
 350              		.loc 1 736 1 view .LVU97
 351              		@ sp needed
ARM GAS  C:\Users\matil\AppData\Local\Temp\cc9YAXdg.s 			page 20


 352 0012 30BD     		pop	{r4, r5, pc}
 353              	.L23:
 354              		.align	2
 355              	.L22:
 356 0014 00200240 		.word	1073881088
 357 0018 80FFFEFF 		.word	-65664
 358              		.cfi_endproc
 359              	.LFE189:
 361              		.section	.text.FLASH_OB_GetWRP,"ax",%progbits
 362              		.align	1
 363              		.syntax unified
 364              		.code	16
 365              		.thumb_func
 366              		.fpu softvfp
 368              	FLASH_OB_GetWRP:
 369              	.LVL27:
 370              	.LFB190:
 737:Drivers/STM32G0xx_HAL_Driver/Src/stm32g0xx_hal_flash_ex.c **** #endif
 738:Drivers/STM32G0xx_HAL_Driver/Src/stm32g0xx_hal_flash_ex.c **** 
 739:Drivers/STM32G0xx_HAL_Driver/Src/stm32g0xx_hal_flash_ex.c **** 
 740:Drivers/STM32G0xx_HAL_Driver/Src/stm32g0xx_hal_flash_ex.c **** /**
 741:Drivers/STM32G0xx_HAL_Driver/Src/stm32g0xx_hal_flash_ex.c ****   * @brief  Return the FLASH Write Protection Option Bytes value.
 742:Drivers/STM32G0xx_HAL_Driver/Src/stm32g0xx_hal_flash_ex.c ****   * @param[in]  WRPArea Specifies the area to be returned.
 743:Drivers/STM32G0xx_HAL_Driver/Src/stm32g0xx_hal_flash_ex.c ****   *             This parameter can be one of the following values:
 744:Drivers/STM32G0xx_HAL_Driver/Src/stm32g0xx_hal_flash_ex.c ****   *               @arg @ref OB_WRPAREA_ZONE_A Flash Zone A
 745:Drivers/STM32G0xx_HAL_Driver/Src/stm32g0xx_hal_flash_ex.c ****   *               @arg @ref OB_WRPAREA_ZONE_B Flash Zone B
 746:Drivers/STM32G0xx_HAL_Driver/Src/stm32g0xx_hal_flash_ex.c ****   * @param[out]  WRPStartOffset  Specifies the address where to copied the start page
 747:Drivers/STM32G0xx_HAL_Driver/Src/stm32g0xx_hal_flash_ex.c ****   *                         of the write protected area
 748:Drivers/STM32G0xx_HAL_Driver/Src/stm32g0xx_hal_flash_ex.c ****   * @param[out]  WRDPEndOffset  Dpecifies the address where to copied the end page of
 749:Drivers/STM32G0xx_HAL_Driver/Src/stm32g0xx_hal_flash_ex.c ****   *                        the write protected area
 750:Drivers/STM32G0xx_HAL_Driver/Src/stm32g0xx_hal_flash_ex.c ****   * @retval None
 751:Drivers/STM32G0xx_HAL_Driver/Src/stm32g0xx_hal_flash_ex.c ****   */
 752:Drivers/STM32G0xx_HAL_Driver/Src/stm32g0xx_hal_flash_ex.c **** static void FLASH_OB_GetWRP(uint32_t WRPArea, uint32_t *WRPStartOffset, uint32_t *WRDPEndOffset)
 753:Drivers/STM32G0xx_HAL_Driver/Src/stm32g0xx_hal_flash_ex.c **** {
 371              		.loc 1 753 1 is_stmt 1 view -0
 372              		.cfi_startproc
 373              		@ args = 0, pretend = 0, frame = 0
 374              		@ frame_needed = 0, uses_anonymous_args = 0
 375              		.loc 1 753 1 is_stmt 0 view .LVU99
 376 0000 10B5     		push	{r4, lr}
 377              	.LCFI3:
 378              		.cfi_def_cfa_offset 8
 379              		.cfi_offset 4, -8
 380              		.cfi_offset 14, -4
 754:Drivers/STM32G0xx_HAL_Driver/Src/stm32g0xx_hal_flash_ex.c ****   /* Check the parameters */
 755:Drivers/STM32G0xx_HAL_Driver/Src/stm32g0xx_hal_flash_ex.c ****   assert_param(IS_OB_WRPAREA(WRPArea));
 381              		.loc 1 755 3 is_stmt 1 view .LVU100
 756:Drivers/STM32G0xx_HAL_Driver/Src/stm32g0xx_hal_flash_ex.c **** 
 757:Drivers/STM32G0xx_HAL_Driver/Src/stm32g0xx_hal_flash_ex.c ****   /* Get the configuration of the write protected area */
 758:Drivers/STM32G0xx_HAL_Driver/Src/stm32g0xx_hal_flash_ex.c ****   if (WRPArea == OB_WRPAREA_ZONE_A)
 382              		.loc 1 758 3 view .LVU101
 383              		.loc 1 758 6 is_stmt 0 view .LVU102
 384 0002 0128     		cmp	r0, #1
 385 0004 09D0     		beq	.L27
 759:Drivers/STM32G0xx_HAL_Driver/Src/stm32g0xx_hal_flash_ex.c ****   {
 760:Drivers/STM32G0xx_HAL_Driver/Src/stm32g0xx_hal_flash_ex.c ****     *WRPStartOffset = READ_BIT(FLASH->WRP1AR, FLASH_WRP1AR_WRP1A_STRT);
 761:Drivers/STM32G0xx_HAL_Driver/Src/stm32g0xx_hal_flash_ex.c ****     *WRDPEndOffset = (READ_BIT(FLASH->WRP1AR, FLASH_WRP1AR_WRP1A_END) >> FLASH_WRP1AR_WRP1A_END_Pos
ARM GAS  C:\Users\matil\AppData\Local\Temp\cc9YAXdg.s 			page 21


 762:Drivers/STM32G0xx_HAL_Driver/Src/stm32g0xx_hal_flash_ex.c ****   }
 763:Drivers/STM32G0xx_HAL_Driver/Src/stm32g0xx_hal_flash_ex.c ****   else
 764:Drivers/STM32G0xx_HAL_Driver/Src/stm32g0xx_hal_flash_ex.c ****   {
 765:Drivers/STM32G0xx_HAL_Driver/Src/stm32g0xx_hal_flash_ex.c ****     *WRPStartOffset = READ_BIT(FLASH->WRP1BR, FLASH_WRP1BR_WRP1B_STRT);
 386              		.loc 1 765 5 is_stmt 1 view .LVU103
 387              		.loc 1 765 23 is_stmt 0 view .LVU104
 388 0006 0A4C     		ldr	r4, .L28
 389 0008 206B     		ldr	r0, [r4, #48]
 390              	.LVL28:
 391              		.loc 1 765 23 view .LVU105
 392 000a 3F23     		movs	r3, #63
 393 000c 1840     		ands	r0, r3
 394              		.loc 1 765 21 view .LVU106
 395 000e 0860     		str	r0, [r1]
 766:Drivers/STM32G0xx_HAL_Driver/Src/stm32g0xx_hal_flash_ex.c ****     *WRDPEndOffset = (READ_BIT(FLASH->WRP1BR, FLASH_WRP1BR_WRP1B_END) >> FLASH_WRP1BR_WRP1B_END_Pos
 396              		.loc 1 766 5 is_stmt 1 view .LVU107
 397              		.loc 1 766 23 is_stmt 0 view .LVU108
 398 0010 216B     		ldr	r1, [r4, #48]
 399              	.LVL29:
 400              		.loc 1 766 71 view .LVU109
 401 0012 090C     		lsrs	r1, r1, #16
 402 0014 0B40     		ands	r3, r1
 403              		.loc 1 766 20 view .LVU110
 404 0016 1360     		str	r3, [r2]
 405              	.L24:
 767:Drivers/STM32G0xx_HAL_Driver/Src/stm32g0xx_hal_flash_ex.c ****   }
 768:Drivers/STM32G0xx_HAL_Driver/Src/stm32g0xx_hal_flash_ex.c **** }
 406              		.loc 1 768 1 view .LVU111
 407              		@ sp needed
 408 0018 10BD     		pop	{r4, pc}
 409              	.LVL30:
 410              	.L27:
 760:Drivers/STM32G0xx_HAL_Driver/Src/stm32g0xx_hal_flash_ex.c ****     *WRDPEndOffset = (READ_BIT(FLASH->WRP1AR, FLASH_WRP1AR_WRP1A_END) >> FLASH_WRP1AR_WRP1A_END_Pos
 411              		.loc 1 760 5 is_stmt 1 view .LVU112
 760:Drivers/STM32G0xx_HAL_Driver/Src/stm32g0xx_hal_flash_ex.c ****     *WRDPEndOffset = (READ_BIT(FLASH->WRP1AR, FLASH_WRP1AR_WRP1A_END) >> FLASH_WRP1AR_WRP1A_END_Pos
 412              		.loc 1 760 23 is_stmt 0 view .LVU113
 413 001a 054C     		ldr	r4, .L28
 414 001c E06A     		ldr	r0, [r4, #44]
 415              	.LVL31:
 760:Drivers/STM32G0xx_HAL_Driver/Src/stm32g0xx_hal_flash_ex.c ****     *WRDPEndOffset = (READ_BIT(FLASH->WRP1AR, FLASH_WRP1AR_WRP1A_END) >> FLASH_WRP1AR_WRP1A_END_Pos
 416              		.loc 1 760 23 view .LVU114
 417 001e 3F23     		movs	r3, #63
 418 0020 1840     		ands	r0, r3
 760:Drivers/STM32G0xx_HAL_Driver/Src/stm32g0xx_hal_flash_ex.c ****     *WRDPEndOffset = (READ_BIT(FLASH->WRP1AR, FLASH_WRP1AR_WRP1A_END) >> FLASH_WRP1AR_WRP1A_END_Pos
 419              		.loc 1 760 21 view .LVU115
 420 0022 0860     		str	r0, [r1]
 761:Drivers/STM32G0xx_HAL_Driver/Src/stm32g0xx_hal_flash_ex.c ****   }
 421              		.loc 1 761 5 is_stmt 1 view .LVU116
 761:Drivers/STM32G0xx_HAL_Driver/Src/stm32g0xx_hal_flash_ex.c ****   }
 422              		.loc 1 761 23 is_stmt 0 view .LVU117
 423 0024 E16A     		ldr	r1, [r4, #44]
 424              	.LVL32:
 761:Drivers/STM32G0xx_HAL_Driver/Src/stm32g0xx_hal_flash_ex.c ****   }
 425              		.loc 1 761 71 view .LVU118
 426 0026 090C     		lsrs	r1, r1, #16
 427 0028 0B40     		ands	r3, r1
 761:Drivers/STM32G0xx_HAL_Driver/Src/stm32g0xx_hal_flash_ex.c ****   }
ARM GAS  C:\Users\matil\AppData\Local\Temp\cc9YAXdg.s 			page 22


 428              		.loc 1 761 20 view .LVU119
 429 002a 1360     		str	r3, [r2]
 430 002c F4E7     		b	.L24
 431              	.L29:
 432 002e C046     		.align	2
 433              	.L28:
 434 0030 00200240 		.word	1073881088
 435              		.cfi_endproc
 436              	.LFE190:
 438              		.section	.text.FLASH_OB_GetRDP,"ax",%progbits
 439              		.align	1
 440              		.syntax unified
 441              		.code	16
 442              		.thumb_func
 443              		.fpu softvfp
 445              	FLASH_OB_GetRDP:
 446              	.LFB191:
 769:Drivers/STM32G0xx_HAL_Driver/Src/stm32g0xx_hal_flash_ex.c **** 
 770:Drivers/STM32G0xx_HAL_Driver/Src/stm32g0xx_hal_flash_ex.c **** /**
 771:Drivers/STM32G0xx_HAL_Driver/Src/stm32g0xx_hal_flash_ex.c ****   * @brief  Return the FLASH Read Protection level.
 772:Drivers/STM32G0xx_HAL_Driver/Src/stm32g0xx_hal_flash_ex.c ****   * @retval FLASH ReadOut Protection Status:
 773:Drivers/STM32G0xx_HAL_Driver/Src/stm32g0xx_hal_flash_ex.c ****   *         This return value can be one of the following values:
 774:Drivers/STM32G0xx_HAL_Driver/Src/stm32g0xx_hal_flash_ex.c ****   *            @arg @ref OB_RDP_LEVEL_0 No protection
 775:Drivers/STM32G0xx_HAL_Driver/Src/stm32g0xx_hal_flash_ex.c ****   *            @arg @ref OB_RDP_LEVEL_1 Read protection of the memory
 776:Drivers/STM32G0xx_HAL_Driver/Src/stm32g0xx_hal_flash_ex.c ****   *            @arg @ref OB_RDP_LEVEL_2 Full chip protection
 777:Drivers/STM32G0xx_HAL_Driver/Src/stm32g0xx_hal_flash_ex.c ****   */
 778:Drivers/STM32G0xx_HAL_Driver/Src/stm32g0xx_hal_flash_ex.c **** static uint32_t FLASH_OB_GetRDP(void)
 779:Drivers/STM32G0xx_HAL_Driver/Src/stm32g0xx_hal_flash_ex.c **** {
 447              		.loc 1 779 1 is_stmt 1 view -0
 448              		.cfi_startproc
 449              		@ args = 0, pretend = 0, frame = 0
 450              		@ frame_needed = 0, uses_anonymous_args = 0
 451              		@ link register save eliminated.
 780:Drivers/STM32G0xx_HAL_Driver/Src/stm32g0xx_hal_flash_ex.c ****   uint32_t rdplvl = READ_BIT(FLASH->OPTR, FLASH_OPTR_RDP);
 452              		.loc 1 780 3 view .LVU121
 453              		.loc 1 780 21 is_stmt 0 view .LVU122
 454 0000 044B     		ldr	r3, .L33
 455 0002 1B6A     		ldr	r3, [r3, #32]
 456              		.loc 1 780 12 view .LVU123
 457 0004 FF20     		movs	r0, #255
 458 0006 1840     		ands	r0, r3
 459              	.LVL33:
 781:Drivers/STM32G0xx_HAL_Driver/Src/stm32g0xx_hal_flash_ex.c **** 
 782:Drivers/STM32G0xx_HAL_Driver/Src/stm32g0xx_hal_flash_ex.c ****   if ((rdplvl != OB_RDP_LEVEL_0) && (rdplvl != OB_RDP_LEVEL_2))
 460              		.loc 1 782 3 is_stmt 1 view .LVU124
 461              		.loc 1 782 6 is_stmt 0 view .LVU125
 462 0008 AA28     		cmp	r0, #170
 463 000a 02D0     		beq	.L30
 464              		.loc 1 782 34 discriminator 1 view .LVU126
 465 000c CC28     		cmp	r0, #204
 466 000e 00D0     		beq	.L30
 783:Drivers/STM32G0xx_HAL_Driver/Src/stm32g0xx_hal_flash_ex.c ****   {
 784:Drivers/STM32G0xx_HAL_Driver/Src/stm32g0xx_hal_flash_ex.c ****     return (OB_RDP_LEVEL_1);
 467              		.loc 1 784 12 view .LVU127
 468 0010 BB20     		movs	r0, #187
 469              	.LVL34:
 470              	.L30:
ARM GAS  C:\Users\matil\AppData\Local\Temp\cc9YAXdg.s 			page 23


 785:Drivers/STM32G0xx_HAL_Driver/Src/stm32g0xx_hal_flash_ex.c ****   }
 786:Drivers/STM32G0xx_HAL_Driver/Src/stm32g0xx_hal_flash_ex.c ****   else
 787:Drivers/STM32G0xx_HAL_Driver/Src/stm32g0xx_hal_flash_ex.c ****   {
 788:Drivers/STM32G0xx_HAL_Driver/Src/stm32g0xx_hal_flash_ex.c ****     return rdplvl;
 789:Drivers/STM32G0xx_HAL_Driver/Src/stm32g0xx_hal_flash_ex.c ****   }
 790:Drivers/STM32G0xx_HAL_Driver/Src/stm32g0xx_hal_flash_ex.c **** }
 471              		.loc 1 790 1 view .LVU128
 472              		@ sp needed
 473 0012 7047     		bx	lr
 474              	.L34:
 475              		.align	2
 476              	.L33:
 477 0014 00200240 		.word	1073881088
 478              		.cfi_endproc
 479              	.LFE191:
 481              		.section	.text.FLASH_OB_GetUser,"ax",%progbits
 482              		.align	1
 483              		.syntax unified
 484              		.code	16
 485              		.thumb_func
 486              		.fpu softvfp
 488              	FLASH_OB_GetUser:
 489              	.LFB192:
 791:Drivers/STM32G0xx_HAL_Driver/Src/stm32g0xx_hal_flash_ex.c **** 
 792:Drivers/STM32G0xx_HAL_Driver/Src/stm32g0xx_hal_flash_ex.c **** /**
 793:Drivers/STM32G0xx_HAL_Driver/Src/stm32g0xx_hal_flash_ex.c ****   * @brief  Return the FLASH User Option Byte value.
 794:Drivers/STM32G0xx_HAL_Driver/Src/stm32g0xx_hal_flash_ex.c ****   * @retval The FLASH User Option Bytes values. It will be a combination of all the following value
 795:Drivers/STM32G0xx_HAL_Driver/Src/stm32g0xx_hal_flash_ex.c ****   *         @ref FLASH_OB_USER_BOR_ENABLE(*),
 796:Drivers/STM32G0xx_HAL_Driver/Src/stm32g0xx_hal_flash_ex.c ****   *         @ref FLASH_OB_USER_BOR_LEVEL(*),
 797:Drivers/STM32G0xx_HAL_Driver/Src/stm32g0xx_hal_flash_ex.c ****   *         @ref FLASH_OB_USER_RESET_CONFIG(*),
 798:Drivers/STM32G0xx_HAL_Driver/Src/stm32g0xx_hal_flash_ex.c ****   *         @ref FLASH_OB_USER_nRST_STOP,
 799:Drivers/STM32G0xx_HAL_Driver/Src/stm32g0xx_hal_flash_ex.c ****   *         @ref FLASH_OB_USER_nRST_STANDBY,
 800:Drivers/STM32G0xx_HAL_Driver/Src/stm32g0xx_hal_flash_ex.c ****   *         @ref FLASH_OB_USER_nRST_SHUTDOWN(*),
 801:Drivers/STM32G0xx_HAL_Driver/Src/stm32g0xx_hal_flash_ex.c ****   *         @ref FLASH_OB_USER_IWDG_SW,
 802:Drivers/STM32G0xx_HAL_Driver/Src/stm32g0xx_hal_flash_ex.c ****   *         @ref FLASH_OB_USER_IWDG_STOP,
 803:Drivers/STM32G0xx_HAL_Driver/Src/stm32g0xx_hal_flash_ex.c ****   *         @ref FLASH_OB_USER_IWDG_STANDBY,
 804:Drivers/STM32G0xx_HAL_Driver/Src/stm32g0xx_hal_flash_ex.c ****   *         @ref FLASH_OB_USER_WWDG_SW,
 805:Drivers/STM32G0xx_HAL_Driver/Src/stm32g0xx_hal_flash_ex.c ****   *         @ref FLASH_OB_USER_SRAM_PARITY,
 806:Drivers/STM32G0xx_HAL_Driver/Src/stm32g0xx_hal_flash_ex.c ****   *         @ref FLASH_OB_USER_nBOOT_SEL,
 807:Drivers/STM32G0xx_HAL_Driver/Src/stm32g0xx_hal_flash_ex.c ****   *         @ref FLASH_OB_USER_nBOOT1,
 808:Drivers/STM32G0xx_HAL_Driver/Src/stm32g0xx_hal_flash_ex.c ****   *         @ref FLASH_OB_USER_nBOOT0,
 809:Drivers/STM32G0xx_HAL_Driver/Src/stm32g0xx_hal_flash_ex.c ****   *         @ref FLASH_OB_USER_INPUT_RESET_HOLDER(*)
 810:Drivers/STM32G0xx_HAL_Driver/Src/stm32g0xx_hal_flash_ex.c ****   * @note  (*) availability depends on devices
 811:Drivers/STM32G0xx_HAL_Driver/Src/stm32g0xx_hal_flash_ex.c ****   */
 812:Drivers/STM32G0xx_HAL_Driver/Src/stm32g0xx_hal_flash_ex.c **** static uint32_t FLASH_OB_GetUser(void)
 813:Drivers/STM32G0xx_HAL_Driver/Src/stm32g0xx_hal_flash_ex.c **** {
 490              		.loc 1 813 1 is_stmt 1 view -0
 491              		.cfi_startproc
 492              		@ args = 0, pretend = 0, frame = 0
 493              		@ frame_needed = 0, uses_anonymous_args = 0
 494              		@ link register save eliminated.
 814:Drivers/STM32G0xx_HAL_Driver/Src/stm32g0xx_hal_flash_ex.c ****   uint32_t user = ((FLASH->OPTR & ~FLASH_OPTR_RDP) & OB_USER_ALL);
 495              		.loc 1 814 3 view .LVU130
 496              		.loc 1 814 26 is_stmt 0 view .LVU131
 497 0000 024B     		ldr	r3, .L36
 498 0002 186A     		ldr	r0, [r3, #32]
 499              		.loc 1 814 12 view .LVU132
ARM GAS  C:\Users\matil\AppData\Local\Temp\cc9YAXdg.s 			page 24


 500 0004 024B     		ldr	r3, .L36+4
 501 0006 1840     		ands	r0, r3
 502              	.LVL35:
 815:Drivers/STM32G0xx_HAL_Driver/Src/stm32g0xx_hal_flash_ex.c ****   return user;
 503              		.loc 1 815 3 is_stmt 1 view .LVU133
 816:Drivers/STM32G0xx_HAL_Driver/Src/stm32g0xx_hal_flash_ex.c **** }
 504              		.loc 1 816 1 is_stmt 0 view .LVU134
 505              		@ sp needed
 506 0008 7047     		bx	lr
 507              	.L37:
 508 000a C046     		.align	2
 509              	.L36:
 510 000c 00200240 		.word	1073881088
 511 0010 00FF4F3F 		.word	1062207232
 512              		.cfi_endproc
 513              	.LFE192:
 515              		.section	.text.FLASH_OB_GetPCROP1A,"ax",%progbits
 516              		.align	1
 517              		.syntax unified
 518              		.code	16
 519              		.thumb_func
 520              		.fpu softvfp
 522              	FLASH_OB_GetPCROP1A:
 523              	.LVL36:
 524              	.LFB193:
 817:Drivers/STM32G0xx_HAL_Driver/Src/stm32g0xx_hal_flash_ex.c **** 
 818:Drivers/STM32G0xx_HAL_Driver/Src/stm32g0xx_hal_flash_ex.c **** #if defined(FLASH_PCROP_SUPPORT)
 819:Drivers/STM32G0xx_HAL_Driver/Src/stm32g0xx_hal_flash_ex.c **** /**
 820:Drivers/STM32G0xx_HAL_Driver/Src/stm32g0xx_hal_flash_ex.c ****   * @brief  Return the FLASH PCROP Protection Option Bytes value.
 821:Drivers/STM32G0xx_HAL_Driver/Src/stm32g0xx_hal_flash_ex.c ****   * @param  PCROPConfig [out]  specifies the configuration of PCROP_RDP option.
 822:Drivers/STM32G0xx_HAL_Driver/Src/stm32g0xx_hal_flash_ex.c ****   * @param  PCROP1AStartAddr [out]  Specifies the address where to copied the start address
 823:Drivers/STM32G0xx_HAL_Driver/Src/stm32g0xx_hal_flash_ex.c ****   *         of the 1A Proprietary code readout protection
 824:Drivers/STM32G0xx_HAL_Driver/Src/stm32g0xx_hal_flash_ex.c ****   * @param  PCROP1AEndAddr [out]  Specifies the address where to copied the end address of
 825:Drivers/STM32G0xx_HAL_Driver/Src/stm32g0xx_hal_flash_ex.c ****   *         the 1A Proprietary code readout protection
 826:Drivers/STM32G0xx_HAL_Driver/Src/stm32g0xx_hal_flash_ex.c ****   * @retval None
 827:Drivers/STM32G0xx_HAL_Driver/Src/stm32g0xx_hal_flash_ex.c ****   */
 828:Drivers/STM32G0xx_HAL_Driver/Src/stm32g0xx_hal_flash_ex.c **** static void FLASH_OB_GetPCROP1A(uint32_t *PCROPConfig, uint32_t *PCROP1AStartAddr, uint32_t *PCROP1
 829:Drivers/STM32G0xx_HAL_Driver/Src/stm32g0xx_hal_flash_ex.c **** {
 525              		.loc 1 829 1 is_stmt 1 view -0
 526              		.cfi_startproc
 527              		@ args = 0, pretend = 0, frame = 0
 528              		@ frame_needed = 0, uses_anonymous_args = 0
 529              		.loc 1 829 1 is_stmt 0 view .LVU136
 530 0000 70B5     		push	{r4, r5, r6, lr}
 531              	.LCFI4:
 532              		.cfi_def_cfa_offset 16
 533              		.cfi_offset 4, -16
 534              		.cfi_offset 5, -12
 535              		.cfi_offset 6, -8
 536              		.cfi_offset 14, -4
 830:Drivers/STM32G0xx_HAL_Driver/Src/stm32g0xx_hal_flash_ex.c ****   uint32_t pcrop;
 537              		.loc 1 830 3 is_stmt 1 view .LVU137
 831:Drivers/STM32G0xx_HAL_Driver/Src/stm32g0xx_hal_flash_ex.c **** 
 832:Drivers/STM32G0xx_HAL_Driver/Src/stm32g0xx_hal_flash_ex.c ****   pcrop = (FLASH->PCROP1ASR & FLASH_PCROP1ASR_PCROP1A_STRT);
 538              		.loc 1 832 3 view .LVU138
 539              		.loc 1 832 17 is_stmt 0 view .LVU139
 540 0002 0D4D     		ldr	r5, .L39
ARM GAS  C:\Users\matil\AppData\Local\Temp\cc9YAXdg.s 			page 25


 541 0004 6B6A     		ldr	r3, [r5, #36]
 542              	.LVL37:
 833:Drivers/STM32G0xx_HAL_Driver/Src/stm32g0xx_hal_flash_ex.c ****   *PCROP1AStartAddr = (pcrop << FLASH_PCROP_GRANULARITY_OFFSET);
 543              		.loc 1 833 3 is_stmt 1 view .LVU140
 544              		.loc 1 833 30 is_stmt 0 view .LVU141
 545 0006 5B02     		lsls	r3, r3, #9
 546              	.LVL38:
 547              		.loc 1 833 30 view .LVU142
 548 0008 FF24     		movs	r4, #255
 549 000a 6402     		lsls	r4, r4, #9
 550 000c 2340     		ands	r3, r4
 834:Drivers/STM32G0xx_HAL_Driver/Src/stm32g0xx_hal_flash_ex.c ****   *PCROP1AStartAddr += FLASH_BASE;
 551              		.loc 1 834 3 is_stmt 1 view .LVU143
 552              		.loc 1 834 21 is_stmt 0 view .LVU144
 553 000e 8026     		movs	r6, #128
 554 0010 3605     		lsls	r6, r6, #20
 555 0012 B446     		mov	ip, r6
 556 0014 6344     		add	r3, r3, ip
 557 0016 0B60     		str	r3, [r1]
 835:Drivers/STM32G0xx_HAL_Driver/Src/stm32g0xx_hal_flash_ex.c **** 
 836:Drivers/STM32G0xx_HAL_Driver/Src/stm32g0xx_hal_flash_ex.c ****   pcrop = FLASH->PCROP1AER;
 558              		.loc 1 836 3 is_stmt 1 view .LVU145
 559              		.loc 1 836 9 is_stmt 0 view .LVU146
 560 0018 A96A     		ldr	r1, [r5, #40]
 561              	.LVL39:
 837:Drivers/STM32G0xx_HAL_Driver/Src/stm32g0xx_hal_flash_ex.c ****   *PCROP1AEndAddr = ((pcrop & FLASH_PCROP1AER_PCROP1A_END) << FLASH_PCROP_GRANULARITY_OFFSET);
 562              		.loc 1 837 3 is_stmt 1 view .LVU147
 563              		.loc 1 837 60 is_stmt 0 view .LVU148
 564 001a 4B02     		lsls	r3, r1, #9
 565 001c 2340     		ands	r3, r4
 838:Drivers/STM32G0xx_HAL_Driver/Src/stm32g0xx_hal_flash_ex.c ****   *PCROP1AEndAddr += (FLASH_BASE + FLASH_PCROP_GRANULARITY - 1U);
 566              		.loc 1 838 3 is_stmt 1 view .LVU149
 567              		.loc 1 838 19 is_stmt 0 view .LVU150
 568 001e 074C     		ldr	r4, .L39+4
 569 0020 A446     		mov	ip, r4
 570 0022 6344     		add	r3, r3, ip
 571 0024 1360     		str	r3, [r2]
 839:Drivers/STM32G0xx_HAL_Driver/Src/stm32g0xx_hal_flash_ex.c **** 
 840:Drivers/STM32G0xx_HAL_Driver/Src/stm32g0xx_hal_flash_ex.c ****   *PCROPConfig &= ~OB_PCROP_RDP_ERASE;
 572              		.loc 1 840 3 is_stmt 1 view .LVU151
 573              		.loc 1 840 16 is_stmt 0 view .LVU152
 574 0026 0368     		ldr	r3, [r0]
 575 0028 5B00     		lsls	r3, r3, #1
 576 002a 5B08     		lsrs	r3, r3, #1
 841:Drivers/STM32G0xx_HAL_Driver/Src/stm32g0xx_hal_flash_ex.c ****   *PCROPConfig |= (pcrop & FLASH_PCROP1AER_PCROP_RDP);
 577              		.loc 1 841 3 is_stmt 1 view .LVU153
 578              		.loc 1 841 26 is_stmt 0 view .LVU154
 579 002c C90F     		lsrs	r1, r1, #31
 580              	.LVL40:
 581              		.loc 1 841 26 view .LVU155
 582 002e C907     		lsls	r1, r1, #31
 583              		.loc 1 841 16 view .LVU156
 584 0030 0B43     		orrs	r3, r1
 585 0032 0360     		str	r3, [r0]
 842:Drivers/STM32G0xx_HAL_Driver/Src/stm32g0xx_hal_flash_ex.c **** }
 586              		.loc 1 842 1 view .LVU157
 587              		@ sp needed
ARM GAS  C:\Users\matil\AppData\Local\Temp\cc9YAXdg.s 			page 26


 588 0034 70BD     		pop	{r4, r5, r6, pc}
 589              	.L40:
 590 0036 C046     		.align	2
 591              	.L39:
 592 0038 00200240 		.word	1073881088
 593 003c FF010008 		.word	134218239
 594              		.cfi_endproc
 595              	.LFE193:
 597              		.section	.text.FLASH_OB_GetPCROP1B,"ax",%progbits
 598              		.align	1
 599              		.syntax unified
 600              		.code	16
 601              		.thumb_func
 602              		.fpu softvfp
 604              	FLASH_OB_GetPCROP1B:
 605              	.LVL41:
 606              	.LFB194:
 843:Drivers/STM32G0xx_HAL_Driver/Src/stm32g0xx_hal_flash_ex.c **** 
 844:Drivers/STM32G0xx_HAL_Driver/Src/stm32g0xx_hal_flash_ex.c **** 
 845:Drivers/STM32G0xx_HAL_Driver/Src/stm32g0xx_hal_flash_ex.c **** /**
 846:Drivers/STM32G0xx_HAL_Driver/Src/stm32g0xx_hal_flash_ex.c ****   * @brief  Return the FLASH PCROP Protection Option Bytes value.
 847:Drivers/STM32G0xx_HAL_Driver/Src/stm32g0xx_hal_flash_ex.c ****   * @param  PCROP1BStartAddr [out]  Specifies the address where to copied the start address
 848:Drivers/STM32G0xx_HAL_Driver/Src/stm32g0xx_hal_flash_ex.c ****   *         of the 1B Proprietary code readout protection
 849:Drivers/STM32G0xx_HAL_Driver/Src/stm32g0xx_hal_flash_ex.c ****   * @param  PCROP1BEndAddr [out]  Specifies the address where to copied the end address of
 850:Drivers/STM32G0xx_HAL_Driver/Src/stm32g0xx_hal_flash_ex.c ****   *         the 1B Proprietary code readout protection
 851:Drivers/STM32G0xx_HAL_Driver/Src/stm32g0xx_hal_flash_ex.c ****   * @retval None
 852:Drivers/STM32G0xx_HAL_Driver/Src/stm32g0xx_hal_flash_ex.c ****   */
 853:Drivers/STM32G0xx_HAL_Driver/Src/stm32g0xx_hal_flash_ex.c **** static void FLASH_OB_GetPCROP1B(uint32_t *PCROP1BStartAddr, uint32_t *PCROP1BEndAddr)
 854:Drivers/STM32G0xx_HAL_Driver/Src/stm32g0xx_hal_flash_ex.c **** {
 607              		.loc 1 854 1 is_stmt 1 view -0
 608              		.cfi_startproc
 609              		@ args = 0, pretend = 0, frame = 0
 610              		@ frame_needed = 0, uses_anonymous_args = 0
 611              		.loc 1 854 1 is_stmt 0 view .LVU159
 612 0000 30B5     		push	{r4, r5, lr}
 613              	.LCFI5:
 614              		.cfi_def_cfa_offset 12
 615              		.cfi_offset 4, -12
 616              		.cfi_offset 5, -8
 617              		.cfi_offset 14, -4
 855:Drivers/STM32G0xx_HAL_Driver/Src/stm32g0xx_hal_flash_ex.c ****   uint32_t pcrop;
 618              		.loc 1 855 3 is_stmt 1 view .LVU160
 856:Drivers/STM32G0xx_HAL_Driver/Src/stm32g0xx_hal_flash_ex.c **** 
 857:Drivers/STM32G0xx_HAL_Driver/Src/stm32g0xx_hal_flash_ex.c ****   pcrop = (FLASH->PCROP1BSR & FLASH_PCROP1BSR_PCROP1B_STRT);
 619              		.loc 1 857 3 view .LVU161
 620              		.loc 1 857 17 is_stmt 0 view .LVU162
 621 0002 094B     		ldr	r3, .L42
 622 0004 5A6B     		ldr	r2, [r3, #52]
 623              	.LVL42:
 858:Drivers/STM32G0xx_HAL_Driver/Src/stm32g0xx_hal_flash_ex.c ****   *PCROP1BStartAddr = (pcrop << FLASH_PCROP_GRANULARITY_OFFSET);
 624              		.loc 1 858 3 is_stmt 1 view .LVU163
 625              		.loc 1 858 30 is_stmt 0 view .LVU164
 626 0006 5202     		lsls	r2, r2, #9
 627              	.LVL43:
 628              		.loc 1 858 30 view .LVU165
 629 0008 FF24     		movs	r4, #255
 630 000a 6402     		lsls	r4, r4, #9
ARM GAS  C:\Users\matil\AppData\Local\Temp\cc9YAXdg.s 			page 27


 631 000c 2240     		ands	r2, r4
 859:Drivers/STM32G0xx_HAL_Driver/Src/stm32g0xx_hal_flash_ex.c ****   *PCROP1BStartAddr += FLASH_BASE;
 632              		.loc 1 859 3 is_stmt 1 view .LVU166
 633              		.loc 1 859 21 is_stmt 0 view .LVU167
 634 000e 8025     		movs	r5, #128
 635 0010 2D05     		lsls	r5, r5, #20
 636 0012 AC46     		mov	ip, r5
 637 0014 6244     		add	r2, r2, ip
 638 0016 0260     		str	r2, [r0]
 860:Drivers/STM32G0xx_HAL_Driver/Src/stm32g0xx_hal_flash_ex.c **** 
 861:Drivers/STM32G0xx_HAL_Driver/Src/stm32g0xx_hal_flash_ex.c ****   pcrop = (FLASH->PCROP1BER & FLASH_PCROP1BER_PCROP1B_END);
 639              		.loc 1 861 3 is_stmt 1 view .LVU168
 640              		.loc 1 861 17 is_stmt 0 view .LVU169
 641 0018 9B6B     		ldr	r3, [r3, #56]
 642              	.LVL44:
 862:Drivers/STM32G0xx_HAL_Driver/Src/stm32g0xx_hal_flash_ex.c ****   *PCROP1BEndAddr = (pcrop << FLASH_PCROP_GRANULARITY_OFFSET);
 643              		.loc 1 862 3 is_stmt 1 view .LVU170
 644              		.loc 1 862 28 is_stmt 0 view .LVU171
 645 001a 5B02     		lsls	r3, r3, #9
 646              	.LVL45:
 647              		.loc 1 862 28 view .LVU172
 648 001c 2340     		ands	r3, r4
 863:Drivers/STM32G0xx_HAL_Driver/Src/stm32g0xx_hal_flash_ex.c ****   *PCROP1BEndAddr += (FLASH_BASE + FLASH_PCROP_GRANULARITY - 1U);
 649              		.loc 1 863 3 is_stmt 1 view .LVU173
 650              		.loc 1 863 19 is_stmt 0 view .LVU174
 651 001e 034A     		ldr	r2, .L42+4
 652 0020 9446     		mov	ip, r2
 653 0022 6344     		add	r3, r3, ip
 654 0024 0B60     		str	r3, [r1]
 864:Drivers/STM32G0xx_HAL_Driver/Src/stm32g0xx_hal_flash_ex.c **** }
 655              		.loc 1 864 1 view .LVU175
 656              		@ sp needed
 657 0026 30BD     		pop	{r4, r5, pc}
 658              	.L43:
 659              		.align	2
 660              	.L42:
 661 0028 00200240 		.word	1073881088
 662 002c FF010008 		.word	134218239
 663              		.cfi_endproc
 664              	.LFE194:
 666              		.section	.text.FLASH_OB_GetSecMem,"ax",%progbits
 667              		.align	1
 668              		.syntax unified
 669              		.code	16
 670              		.thumb_func
 671              		.fpu softvfp
 673              	FLASH_OB_GetSecMem:
 674              	.LVL46:
 675              	.LFB195:
 865:Drivers/STM32G0xx_HAL_Driver/Src/stm32g0xx_hal_flash_ex.c **** #endif
 866:Drivers/STM32G0xx_HAL_Driver/Src/stm32g0xx_hal_flash_ex.c **** 
 867:Drivers/STM32G0xx_HAL_Driver/Src/stm32g0xx_hal_flash_ex.c **** #if defined(FLASH_SECURABLE_MEMORY_SUPPORT)
 868:Drivers/STM32G0xx_HAL_Driver/Src/stm32g0xx_hal_flash_ex.c **** /**
 869:Drivers/STM32G0xx_HAL_Driver/Src/stm32g0xx_hal_flash_ex.c ****   * @brief  Return the FLASH Securable memory area protection Option Bytes value.
 870:Drivers/STM32G0xx_HAL_Driver/Src/stm32g0xx_hal_flash_ex.c ****   * @param  BootEntry  specifies boot scheme configuration
 871:Drivers/STM32G0xx_HAL_Driver/Src/stm32g0xx_hal_flash_ex.c ****   * @param  SecSize specifies number of pages to protect as secure memory area, starting from
 872:Drivers/STM32G0xx_HAL_Driver/Src/stm32g0xx_hal_flash_ex.c ****   *         beginning of the Flash (page 0).
ARM GAS  C:\Users\matil\AppData\Local\Temp\cc9YAXdg.s 			page 28


 873:Drivers/STM32G0xx_HAL_Driver/Src/stm32g0xx_hal_flash_ex.c ****   * @retval None
 874:Drivers/STM32G0xx_HAL_Driver/Src/stm32g0xx_hal_flash_ex.c ****   */
 875:Drivers/STM32G0xx_HAL_Driver/Src/stm32g0xx_hal_flash_ex.c **** static void FLASH_OB_GetSecMem(uint32_t *BootEntry, uint32_t *SecSize)
 876:Drivers/STM32G0xx_HAL_Driver/Src/stm32g0xx_hal_flash_ex.c **** {
 676              		.loc 1 876 1 is_stmt 1 view -0
 677              		.cfi_startproc
 678              		@ args = 0, pretend = 0, frame = 0
 679              		@ frame_needed = 0, uses_anonymous_args = 0
 680              		.loc 1 876 1 is_stmt 0 view .LVU177
 681 0000 10B5     		push	{r4, lr}
 682              	.LCFI6:
 683              		.cfi_def_cfa_offset 8
 684              		.cfi_offset 4, -8
 685              		.cfi_offset 14, -4
 877:Drivers/STM32G0xx_HAL_Driver/Src/stm32g0xx_hal_flash_ex.c ****   uint32_t secmem = FLASH->SECR;
 686              		.loc 1 877 3 is_stmt 1 view .LVU178
 687              		.loc 1 877 12 is_stmt 0 view .LVU179
 688 0002 054A     		ldr	r2, .L45
 689 0004 8023     		movs	r3, #128
 690 0006 D458     		ldr	r4, [r2, r3]
 691              	.LVL47:
 878:Drivers/STM32G0xx_HAL_Driver/Src/stm32g0xx_hal_flash_ex.c **** 
 879:Drivers/STM32G0xx_HAL_Driver/Src/stm32g0xx_hal_flash_ex.c ****   *BootEntry = (secmem & FLASH_SECR_BOOT_LOCK);
 692              		.loc 1 879 3 is_stmt 1 view .LVU180
 693              		.loc 1 879 24 is_stmt 0 view .LVU181
 694 0008 8022     		movs	r2, #128
 695 000a 5202     		lsls	r2, r2, #9
 696 000c 2240     		ands	r2, r4
 697              		.loc 1 879 14 view .LVU182
 698 000e 0260     		str	r2, [r0]
 880:Drivers/STM32G0xx_HAL_Driver/Src/stm32g0xx_hal_flash_ex.c ****   *SecSize = (secmem & FLASH_SECR_SEC_SIZE);
 699              		.loc 1 880 3 is_stmt 1 view .LVU183
 700              		.loc 1 880 22 is_stmt 0 view .LVU184
 701 0010 013B     		subs	r3, r3, #1
 702 0012 2340     		ands	r3, r4
 703              		.loc 1 880 12 view .LVU185
 704 0014 0B60     		str	r3, [r1]
 881:Drivers/STM32G0xx_HAL_Driver/Src/stm32g0xx_hal_flash_ex.c **** }
 705              		.loc 1 881 1 view .LVU186
 706              		@ sp needed
 707              	.LVL48:
 708              		.loc 1 881 1 view .LVU187
 709 0016 10BD     		pop	{r4, pc}
 710              	.L46:
 711              		.align	2
 712              	.L45:
 713 0018 00200240 		.word	1073881088
 714              		.cfi_endproc
 715              	.LFE195:
 717              		.section	.text.HAL_FLASHEx_OBProgram,"ax",%progbits
 718              		.align	1
 719              		.global	HAL_FLASHEx_OBProgram
 720              		.syntax unified
 721              		.code	16
 722              		.thumb_func
 723              		.fpu softvfp
 725              	HAL_FLASHEx_OBProgram:
ARM GAS  C:\Users\matil\AppData\Local\Temp\cc9YAXdg.s 			page 29


 726              	.LVL49:
 727              	.LFB175:
 279:Drivers/STM32G0xx_HAL_Driver/Src/stm32g0xx_hal_flash_ex.c ****   uint32_t optr;
 728              		.loc 1 279 1 is_stmt 1 view -0
 729              		.cfi_startproc
 730              		@ args = 0, pretend = 0, frame = 0
 731              		@ frame_needed = 0, uses_anonymous_args = 0
 279:Drivers/STM32G0xx_HAL_Driver/Src/stm32g0xx_hal_flash_ex.c ****   uint32_t optr;
 732              		.loc 1 279 1 is_stmt 0 view .LVU189
 733 0000 10B5     		push	{r4, lr}
 734              	.LCFI7:
 735              		.cfi_def_cfa_offset 8
 736              		.cfi_offset 4, -8
 737              		.cfi_offset 14, -4
 738 0002 0400     		movs	r4, r0
 280:Drivers/STM32G0xx_HAL_Driver/Src/stm32g0xx_hal_flash_ex.c ****   HAL_StatusTypeDef status;
 739              		.loc 1 280 3 is_stmt 1 view .LVU190
 281:Drivers/STM32G0xx_HAL_Driver/Src/stm32g0xx_hal_flash_ex.c **** 
 740              		.loc 1 281 3 view .LVU191
 284:Drivers/STM32G0xx_HAL_Driver/Src/stm32g0xx_hal_flash_ex.c **** 
 741              		.loc 1 284 3 view .LVU192
 287:Drivers/STM32G0xx_HAL_Driver/Src/stm32g0xx_hal_flash_ex.c **** 
 742              		.loc 1 287 3 view .LVU193
 287:Drivers/STM32G0xx_HAL_Driver/Src/stm32g0xx_hal_flash_ex.c **** 
 743              		.loc 1 287 3 view .LVU194
 744 0004 334B     		ldr	r3, .L66
 745 0006 1B78     		ldrb	r3, [r3]
 746 0008 012B     		cmp	r3, #1
 747 000a 60D0     		beq	.L57
 287:Drivers/STM32G0xx_HAL_Driver/Src/stm32g0xx_hal_flash_ex.c **** 
 748              		.loc 1 287 3 discriminator 2 view .LVU195
 749 000c 314A     		ldr	r2, .L66
 750 000e 0123     		movs	r3, #1
 751 0010 1370     		strb	r3, [r2]
 287:Drivers/STM32G0xx_HAL_Driver/Src/stm32g0xx_hal_flash_ex.c **** 
 752              		.loc 1 287 3 discriminator 2 view .LVU196
 289:Drivers/STM32G0xx_HAL_Driver/Src/stm32g0xx_hal_flash_ex.c **** 
 753              		.loc 1 289 3 discriminator 2 view .LVU197
 289:Drivers/STM32G0xx_HAL_Driver/Src/stm32g0xx_hal_flash_ex.c **** 
 754              		.loc 1 289 20 is_stmt 0 discriminator 2 view .LVU198
 755 0012 0021     		movs	r1, #0
 756 0014 5160     		str	r1, [r2, #4]
 292:Drivers/STM32G0xx_HAL_Driver/Src/stm32g0xx_hal_flash_ex.c ****   {
 757              		.loc 1 292 3 is_stmt 1 discriminator 2 view .LVU199
 292:Drivers/STM32G0xx_HAL_Driver/Src/stm32g0xx_hal_flash_ex.c ****   {
 758              		.loc 1 292 6 is_stmt 0 discriminator 2 view .LVU200
 759 0016 0268     		ldr	r2, [r0]
 760 0018 1342     		tst	r3, r2
 761 001a 1FD1     		bne	.L58
 762              	.LVL50:
 763              	.L49:
 299:Drivers/STM32G0xx_HAL_Driver/Src/stm32g0xx_hal_flash_ex.c ****   {
 764              		.loc 1 299 3 is_stmt 1 view .LVU201
 299:Drivers/STM32G0xx_HAL_Driver/Src/stm32g0xx_hal_flash_ex.c ****   {
 765              		.loc 1 299 15 is_stmt 0 view .LVU202
 766 001c 2268     		ldr	r2, [r4]
 299:Drivers/STM32G0xx_HAL_Driver/Src/stm32g0xx_hal_flash_ex.c ****   {
ARM GAS  C:\Users\matil\AppData\Local\Temp\cc9YAXdg.s 			page 30


 767              		.loc 1 299 28 view .LVU203
 768 001e 0623     		movs	r3, #6
 769 0020 1340     		ands	r3, r2
 299:Drivers/STM32G0xx_HAL_Driver/Src/stm32g0xx_hal_flash_ex.c ****   {
 770              		.loc 1 299 6 view .LVU204
 771 0022 062B     		cmp	r3, #6
 772 0024 20D0     		beq	.L59
 304:Drivers/STM32G0xx_HAL_Driver/Src/stm32g0xx_hal_flash_ex.c ****   {
 773              		.loc 1 304 8 is_stmt 1 view .LVU205
 304:Drivers/STM32G0xx_HAL_Driver/Src/stm32g0xx_hal_flash_ex.c ****   {
 774              		.loc 1 304 11 is_stmt 0 view .LVU206
 775 0026 9307     		lsls	r3, r2, #30
 776 0028 24D4     		bmi	.L60
 310:Drivers/STM32G0xx_HAL_Driver/Src/stm32g0xx_hal_flash_ex.c ****   {
 777              		.loc 1 310 8 is_stmt 1 view .LVU207
 310:Drivers/STM32G0xx_HAL_Driver/Src/stm32g0xx_hal_flash_ex.c ****   {
 778              		.loc 1 310 11 is_stmt 0 view .LVU208
 779 002a 5307     		lsls	r3, r2, #29
 780 002c 29D4     		bmi	.L61
 781              	.L51:
 319:Drivers/STM32G0xx_HAL_Driver/Src/stm32g0xx_hal_flash_ex.c **** 
 782              		.loc 1 319 3 is_stmt 1 view .LVU209
 323:Drivers/STM32G0xx_HAL_Driver/Src/stm32g0xx_hal_flash_ex.c ****   {
 783              		.loc 1 323 3 view .LVU210
 323:Drivers/STM32G0xx_HAL_Driver/Src/stm32g0xx_hal_flash_ex.c ****   {
 784              		.loc 1 323 6 is_stmt 0 view .LVU211
 785 002e 2368     		ldr	r3, [r4]
 786 0030 1B07     		lsls	r3, r3, #28
 787 0032 06D5     		bpl	.L53
 326:Drivers/STM32G0xx_HAL_Driver/Src/stm32g0xx_hal_flash_ex.c **** 
 788              		.loc 1 326 5 is_stmt 1 view .LVU212
 328:Drivers/STM32G0xx_HAL_Driver/Src/stm32g0xx_hal_flash_ex.c ****     {
 789              		.loc 1 328 5 view .LVU213
 328:Drivers/STM32G0xx_HAL_Driver/Src/stm32g0xx_hal_flash_ex.c ****     {
 790              		.loc 1 328 17 is_stmt 0 view .LVU214
 791 0034 E069     		ldr	r0, [r4, #28]
 328:Drivers/STM32G0xx_HAL_Driver/Src/stm32g0xx_hal_flash_ex.c ****     {
 792              		.loc 1 328 31 view .LVU215
 793 0036 284B     		ldr	r3, .L66+4
 328:Drivers/STM32G0xx_HAL_Driver/Src/stm32g0xx_hal_flash_ex.c ****     {
 794              		.loc 1 328 8 view .LVU216
 795 0038 1842     		tst	r0, r3
 796 003a 2AD1     		bne	.L62
 797              	.L54:
 334:Drivers/STM32G0xx_HAL_Driver/Src/stm32g0xx_hal_flash_ex.c ****     {
 798              		.loc 1 334 5 is_stmt 1 view .LVU217
 334:Drivers/STM32G0xx_HAL_Driver/Src/stm32g0xx_hal_flash_ex.c ****     {
 799              		.loc 1 334 8 is_stmt 0 view .LVU218
 800 003c E369     		ldr	r3, [r4, #28]
 801 003e 9B07     		lsls	r3, r3, #30
 802 0040 2CD4     		bmi	.L63
 803              	.L53:
 343:Drivers/STM32G0xx_HAL_Driver/Src/stm32g0xx_hal_flash_ex.c ****   {
 804              		.loc 1 343 3 is_stmt 1 view .LVU219
 343:Drivers/STM32G0xx_HAL_Driver/Src/stm32g0xx_hal_flash_ex.c ****   {
 805              		.loc 1 343 6 is_stmt 0 view .LVU220
 806 0042 2368     		ldr	r3, [r4]
ARM GAS  C:\Users\matil\AppData\Local\Temp\cc9YAXdg.s 			page 31


 807 0044 DB06     		lsls	r3, r3, #27
 808 0046 2ED4     		bmi	.L64
 809              	.L55:
 351:Drivers/STM32G0xx_HAL_Driver/Src/stm32g0xx_hal_flash_ex.c **** 
 810              		.loc 1 351 3 is_stmt 1 view .LVU221
 351:Drivers/STM32G0xx_HAL_Driver/Src/stm32g0xx_hal_flash_ex.c **** 
 811              		.loc 1 351 12 is_stmt 0 view .LVU222
 812 0048 FA20     		movs	r0, #250
 813 004a 8000     		lsls	r0, r0, #2
 814 004c FFF7FEFF 		bl	FLASH_WaitForLastOperation
 815              	.LVL51:
 353:Drivers/STM32G0xx_HAL_Driver/Src/stm32g0xx_hal_flash_ex.c ****   {
 816              		.loc 1 353 3 is_stmt 1 view .LVU223
 353:Drivers/STM32G0xx_HAL_Driver/Src/stm32g0xx_hal_flash_ex.c ****   {
 817              		.loc 1 353 6 is_stmt 0 view .LVU224
 818 0050 0028     		cmp	r0, #0
 819 0052 2DD0     		beq	.L65
 820              	.LVL52:
 821              	.L56:
 366:Drivers/STM32G0xx_HAL_Driver/Src/stm32g0xx_hal_flash_ex.c **** 
 822              		.loc 1 366 3 is_stmt 1 view .LVU225
 366:Drivers/STM32G0xx_HAL_Driver/Src/stm32g0xx_hal_flash_ex.c **** 
 823              		.loc 1 366 3 view .LVU226
 824 0054 1F4B     		ldr	r3, .L66
 825 0056 0022     		movs	r2, #0
 826 0058 1A70     		strb	r2, [r3]
 366:Drivers/STM32G0xx_HAL_Driver/Src/stm32g0xx_hal_flash_ex.c **** 
 827              		.loc 1 366 3 view .LVU227
 369:Drivers/STM32G0xx_HAL_Driver/Src/stm32g0xx_hal_flash_ex.c **** }
 828              		.loc 1 369 3 view .LVU228
 829              	.LVL53:
 830              	.L48:
 370:Drivers/STM32G0xx_HAL_Driver/Src/stm32g0xx_hal_flash_ex.c **** 
 831              		.loc 1 370 1 is_stmt 0 view .LVU229
 832              		@ sp needed
 833 005a 10BD     		pop	{r4, pc}
 834              	.LVL54:
 835              	.L58:
 295:Drivers/STM32G0xx_HAL_Driver/Src/stm32g0xx_hal_flash_ex.c ****   }
 836              		.loc 1 295 5 is_stmt 1 view .LVU230
 837 005c C268     		ldr	r2, [r0, #12]
 838 005e 8168     		ldr	r1, [r0, #8]
 839 0060 4068     		ldr	r0, [r0, #4]
 840              	.LVL55:
 295:Drivers/STM32G0xx_HAL_Driver/Src/stm32g0xx_hal_flash_ex.c ****   }
 841              		.loc 1 295 5 is_stmt 0 view .LVU231
 842 0062 FFF7FEFF 		bl	FLASH_OB_WRPConfig
 843              	.LVL56:
 844 0066 D9E7     		b	.L49
 845              	.L59:
 302:Drivers/STM32G0xx_HAL_Driver/Src/stm32g0xx_hal_flash_ex.c ****   }
 846              		.loc 1 302 5 is_stmt 1 view .LVU232
 847 0068 2269     		ldr	r2, [r4, #16]
 848 006a A169     		ldr	r1, [r4, #24]
 849 006c 6069     		ldr	r0, [r4, #20]
 850 006e FFF7FEFF 		bl	FLASH_OB_OptrConfig
 851              	.LVL57:
ARM GAS  C:\Users\matil\AppData\Local\Temp\cc9YAXdg.s 			page 32


 852 0072 DCE7     		b	.L51
 853              	.L60:
 307:Drivers/STM32G0xx_HAL_Driver/Src/stm32g0xx_hal_flash_ex.c ****     FLASH_OB_OptrConfig(optr, optr, pOBInit->RDPLevel);
 854              		.loc 1 307 5 view .LVU233
 307:Drivers/STM32G0xx_HAL_Driver/Src/stm32g0xx_hal_flash_ex.c ****     FLASH_OB_OptrConfig(optr, optr, pOBInit->RDPLevel);
 855              		.loc 1 307 12 is_stmt 0 view .LVU234
 856 0074 FFF7FEFF 		bl	FLASH_OB_GetUser
 857              	.LVL58:
 308:Drivers/STM32G0xx_HAL_Driver/Src/stm32g0xx_hal_flash_ex.c ****   }
 858              		.loc 1 308 5 is_stmt 1 view .LVU235
 859 0078 2269     		ldr	r2, [r4, #16]
 860 007a 0100     		movs	r1, r0
 861 007c FFF7FEFF 		bl	FLASH_OB_OptrConfig
 862              	.LVL59:
 308:Drivers/STM32G0xx_HAL_Driver/Src/stm32g0xx_hal_flash_ex.c ****   }
 863              		.loc 1 308 5 is_stmt 0 view .LVU236
 864 0080 D5E7     		b	.L51
 865              	.L61:
 313:Drivers/STM32G0xx_HAL_Driver/Src/stm32g0xx_hal_flash_ex.c ****     FLASH_OB_OptrConfig(pOBInit->USERType, pOBInit->USERConfig, optr);
 866              		.loc 1 313 5 is_stmt 1 view .LVU237
 313:Drivers/STM32G0xx_HAL_Driver/Src/stm32g0xx_hal_flash_ex.c ****     FLASH_OB_OptrConfig(pOBInit->USERType, pOBInit->USERConfig, optr);
 867              		.loc 1 313 12 is_stmt 0 view .LVU238
 868 0082 FFF7FEFF 		bl	FLASH_OB_GetRDP
 869              	.LVL60:
 870 0086 0200     		movs	r2, r0
 871              	.LVL61:
 314:Drivers/STM32G0xx_HAL_Driver/Src/stm32g0xx_hal_flash_ex.c ****   }
 872              		.loc 1 314 5 is_stmt 1 view .LVU239
 873 0088 A169     		ldr	r1, [r4, #24]
 874 008a 6069     		ldr	r0, [r4, #20]
 875              	.LVL62:
 314:Drivers/STM32G0xx_HAL_Driver/Src/stm32g0xx_hal_flash_ex.c ****   }
 876              		.loc 1 314 5 is_stmt 0 view .LVU240
 877 008c FFF7FEFF 		bl	FLASH_OB_OptrConfig
 878              	.LVL63:
 314:Drivers/STM32G0xx_HAL_Driver/Src/stm32g0xx_hal_flash_ex.c ****   }
 879              		.loc 1 314 5 view .LVU241
 880 0090 CDE7     		b	.L51
 881              	.L62:
 331:Drivers/STM32G0xx_HAL_Driver/Src/stm32g0xx_hal_flash_ex.c ****     }
 882              		.loc 1 331 7 is_stmt 1 view .LVU242
 883 0092 626A     		ldr	r2, [r4, #36]
 884 0094 216A     		ldr	r1, [r4, #32]
 885 0096 FFF7FEFF 		bl	FLASH_OB_PCROP1AConfig
 886              	.LVL64:
 887 009a CFE7     		b	.L54
 888              	.L63:
 337:Drivers/STM32G0xx_HAL_Driver/Src/stm32g0xx_hal_flash_ex.c ****     }
 889              		.loc 1 337 7 view .LVU243
 890 009c E16A     		ldr	r1, [r4, #44]
 891 009e A06A     		ldr	r0, [r4, #40]
 892 00a0 FFF7FEFF 		bl	FLASH_OB_PCROP1BConfig
 893              	.LVL65:
 894 00a4 CDE7     		b	.L53
 895              	.L64:
 346:Drivers/STM32G0xx_HAL_Driver/Src/stm32g0xx_hal_flash_ex.c ****   }
 896              		.loc 1 346 5 view .LVU244
ARM GAS  C:\Users\matil\AppData\Local\Temp\cc9YAXdg.s 			page 33


 897 00a6 616B     		ldr	r1, [r4, #52]
 898 00a8 206B     		ldr	r0, [r4, #48]
 899 00aa FFF7FEFF 		bl	FLASH_OB_SecMemConfig
 900              	.LVL66:
 901 00ae CBE7     		b	.L55
 902              	.LVL67:
 903              	.L65:
 356:Drivers/STM32G0xx_HAL_Driver/Src/stm32g0xx_hal_flash_ex.c **** 
 904              		.loc 1 356 5 view .LVU245
 905 00b0 0A4C     		ldr	r4, .L66+8
 906              	.LVL68:
 356:Drivers/STM32G0xx_HAL_Driver/Src/stm32g0xx_hal_flash_ex.c **** 
 907              		.loc 1 356 5 is_stmt 0 view .LVU246
 908 00b2 6269     		ldr	r2, [r4, #20]
 909 00b4 8023     		movs	r3, #128
 910 00b6 9B02     		lsls	r3, r3, #10
 911 00b8 1343     		orrs	r3, r2
 912 00ba 6361     		str	r3, [r4, #20]
 359:Drivers/STM32G0xx_HAL_Driver/Src/stm32g0xx_hal_flash_ex.c **** 
 913              		.loc 1 359 5 is_stmt 1 view .LVU247
 359:Drivers/STM32G0xx_HAL_Driver/Src/stm32g0xx_hal_flash_ex.c **** 
 914              		.loc 1 359 14 is_stmt 0 view .LVU248
 915 00bc FA30     		adds	r0, r0, #250
 916              	.LVL69:
 359:Drivers/STM32G0xx_HAL_Driver/Src/stm32g0xx_hal_flash_ex.c **** 
 917              		.loc 1 359 14 view .LVU249
 918 00be 8000     		lsls	r0, r0, #2
 919              	.LVL70:
 359:Drivers/STM32G0xx_HAL_Driver/Src/stm32g0xx_hal_flash_ex.c **** 
 920              		.loc 1 359 14 view .LVU250
 921 00c0 FFF7FEFF 		bl	FLASH_WaitForLastOperation
 922              	.LVL71:
 362:Drivers/STM32G0xx_HAL_Driver/Src/stm32g0xx_hal_flash_ex.c ****   }
 923              		.loc 1 362 5 is_stmt 1 view .LVU251
 924 00c4 6369     		ldr	r3, [r4, #20]
 925 00c6 064A     		ldr	r2, .L66+12
 926 00c8 1340     		ands	r3, r2
 927 00ca 6361     		str	r3, [r4, #20]
 928 00cc C2E7     		b	.L56
 929              	.LVL72:
 930              	.L57:
 287:Drivers/STM32G0xx_HAL_Driver/Src/stm32g0xx_hal_flash_ex.c **** 
 931              		.loc 1 287 3 is_stmt 0 view .LVU252
 932 00ce 0220     		movs	r0, #2
 933              	.LVL73:
 287:Drivers/STM32G0xx_HAL_Driver/Src/stm32g0xx_hal_flash_ex.c **** 
 934              		.loc 1 287 3 view .LVU253
 935 00d0 C3E7     		b	.L48
 936              	.L67:
 937 00d2 C046     		.align	2
 938              	.L66:
 939 00d4 00000000 		.word	pFlash
 940 00d8 01000080 		.word	-2147483647
 941 00dc 00200240 		.word	1073881088
 942 00e0 FFFFFDFF 		.word	-131073
 943              		.cfi_endproc
 944              	.LFE175:
ARM GAS  C:\Users\matil\AppData\Local\Temp\cc9YAXdg.s 			page 34


 946              		.section	.text.HAL_FLASHEx_OBGetConfig,"ax",%progbits
 947              		.align	1
 948              		.global	HAL_FLASHEx_OBGetConfig
 949              		.syntax unified
 950              		.code	16
 951              		.thumb_func
 952              		.fpu softvfp
 954              	HAL_FLASHEx_OBGetConfig:
 955              	.LVL74:
 956              	.LFB176:
 384:Drivers/STM32G0xx_HAL_Driver/Src/stm32g0xx_hal_flash_ex.c ****   pOBInit->OptionType = OPTIONBYTE_ALL;
 957              		.loc 1 384 1 is_stmt 1 view -0
 958              		.cfi_startproc
 959              		@ args = 0, pretend = 0, frame = 0
 960              		@ frame_needed = 0, uses_anonymous_args = 0
 384:Drivers/STM32G0xx_HAL_Driver/Src/stm32g0xx_hal_flash_ex.c ****   pOBInit->OptionType = OPTIONBYTE_ALL;
 961              		.loc 1 384 1 is_stmt 0 view .LVU255
 962 0000 10B5     		push	{r4, lr}
 963              	.LCFI8:
 964              		.cfi_def_cfa_offset 8
 965              		.cfi_offset 4, -8
 966              		.cfi_offset 14, -4
 967 0002 0400     		movs	r4, r0
 385:Drivers/STM32G0xx_HAL_Driver/Src/stm32g0xx_hal_flash_ex.c **** 
 968              		.loc 1 385 3 is_stmt 1 view .LVU256
 385:Drivers/STM32G0xx_HAL_Driver/Src/stm32g0xx_hal_flash_ex.c **** 
 969              		.loc 1 385 23 is_stmt 0 view .LVU257
 970 0004 1F23     		movs	r3, #31
 971 0006 0360     		str	r3, [r0]
 388:Drivers/STM32G0xx_HAL_Driver/Src/stm32g0xx_hal_flash_ex.c **** 
 972              		.loc 1 388 3 is_stmt 1 view .LVU258
 973 0008 0200     		movs	r2, r0
 974 000a 0C32     		adds	r2, r2, #12
 975 000c 0100     		movs	r1, r0
 976 000e 0831     		adds	r1, r1, #8
 977 0010 4068     		ldr	r0, [r0, #4]
 978              	.LVL75:
 388:Drivers/STM32G0xx_HAL_Driver/Src/stm32g0xx_hal_flash_ex.c **** 
 979              		.loc 1 388 3 is_stmt 0 view .LVU259
 980 0012 FFF7FEFF 		bl	FLASH_OB_GetWRP
 981              	.LVL76:
 391:Drivers/STM32G0xx_HAL_Driver/Src/stm32g0xx_hal_flash_ex.c **** 
 982              		.loc 1 391 3 is_stmt 1 view .LVU260
 391:Drivers/STM32G0xx_HAL_Driver/Src/stm32g0xx_hal_flash_ex.c **** 
 983              		.loc 1 391 23 is_stmt 0 view .LVU261
 984 0016 FFF7FEFF 		bl	FLASH_OB_GetRDP
 985              	.LVL77:
 391:Drivers/STM32G0xx_HAL_Driver/Src/stm32g0xx_hal_flash_ex.c **** 
 986              		.loc 1 391 21 view .LVU262
 987 001a 2061     		str	r0, [r4, #16]
 394:Drivers/STM32G0xx_HAL_Driver/Src/stm32g0xx_hal_flash_ex.c ****   pOBInit->USERType = OB_USER_ALL;
 988              		.loc 1 394 3 is_stmt 1 view .LVU263
 394:Drivers/STM32G0xx_HAL_Driver/Src/stm32g0xx_hal_flash_ex.c ****   pOBInit->USERType = OB_USER_ALL;
 989              		.loc 1 394 25 is_stmt 0 view .LVU264
 990 001c FFF7FEFF 		bl	FLASH_OB_GetUser
 991              	.LVL78:
 394:Drivers/STM32G0xx_HAL_Driver/Src/stm32g0xx_hal_flash_ex.c ****   pOBInit->USERType = OB_USER_ALL;
ARM GAS  C:\Users\matil\AppData\Local\Temp\cc9YAXdg.s 			page 35


 992              		.loc 1 394 23 view .LVU265
 993 0020 A061     		str	r0, [r4, #24]
 395:Drivers/STM32G0xx_HAL_Driver/Src/stm32g0xx_hal_flash_ex.c **** 
 994              		.loc 1 395 3 is_stmt 1 view .LVU266
 395:Drivers/STM32G0xx_HAL_Driver/Src/stm32g0xx_hal_flash_ex.c **** 
 995              		.loc 1 395 21 is_stmt 0 view .LVU267
 996 0022 0D4B     		ldr	r3, .L69
 997 0024 6361     		str	r3, [r4, #20]
 399:Drivers/STM32G0xx_HAL_Driver/Src/stm32g0xx_hal_flash_ex.c ****   FLASH_OB_GetPCROP1B(&(pOBInit->PCROP1BStartAddr), &(pOBInit->PCROP1BEndAddr));
 998              		.loc 1 399 3 is_stmt 1 view .LVU268
 999 0026 2200     		movs	r2, r4
 1000 0028 2432     		adds	r2, r2, #36
 1001 002a 2100     		movs	r1, r4
 1002 002c 2031     		adds	r1, r1, #32
 1003 002e 2000     		movs	r0, r4
 1004 0030 1C30     		adds	r0, r0, #28
 1005 0032 FFF7FEFF 		bl	FLASH_OB_GetPCROP1A
 1006              	.LVL79:
 400:Drivers/STM32G0xx_HAL_Driver/Src/stm32g0xx_hal_flash_ex.c ****   pOBInit->PCROPConfig |= (OB_PCROP_ZONE_A | OB_PCROP_ZONE_B);
 1007              		.loc 1 400 3 view .LVU269
 1008 0036 2100     		movs	r1, r4
 1009 0038 2C31     		adds	r1, r1, #44
 1010 003a 2000     		movs	r0, r4
 1011 003c 2830     		adds	r0, r0, #40
 1012 003e FFF7FEFF 		bl	FLASH_OB_GetPCROP1B
 1013              	.LVL80:
 401:Drivers/STM32G0xx_HAL_Driver/Src/stm32g0xx_hal_flash_ex.c **** #endif
 1014              		.loc 1 401 3 view .LVU270
 401:Drivers/STM32G0xx_HAL_Driver/Src/stm32g0xx_hal_flash_ex.c **** #endif
 1015              		.loc 1 401 24 is_stmt 0 view .LVU271
 1016 0042 0323     		movs	r3, #3
 1017 0044 E269     		ldr	r2, [r4, #28]
 1018 0046 1343     		orrs	r3, r2
 1019 0048 E361     		str	r3, [r4, #28]
 406:Drivers/STM32G0xx_HAL_Driver/Src/stm32g0xx_hal_flash_ex.c **** #endif
 1020              		.loc 1 406 3 is_stmt 1 view .LVU272
 1021 004a 2100     		movs	r1, r4
 1022 004c 3431     		adds	r1, r1, #52
 1023 004e 2000     		movs	r0, r4
 1024 0050 3030     		adds	r0, r0, #48
 1025 0052 FFF7FEFF 		bl	FLASH_OB_GetSecMem
 1026              	.LVL81:
 408:Drivers/STM32G0xx_HAL_Driver/Src/stm32g0xx_hal_flash_ex.c **** 
 1027              		.loc 1 408 1 is_stmt 0 view .LVU273
 1028              		@ sp needed
 1029              	.LVL82:
 408:Drivers/STM32G0xx_HAL_Driver/Src/stm32g0xx_hal_flash_ex.c **** 
 1030              		.loc 1 408 1 view .LVU274
 1031 0056 10BD     		pop	{r4, pc}
 1032              	.L70:
 1033              		.align	2
 1034              	.L69:
 1035 0058 00FF4F3F 		.word	1062207232
 1036              		.cfi_endproc
 1037              	.LFE176:
 1039              		.section	.text.HAL_FLASHEx_EnableDebugger,"ax",%progbits
 1040              		.align	1
ARM GAS  C:\Users\matil\AppData\Local\Temp\cc9YAXdg.s 			page 36


 1041              		.global	HAL_FLASHEx_EnableDebugger
 1042              		.syntax unified
 1043              		.code	16
 1044              		.thumb_func
 1045              		.fpu softvfp
 1047              	HAL_FLASHEx_EnableDebugger:
 1048              	.LFB177:
 417:Drivers/STM32G0xx_HAL_Driver/Src/stm32g0xx_hal_flash_ex.c ****   FLASH->ACR |= FLASH_ACR_DBG_SWEN;
 1049              		.loc 1 417 1 is_stmt 1 view -0
 1050              		.cfi_startproc
 1051              		@ args = 0, pretend = 0, frame = 0
 1052              		@ frame_needed = 0, uses_anonymous_args = 0
 1053              		@ link register save eliminated.
 418:Drivers/STM32G0xx_HAL_Driver/Src/stm32g0xx_hal_flash_ex.c **** }
 1054              		.loc 1 418 3 view .LVU276
 418:Drivers/STM32G0xx_HAL_Driver/Src/stm32g0xx_hal_flash_ex.c **** }
 1055              		.loc 1 418 14 is_stmt 0 view .LVU277
 1056 0000 034A     		ldr	r2, .L72
 1057 0002 1168     		ldr	r1, [r2]
 1058 0004 8023     		movs	r3, #128
 1059 0006 DB02     		lsls	r3, r3, #11
 1060 0008 0B43     		orrs	r3, r1
 1061 000a 1360     		str	r3, [r2]
 419:Drivers/STM32G0xx_HAL_Driver/Src/stm32g0xx_hal_flash_ex.c **** 
 1062              		.loc 1 419 1 view .LVU278
 1063              		@ sp needed
 1064 000c 7047     		bx	lr
 1065              	.L73:
 1066 000e C046     		.align	2
 1067              	.L72:
 1068 0010 00200240 		.word	1073881088
 1069              		.cfi_endproc
 1070              	.LFE177:
 1072              		.section	.text.HAL_FLASHEx_DisableDebugger,"ax",%progbits
 1073              		.align	1
 1074              		.global	HAL_FLASHEx_DisableDebugger
 1075              		.syntax unified
 1076              		.code	16
 1077              		.thumb_func
 1078              		.fpu softvfp
 1080              	HAL_FLASHEx_DisableDebugger:
 1081              	.LFB178:
 429:Drivers/STM32G0xx_HAL_Driver/Src/stm32g0xx_hal_flash_ex.c ****   FLASH->ACR &= ~FLASH_ACR_DBG_SWEN;
 1082              		.loc 1 429 1 is_stmt 1 view -0
 1083              		.cfi_startproc
 1084              		@ args = 0, pretend = 0, frame = 0
 1085              		@ frame_needed = 0, uses_anonymous_args = 0
 1086              		@ link register save eliminated.
 430:Drivers/STM32G0xx_HAL_Driver/Src/stm32g0xx_hal_flash_ex.c **** }
 1087              		.loc 1 430 3 view .LVU280
 430:Drivers/STM32G0xx_HAL_Driver/Src/stm32g0xx_hal_flash_ex.c **** }
 1088              		.loc 1 430 14 is_stmt 0 view .LVU281
 1089 0000 024A     		ldr	r2, .L75
 1090 0002 1368     		ldr	r3, [r2]
 1091 0004 0249     		ldr	r1, .L75+4
 1092 0006 0B40     		ands	r3, r1
 1093 0008 1360     		str	r3, [r2]
ARM GAS  C:\Users\matil\AppData\Local\Temp\cc9YAXdg.s 			page 37


 431:Drivers/STM32G0xx_HAL_Driver/Src/stm32g0xx_hal_flash_ex.c **** #endif /* FLASH_ACR_DBG_SWEN */
 1094              		.loc 1 431 1 view .LVU282
 1095              		@ sp needed
 1096 000a 7047     		bx	lr
 1097              	.L76:
 1098              		.align	2
 1099              	.L75:
 1100 000c 00200240 		.word	1073881088
 1101 0010 FFFFFBFF 		.word	-262145
 1102              		.cfi_endproc
 1103              	.LFE178:
 1105              		.section	.text.HAL_FLASHEx_FlashEmptyCheck,"ax",%progbits
 1106              		.align	1
 1107              		.global	HAL_FLASHEx_FlashEmptyCheck
 1108              		.syntax unified
 1109              		.code	16
 1110              		.thumb_func
 1111              		.fpu softvfp
 1113              	HAL_FLASHEx_FlashEmptyCheck:
 1114              	.LFB179:
 441:Drivers/STM32G0xx_HAL_Driver/Src/stm32g0xx_hal_flash_ex.c ****   return ((FLASH->ACR & FLASH_ACR_PROGEMPTY));
 1115              		.loc 1 441 1 is_stmt 1 view -0
 1116              		.cfi_startproc
 1117              		@ args = 0, pretend = 0, frame = 0
 1118              		@ frame_needed = 0, uses_anonymous_args = 0
 1119              		@ link register save eliminated.
 442:Drivers/STM32G0xx_HAL_Driver/Src/stm32g0xx_hal_flash_ex.c **** }
 1120              		.loc 1 442 3 view .LVU284
 442:Drivers/STM32G0xx_HAL_Driver/Src/stm32g0xx_hal_flash_ex.c **** }
 1121              		.loc 1 442 17 is_stmt 0 view .LVU285
 1122 0000 024B     		ldr	r3, .L78
 1123 0002 1868     		ldr	r0, [r3]
 442:Drivers/STM32G0xx_HAL_Driver/Src/stm32g0xx_hal_flash_ex.c **** }
 1124              		.loc 1 442 23 view .LVU286
 1125 0004 8023     		movs	r3, #128
 1126 0006 5B02     		lsls	r3, r3, #9
 1127 0008 1840     		ands	r0, r3
 443:Drivers/STM32G0xx_HAL_Driver/Src/stm32g0xx_hal_flash_ex.c **** 
 1128              		.loc 1 443 1 view .LVU287
 1129              		@ sp needed
 1130 000a 7047     		bx	lr
 1131              	.L79:
 1132              		.align	2
 1133              	.L78:
 1134 000c 00200240 		.word	1073881088
 1135              		.cfi_endproc
 1136              	.LFE179:
 1138              		.section	.text.HAL_FLASHEx_ForceFlashEmpty,"ax",%progbits
 1139              		.align	1
 1140              		.global	HAL_FLASHEx_ForceFlashEmpty
 1141              		.syntax unified
 1142              		.code	16
 1143              		.thumb_func
 1144              		.fpu softvfp
 1146              	HAL_FLASHEx_ForceFlashEmpty:
 1147              	.LVL83:
 1148              	.LFB180:
ARM GAS  C:\Users\matil\AppData\Local\Temp\cc9YAXdg.s 			page 38


 455:Drivers/STM32G0xx_HAL_Driver/Src/stm32g0xx_hal_flash_ex.c ****   uint32_t acr;
 1149              		.loc 1 455 1 is_stmt 1 view -0
 1150              		.cfi_startproc
 1151              		@ args = 0, pretend = 0, frame = 0
 1152              		@ frame_needed = 0, uses_anonymous_args = 0
 1153              		@ link register save eliminated.
 456:Drivers/STM32G0xx_HAL_Driver/Src/stm32g0xx_hal_flash_ex.c ****   assert_param(IS_FLASH_EMPTY_CHECK(FlashEmpty));
 1154              		.loc 1 456 3 view .LVU289
 457:Drivers/STM32G0xx_HAL_Driver/Src/stm32g0xx_hal_flash_ex.c **** 
 1155              		.loc 1 457 3 view .LVU290
 459:Drivers/STM32G0xx_HAL_Driver/Src/stm32g0xx_hal_flash_ex.c ****   FLASH->ACR = (acr | FlashEmpty);
 1156              		.loc 1 459 3 view .LVU291
 459:Drivers/STM32G0xx_HAL_Driver/Src/stm32g0xx_hal_flash_ex.c ****   FLASH->ACR = (acr | FlashEmpty);
 1157              		.loc 1 459 15 is_stmt 0 view .LVU292
 1158 0000 034A     		ldr	r2, .L81
 1159 0002 1368     		ldr	r3, [r2]
 459:Drivers/STM32G0xx_HAL_Driver/Src/stm32g0xx_hal_flash_ex.c ****   FLASH->ACR = (acr | FlashEmpty);
 1160              		.loc 1 459 7 view .LVU293
 1161 0004 0349     		ldr	r1, .L81+4
 1162 0006 0B40     		ands	r3, r1
 1163              	.LVL84:
 460:Drivers/STM32G0xx_HAL_Driver/Src/stm32g0xx_hal_flash_ex.c **** }
 1164              		.loc 1 460 3 is_stmt 1 view .LVU294
 460:Drivers/STM32G0xx_HAL_Driver/Src/stm32g0xx_hal_flash_ex.c **** }
 1165              		.loc 1 460 21 is_stmt 0 view .LVU295
 1166 0008 0343     		orrs	r3, r0
 1167              	.LVL85:
 460:Drivers/STM32G0xx_HAL_Driver/Src/stm32g0xx_hal_flash_ex.c **** }
 1168              		.loc 1 460 14 view .LVU296
 1169 000a 1360     		str	r3, [r2]
 461:Drivers/STM32G0xx_HAL_Driver/Src/stm32g0xx_hal_flash_ex.c **** 
 1170              		.loc 1 461 1 view .LVU297
 1171              		@ sp needed
 1172 000c 7047     		bx	lr
 1173              	.L82:
 1174 000e C046     		.align	2
 1175              	.L81:
 1176 0010 00200240 		.word	1073881088
 1177 0014 FFFFFEFF 		.word	-65537
 1178              		.cfi_endproc
 1179              	.LFE180:
 1181              		.section	.text.HAL_FLASHEx_EnableSecMemProtection,"ax",%progbits
 1182              		.align	1
 1183              		.global	HAL_FLASHEx_EnableSecMemProtection
 1184              		.syntax unified
 1185              		.code	16
 1186              		.thumb_func
 1187              		.fpu softvfp
 1189              	HAL_FLASHEx_EnableSecMemProtection:
 1190              	.LVL86:
 1191              	.LFB181:
 476:Drivers/STM32G0xx_HAL_Driver/Src/stm32g0xx_hal_flash_ex.c ****   assert_param(IS_FLASH_BANK(Bank));
 1192              		.loc 1 476 1 is_stmt 1 view -0
 1193              		.cfi_startproc
 1194              		@ args = 0, pretend = 0, frame = 0
 1195              		@ frame_needed = 0, uses_anonymous_args = 0
 1196              		@ link register save eliminated.
ARM GAS  C:\Users\matil\AppData\Local\Temp\cc9YAXdg.s 			page 39


 477:Drivers/STM32G0xx_HAL_Driver/Src/stm32g0xx_hal_flash_ex.c ****   FLASH->CR |= FLASH_CR_SEC_PROT;
 1197              		.loc 1 477 3 view .LVU299
 478:Drivers/STM32G0xx_HAL_Driver/Src/stm32g0xx_hal_flash_ex.c **** }
 1198              		.loc 1 478 3 view .LVU300
 478:Drivers/STM32G0xx_HAL_Driver/Src/stm32g0xx_hal_flash_ex.c **** }
 1199              		.loc 1 478 13 is_stmt 0 view .LVU301
 1200 0000 034A     		ldr	r2, .L84
 1201 0002 5169     		ldr	r1, [r2, #20]
 1202 0004 8023     		movs	r3, #128
 1203 0006 5B05     		lsls	r3, r3, #21
 1204 0008 0B43     		orrs	r3, r1
 1205 000a 5361     		str	r3, [r2, #20]
 479:Drivers/STM32G0xx_HAL_Driver/Src/stm32g0xx_hal_flash_ex.c **** #endif
 1206              		.loc 1 479 1 view .LVU302
 1207              		@ sp needed
 1208 000c 7047     		bx	lr
 1209              	.L85:
 1210 000e C046     		.align	2
 1211              	.L84:
 1212 0010 00200240 		.word	1073881088
 1213              		.cfi_endproc
 1214              	.LFE181:
 1216              		.section	.text.FLASH_PageErase,"ax",%progbits
 1217              		.align	1
 1218              		.global	FLASH_PageErase
 1219              		.syntax unified
 1220              		.code	16
 1221              		.thumb_func
 1222              		.fpu softvfp
 1224              	FLASH_PageErase:
 1225              	.LVL87:
 1226              	.LFB183:
 511:Drivers/STM32G0xx_HAL_Driver/Src/stm32g0xx_hal_flash_ex.c ****   uint32_t tmp;
 1227              		.loc 1 511 1 is_stmt 1 view -0
 1228              		.cfi_startproc
 1229              		@ args = 0, pretend = 0, frame = 0
 1230              		@ frame_needed = 0, uses_anonymous_args = 0
 1231              		@ link register save eliminated.
 512:Drivers/STM32G0xx_HAL_Driver/Src/stm32g0xx_hal_flash_ex.c **** 
 1232              		.loc 1 512 3 view .LVU304
 515:Drivers/STM32G0xx_HAL_Driver/Src/stm32g0xx_hal_flash_ex.c **** 
 1233              		.loc 1 515 3 view .LVU305
 518:Drivers/STM32G0xx_HAL_Driver/Src/stm32g0xx_hal_flash_ex.c **** 
 1234              		.loc 1 518 3 view .LVU306
 518:Drivers/STM32G0xx_HAL_Driver/Src/stm32g0xx_hal_flash_ex.c **** 
 1235              		.loc 1 518 15 is_stmt 0 view .LVU307
 1236 0000 044A     		ldr	r2, .L87
 1237 0002 5369     		ldr	r3, [r2, #20]
 518:Drivers/STM32G0xx_HAL_Driver/Src/stm32g0xx_hal_flash_ex.c **** 
 1238              		.loc 1 518 7 view .LVU308
 1239 0004 0449     		ldr	r1, .L87+4
 1240 0006 0B40     		ands	r3, r1
 1241              	.LVL88:
 521:Drivers/STM32G0xx_HAL_Driver/Src/stm32g0xx_hal_flash_ex.c **** }
 1242              		.loc 1 521 3 is_stmt 1 view .LVU309
 521:Drivers/STM32G0xx_HAL_Driver/Src/stm32g0xx_hal_flash_ex.c **** }
 1243              		.loc 1 521 45 is_stmt 0 view .LVU310
ARM GAS  C:\Users\matil\AppData\Local\Temp\cc9YAXdg.s 			page 40


 1244 0008 C000     		lsls	r0, r0, #3
 1245              	.LVL89:
 521:Drivers/STM32G0xx_HAL_Driver/Src/stm32g0xx_hal_flash_ex.c **** }
 1246              		.loc 1 521 20 view .LVU311
 1247 000a 1843     		orrs	r0, r3
 1248 000c 034B     		ldr	r3, .L87+8
 1249              	.LVL90:
 521:Drivers/STM32G0xx_HAL_Driver/Src/stm32g0xx_hal_flash_ex.c **** }
 1250              		.loc 1 521 20 view .LVU312
 1251 000e 1843     		orrs	r0, r3
 521:Drivers/STM32G0xx_HAL_Driver/Src/stm32g0xx_hal_flash_ex.c **** }
 1252              		.loc 1 521 13 view .LVU313
 1253 0010 5061     		str	r0, [r2, #20]
 522:Drivers/STM32G0xx_HAL_Driver/Src/stm32g0xx_hal_flash_ex.c **** 
 1254              		.loc 1 522 1 view .LVU314
 1255              		@ sp needed
 1256 0012 7047     		bx	lr
 1257              	.L88:
 1258              		.align	2
 1259              	.L87:
 1260 0014 00200240 		.word	1073881088
 1261 0018 07FEFFFF 		.word	-505
 1262 001c 02000100 		.word	65538
 1263              		.cfi_endproc
 1264              	.LFE183:
 1266              		.section	.text.HAL_FLASHEx_Erase,"ax",%progbits
 1267              		.align	1
 1268              		.global	HAL_FLASHEx_Erase
 1269              		.syntax unified
 1270              		.code	16
 1271              		.thumb_func
 1272              		.fpu softvfp
 1274              	HAL_FLASHEx_Erase:
 1275              	.LVL91:
 1276              	.LFB173:
 148:Drivers/STM32G0xx_HAL_Driver/Src/stm32g0xx_hal_flash_ex.c ****   HAL_StatusTypeDef status;
 1277              		.loc 1 148 1 is_stmt 1 view -0
 1278              		.cfi_startproc
 1279              		@ args = 0, pretend = 0, frame = 0
 1280              		@ frame_needed = 0, uses_anonymous_args = 0
 148:Drivers/STM32G0xx_HAL_Driver/Src/stm32g0xx_hal_flash_ex.c ****   HAL_StatusTypeDef status;
 1281              		.loc 1 148 1 is_stmt 0 view .LVU316
 1282 0000 70B5     		push	{r4, r5, r6, lr}
 1283              	.LCFI9:
 1284              		.cfi_def_cfa_offset 16
 1285              		.cfi_offset 4, -16
 1286              		.cfi_offset 5, -12
 1287              		.cfi_offset 6, -8
 1288              		.cfi_offset 14, -4
 1289 0002 0500     		movs	r5, r0
 1290 0004 0E00     		movs	r6, r1
 149:Drivers/STM32G0xx_HAL_Driver/Src/stm32g0xx_hal_flash_ex.c ****   uint32_t index;
 1291              		.loc 1 149 3 is_stmt 1 view .LVU317
 150:Drivers/STM32G0xx_HAL_Driver/Src/stm32g0xx_hal_flash_ex.c **** 
 1292              		.loc 1 150 3 view .LVU318
 153:Drivers/STM32G0xx_HAL_Driver/Src/stm32g0xx_hal_flash_ex.c **** 
 1293              		.loc 1 153 3 view .LVU319
ARM GAS  C:\Users\matil\AppData\Local\Temp\cc9YAXdg.s 			page 41


 156:Drivers/STM32G0xx_HAL_Driver/Src/stm32g0xx_hal_flash_ex.c **** 
 1294              		.loc 1 156 3 view .LVU320
 156:Drivers/STM32G0xx_HAL_Driver/Src/stm32g0xx_hal_flash_ex.c **** 
 1295              		.loc 1 156 3 view .LVU321
 1296 0006 1D4B     		ldr	r3, .L100
 1297 0008 1B78     		ldrb	r3, [r3]
 1298 000a 012B     		cmp	r3, #1
 1299 000c 33D0     		beq	.L97
 156:Drivers/STM32G0xx_HAL_Driver/Src/stm32g0xx_hal_flash_ex.c **** 
 1300              		.loc 1 156 3 discriminator 2 view .LVU322
 1301 000e 1B4B     		ldr	r3, .L100
 1302 0010 0122     		movs	r2, #1
 1303 0012 1A70     		strb	r2, [r3]
 156:Drivers/STM32G0xx_HAL_Driver/Src/stm32g0xx_hal_flash_ex.c **** 
 1304              		.loc 1 156 3 discriminator 2 view .LVU323
 159:Drivers/STM32G0xx_HAL_Driver/Src/stm32g0xx_hal_flash_ex.c **** 
 1305              		.loc 1 159 3 discriminator 2 view .LVU324
 159:Drivers/STM32G0xx_HAL_Driver/Src/stm32g0xx_hal_flash_ex.c **** 
 1306              		.loc 1 159 20 is_stmt 0 discriminator 2 view .LVU325
 1307 0014 0022     		movs	r2, #0
 1308 0016 5A60     		str	r2, [r3, #4]
 162:Drivers/STM32G0xx_HAL_Driver/Src/stm32g0xx_hal_flash_ex.c **** 
 1309              		.loc 1 162 3 is_stmt 1 discriminator 2 view .LVU326
 162:Drivers/STM32G0xx_HAL_Driver/Src/stm32g0xx_hal_flash_ex.c **** 
 1310              		.loc 1 162 12 is_stmt 0 discriminator 2 view .LVU327
 1311 0018 FA20     		movs	r0, #250
 1312              	.LVL92:
 162:Drivers/STM32G0xx_HAL_Driver/Src/stm32g0xx_hal_flash_ex.c **** 
 1313              		.loc 1 162 12 discriminator 2 view .LVU328
 1314 001a 8000     		lsls	r0, r0, #2
 1315 001c FFF7FEFF 		bl	FLASH_WaitForLastOperation
 1316              	.LVL93:
 164:Drivers/STM32G0xx_HAL_Driver/Src/stm32g0xx_hal_flash_ex.c ****   {
 1317              		.loc 1 164 3 is_stmt 1 discriminator 2 view .LVU329
 164:Drivers/STM32G0xx_HAL_Driver/Src/stm32g0xx_hal_flash_ex.c ****   {
 1318              		.loc 1 164 6 is_stmt 0 discriminator 2 view .LVU330
 1319 0020 0028     		cmp	r0, #0
 1320 0022 24D1     		bne	.L91
 166:Drivers/STM32G0xx_HAL_Driver/Src/stm32g0xx_hal_flash_ex.c ****     {
 1321              		.loc 1 166 5 is_stmt 1 view .LVU331
 166:Drivers/STM32G0xx_HAL_Driver/Src/stm32g0xx_hal_flash_ex.c ****     {
 1322              		.loc 1 166 8 is_stmt 0 view .LVU332
 1323 0024 2B68     		ldr	r3, [r5]
 1324 0026 042B     		cmp	r3, #4
 1325 0028 14D0     		beq	.L98
 177:Drivers/STM32G0xx_HAL_Driver/Src/stm32g0xx_hal_flash_ex.c **** 
 1326              		.loc 1 177 7 is_stmt 1 view .LVU333
 177:Drivers/STM32G0xx_HAL_Driver/Src/stm32g0xx_hal_flash_ex.c **** 
 1327              		.loc 1 177 18 is_stmt 0 view .LVU334
 1328 002a 0123     		movs	r3, #1
 1329 002c 5B42     		rsbs	r3, r3, #0
 1330 002e 3360     		str	r3, [r6]
 179:Drivers/STM32G0xx_HAL_Driver/Src/stm32g0xx_hal_flash_ex.c ****       {
 1331              		.loc 1 179 7 is_stmt 1 view .LVU335
 179:Drivers/STM32G0xx_HAL_Driver/Src/stm32g0xx_hal_flash_ex.c ****       {
 1332              		.loc 1 179 18 is_stmt 0 view .LVU336
 1333 0030 6C68     		ldr	r4, [r5, #4]
ARM GAS  C:\Users\matil\AppData\Local\Temp\cc9YAXdg.s 			page 42


 1334              	.LVL94:
 1335              	.L93:
 179:Drivers/STM32G0xx_HAL_Driver/Src/stm32g0xx_hal_flash_ex.c ****       {
 1336              		.loc 1 179 38 is_stmt 1 discriminator 1 view .LVU337
 179:Drivers/STM32G0xx_HAL_Driver/Src/stm32g0xx_hal_flash_ex.c ****       {
 1337              		.loc 1 179 64 is_stmt 0 discriminator 1 view .LVU338
 1338 0032 6B68     		ldr	r3, [r5, #4]
 1339 0034 AA68     		ldr	r2, [r5, #8]
 1340 0036 9446     		mov	ip, r2
 1341 0038 6344     		add	r3, r3, ip
 179:Drivers/STM32G0xx_HAL_Driver/Src/stm32g0xx_hal_flash_ex.c ****       {
 1342              		.loc 1 179 7 discriminator 1 view .LVU339
 1343 003a A342     		cmp	r3, r4
 1344 003c 12D9     		bls	.L95
 182:Drivers/STM32G0xx_HAL_Driver/Src/stm32g0xx_hal_flash_ex.c **** 
 1345              		.loc 1 182 9 is_stmt 1 view .LVU340
 1346 003e 2000     		movs	r0, r4
 1347              	.LVL95:
 182:Drivers/STM32G0xx_HAL_Driver/Src/stm32g0xx_hal_flash_ex.c **** 
 1348              		.loc 1 182 9 is_stmt 0 view .LVU341
 1349 0040 FFF7FEFF 		bl	FLASH_PageErase
 1350              	.LVL96:
 185:Drivers/STM32G0xx_HAL_Driver/Src/stm32g0xx_hal_flash_ex.c **** 
 1351              		.loc 1 185 9 is_stmt 1 view .LVU342
 185:Drivers/STM32G0xx_HAL_Driver/Src/stm32g0xx_hal_flash_ex.c **** 
 1352              		.loc 1 185 18 is_stmt 0 view .LVU343
 1353 0044 FA20     		movs	r0, #250
 1354 0046 8000     		lsls	r0, r0, #2
 1355 0048 FFF7FEFF 		bl	FLASH_WaitForLastOperation
 1356              	.LVL97:
 187:Drivers/STM32G0xx_HAL_Driver/Src/stm32g0xx_hal_flash_ex.c ****         {
 1357              		.loc 1 187 9 is_stmt 1 view .LVU344
 187:Drivers/STM32G0xx_HAL_Driver/Src/stm32g0xx_hal_flash_ex.c ****         {
 1358              		.loc 1 187 12 is_stmt 0 view .LVU345
 1359 004c 0028     		cmp	r0, #0
 1360 004e 08D1     		bne	.L99
 179:Drivers/STM32G0xx_HAL_Driver/Src/stm32g0xx_hal_flash_ex.c ****       {
 1361              		.loc 1 179 88 is_stmt 1 discriminator 2 view .LVU346
 179:Drivers/STM32G0xx_HAL_Driver/Src/stm32g0xx_hal_flash_ex.c ****       {
 1362              		.loc 1 179 93 is_stmt 0 discriminator 2 view .LVU347
 1363 0050 0134     		adds	r4, r4, #1
 1364              	.LVL98:
 179:Drivers/STM32G0xx_HAL_Driver/Src/stm32g0xx_hal_flash_ex.c ****       {
 1365              		.loc 1 179 93 discriminator 2 view .LVU348
 1366 0052 EEE7     		b	.L93
 1367              	.LVL99:
 1368              	.L98:
 169:Drivers/STM32G0xx_HAL_Driver/Src/stm32g0xx_hal_flash_ex.c **** 
 1369              		.loc 1 169 7 is_stmt 1 view .LVU349
 1370 0054 FFF7FEFF 		bl	FLASH_MassErase
 1371              	.LVL100:
 172:Drivers/STM32G0xx_HAL_Driver/Src/stm32g0xx_hal_flash_ex.c ****     }
 1372              		.loc 1 172 7 view .LVU350
 172:Drivers/STM32G0xx_HAL_Driver/Src/stm32g0xx_hal_flash_ex.c ****     }
 1373              		.loc 1 172 16 is_stmt 0 view .LVU351
 1374 0058 FA20     		movs	r0, #250
 1375 005a 8000     		lsls	r0, r0, #2
ARM GAS  C:\Users\matil\AppData\Local\Temp\cc9YAXdg.s 			page 43


 1376 005c FFF7FEFF 		bl	FLASH_WaitForLastOperation
 1377              	.LVL101:
 172:Drivers/STM32G0xx_HAL_Driver/Src/stm32g0xx_hal_flash_ex.c ****     }
 1378              		.loc 1 172 16 view .LVU352
 1379 0060 05E0     		b	.L91
 1380              	.LVL102:
 1381              	.L99:
 190:Drivers/STM32G0xx_HAL_Driver/Src/stm32g0xx_hal_flash_ex.c ****           break;
 1382              		.loc 1 190 11 is_stmt 1 view .LVU353
 190:Drivers/STM32G0xx_HAL_Driver/Src/stm32g0xx_hal_flash_ex.c ****           break;
 1383              		.loc 1 190 22 is_stmt 0 view .LVU354
 1384 0062 3460     		str	r4, [r6]
 191:Drivers/STM32G0xx_HAL_Driver/Src/stm32g0xx_hal_flash_ex.c ****         }
 1385              		.loc 1 191 11 is_stmt 1 view .LVU355
 1386              	.LVL103:
 1387              	.L95:
 196:Drivers/STM32G0xx_HAL_Driver/Src/stm32g0xx_hal_flash_ex.c ****     }
 1388              		.loc 1 196 7 view .LVU356
 1389 0064 064A     		ldr	r2, .L100+4
 1390 0066 5369     		ldr	r3, [r2, #20]
 1391 0068 0221     		movs	r1, #2
 1392 006a 8B43     		bics	r3, r1
 1393 006c 5361     		str	r3, [r2, #20]
 1394              	.LVL104:
 1395              	.L91:
 201:Drivers/STM32G0xx_HAL_Driver/Src/stm32g0xx_hal_flash_ex.c **** 
 1396              		.loc 1 201 3 view .LVU357
 201:Drivers/STM32G0xx_HAL_Driver/Src/stm32g0xx_hal_flash_ex.c **** 
 1397              		.loc 1 201 3 view .LVU358
 1398 006e 034B     		ldr	r3, .L100
 1399 0070 0022     		movs	r2, #0
 1400 0072 1A70     		strb	r2, [r3]
 201:Drivers/STM32G0xx_HAL_Driver/Src/stm32g0xx_hal_flash_ex.c **** 
 1401              		.loc 1 201 3 view .LVU359
 204:Drivers/STM32G0xx_HAL_Driver/Src/stm32g0xx_hal_flash_ex.c **** }
 1402              		.loc 1 204 3 view .LVU360
 1403              	.LVL105:
 1404              	.L90:
 205:Drivers/STM32G0xx_HAL_Driver/Src/stm32g0xx_hal_flash_ex.c **** 
 1405              		.loc 1 205 1 is_stmt 0 view .LVU361
 1406              		@ sp needed
 1407              	.LVL106:
 1408              	.LVL107:
 205:Drivers/STM32G0xx_HAL_Driver/Src/stm32g0xx_hal_flash_ex.c **** 
 1409              		.loc 1 205 1 view .LVU362
 1410 0074 70BD     		pop	{r4, r5, r6, pc}
 1411              	.LVL108:
 1412              	.L97:
 156:Drivers/STM32G0xx_HAL_Driver/Src/stm32g0xx_hal_flash_ex.c **** 
 1413              		.loc 1 156 3 view .LVU363
 1414 0076 0220     		movs	r0, #2
 1415              	.LVL109:
 156:Drivers/STM32G0xx_HAL_Driver/Src/stm32g0xx_hal_flash_ex.c **** 
 1416              		.loc 1 156 3 view .LVU364
 1417 0078 FCE7     		b	.L90
 1418              	.L101:
 1419 007a C046     		.align	2
ARM GAS  C:\Users\matil\AppData\Local\Temp\cc9YAXdg.s 			page 44


 1420              	.L100:
 1421 007c 00000000 		.word	pFlash
 1422 0080 00200240 		.word	1073881088
 1423              		.cfi_endproc
 1424              	.LFE173:
 1426              		.section	.text.HAL_FLASHEx_Erase_IT,"ax",%progbits
 1427              		.align	1
 1428              		.global	HAL_FLASHEx_Erase_IT
 1429              		.syntax unified
 1430              		.code	16
 1431              		.thumb_func
 1432              		.fpu softvfp
 1434              	HAL_FLASHEx_Erase_IT:
 1435              	.LVL110:
 1436              	.LFB174:
 215:Drivers/STM32G0xx_HAL_Driver/Src/stm32g0xx_hal_flash_ex.c ****   HAL_StatusTypeDef status;
 1437              		.loc 1 215 1 is_stmt 1 view -0
 1438              		.cfi_startproc
 1439              		@ args = 0, pretend = 0, frame = 0
 1440              		@ frame_needed = 0, uses_anonymous_args = 0
 215:Drivers/STM32G0xx_HAL_Driver/Src/stm32g0xx_hal_flash_ex.c ****   HAL_StatusTypeDef status;
 1441              		.loc 1 215 1 is_stmt 0 view .LVU366
 1442 0000 70B5     		push	{r4, r5, r6, lr}
 1443              	.LCFI10:
 1444              		.cfi_def_cfa_offset 16
 1445              		.cfi_offset 4, -16
 1446              		.cfi_offset 5, -12
 1447              		.cfi_offset 6, -8
 1448              		.cfi_offset 14, -4
 1449 0002 0400     		movs	r4, r0
 216:Drivers/STM32G0xx_HAL_Driver/Src/stm32g0xx_hal_flash_ex.c **** 
 1450              		.loc 1 216 3 is_stmt 1 view .LVU367
 219:Drivers/STM32G0xx_HAL_Driver/Src/stm32g0xx_hal_flash_ex.c **** 
 1451              		.loc 1 219 3 view .LVU368
 222:Drivers/STM32G0xx_HAL_Driver/Src/stm32g0xx_hal_flash_ex.c **** 
 1452              		.loc 1 222 3 view .LVU369
 222:Drivers/STM32G0xx_HAL_Driver/Src/stm32g0xx_hal_flash_ex.c **** 
 1453              		.loc 1 222 3 view .LVU370
 1454 0004 174B     		ldr	r3, .L108
 1455 0006 1B78     		ldrb	r3, [r3]
 1456 0008 012B     		cmp	r3, #1
 1457 000a 28D0     		beq	.L106
 222:Drivers/STM32G0xx_HAL_Driver/Src/stm32g0xx_hal_flash_ex.c **** 
 1458              		.loc 1 222 3 discriminator 2 view .LVU371
 1459 000c 154B     		ldr	r3, .L108
 1460 000e 0122     		movs	r2, #1
 1461 0010 1A70     		strb	r2, [r3]
 222:Drivers/STM32G0xx_HAL_Driver/Src/stm32g0xx_hal_flash_ex.c **** 
 1462              		.loc 1 222 3 discriminator 2 view .LVU372
 225:Drivers/STM32G0xx_HAL_Driver/Src/stm32g0xx_hal_flash_ex.c **** 
 1463              		.loc 1 225 3 discriminator 2 view .LVU373
 225:Drivers/STM32G0xx_HAL_Driver/Src/stm32g0xx_hal_flash_ex.c **** 
 1464              		.loc 1 225 20 is_stmt 0 discriminator 2 view .LVU374
 1465 0012 0022     		movs	r2, #0
 1466 0014 5A60     		str	r2, [r3, #4]
 228:Drivers/STM32G0xx_HAL_Driver/Src/stm32g0xx_hal_flash_ex.c **** 
 1467              		.loc 1 228 3 is_stmt 1 discriminator 2 view .LVU375
ARM GAS  C:\Users\matil\AppData\Local\Temp\cc9YAXdg.s 			page 45


 228:Drivers/STM32G0xx_HAL_Driver/Src/stm32g0xx_hal_flash_ex.c **** 
 1468              		.loc 1 228 27 is_stmt 0 discriminator 2 view .LVU376
 1469 0016 0268     		ldr	r2, [r0]
 1470 0018 9A60     		str	r2, [r3, #8]
 231:Drivers/STM32G0xx_HAL_Driver/Src/stm32g0xx_hal_flash_ex.c **** 
 1471              		.loc 1 231 3 is_stmt 1 discriminator 2 view .LVU377
 231:Drivers/STM32G0xx_HAL_Driver/Src/stm32g0xx_hal_flash_ex.c **** 
 1472              		.loc 1 231 12 is_stmt 0 discriminator 2 view .LVU378
 1473 001a FA20     		movs	r0, #250
 1474              	.LVL111:
 231:Drivers/STM32G0xx_HAL_Driver/Src/stm32g0xx_hal_flash_ex.c **** 
 1475              		.loc 1 231 12 discriminator 2 view .LVU379
 1476 001c 8000     		lsls	r0, r0, #2
 1477 001e FFF7FEFF 		bl	FLASH_WaitForLastOperation
 1478              	.LVL112:
 1479 0022 051E     		subs	r5, r0, #0
 1480              	.LVL113:
 233:Drivers/STM32G0xx_HAL_Driver/Src/stm32g0xx_hal_flash_ex.c ****   {
 1481              		.loc 1 233 3 is_stmt 1 discriminator 2 view .LVU380
 233:Drivers/STM32G0xx_HAL_Driver/Src/stm32g0xx_hal_flash_ex.c ****   {
 1482              		.loc 1 233 6 is_stmt 0 discriminator 2 view .LVU381
 1483 0024 04D0     		beq	.L104
 236:Drivers/STM32G0xx_HAL_Driver/Src/stm32g0xx_hal_flash_ex.c ****   }
 1484              		.loc 1 236 5 is_stmt 1 view .LVU382
 236:Drivers/STM32G0xx_HAL_Driver/Src/stm32g0xx_hal_flash_ex.c ****   }
 1485              		.loc 1 236 5 view .LVU383
 1486 0026 0F4B     		ldr	r3, .L108
 1487 0028 0022     		movs	r2, #0
 1488 002a 1A70     		strb	r2, [r3]
 236:Drivers/STM32G0xx_HAL_Driver/Src/stm32g0xx_hal_flash_ex.c ****   }
 1489              		.loc 1 236 5 view .LVU384
 1490              	.LVL114:
 1491              	.L103:
 264:Drivers/STM32G0xx_HAL_Driver/Src/stm32g0xx_hal_flash_ex.c **** 
 1492              		.loc 1 264 1 is_stmt 0 view .LVU385
 1493 002c 2800     		movs	r0, r5
 1494              		@ sp needed
 1495              	.LVL115:
 264:Drivers/STM32G0xx_HAL_Driver/Src/stm32g0xx_hal_flash_ex.c **** 
 1496              		.loc 1 264 1 view .LVU386
 1497 002e 70BD     		pop	{r4, r5, r6, pc}
 1498              	.LVL116:
 1499              	.L104:
 241:Drivers/STM32G0xx_HAL_Driver/Src/stm32g0xx_hal_flash_ex.c **** 
 1500              		.loc 1 241 5 is_stmt 1 discriminator 4 view .LVU387
 241:Drivers/STM32G0xx_HAL_Driver/Src/stm32g0xx_hal_flash_ex.c **** 
 1501              		.loc 1 241 5 discriminator 4 view .LVU388
 241:Drivers/STM32G0xx_HAL_Driver/Src/stm32g0xx_hal_flash_ex.c **** 
 1502              		.loc 1 241 5 discriminator 4 view .LVU389
 241:Drivers/STM32G0xx_HAL_Driver/Src/stm32g0xx_hal_flash_ex.c **** 
 1503              		.loc 1 241 5 discriminator 4 view .LVU390
 1504 0030 0D4A     		ldr	r2, .L108+4
 1505 0032 5169     		ldr	r1, [r2, #20]
 1506 0034 C023     		movs	r3, #192
 1507 0036 9B04     		lsls	r3, r3, #18
 1508 0038 0B43     		orrs	r3, r1
 1509 003a 5361     		str	r3, [r2, #20]
ARM GAS  C:\Users\matil\AppData\Local\Temp\cc9YAXdg.s 			page 46


 241:Drivers/STM32G0xx_HAL_Driver/Src/stm32g0xx_hal_flash_ex.c **** 
 1510              		.loc 1 241 5 discriminator 4 view .LVU391
 243:Drivers/STM32G0xx_HAL_Driver/Src/stm32g0xx_hal_flash_ex.c ****     {
 1511              		.loc 1 243 5 discriminator 4 view .LVU392
 243:Drivers/STM32G0xx_HAL_Driver/Src/stm32g0xx_hal_flash_ex.c ****     {
 1512              		.loc 1 243 8 is_stmt 0 discriminator 4 view .LVU393
 1513 003c 2368     		ldr	r3, [r4]
 1514 003e 042B     		cmp	r3, #4
 1515 0040 07D0     		beq	.L107
 254:Drivers/STM32G0xx_HAL_Driver/Src/stm32g0xx_hal_flash_ex.c ****       pFlash.Page = pEraseInit->Page;
 1516              		.loc 1 254 7 is_stmt 1 view .LVU394
 254:Drivers/STM32G0xx_HAL_Driver/Src/stm32g0xx_hal_flash_ex.c ****       pFlash.Page = pEraseInit->Page;
 1517              		.loc 1 254 29 is_stmt 0 view .LVU395
 1518 0042 084B     		ldr	r3, .L108
 1519 0044 A268     		ldr	r2, [r4, #8]
 1520 0046 5A61     		str	r2, [r3, #20]
 255:Drivers/STM32G0xx_HAL_Driver/Src/stm32g0xx_hal_flash_ex.c **** 
 1521              		.loc 1 255 7 is_stmt 1 view .LVU396
 255:Drivers/STM32G0xx_HAL_Driver/Src/stm32g0xx_hal_flash_ex.c **** 
 1522              		.loc 1 255 31 is_stmt 0 view .LVU397
 1523 0048 6068     		ldr	r0, [r4, #4]
 1524              	.LVL117:
 255:Drivers/STM32G0xx_HAL_Driver/Src/stm32g0xx_hal_flash_ex.c **** 
 1525              		.loc 1 255 19 view .LVU398
 1526 004a 1861     		str	r0, [r3, #16]
 258:Drivers/STM32G0xx_HAL_Driver/Src/stm32g0xx_hal_flash_ex.c ****     }
 1527              		.loc 1 258 7 is_stmt 1 view .LVU399
 1528 004c FFF7FEFF 		bl	FLASH_PageErase
 1529              	.LVL118:
 1530 0050 ECE7     		b	.L103
 1531              	.LVL119:
 1532              	.L107:
 246:Drivers/STM32G0xx_HAL_Driver/Src/stm32g0xx_hal_flash_ex.c **** 
 1533              		.loc 1 246 7 view .LVU400
 246:Drivers/STM32G0xx_HAL_Driver/Src/stm32g0xx_hal_flash_ex.c **** 
 1534              		.loc 1 246 19 is_stmt 0 view .LVU401
 1535 0052 044B     		ldr	r3, .L108
 1536 0054 0022     		movs	r2, #0
 1537 0056 1A61     		str	r2, [r3, #16]
 249:Drivers/STM32G0xx_HAL_Driver/Src/stm32g0xx_hal_flash_ex.c ****     }
 1538              		.loc 1 249 7 is_stmt 1 view .LVU402
 1539 0058 FFF7FEFF 		bl	FLASH_MassErase
 1540              	.LVL120:
 249:Drivers/STM32G0xx_HAL_Driver/Src/stm32g0xx_hal_flash_ex.c ****     }
 1541              		.loc 1 249 7 is_stmt 0 view .LVU403
 1542 005c E6E7     		b	.L103
 1543              	.LVL121:
 1544              	.L106:
 222:Drivers/STM32G0xx_HAL_Driver/Src/stm32g0xx_hal_flash_ex.c **** 
 1545              		.loc 1 222 3 view .LVU404
 1546 005e 0225     		movs	r5, #2
 1547 0060 E4E7     		b	.L103
 1548              	.L109:
 1549 0062 C046     		.align	2
 1550              	.L108:
 1551 0064 00000000 		.word	pFlash
 1552 0068 00200240 		.word	1073881088
ARM GAS  C:\Users\matil\AppData\Local\Temp\cc9YAXdg.s 			page 47


 1553              		.cfi_endproc
 1554              	.LFE174:
 1556              		.section	.text.FLASH_FlushCaches,"ax",%progbits
 1557              		.align	1
 1558              		.global	FLASH_FlushCaches
 1559              		.syntax unified
 1560              		.code	16
 1561              		.thumb_func
 1562              		.fpu softvfp
 1564              	FLASH_FlushCaches:
 1565              	.LFB184:
 529:Drivers/STM32G0xx_HAL_Driver/Src/stm32g0xx_hal_flash_ex.c ****   /* Flush instruction cache  */
 1566              		.loc 1 529 1 is_stmt 1 view -0
 1567              		.cfi_startproc
 1568              		@ args = 0, pretend = 0, frame = 0
 1569              		@ frame_needed = 0, uses_anonymous_args = 0
 1570              		@ link register save eliminated.
 531:Drivers/STM32G0xx_HAL_Driver/Src/stm32g0xx_hal_flash_ex.c ****   {
 1571              		.loc 1 531 3 view .LVU406
 531:Drivers/STM32G0xx_HAL_Driver/Src/stm32g0xx_hal_flash_ex.c ****   {
 1572              		.loc 1 531 7 is_stmt 0 view .LVU407
 1573 0000 0B4B     		ldr	r3, .L112
 1574 0002 1B68     		ldr	r3, [r3]
 531:Drivers/STM32G0xx_HAL_Driver/Src/stm32g0xx_hal_flash_ex.c ****   {
 1575              		.loc 1 531 6 view .LVU408
 1576 0004 9B05     		lsls	r3, r3, #22
 1577 0006 12D5     		bpl	.L110
 534:Drivers/STM32G0xx_HAL_Driver/Src/stm32g0xx_hal_flash_ex.c ****     /* Reset instruction cache */
 1578              		.loc 1 534 5 is_stmt 1 view .LVU409
 1579 0008 094B     		ldr	r3, .L112
 1580 000a 1A68     		ldr	r2, [r3]
 1581 000c 0949     		ldr	r1, .L112+4
 1582 000e 0A40     		ands	r2, r1
 1583 0010 1A60     		str	r2, [r3]
 536:Drivers/STM32G0xx_HAL_Driver/Src/stm32g0xx_hal_flash_ex.c ****     /* Enable instruction cache */
 1584              		.loc 1 536 5 view .LVU410
 536:Drivers/STM32G0xx_HAL_Driver/Src/stm32g0xx_hal_flash_ex.c ****     /* Enable instruction cache */
 1585              		.loc 1 536 5 view .LVU411
 1586 0012 1968     		ldr	r1, [r3]
 1587 0014 8022     		movs	r2, #128
 1588 0016 1201     		lsls	r2, r2, #4
 1589 0018 0A43     		orrs	r2, r1
 1590 001a 1A60     		str	r2, [r3]
 536:Drivers/STM32G0xx_HAL_Driver/Src/stm32g0xx_hal_flash_ex.c ****     /* Enable instruction cache */
 1591              		.loc 1 536 5 view .LVU412
 1592 001c 1A68     		ldr	r2, [r3]
 1593 001e 0649     		ldr	r1, .L112+8
 1594 0020 0A40     		ands	r2, r1
 1595 0022 1A60     		str	r2, [r3]
 536:Drivers/STM32G0xx_HAL_Driver/Src/stm32g0xx_hal_flash_ex.c ****     /* Enable instruction cache */
 1596              		.loc 1 536 5 view .LVU413
 538:Drivers/STM32G0xx_HAL_Driver/Src/stm32g0xx_hal_flash_ex.c ****   }
 1597              		.loc 1 538 5 view .LVU414
 1598 0024 1968     		ldr	r1, [r3]
 1599 0026 8022     		movs	r2, #128
 1600 0028 9200     		lsls	r2, r2, #2
 1601 002a 0A43     		orrs	r2, r1
ARM GAS  C:\Users\matil\AppData\Local\Temp\cc9YAXdg.s 			page 48


 1602 002c 1A60     		str	r2, [r3]
 1603              	.L110:
 540:Drivers/STM32G0xx_HAL_Driver/Src/stm32g0xx_hal_flash_ex.c **** 
 1604              		.loc 1 540 1 is_stmt 0 view .LVU415
 1605              		@ sp needed
 1606 002e 7047     		bx	lr
 1607              	.L113:
 1608              		.align	2
 1609              	.L112:
 1610 0030 00200240 		.word	1073881088
 1611 0034 FFFDFFFF 		.word	-513
 1612 0038 FFF7FFFF 		.word	-2049
 1613              		.cfi_endproc
 1614              	.LFE184:
 1616              		.text
 1617              	.Letext0:
 1618              		.file 2 "c:\\gnu tools arm embedded\\arm-none-eabi\\include\\machine\\_default_types.h"
 1619              		.file 3 "c:\\gnu tools arm embedded\\arm-none-eabi\\include\\sys\\_stdint.h"
 1620              		.file 4 "Drivers/CMSIS/Device/ST/STM32G0xx/Include/system_stm32g0xx.h"
 1621              		.file 5 "Drivers/CMSIS/Device/ST/STM32G0xx/Include/stm32g071xx.h"
 1622              		.file 6 "Drivers/STM32G0xx_HAL_Driver/Inc/stm32g0xx_hal_def.h"
 1623              		.file 7 "Drivers/STM32G0xx_HAL_Driver/Inc/stm32g0xx_hal_flash.h"
 1624              		.file 8 "Drivers/STM32G0xx_HAL_Driver/Inc/stm32g0xx_hal.h"
ARM GAS  C:\Users\matil\AppData\Local\Temp\cc9YAXdg.s 			page 49

